
TankFu.elf:     file format elf32-avr

Sections:
Idx Name          Size      VMA       LMA       File off  Algn
  0 .data         00000054  00800100  0000ef6c  0000f06c  2**0
                  CONTENTS, ALLOC, LOAD, DATA
  1 .text         0000ef6c  00000000  00000000  00000100  2**8
                  CONTENTS, ALLOC, LOAD, READONLY, CODE
  2 .bss          00000f15  00800154  00800154  0000f0d4  2**5
                  ALLOC
  3 .stab         000009b4  00000000  00000000  0000f0c0  2**2
                  CONTENTS, READONLY, DEBUGGING
  4 .stabstr      0000034b  00000000  00000000  0000fa74  2**0
                  CONTENTS, READONLY, DEBUGGING
  5 .comment      00000011  00000000  00000000  0000fdbf  2**0
                  CONTENTS, READONLY
  6 .debug_aranges 00000810  00000000  00000000  0000fdd0  2**3
                  CONTENTS, READONLY, DEBUGGING
  7 .debug_info   0000c36d  00000000  00000000  000105e0  2**0
                  CONTENTS, READONLY, DEBUGGING
  8 .debug_abbrev 00001738  00000000  00000000  0001c94d  2**0
                  CONTENTS, READONLY, DEBUGGING
  9 .debug_line   00002943  00000000  00000000  0001e085  2**0
                  CONTENTS, READONLY, DEBUGGING
 10 .debug_frame  00001a64  00000000  00000000  000209c8  2**2
                  CONTENTS, READONLY, DEBUGGING
 11 .debug_str    00002388  00000000  00000000  0002242c  2**0
                  CONTENTS, READONLY, DEBUGGING
 12 .debug_loc    0000ab58  00000000  00000000  000247b4  2**0
                  CONTENTS, READONLY, DEBUGGING
 13 .debug_ranges 00000928  00000000  00000000  0002f310  2**3
                  CONTENTS, READONLY, DEBUGGING

Disassembly of section .text:

00000000 <__vectors>:
       0:	0c 94 b8 35 	jmp	0x6b70	; 0x6b70 <__ctors_end>
       4:	0c 94 23 36 	jmp	0x6c46	; 0x6c46 <__bad_interrupt>
       8:	0c 94 23 36 	jmp	0x6c46	; 0x6c46 <__bad_interrupt>
       c:	0c 94 23 36 	jmp	0x6c46	; 0x6c46 <__bad_interrupt>
      10:	0c 94 23 36 	jmp	0x6c46	; 0x6c46 <__bad_interrupt>
      14:	0c 94 23 36 	jmp	0x6c46	; 0x6c46 <__bad_interrupt>
      18:	0c 94 23 36 	jmp	0x6c46	; 0x6c46 <__bad_interrupt>
      1c:	0c 94 23 36 	jmp	0x6c46	; 0x6c46 <__bad_interrupt>
      20:	0c 94 b4 3a 	jmp	0x7568	; 0x7568 <__vector_8>
      24:	0c 94 23 36 	jmp	0x6c46	; 0x6c46 <__bad_interrupt>
      28:	0c 94 23 36 	jmp	0x6c46	; 0x6c46 <__bad_interrupt>
      2c:	0c 94 23 36 	jmp	0x6c46	; 0x6c46 <__bad_interrupt>
      30:	0c 94 23 36 	jmp	0x6c46	; 0x6c46 <__bad_interrupt>
      34:	0c 94 73 38 	jmp	0x70e6	; 0x70e6 <__vector_13>
      38:	0c 94 b2 38 	jmp	0x7164	; 0x7164 <__vector_14>
      3c:	0c 94 23 36 	jmp	0x6c46	; 0x6c46 <__bad_interrupt>
      40:	0c 94 23 36 	jmp	0x6c46	; 0x6c46 <__bad_interrupt>
      44:	0c 94 23 36 	jmp	0x6c46	; 0x6c46 <__bad_interrupt>
      48:	0c 94 23 36 	jmp	0x6c46	; 0x6c46 <__bad_interrupt>
      4c:	0c 94 23 36 	jmp	0x6c46	; 0x6c46 <__bad_interrupt>
      50:	0c 94 23 36 	jmp	0x6c46	; 0x6c46 <__bad_interrupt>
      54:	0c 94 23 36 	jmp	0x6c46	; 0x6c46 <__bad_interrupt>
      58:	0c 94 23 36 	jmp	0x6c46	; 0x6c46 <__bad_interrupt>
      5c:	0c 94 23 36 	jmp	0x6c46	; 0x6c46 <__bad_interrupt>
      60:	0c 94 23 36 	jmp	0x6c46	; 0x6c46 <__bad_interrupt>
      64:	0c 94 23 36 	jmp	0x6c46	; 0x6c46 <__bad_interrupt>
      68:	0c 94 23 36 	jmp	0x6c46	; 0x6c46 <__bad_interrupt>
      6c:	0c 94 23 36 	jmp	0x6c46	; 0x6c46 <__bad_interrupt>

00000070 <__trampolines_end>:
      70:	81 00       	.word	0x0081	; ????
      72:	45 00       	.word	0x0045	; ????
      74:	27 ff       	sbrs	r18, 7
      76:	24 ff       	sbrs	r18, 4
      78:	2a 90       	ld	r2, -Y
      7a:	2b 1c       	adc	r2, r11
      7c:	21 0c       	add	r2, r1
      7e:	22 fb       	bst	r18, 2
      80:	85 00       	.word	0x0085	; ????
      82:	84 00       	.word	0x0084	; ????
      84:	89 03       	fmulsu	r16, r17
      86:	88 8d       	ldd	r24, Y+24	; 0x18
      88:	81 09       	sbc	r24, r1
      8a:	6f 02       	muls	r22, r31
      8c:	44 42       	sbci	r20, 0x24	; 36
      8e:	47 00       	.word	0x0047	; ????
      90:	45 01       	movw	r8, r10
      92:	b0 83       	st	Z, r27
      94:	b3 00       	.word	0x00b3	; ????
      96:	b1 01       	movw	r22, r2
      98:	25 11       	cpse	r18, r5
      9a:	8a 1d       	adc	r24, r10
      9c:	8b 03       	fmulsu	r16, r19

0000009e <eeprom_format_table>:
      9e:	5a 55 01 20 01 01 00 38 08 00 00 00 00 00 00 00     ZU. ...8........
	...

000000be <patchCommands>:
      be:	98 3c 9b 3c f7 3c fb 3c 02 3d a3 3c a8 3c ad 3c     .<.<.<.<.=.<.<.<
      ce:	0a 3d b0 3c b3 3c b6 3c f1 3c f4 3c 1a 3d           .=.<.<.<.<.<.=

000000dc <fader>:
      dc:	00 40 88 91 d2 e4 ad b5 b6 be bf ff                 .@..........

000000e8 <__c.2845>:
      e8:	41 54 2b 43 49 50 53 45 4e 44 0d 0a 00              AT+CIPSEND...

000000f5 <__c.2847>:
      f5:	4f 4b 0d 0a 0d 0a 3e 00                             OK....>.

000000fd <__c.2841>:
      fd:	41 54 2b 43 49 50 4d 4f 44 45 3d 31 0d 0a 00        AT+CIPMODE=1...

0000010c <__c.2843>:
     10c:	4f 4b 0d 0a 00                                      OK...

00000111 <__c.2837>:
     111:	41 54 2b 43 49 50 53 54 41 52 54 3d 22 55 44 50     AT+CIPSTART="UDP
     121:	22 2c 22 31 39 32 2e 31 36 38 2e 34 2e 31 22 2c     ","192.168.4.1",
     131:	32 32 33 33 2c 31 30 30 31 0d 0a 00                 2233,1001...

0000013d <__c.2839>:
     13d:	4f 4b 0d 0a 00                                      OK...

00000142 <__c.2833>:
     142:	41 54 2b 43 49 50 53 54 41 5f 43 55 52 3d 22 31     AT+CIPSTA_CUR="1
     152:	39 32 2e 31 36 38 2e 34 2e 32 22 0d 0a 00           92.168.4.2"...

00000160 <__c.2835>:
     160:	4f 4b 0d 0a 00                                      OK...

00000165 <__c.2831>:
     165:	4f 4b 0d 0a 00                                      OK...

0000016a <__c.2827>:
     16a:	41 54 2b 43 57 4d 4f 44 45 5f 43 55 52 3d 31 0d     AT+CWMODE_CUR=1.
     17a:	0a 00                                               ..

0000017c <__c.2829>:
     17c:	4f 4b 0d 0a 00                                      OK...

00000181 <__c.2819>:
     181:	41 54 2b 43 49 50 53 45 4e 44 0d 0a 00              AT+CIPSEND...

0000018e <__c.2821>:
     18e:	4f 4b 0d 0a 0d 0a 3e 00                             OK....>.

00000196 <__c.2815>:
     196:	41 54 2b 43 49 50 4d 4f 44 45 3d 31 0d 0a 00        AT+CIPMODE=1...

000001a5 <__c.2817>:
     1a5:	4f 4b 0d 0a 00                                      OK...

000001aa <__c.2811>:
     1aa:	41 54 2b 43 49 50 53 54 41 52 54 3d 22 55 44 50     AT+CIPSTART="UDP
     1ba:	22 2c 22 31 39 32 2e 31 36 38 2e 34 2e 32 22 2c     ","192.168.4.2",
     1ca:	31 30 30 31 2c 32 32 33 33 2c 30 0d 0a 00           1001,2233,0...

000001d8 <__c.2813>:
     1d8:	4f 4b 0d 0a 00                                      OK...

000001dd <__c.2809>:
     1dd:	4f 4b 0d 0a 00                                      OK...

000001e2 <__c.2802>:
     1e2:	4f 4b 0d 0a 00                                      OK...

000001e7 <__c.2800>:
     1e7:	41 54 2b 43 49 50 41 50 4d 41 43 5f 43 55 52 3f     AT+CIPAPMAC_CUR?
     1f7:	0d 0a 00                                            ...

000001fa <__c.2796>:
     1fa:	41 54 2b 43 49 50 41 50 5f 43 55 52 3d 22 31 39     AT+CIPAP_CUR="19
     20a:	32 2e 31 36 38 2e 34 2e 31 22 0d 0a 00              2.168.4.1"...

00000217 <__c.2798>:
     217:	4f 4b 0d 0a 00                                      OK...

0000021c <__c.2792>:
     21c:	41 54 2b 43 57 4d 4f 44 45 5f 43 55 52 3d 32 0d     AT+CWMODE_CUR=2.
     22c:	0a 00                                               ..

0000022e <__c.2794>:
     22e:	4f 4b 0d 0a 00                                      OK...

00000233 <__c.2776>:
     233:	41 54 2b 43 57 51 41 50 0d 0a 00                    AT+CWQAP...

0000023e <__c.2778>:
     23e:	4f 4b 0d 0a 00                                      OK...

00000243 <__c.2772>:
     243:	41 54 2b 43 49 50 43 4c 4f 53 45 0d 0a 00           AT+CIPCLOSE...

00000251 <__c.2774>:
     251:	4f 4b 0d 0a 00                                      OK...

00000256 <__c.2768>:
     256:	41 54 2b 43 49 50 4d 4f 44 45 3d 30 0d 0a 00        AT+CIPMODE=0...

00000265 <__c.2770>:
     265:	4f 4b 0d 0a 00                                      OK...

0000026a <__c.2763>:
     26a:	2b 2b 2b 00                                         +++.

0000026e <__c.2730>:
     26e:	41 54 2b 55 41 52 54 5f 43 55 52 3d 31 34 34 30     AT+UART_CUR=1440
     27e:	30 2c 38 2c 31 2c 30 2c 30 0d 0a 00                 0,8,1,0,0...

0000028a <__c.2732>:
     28a:	4f 4b 0d 0a 00                                      OK...

0000028f <__c.2724>:
     28f:	41 54 0d 0a 00                                      AT...

00000294 <__c.2726>:
     294:	4f 4b 0d 0a 00                                      OK...

00000299 <bauds>:
     299:	72 01 f6 00 b8 00 5c 00 3c 00 2c 00 1e 00           r.....\.<.,...

000002a7 <strCredits>:
     2a7:	54 41 4e 4b 20 46 55 20 56 33 2e 30 20 46 4f 52     TANK FU V3.0 FOR
     2b7:	20 55 5a 45 42 4f 58 00 00 00 00 00 50 52 4f 47      UZEBOX.....PROG
     2c7:	52 41 4d 4d 49 4e 47 20 41 4e 44 20 44 45 53 49     RAMMING AND DESI
     2d7:	47 4e 00 00 4c 41 57 52 45 4e 43 45 20 42 52 4f     GN..LAWRENCE BRO
     2e7:	4f 4b 53 00 00 00 00 00 4c 4f 4f 4b 49 4e 47 20     OKS.....LOOKING 
     2f7:	46 4f 52 20 57 49 46 49 20 44 45 56 49 43 45 2e     FOR WIFI DEVICE.
     307:	2e 2e 00 23 00                                      ...#.

0000030c <default_scores>:
     30c:	00 01 14 0d 00 01 02 14 0e 00 02 03 14 0f 00 03     ................
     31c:	04 14 10 00 04 05 14 11 00 05 06 14 12 00           ..............

0000032a <default_handles>:
     32a:	55 5a 45 4c 4a 42 41 41 41 42 42 42 43 43 43 44     UZELJBAAABBBCCCD
     33a:	44 44 45 45 45 46 46 46 47 47 47 43 50 55           DDEEEFFFGGGCPU

00000348 <strLevels>:
     348:	20 20 20 42 4f 4f 54 20 43 41 4d 50 20 20 20 00        BOOT CAMP   .
     358:	20 54 48 45 20 42 52 49 43 4b 59 41 52 44 20 00      THE BRICKYARD .
     368:	20 20 20 56 45 4c 4f 43 49 54 59 20 20 20 20 00        VELOCITY    .
     378:	20 20 20 54 48 45 20 4d 41 5a 45 20 20 20 20 00        THE MAZE    .
     388:	20 20 20 52 49 43 48 4f 43 48 45 54 20 20 20 00        RICHOCHET   .
     398:	20 54 48 45 20 48 4f 4e 45 59 20 50 4f 54 20 00      THE HONEY POT .
     3a8:	20 20 46 4f 43 41 4c 20 50 4f 49 4e 54 20 20 00       FOCAL POINT  .
     3b8:	49 54 27 53 20 4e 4f 54 20 46 41 49 52 21 20 00     IT'S NOT FAIR! .
     3c8:	20 20 4d 55 43 48 20 42 45 54 54 45 52 20 20 00       MUCH BETTER  .
     3d8:	20 20 20 54 48 45 20 43 41 4e 41 4c 20 20 20 00        THE CANAL   .
     3e8:	20 20 54 48 45 20 48 41 52 42 4f 55 52 20 20 00       THE HARBOUR  .

000003f8 <strPaused>:
     3f8:	50 41 55 53 45 44 00                                PAUSED.

000003ff <strExit>:
     3ff:	42 41 49 4c 20 2d 20 58 00                          BAIL - X.

00000408 <strTotal>:
     408:	54 4f 54 41 4c 3a 00                                TOTAL:.

0000040f <strScore>:
     40f:	53 43 4f 52 45 3a 00                                SCORE:.

00000416 <strFinalScore>:
     416:	46 49 4e 41 4c 20 53 43 4f 52 45 00                 FINAL SCORE.

00000422 <strBy>:
     422:	42 59 00                                            BY.

00000425 <strOwns>:
     425:	4f 57 4e 53 00                                      OWNS.

0000042a <strChangeHandle>:
     42a:	45 44 49 54 20 2d 20 55 50 2f 44 4f 57 4e 00        EDIT - UP/DOWN.

00000439 <strPlayer2>:
     439:	50 32 00                                            P2.

0000043c <strPlayer1>:
     43c:	50 31 00                                            P1.

0000043f <strVertSep>:
     43f:	3b 00                                               ;.

00000441 <strUnderline>:
     441:	5f 5f 5f 5f 5f 5f 5f 5f 5f 5f 5f 00                 ___________.

0000044d <strHandlesTitle>:
     44d:	45 44 49 54 20 48 41 4e 44 4c 45 00                 EDIT HANDLE.

00000459 <strHighscores>:
     459:	54 41 4e 4b 20 52 41 4e 4b 00                       TANK RANK.

00000463 <strCopyright>:
     463:	32 30 31 35 20 4c 41 57 52 45 4e 43 45 20 42 52     2015 LAWRENCE BR
     473:	4f 4f 4b 53 00                                      OOKS.

00000478 <strSelectHandle>:
     478:	53 45 4c 45 43 54 20 2d 20 53 54 41 52 54 00        SELECT - START.

00000487 <strCancelHandle>:
     487:	43 41 4e 43 45 4c 20 2d 20 58 00                    CANCEL - X.

00000492 <strReset>:
     492:	52 45 53 45 54 20 44 45 46 41 55 4c 54 53 20 2d     RESET DEFAULTS -
     4a2:	20 53 4c 20 28 35 53 29 00                           SL (5S).

000004ab <strConfirmHandle>:
     4ab:	43 4f 4e 46 49 52 4d 20 2d 20 41 2f 53 54 41 52     CONFIRM - A/STAR
     4bb:	54 00                                               T.

000004bd <strNetworkError>:
     4bd:	4e 45 54 57 4f 52 4b 20 45 52 52 4f 52 00           NETWORK ERROR.

000004cb <strEnterGameId>:
     4cb:	45 4e 54 45 52 20 48 4f 53 54 20 47 41 4d 45 20     ENTER HOST GAME 
     4db:	49 44 00                                            ID.

000004de <strConnecting>:
     4de:	43 4f 4e 4e 45 43 54 49 4e 47 2e 2e 2e 00           CONNECTING....

000004ec <strWaitingForNetOppenent>:
     4ec:	57 41 49 54 49 4e 47 20 4f 4e 20 4c 41 4e 20 4f     WAITING ON LAN O
     4fc:	50 50 4f 4e 45 4e 54 2e 2e 2e 00                    PPONENT....

00000507 <strShareGameId>:
     507:	53 48 41 52 45 20 59 4f 55 52 20 47 41 4d 45 20     SHARE YOUR GAME 
     517:	49 44 00                                            ID.

0000051a <strJoinNetGame>:
     51a:	4a 4f 49 4e 20 4c 41 4e 20 47 41 4d 45 00           JOIN LAN GAME.

00000528 <strHostNetGame>:
     528:	48 4f 53 54 20 4c 41 4e 20 47 41 4d 45 00           HOST LAN GAME.

00000536 <str2Player>:
     536:	50 4c 41 59 45 52 20 56 53 20 50 4c 41 59 45 52     PLAYER VS PLAYER
	...

00000547 <str1Player>:
     547:	50 4c 41 59 45 52 20 56 53 20 43 50 55 00           PLAYER VS CPU.

00000555 <my_patches>:
     555:	00 00 00 5d 06 00 00 00 00 00 00 00 46 06 00 00     ...]........F...
     565:	00 00 00 00 00 35 06 00 00 00 00 00 00 00 35 06     .....5........5.
     575:	00 00 00 00 00 00 00 35 06 00 00 00 00 00 00 00     .......5........
     585:	46 06 00 00 00 00 00 00 00 ce 06 00 00 00 00 00     F...............
     595:	00 00 9d 05 00 00 00 00                             ........

0000059d <ad_alarm>:
     59d:	00 02 02 00 04 32 01 03 01 01 03 01 01 03 01 01     .....2..........
     5ad:	03 01 01 03 01 01 03 01 01 03 01 01 03 01 01 03     ................
     5bd:	01 01 03 01 01 03 01 01 03 01 01 03 01 01 03 01     ................
     5cd:	01 03 01 01 03 01 01 04 01 01 04 01 01 04 01 01     ................
     5dd:	04 01 01 04 01 01 04 01 01 04 01 01 04 01 01 04     ................
     5ed:	01 01 04 01 01 04 01 01 04 01 01 04 01 01 04 01     ................
     5fd:	01 04 01 01 03 01 01 03 01 01 03 01 01 03 01 01     ................
     60d:	03 01 01 03 01 01 03 01 01 03 01 01 03 01 01 03     ................
     61d:	01 01 03 01 01 03 01 01 03 01 01 03 01 01 03 01     ................
     62d:	01 03 01 01 05 00 00 ff                             ........

00000635 <ad_navigate>:
     635:	00 02 04 00 07 70 00 00 d8 00 08 3c 01 05 00 00     .....p.....<....
     645:	ff                                                  .

00000646 <ad_cannonball>:
     646:	00 07 7f 00 08 32 00 02 03 00 00 f0 00 0c 0c 00     .....2..........
     656:	0b e8 08 00 e0 00 ff                                .......

0000065d <ad_brick_explode>:
     65d:	00 07 7f 00 02 03 00 00 ff 00 07 64 00 08 32 01     ...........d..2.
     66d:	04 04 01 04 04 01 04 04 01 04 04 01 04 04 01 04     ................
     67d:	04 01 04 04 01 04 04 01 04 04 03 07 50 00 08 2d     ............P..-
     68d:	01 04 04 01 04 04 01 04 04 01 04 04 01 04 04 01     ................
     69d:	04 04 01 04 04 01 04 04 01 04 04 03 07 3c 00 08     .............<..
     6ad:	28 01 04 04 01 04 04 01 04 04 01 04 04 01 04 04     (...............
     6bd:	01 04 04 01 04 04 01 04 04 01 04 04 01 05 00 00     ................
     6cd:	ff                                                  .

000006ce <ad_tank_explode>:
     6ce:	00 07 7f 00 02 03 00 00 ff 00 08 41 01 04 04 01     ...........A....
     6de:	04 04 01 04 04 01 04 04 01 04 04 01 04 04 01 04     ................
     6ee:	04 01 04 04 01 04 04 03 07 64 00 08 3c 01 04 04     .........d..<...
     6fe:	01 04 04 01 04 04 01 04 04 01 04 04 01 04 04 01     ................
     70e:	04 04 01 04 04 01 04 04 03 07 50 00 08 37 01 04     ..........P..7..
     71e:	04 01 04 04 01 04 04 01 04 04 01 04 04 01 04 04     ................
     72e:	01 04 04 01 04 04 01 04 04 03 07 32 00 08 32 01     ...........2..2.
     73e:	04 04 01 04 04 01 04 04 01 04 04 01 04 04 01 04     ................
     74e:	04 01 04 04 01 04 04 01 04 04 03 07 28 00 08 2d     ............(..-
     75e:	01 04 04 01 04 04 01 04 04 01 04 04 01 04 04 01     ................
     76e:	04 04 01 04 04 01 04 04 01 04 04 03 07 14 00 08     ................
     77e:	28 01 04 04 01 04 04 01 04 04 01 04 04 01 04 04     (...............
     78e:	01 04 04 01 04 04 01 04 04 01 04 04 01 05 00 00     ................
     79e:	ff                                                  .

0000079f <level_data>:
     79f:	02 02 02 02 02 02 02 02 02 02 02 02 02 02 02 02     ................
     7af:	02 02 02 02 02 02 02 02 02 02 02 02 02 02 02 00     ................
	...
     7d7:	00 00 00 02 02 00 00 00 06 05 00 00 00 00 00 00     ................
	...
     7ef:	00 00 42 42 42 42 42 42 00 02 02 00 00 06 02 02     ..BBBBBB........
     7ff:	05 00 00 00 00 00 00 00 00 00 00 00 00 00 00 00     ................
     80f:	42 4d 4d 4d 4d 42 00 02 02 00 06 02 02 02 02 05     BMMMMB..........
	...
     82b:	00 00 42 4d 4d 4d 4d 42 00 02 02 00 04 02 02 02     ..BMMMMB........
     83b:	02 03 00 00 00 00 00 00 00 00 00 00 00 00 00 00     ................
     84b:	42 4d 4d 4d 4d 42 00 02 02 00 00 04 02 02 03 00     BMMMMB..........
	...
     867:	00 00 42 4d 4d 4d 4d 42 00 02 02 00 00 00 04 03     ..BMMMMB........
	...
     887:	42 42 42 42 42 42 00 02 02 00 00 00 00 00 00 00     BBBBBB..........
     897:	00 00 00 00 00 00 02 02 00 00 00 00 00 00 00 00     ................
     8a7:	00 00 00 00 00 02 02 00 00 00 00 00 00 00 00 00     ................
     8b7:	00 00 00 00 02 02 00 00 00 00 00 00 00 00 00 00     ................
     8c7:	00 00 00 02 02 00 00 00 00 00 00 00 01 01 01 01     ................
     8d7:	01 00 02 02 00 01 01 01 01 01 00 00 00 00 00 00     ................
     8e7:	00 02 02 00 00 00 00 00 00 00 01 01 01 01 01 00     ................
     8f7:	02 02 00 01 01 01 01 01 00 00 00 00 00 00 00 02     ................
     907:	02 00 00 58 00 00 00 00 01 01 01 01 01 00 02 02     ...X............
     917:	00 01 01 01 01 01 00 00 00 63 00 00 00 02 02 00     .........c......
     927:	00 00 00 00 00 00 01 01 01 01 01 00 02 02 00 01     ................
     937:	01 01 01 01 00 00 00 00 00 00 00 02 02 00 00 00     ................
     947:	00 00 00 00 01 01 01 01 01 00 02 02 00 01 01 01     ................
     957:	01 01 00 00 00 00 00 00 00 02 02 00 00 00 00 00     ................
	...
     96f:	02 02 00 00 00 00 00 00 00 00 00 00 00 00 00 02     ................
     97f:	02 00 00 00 00 00 00 00 00 00 00 00 00 00 02 02     ................
	...
     99b:	00 02 02 00 42 42 42 42 42 42 00 00 00 00 00 00     ....BBBBBB......
	...
     9b3:	00 00 06 05 00 00 00 02 02 00 42 4d 4d 4d 4d 42     ..........BMMMMB
	...
     9cf:	00 00 00 06 02 02 05 00 00 02 02 00 42 4d 4d 4d     ............BMMM
     9df:	4d 42 00 00 00 00 00 00 00 00 00 00 00 00 00 00     MB..............
     9ef:	06 02 02 02 02 05 00 02 02 00 42 4d 2c 4d 4d 42     ..........BM,MMB
	...
     a0b:	00 00 04 02 02 02 02 03 00 02 02 00 42 4d 4d 4d     ............BMMM
     a1b:	4d 42 00 00 00 00 00 00 00 00 00 00 00 00 00 00     MB..............
     a2b:	00 04 02 02 03 00 00 02 02 00 42 42 42 42 42 42     ..........BBBBBB
	...
     a4b:	04 03 00 00 00 02 02 00 00 00 00 00 00 00 00 00     ................
	...
     a6b:	00 00 00 02 02 02 02 02 02 02 02 02 02 02 02 02     ................
     a7b:	02 02 02 02 02 02 02 02 02 02 02 02 02 02 02 02     ................
     a8b:	02 02 02 02 02 02 02 02 02 02 02 02 02 02 02 02     ................
     a9b:	02 02 02 02 02 02 02 02 02 02 02 02 02 02 02 02     ................
     aab:	02 01 01 01 00 00 00 00 00 00 00 00 00 00 00 00     ................
	...
     ac7:	00 02 02 01 01 01 00 00 00 00 00 00 00 00 00 00     ................
	...
     ae3:	00 00 00 02 02 01 01 01 01 01 01 01 01 00 00 01     ................
     af3:	01 01 01 01 01 01 01 00 00 01 01 01 01 01 01 01     ................
     b03:	01 02 02 01 01 01 01 01 01 01 01 00 00 01 01 01     ................
     b13:	01 01 01 01 01 00 00 01 01 01 01 01 01 01 01 02     ................
     b23:	02 01 01 01 01 01 01 01 01 00 00 01 01 42 42 42     .............BBB
     b33:	42 01 01 00 00 01 01 01 01 01 01 01 01 02 02 01     B...............
     b43:	00 00 00 00 01 01 01 00 00 01 01 42 4d 4d 42 01     ...........BMMB.
     b53:	01 00 00 01 01 01 00 00 00 00 01 02 02 01 00 00     ................
     b63:	00 00 01 01 01 00 00 01 01 42 2c 4d 42 01 01 00     .........B,MB...
     b73:	00 01 01 01 00 00 00 00 01 02 02 01 00 00 00 00     ................
     b83:	01 01 01 00 00 01 01 42 4d 4d 42 01 01 00 00 01     .......BMMB.....
     b93:	01 01 00 00 00 00 01 02 02 01 00 00 00 00 01 01     ................
     ba3:	01 00 00 01 01 42 42 42 42 01 01 00 00 01 01 01     .....BBBB.......
     bb3:	00 00 00 00 01 02 02 01 00 00 00 00 00 00 01 00     ................
     bc3:	00 01 01 01 01 01 01 01 01 00 00 01 00 00 00 00     ................
     bd3:	00 00 01 02 02 01 00 58 00 00 09 00 01 00 00 01     .......X........
     be3:	01 01 01 01 01 01 01 00 00 01 00 09 00 00 00 00     ................
     bf3:	01 02 02 01 00 00 00 00 00 00 01 00 00 00 00 00     ................
     c03:	00 00 00 00 00 00 00 01 00 00 00 63 00 00 01 02     ...........c....
     c13:	02 01 00 00 00 00 01 01 01 00 00 01 01 01 01 01     ................
     c23:	01 01 01 00 00 01 01 01 00 00 00 00 01 02 02 01     ................
     c33:	00 00 00 00 01 01 01 00 00 01 01 01 01 01 01 01     ................
     c43:	01 00 00 01 01 01 00 00 00 00 01 02 02 01 00 00     ................
     c53:	00 00 01 01 01 00 00 01 01 42 42 42 42 01 01 00     .........BBBB...
     c63:	00 01 01 01 00 00 00 00 01 02 02 01 00 00 00 00     ................
     c73:	01 01 01 00 00 01 01 42 4d 4d 42 01 01 00 00 01     .......BMMB.....
     c83:	01 01 00 00 00 00 01 02 02 01 01 01 01 01 01 01     ................
     c93:	01 00 00 01 01 42 4d 4d 42 01 01 00 00 01 01 01     .....BMMB.......
     ca3:	01 01 01 01 01 02 02 01 01 01 01 01 01 01 01 00     ................
     cb3:	00 01 01 42 4d 4d 42 01 01 00 00 01 01 01 01 01     ...BMMB.........
     cc3:	01 01 01 02 02 01 01 01 01 01 01 01 01 00 00 01     ................
     cd3:	01 42 42 42 42 01 01 00 00 01 01 01 01 01 01 01     .BBBB...........
     ce3:	01 02 02 01 01 01 01 01 01 01 01 00 00 01 01 01     ................
     cf3:	01 01 01 01 01 00 00 01 01 01 01 01 01 01 01 02     ................
     d03:	02 01 01 01 01 01 01 01 01 00 00 01 01 01 01 01     ................
     d13:	01 01 01 00 00 01 01 01 01 01 01 01 01 02 02 01     ................
     d23:	01 01 00 00 00 00 00 00 00 00 00 00 00 00 00 00     ................
	...
     d3b:	01 01 01 02 02 01 01 01 00 00 00 00 00 00 00 00     ................
	...
     d57:	00 00 01 01 01 02 02 02 02 02 02 02 02 02 02 02     ................
     d67:	02 02 02 02 02 02 02 02 02 02 02 02 02 02 02 02     ................
     d77:	02 02 02 02 02 02 02 02 02 02 02 02 02 02 02 02     ................
     d87:	02 02 02 02 02 02 02 02 02 02 02 02 02 02 02 02     ................
     d97:	02 02 02 00 00 00 00 00 00 00 00 00 00 00 00 00     ................
	...
     db3:	00 00 00 02 02 00 00 00 00 00 00 00 00 00 00 00     ................
	...
     dd3:	00 02 02 00 00 00 00 00 00 00 00 00 00 00 00 00     ................
	...
     def:	00 00 00 02 02 00 00 00 00 00 00 00 00 00 00 00     ................
	...
     e0f:	00 02 02 00 00 00 00 00 00 00 00 00 00 00 00 00     ................
	...
     e2b:	00 00 00 02 02 00 00 00 00 00 00 00 00 00 00 00     ................
	...
     e4b:	00 02 02 01 01 01 01 01 01 00 00 00 00 00 00 00     ................
	...
     e63:	00 01 00 00 00 00 01 02 02 01 00 00 00 00 01 00     ................
	...
     e7f:	00 00 00 01 00 00 00 00 01 02 02 01 00 00 00 00     ................
     e8f:	01 00 00 00 00 02 00 00 00 00 00 00 02 00 00 00     ................
     e9f:	00 01 00 07 00 00 01 02 02 01 00 58 00 00 01 00     ...........X....
     eaf:	00 00 00 02 00 00 00 00 00 00 02 00 00 00 00 01     ................
     ebf:	00 00 00 00 01 02 02 01 00 00 00 00 01 00 00 00     ................
     ecf:	00 02 00 00 00 00 00 00 02 00 00 00 00 01 00 00     ................
     edf:	00 00 01 02 02 01 00 00 00 00 01 00 00 00 00 02     ................
     eef:	02 02 02 02 02 02 02 00 00 00 00 01 00 00 00 00     ................
     eff:	01 02 02 01 00 00 00 00 01 00 00 00 00 02 00 00     ................
     f0f:	00 00 00 00 02 00 00 00 00 01 00 00 00 00 01 02     ................
     f1f:	02 01 00 00 00 00 01 00 00 00 00 02 00 00 00 00     ................
     f2f:	00 00 02 00 00 00 00 01 00 00 00 00 01 02 02 01     ................
     f3f:	00 00 00 00 01 00 00 00 00 02 00 00 00 00 00 00     ................
     f4f:	02 00 00 00 00 01 00 63 00 00 01 02 02 01 00 00     .......c........
     f5f:	07 00 01 00 00 00 00 00 00 00 00 00 00 00 00 00     ................
     f6f:	00 00 00 01 00 00 00 00 01 02 02 01 00 00 00 00     ................
     f7f:	01 00 00 00 00 00 00 00 00 00 00 00 00 00 00 00     ................
     f8f:	00 01 00 00 00 00 01 02 02 01 00 00 00 00 01 00     ................
	...
     fab:	00 00 00 01 01 01 01 01 01 02 02 00 00 00 00 00     ................
	...
     fcf:	00 00 00 02 02 00 00 00 00 00 00 00 00 00 00 00     ................
	...
     fef:	00 02 02 00 00 00 00 00 00 00 00 00 00 00 00 00     ................
	...
    100b:	00 00 00 02 02 00 00 00 00 00 00 00 00 00 00 00     ................
	...
    102b:	00 02 02 00 00 00 00 00 00 00 00 00 00 00 00 00     ................
	...
    1047:	00 00 00 02 02 02 02 02 02 02 02 02 02 02 02 02     ................
    1057:	02 02 02 02 02 02 02 02 02 02 02 02 02 02 02 02     ................
    1067:	02 02 02 02 02 02 02 02 02 02 02 02 02 02 02 02     ................
    1077:	02 02 02 02 02 02 02 02 02 02 02 02 02 02 02 02     ................
    1087:	02 00 00 00 42 4d 4d 4d 42 00 00 00 00 00 00 00     ....BMMMB.......
    1097:	00 00 00 00 00 42 4d 4d 4d 42 00 00 00 02 02 00     .....BMMMB......
    10a7:	08 00 42 4d 4d 4d 42 00 00 00 00 00 00 00 00 00     ..BMMMB.........
    10b7:	00 00 00 42 4d 4d 4d 42 00 08 00 02 02 00 00 00     ...BMMMB........
    10c7:	42 4d 4d 4d 42 00 01 01 01 00 00 00 00 01 01 01     BMMMB...........
    10d7:	00 42 4d 4d 4d 42 00 00 00 02 02 02 02 02 02 42     .BMMMB.........B
    10e7:	42 42 02 00 01 01 01 00 02 02 00 01 01 01 00 02     BB..............
    10f7:	42 42 42 02 02 02 02 02 02 00 00 00 00 00 00 00     BBB.............
    1107:	02 00 01 01 01 00 02 02 00 01 01 01 00 02 00 00     ................
    1117:	00 00 00 00 00 02 02 00 01 01 01 01 01 00 02 00     ................
    1127:	00 00 00 00 02 02 00 00 00 00 00 02 00 01 01 01     ................
    1137:	01 01 00 02 02 00 01 01 01 01 01 00 02 00 00 00     ................
    1147:	02 02 02 02 02 02 00 00 00 02 00 01 01 01 01 01     ................
    1157:	00 02 02 00 01 01 01 01 01 00 02 00 00 00 00 00     ................
    1167:	00 00 00 00 00 00 00 02 00 01 01 01 01 01 00 02     ................
    1177:	02 00 00 00 00 00 00 00 00 00 00 00 00 00 00 00     ................
	...
    1193:	00 02 02 02 02 02 02 00 00 00 00 00 00 00 00 00     ................
	...
    11ab:	00 00 00 02 02 02 02 02 00 00 00 00 02 00 00 00     ................
    11bb:	00 00 58 00 02 00 00 00 00 02 00 00 00 00 00 00     ..X.............
    11cb:	00 02 00 00 00 00 00 00 00 00 02 00 00 00 02 00     ................
    11db:	00 00 02 00 00 00 00 02 63 00 00 02 00 00 00 02     ........c.......
	...
    11f3:	02 00 00 00 02 00 00 00 02 02 02 02 02 02 00 00     ................
    1203:	00 02 00 00 00 02 00 00 00 00 02 02 02 02 02 00     ................
    1213:	00 00 02 00 00 00 00 00 00 00 00 00 00 00 00 02     ................
    1223:	00 00 00 02 02 02 02 02 02 4d 4d 4d 42 00 00 00     .........MMMB...
    1233:	02 00 00 00 00 00 00 00 00 00 00 00 00 02 00 00     ................
    1243:	00 42 4d 4d 4d 02 02 4d 4d 4d 42 00 00 00 02 00     .BMMM..MMMB.....
	...
    125b:	00 00 00 02 00 00 00 42 4d 4d 4d 02 02 4d 2c 4d     .......BMMM..M,M
    126b:	42 00 00 00 02 00 00 00 02 02 02 02 02 02 00 00     B...............
    127b:	00 02 00 00 00 42 4d 4d 4d 02 02 4d 4d 4d 02 00     .....BMMM..MMM..
	...
    1293:	02 02 00 00 00 00 00 00 00 00 00 02 4d 4d 4d 02     ............MMM.
    12a3:	02 4d 4d 4d 02 00 00 01 01 01 00 00 00 00 02 02     .MMM............
    12b3:	00 00 00 00 01 01 01 00 00 02 4d 4d 4d 02 02 42     ..........MMM..B
    12c3:	42 42 02 00 00 01 01 01 00 00 00 00 02 02 00 00     BB..............
    12d3:	00 00 01 01 01 00 00 02 42 42 42 02 02 00 00 00     ........BBB.....
    12e3:	02 00 00 01 01 01 00 00 00 00 00 00 00 00 00 00     ................
    12f3:	01 01 01 00 00 02 00 00 00 02 02 00 08 00 02 00     ................
	...
    130b:	09 00 00 00 00 00 00 00 00 00 00 02 00 08 00 02     ................
    131b:	02 00 00 00 02 00 00 00 00 00 00 00 00 00 00 00     ................
	...
    1333:	00 02 00 00 00 02 02 02 02 02 02 02 02 02 02 02     ................
    1343:	02 02 02 02 02 02 02 02 02 02 02 02 02 02 02 02     ................
    1353:	02 02 02 02 02 02 02 02 02 02 02 02 02 02 02 02     ................
    1363:	02 02 02 02 02 02 02 02 02 02 02 02 02 02 02 02     ................
    1373:	02 02 02 02 02 03 00 00 00 00 00 00 00 00 00 00     ................
	...
    138f:	04 02 02 02 02 02 03 00 00 00 00 00 00 00 00 00     ................
	...
    13ab:	00 00 00 04 02 02 02 03 00 00 00 00 00 00 00 00     ................
	...
    13cb:	00 00 04 02 02 00 00 00 00 00 00 06 05 00 00 00     ................
    13db:	00 00 00 08 00 00 00 00 00 00 00 00 00 00 00 00     ................
    13eb:	00 02 02 00 00 00 00 00 06 02 02 05 00 00 00 00     ................
	...
    1407:	00 00 00 02 02 00 00 00 00 06 02 4d 4d 02 05 00     ...........MM...
	...
    1427:	00 02 02 00 00 00 00 04 02 4d 4d 02 03 00 00 00     .........MM.....
	...
    1443:	00 00 00 02 02 00 00 00 00 00 04 02 02 03 00 00     ................
	...
    1463:	00 02 02 00 00 00 00 00 00 04 03 00 00 00 00 00     ................
    1473:	06 05 00 00 00 00 00 00 00 00 00 00 00 00 00 02     ................
    1483:	02 00 00 00 00 00 00 00 00 00 00 00 00 06 02 02     ................
    1493:	05 00 00 00 00 00 00 00 00 00 00 00 00 02 02 00     ................
	...
    14ab:	00 00 06 02 01 01 02 05 00 00 00 00 00 00 00 00     ................
    14bb:	00 00 00 02 02 00 00 58 00 00 00 00 00 00 00 00     .......X........
    14cb:	04 02 01 01 02 03 00 00 00 00 00 00 00 63 00 00     .............c..
    14db:	00 02 02 00 00 00 00 00 00 00 00 00 00 00 00 04     ................
    14eb:	02 02 03 00 00 00 00 00 00 00 00 00 00 00 00 02     ................
    14fb:	02 00 00 00 00 00 00 00 00 00 00 00 00 00 04 03     ................
	...
    1517:	00 02 02 00 00 00 00 00 00 00 00 00 00 00 00 00     ................
    1527:	00 00 00 00 00 00 00 06 05 00 00 00 00 00 00 02     ................
    1537:	02 00 00 00 00 00 00 00 00 00 00 00 00 00 00 00     ................
    1547:	00 00 00 00 06 02 02 05 00 00 00 00 00 02 02 00     ................
	...
    1567:	00 06 02 4d 4d 02 05 00 00 00 00 02 02 00 00 00     ...MM...........
	...
    1583:	00 00 00 04 02 4d 4d 02 03 00 00 00 00 02 02 00     .....MM.........
	...
    15a3:	00 00 04 02 02 03 00 00 00 00 00 02 02 00 00 00     ................
	...
    15bb:	00 00 07 00 00 00 00 00 00 04 03 00 00 00 00 00     ................
    15cb:	00 02 02 05 00 00 00 00 00 00 00 00 00 00 00 00     ................
	...
    15e7:	00 00 06 02 02 02 05 00 00 00 00 00 00 00 00 00     ................
	...
    1603:	00 00 00 06 02 02 02 02 02 05 00 00 00 00 00 00     ................
	...
    1623:	06 02 02 02 02 02 02 02 02 02 02 02 02 02 02 02     ................
    1633:	02 02 02 02 02 02 02 02 02 02 02 02 02 02 02 02     ................
    1643:	02 02 02 02 02 02 02 02 02 02 02 02 02 02 02 02     ................
    1653:	02 02 02 02 02 02 02 02 02 02 02 02 02 02 02 02     ................
    1663:	02 00 00 00 00 00 00 00 00 00 00 04 02 02 02 02     ................
    1673:	02 02 03 00 00 00 00 00 00 00 00 00 00 02 02 00     ................
	...
    168b:	00 00 04 02 02 02 02 03 00 00 00 00 00 00 00 00     ................
    169b:	00 00 00 02 02 00 00 01 01 01 01 00 00 00 00 00     ................
    16ab:	00 04 02 02 03 00 00 00 00 00 00 01 01 01 01 00     ................
    16bb:	00 02 02 00 00 01 01 01 01 00 00 00 00 00 00 00     ................
    16cb:	04 03 00 00 00 00 00 00 00 01 01 01 01 00 00 02     ................
    16db:	02 00 00 01 01 01 01 00 00 00 00 00 00 00 00 00     ................
    16eb:	00 00 00 00 00 00 00 01 01 01 01 00 00 02 02 00     ................
    16fb:	00 01 01 01 01 00 00 00 00 00 00 00 00 00 00 00     ................
    170b:	00 00 00 00 00 01 01 01 01 00 00 02 02 00 00 00     ................
	...
    1733:	00 02 02 00 00 00 00 00 00 00 00 00 00 02 00 00     ................
    1743:	00 00 00 00 02 00 00 00 00 00 00 00 00 00 00 02     ................
    1753:	02 00 00 00 00 00 00 00 00 00 00 02 42 42 42 42     ............BBBB
    1763:	42 42 02 00 00 00 00 00 00 00 00 00 00 02 02 00     BB..............
	...
    177b:	00 02 4d 4d 4d 4d 4d 4d 02 00 00 00 00 00 00 00     ..MMMMMM........
    178b:	00 00 00 02 02 00 58 00 00 00 00 00 00 00 00 02     ......X.........
    179b:	4d 4d 4d 4d 4d 4d 02 00 00 00 00 00 00 00 63 00     MMMMMM........c.
    17ab:	00 02 02 00 00 00 00 00 00 00 00 00 00 02 4d 4d     ..............MM
    17bb:	2c 4d 4d 4d 02 00 00 00 00 00 00 00 00 00 00 02     ,MMM............
    17cb:	02 00 00 00 00 00 00 00 00 00 00 02 4d 4d 4d 4d     ............MMMM
    17db:	4d 4d 02 00 00 00 00 00 00 00 00 00 00 02 02 00     MM..............
	...
    17f3:	00 02 42 42 42 42 42 42 02 00 00 00 00 00 00 00     ..BBBBBB........
    1803:	00 00 00 02 02 00 00 00 00 00 00 00 00 00 00 02     ................
    1813:	00 00 00 00 00 00 02 00 00 00 00 00 00 00 00 00     ................
    1823:	00 02 02 00 00 00 00 00 00 00 00 00 00 02 00 07     ................
    1833:	00 00 09 00 02 00 00 00 00 00 00 00 00 00 00 02     ................
    1843:	02 00 00 00 00 00 00 00 00 00 00 02 05 00 00 00     ................
    1853:	00 06 02 00 00 00 00 00 00 00 00 00 00 02 02 00     ................
    1863:	00 00 00 01 01 01 01 01 00 02 02 05 00 00 06 02     ................
    1873:	02 00 01 01 01 01 01 00 00 00 00 02 02 00 00 00     ................
    1883:	00 01 01 01 01 01 00 02 02 02 02 02 02 02 02 00     ................
    1893:	01 01 01 01 01 00 00 00 00 02 02 00 00 00 00 01     ................
    18a3:	01 00 00 00 00 00 00 00 00 00 00 00 00 00 00 00     ................
    18b3:	00 01 01 00 00 00 00 02 02 00 00 00 00 01 01 00     ................
    18c3:	08 00 00 00 00 00 00 00 00 00 00 00 00 08 00 01     ................
    18d3:	01 00 00 00 00 02 02 00 00 00 00 01 01 00 00 00     ................
	...
    18ef:	00 01 01 00 00 00 00 02 02 00 00 00 00 00 00 00     ................
	...
    1913:	00 02 02 02 02 02 02 02 02 02 02 02 02 02 02 02     ................
    1923:	02 02 02 02 02 02 02 02 02 02 02 02 02 02 02 02     ................
    1933:	02 02 02 02 02 02 02 02 02 02 02 02 02 02 02 02     ................
    1943:	02 02 02 02 02 02 02 02 02 02 02 02 02 02 02 02     ................
    1953:	03 00 00 00 00 00 00 00 00 04 02 02 02 02 02 02     ................
    1963:	03 00 00 00 00 00 00 00 00 04 02 02 02 03 00 00     ................
	...
    197b:	04 02 02 02 02 03 00 00 00 00 00 00 00 00 00 00     ................
    198b:	04 02 02 00 00 00 01 01 01 01 01 00 00 00 00 04     ................
    199b:	02 02 03 00 00 00 00 01 01 01 01 01 00 00 00 02     ................
    19ab:	02 00 00 00 01 00 00 00 01 00 00 00 00 00 04 03     ................
    19bb:	00 00 00 00 00 01 00 00 00 01 00 00 00 02 02 00     ................
    19cb:	00 00 01 00 09 00 01 00 00 00 00 00 00 00 00 00     ................
    19db:	00 00 00 01 00 07 00 01 00 00 00 02 02 00 00 00     ................
    19eb:	01 00 00 00 01 00 00 00 00 00 00 00 00 00 00 00     ................
    19fb:	00 01 00 00 00 01 00 00 00 02 02 00 00 00 01 01     ................
    1a0b:	01 01 01 00 00 00 00 00 00 00 00 00 00 00 00 01     ................
    1a1b:	01 01 01 01 00 00 00 02 02 00 00 00 00 00 00 00     ................
	...
    1a3f:	00 02 02 05 00 00 00 00 00 00 00 00 00 00 00 00     ................
	...
    1a5b:	00 00 06 02 02 02 05 00 00 00 00 00 00 00 00 00     ................
    1a6b:	01 01 01 01 01 01 01 00 00 00 00 00 00 00 00 06     ................
    1a7b:	02 02 02 02 02 05 00 58 00 00 00 00 00 00 01 00     .......X........
    1a8b:	00 00 00 00 01 00 00 00 00 63 00 00 06 02 02 02     .........c......
    1a9b:	02 02 02 03 00 00 00 00 00 00 00 00 01 00 00 08     ................
    1aab:	00 00 01 00 00 00 00 00 00 00 04 02 02 02 02 02     ................
    1abb:	03 00 00 00 00 00 00 00 00 00 01 00 00 00 00 00     ................
    1acb:	01 00 00 00 00 00 00 00 00 04 02 02 02 03 00 00     ................
	...
    1ae3:	01 01 01 01 01 01 01 00 00 00 00 00 00 00 00 00     ................
    1af3:	04 02 02 00 00 00 00 00 00 00 00 00 00 00 00 00     ................
	...
    1b0f:	00 00 00 02 02 00 00 00 00 00 00 00 00 00 00 00     ................
	...
    1b2f:	00 02 02 00 00 00 01 01 01 01 01 00 00 00 00 00     ................
    1b3f:	00 00 00 00 00 00 00 01 01 01 01 01 00 00 00 02     ................
    1b4f:	02 00 00 00 01 00 00 00 01 00 00 00 00 00 00 00     ................
    1b5f:	00 00 00 00 00 01 00 00 00 01 00 00 00 02 02 00     ................
    1b6f:	00 00 01 00 07 00 01 00 00 00 00 00 00 00 00 00     ................
    1b7f:	00 00 00 01 00 09 00 01 00 00 00 02 02 00 00 00     ................
    1b8f:	01 00 00 00 01 00 00 00 00 00 06 05 00 00 00 00     ................
    1b9f:	00 01 00 00 00 01 00 00 00 02 02 00 00 00 01 01     ................
    1baf:	01 01 01 00 00 00 00 06 02 02 05 00 00 00 00 01     ................
    1bbf:	01 01 01 01 00 00 00 02 02 05 00 00 00 00 00 00     ................
    1bcf:	00 00 00 00 06 02 02 02 02 05 00 00 00 00 00 00     ................
    1bdf:	00 00 00 00 06 02 02 02 05 00 00 00 00 00 00 00     ................
    1bef:	00 06 02 02 02 02 02 02 05 00 00 00 00 00 00 00     ................
    1bff:	00 06 02 02 02 02 02 02 02 02 02 02 02 02 02 02     ................
    1c0f:	02 02 02 02 02 02 02 02 02 02 02 02 02 02 02 02     ................
    1c1f:	02 02 02 02 02 02 02 02 02 02 02 02 02 02 02 02     ................
    1c2f:	02 02 02 02 02 02 02 02 02 02 02 02 02 02 02 02     ................
    1c3f:	02 00 00 00 00 00 00 00 00 00 00 00 00 00 00 00     ................
	...
    1c5b:	00 02 02 00 00 00 00 00 00 00 00 00 00 00 00 00     ................
	...
    1c77:	00 00 00 02 02 00 00 00 00 00 00 00 00 00 00 00     ................
	...
    1c97:	00 02 02 00 00 00 00 00 00 00 00 00 00 00 00 00     ................
	...
    1cb3:	00 00 00 02 02 00 00 00 00 00 00 00 02 02 02 02     ................
    1cc3:	02 02 02 02 02 02 02 02 02 02 00 00 00 00 00 00     ................
    1cd3:	00 02 02 00 00 00 00 00 00 00 00 00 00 00 00 00     ................
	...
    1cef:	00 00 00 02 02 00 00 00 00 00 00 00 00 00 00 00     ................
	...
    1d07:	01 01 01 01 01 01 01 01 01 02 02 00 00 07 00 00     ................
    1d17:	09 00 00 00 00 00 00 00 00 00 00 00 00 00 01 01     ................
    1d27:	01 01 01 01 01 01 01 02 02 00 00 00 00 00 00 00     ................
    1d37:	00 00 00 00 00 42 42 42 42 00 00 00 01 01 01 01     .....BBBB.......
    1d47:	01 01 01 01 01 02 02 00 00 00 00 00 00 00 00 00     ................
    1d57:	00 00 00 42 4d 4d 42 00 00 00 01 01 01 00 00 00     ...BMMB.........
    1d67:	00 01 01 02 02 00 00 00 58 00 00 00 00 00 00 00     ........X.......
    1d77:	00 42 4d 4d 42 00 00 00 01 01 01 00 63 00 00 01     .BMMB.......c...
    1d87:	01 02 02 00 00 00 00 00 00 00 00 00 00 00 00 42     ...............B
    1d97:	4d 4d 42 00 00 00 01 01 01 00 00 00 00 01 01 02     MMB.............
    1da7:	02 00 00 00 00 00 00 00 00 00 00 00 00 42 2c 4d     .............B,M
    1db7:	42 00 00 00 01 01 01 00 00 00 00 01 01 02 02 00     B...............
	...
    1dcf:	00 00 00 42 4d 4d 42 00 00 00 01 01 01 01 01 01     ...BMMB.........
    1ddf:	01 01 01 02 02 00 00 00 00 00 00 00 00 00 00 00     ................
    1def:	00 42 42 42 42 00 00 00 01 01 01 01 01 01 01 01     .BBBB...........
    1dff:	01 02 02 00 00 00 00 00 00 00 00 00 00 00 00 00     ................
    1e0f:	00 00 00 00 00 00 01 01 01 01 01 01 01 01 01 02     ................
    1e1f:	02 00 00 00 00 00 00 00 00 00 00 00 00 00 00 00     ................
	...
    1e3b:	00 02 02 00 00 00 00 00 00 00 00 00 00 00 00 00     ................
	...
    1e57:	00 00 00 02 02 00 00 00 00 00 00 00 02 02 02 02     ................
    1e67:	02 02 02 02 02 02 02 02 02 02 00 00 00 00 00 00     ................
    1e77:	00 02 02 00 00 00 00 00 00 00 00 00 00 00 00 00     ................
	...
    1e93:	00 00 00 02 02 00 00 00 00 00 00 00 00 00 00 00     ................
	...
    1eb3:	00 02 02 00 00 00 00 00 00 00 00 00 00 00 00 00     ................
	...
    1ecf:	00 00 00 02 02 00 00 00 00 00 00 00 00 00 00 00     ................
	...
    1eef:	00 02 02 02 02 02 02 02 02 02 02 02 02 02 02 02     ................
    1eff:	02 02 02 02 02 02 02 02 02 02 02 02 02 02 02 02     ................
    1f0f:	02 02 02 02 02 02 02 02 02 02 02 02 02 02 02 02     ................
    1f1f:	02 02 02 02 02 02 02 02 02 02 02 02 02 02 02 00     ................
	...
    1f47:	00 00 00 02 02 00 00 00 00 00 00 00 00 00 00 00     ................
	...
    1f67:	00 02 02 00 00 00 00 00 00 00 00 00 00 00 00 00     ................
	...
    1f83:	00 00 00 02 02 00 00 00 00 00 00 00 00 00 00 00     ................
	...
    1fa3:	00 02 02 00 00 00 00 00 00 00 02 02 02 02 02 02     ................
    1fb3:	02 02 02 02 02 02 02 02 00 00 00 00 00 00 00 02     ................
    1fc3:	02 00 00 00 00 00 00 00 00 00 00 00 00 00 00 00     ................
	...
    1fdf:	00 02 02 01 01 01 01 01 01 01 01 01 00 00 00 00     ................
	...
    1ffb:	00 00 00 02 02 01 01 01 01 01 01 01 01 01 00 00     ................
	...
    2013:	00 00 00 07 00 00 09 00 00 02 02 01 01 01 01 01     ................
    2023:	01 01 01 01 00 00 00 42 42 42 42 00 00 00 00 00     .......BBBB.....
    2033:	00 00 00 00 00 00 00 02 02 01 01 00 00 00 00 01     ................
    2043:	01 01 00 00 00 42 4d 4d 42 00 00 00 00 00 00 00     .....BMMB.......
    2053:	00 00 00 00 00 02 02 01 01 00 58 00 00 01 01 01     ..........X.....
    2063:	00 00 00 42 4d 4d 42 00 00 00 00 00 00 00 63 00     ...BMMB.......c.
    2073:	00 00 00 02 02 01 01 00 00 00 00 01 01 01 00 00     ................
    2083:	00 42 4d 2c 42 00 00 00 00 00 00 00 00 00 00 00     .BM,B...........
    2093:	00 02 02 01 01 00 00 00 00 01 01 01 00 00 00 42     ...............B
    20a3:	4d 4d 42 00 00 00 00 00 00 00 00 00 00 00 00 02     MMB.............
    20b3:	02 01 01 01 01 01 01 01 01 01 00 00 00 42 4d 4d     .............BMM
    20c3:	42 00 00 00 00 00 00 00 00 00 00 00 00 02 02 01     B...............
    20d3:	01 01 01 01 01 01 01 01 00 00 00 42 42 42 42 00     ...........BBBB.
	...
    20eb:	00 00 00 02 02 01 01 01 01 01 01 01 01 01 00 00     ................
	...
    210b:	00 02 02 00 00 00 00 00 00 00 00 00 00 00 00 00     ................
	...
    2127:	00 00 00 02 02 00 00 00 00 00 00 00 00 00 00 00     ................
	...
    2147:	00 02 02 00 00 00 00 00 00 00 02 02 02 02 02 02     ................
    2157:	02 02 02 02 02 02 02 02 00 00 00 00 00 00 00 02     ................
    2167:	02 00 00 00 00 00 00 00 00 00 00 00 00 00 00 00     ................
	...
    2183:	00 02 02 00 00 00 00 00 00 00 00 00 00 00 00 00     ................
	...
    219f:	00 00 00 02 02 00 00 00 00 00 00 00 00 00 00 00     ................
	...
    21bf:	00 02 02 00 00 00 00 00 00 00 00 00 00 00 00 00     ................
	...
    21db:	00 00 00 02 02 02 02 02 02 02 02 02 02 02 02 02     ................
    21eb:	02 02 02 02 02 02 02 02 02 02 02 02 02 02 02 02     ................
    21fb:	02 02 02 02 02 02 02 02 02 02 02 02 02 02 02 02     ................
    220b:	02 02 02 02 02 02 02 02 02 02 02 02 02 02 02 02     ................
    221b:	02 00 00 00 00 00 00 00 00 00 01 01 00 00 00 00     ................
    222b:	00 00 01 01 00 00 00 00 00 00 00 00 00 02 02 00     ................
	...
    2243:	01 01 00 00 00 00 00 00 01 01 00 00 00 00 00 00     ................
    2253:	00 00 00 02 02 00 00 00 00 00 00 00 00 00 01 01     ................
    2263:	00 00 00 00 00 00 01 01 00 00 00 00 00 00 00 00     ................
    2273:	00 02 02 00 58 00 00 00 00 00 00 00 01 01 00 00     ....X...........
    2283:	00 00 00 00 01 01 00 00 00 00 00 00 00 00 00 02     ................
    2293:	02 00 00 00 00 00 00 00 00 00 01 01 00 07 00 00     ................
    22a3:	09 00 01 01 00 00 00 00 00 00 00 00 00 02 02 00     ................
	...
    22bb:	01 01 00 00 00 00 00 00 01 01 00 00 00 00 00 00     ................
    22cb:	00 00 00 02 02 00 00 00 00 00 00 00 00 00 01 01     ................
    22db:	01 01 01 01 01 01 01 01 00 00 00 00 00 00 00 00     ................
    22eb:	00 02 02 00 00 00 00 00 00 00 00 00 01 01 01 01     ................
    22fb:	01 01 01 01 01 01 00 00 00 00 00 00 00 00 00 02     ................
    230b:	02 00 00 00 00 00 00 00 00 00 00 00 00 00 00 00     ................
	...
    2327:	00 02 02 37 37 37 37 37 37 37 37 37 37 37 37 37     ...7777777777777
    2337:	37 37 37 37 37 37 37 37 37 37 37 37 37 37 37 02     777777777777777.
    2347:	02 4d 4d 4d 4d 4d 4d 4d 4d 4d 4d 4d 4d 4d 4d 4d     .MMMMMMMMMMMMMMM
    2357:	4d 4d 4d 4d 4d 4d 4d 4d 4d 4d 4d 4d 4d 02 02 4d     MMMMMMMMMMMMM..M
    2367:	4d 4d 4d 4d 4d 4d 4d 4d 4d 4d 4d 2c 4d 4d 4d 4d     MMMMMMMMMMM,MMMM
    2377:	4d 4d 4d 4d 4d 4d 4d 4d 4d 4d 4d 02 02 4d 4d 4d     MMMMMMMMMMM..MMM
    2387:	4d 4d 4d 4d 4d 4d 4d 4d 4d 4d 4d 4d 4d 4d 4d 4d     MMMMMMMMMMMMMMMM
    2397:	4d 4d 4d 4d 4d 4d 4d 4d 4d 02 02 37 37 37 37 37     MMMMMMMMM..77777
    23a7:	37 37 37 37 37 37 37 37 37 37 37 37 37 37 37 37     7777777777777777
    23b7:	37 37 37 37 37 37 37 02 02 00 00 00 00 00 00 00     7777777.........
	...
    23db:	00 02 02 00 00 00 00 00 00 00 00 00 01 01 01 01     ................
    23eb:	01 01 01 01 01 01 00 00 00 00 00 00 00 00 00 02     ................
    23fb:	02 00 00 00 00 00 00 00 00 00 01 01 01 01 01 01     ................
    240b:	01 01 01 01 00 00 00 00 00 00 00 00 00 02 02 00     ................
	...
    2423:	01 01 00 00 00 00 00 00 01 01 00 00 00 00 00 00     ................
    2433:	00 00 00 02 02 00 00 00 00 00 00 00 00 00 01 01     ................
    2443:	00 09 00 00 07 00 01 01 00 00 00 00 00 00 00 00     ................
    2453:	00 02 02 00 00 00 00 00 00 00 00 00 01 01 00 00     ................
    2463:	00 00 00 00 01 01 00 00 00 00 00 00 63 00 00 02     ............c...
    2473:	02 00 00 00 00 00 00 00 00 00 01 01 00 00 00 00     ................
    2483:	00 00 01 01 00 00 00 00 00 00 00 00 00 02 02 00     ................
	...
    249b:	01 01 00 00 00 00 00 00 01 01 00 00 00 00 00 00     ................
    24ab:	00 00 00 02 02 00 00 00 00 00 00 00 00 00 01 01     ................
    24bb:	00 00 00 00 00 00 01 01 00 00 00 00 00 00 00 00     ................
    24cb:	00 02 02 02 02 02 02 02 02 02 02 02 02 02 02 02     ................
    24db:	02 02 02 02 02 02 02 02 02 02 02 02 02 02 02 02     ................
    24eb:	02 02 02 02 02 02 02 02 02 02 02 02 02 02 02 02     ................
    24fb:	02 02 02 02 02 02 02 02 02 02 02 02 02 02 02 4d     ...............M
    250b:	4d 4d 4d 4d 4d 4d 4d 4d 4d 4d 4d 4d 4d 4d 4d 4d     MMMMMMMMMMMMMMMM
    251b:	4d 4d 4d 4d 4d 4d 4d 4d 4d 4d 4d 02 02 4d 4d 4d     MMMMMMMMMMM..MMM
    252b:	4d 4d 4d 4d 4d 4d 4d 4d 4d 4d 4d 4d 4d 4d 4d 4d     MMMMMMMMMMMMMMMM
    253b:	4d 4d 4d 4d 4d 4d 4d 4d 4d 02 02 4d 4d 4d 4d 4d     MMMMMMMMM..MMMMM
    254b:	4d 4d 4d 4d 4d 4d 4d 4d 4d 4d 4d 4d 4d 4d 4d 4d     MMMMMMMMMMMMMMMM
    255b:	4d 4d 4d 4d 4d 4d 4d 02 02 4d 4d 4d 4d 4d 4d 4d     MMMMMMM..MMMMMMM
    256b:	4d 4d 4d 4d 4d 4d 4d 4d 4d 4d 4d 4d 4d 4d 4d 4d     MMMMMMMMMMMMMMMM
    257b:	4d 4d 4d 4d 4d 02 02 4d 4d 4d 4d 4d 4d 4d 4d 4d     MMMMM..MMMMMMMMM
    258b:	4d 4d 4d 4d 4d 4d 4d 4d 4d 4d 4d 4d 4d 4d 4d 4d     MMMMMMMMMMMMMMMM
    259b:	4d 4d 4d 02 02 4d 4d 4d 4d 4d 4d 4d 4d 4d 4d 4d     MMM..MMMMMMMMMMM
    25ab:	4d 4d 4d 4d 4d 4d 4d 4d 4d 4d 4d 4d 4d 4d 4d 4d     MMMMMMMMMMMMMMMM
    25bb:	4d 02 02 4d 4d 4d 4d 4d 4d 4d 4d 4d 4d 4d 4d 4d     M..MMMMMMMMMMMMM
    25cb:	4d 4d 4d 4d 4d 4d 4d 4d 4d 4d 4d 4d 4d 4d 4d 02     MMMMMMMMMMMMMMM.
    25db:	02 4d 4d 4d 4d 4d 4d 4d 4d 4d 4d 4d 4d 4d 4d 4d     .MMMMMMMMMMMMMMM
    25eb:	4d 4d 4d 4d 4d 4d 4d 4d 4d 4d 4d 4d 4d 02 02 4d     MMMMMMMMMMMMM..M
    25fb:	4d 4d 4d 4d 4d 4d 4d 4d 4d 4d 4d 4d 4d 4d 4d 4d     MMMMMMMMMMMMMMMM
    260b:	4d 4d 4d 4d 4d 4d 4d 4d 4d 4d 4d 02 02 4d 4d 4d     MMMMMMMMMMM..MMM
    261b:	4d 4d 4d 4d 4d 4d 4d 4d 4d 4d 4d 4d 4d 4d 4d 4d     MMMMMMMMMMMMMMMM
    262b:	4d 4d 4d 4d 4d 4d 4d 4d 4d 02 02 4d 4d 4d 4d 4d     MMMMMMMMM..MMMMM
    263b:	4d 4d 4d 4d 4d 4d 4d 4d 4d 4d 4d 4d 4d 4d 4d 4d     MMMMMMMMMMMMMMMM
    264b:	4d 4d 4d 4d 4d 4d 4d 02 02 37 37 37 37 37 37 37     MMMMMMM..7777777
    265b:	37 37 37 37 37 37 37 37 37 37 37 37 37 37 37 37     7777777777777777
    266b:	37 37 37 37 37 02 02 00 00 00 00 00 00 00 00 00     77777...........
	...
    268b:	00 00 00 02 02 00 00 00 00 00 00 00 00 00 00 00     ................
	...
    26ab:	00 02 02 00 00 00 00 00 00 00 00 00 00 00 00 00     ................
	...
    26c7:	00 00 00 02 02 00 00 00 00 00 00 00 00 00 00 00     ................
	...
    26e7:	00 02 02 00 00 00 58 00 00 00 00 00 00 00 00 00     ......X.........
	...
    26ff:	00 00 00 63 00 00 00 02 02 00 00 00 00 00 00 00     ...c............
	...
    2723:	00 02 02 00 00 00 00 00 00 00 00 00 00 00 00 00     ................
	...
    273f:	00 00 00 02 02 00 00 00 00 00 00 00 00 00 00 00     ................
	...
    275f:	00 02 02 00 00 00 00 00 00 00 00 00 00 00 00 00     ................
	...
    277b:	00 00 00 02 02 00 00 00 00 00 00 00 00 00 00 00     ................
    278b:	00 00 00 07 00 00 00 00 00 00 00 00 00 00 00 00     ................
    279b:	00 02 02 00 00 00 00 00 00 00 00 00 00 00 00 00     ................
	...
    27b7:	00 00 00 02 02 02 02 02 02 02 02 02 02 02 02 02     ................
    27c7:	02 02 02 02 02 02 02 02 02 02 02 02 02 02 02 02     ................
    27d7:	02 02                                               ..

000027d9 <sprites_data>:
    27d9:	fe fe fe fe fe fe 2b 2b fe fe fe fe fe fe fe 2b     ......++.......+
    27e9:	fe fe fe fe fe fe fe 2b 2b 2b 2b fe fe fe fe 2b     .......++++....+
    27f9:	12 12 12 fe fe 20 20 2b 2b 2b 2b 20 20 20 20 2b     .....  ++++    +
    2809:	12 12 12 20 20 20 20 2b 2b 2b 2b 20 20 20 29 29     ...    ++++   ))
    2819:	2b 2b fe fe fe fe fe fe 2b fe fe fe fe fe fe fe     ++......+.......
    2829:	2b fe fe fe fe fe fe fe 2b fe fe fe fe 2b 2b 2b     +.......+....+++
    2839:	2b 20 20 fe fe 12 12 12 2b 20 20 20 20 2b 2b 2b     +  .....+    +++
    2849:	2b 20 20 20 20 12 12 12 29 29 20 20 20 2b 2b 2b     +    ...))   +++
    2859:	2b 12 2b 12 2b 12 2b 12 2b 12 2b 12 2b 12 2b 12     +.+.+.+.+.+.+.+.
    2869:	2b 12 2b 12 2b 12 2b 12 fe fe 20 20 20 20 20 20     +.+.+.+...      
    2879:	fe fe 20 20 20 20 20 20 fe fe fe 20 20 20 20 20     ..      ...     
    2889:	fe fe fe fe 20 20 29 29 fe fe fe fe 20 20 29 2b     ....  ))....  )+
    2899:	2b 12 2b 12 2b fe fe fe 2b 12 2b 12 2b fe fe fe     +.+.+...+.+.+...
    28a9:	2b 12 2b 12 2b fe fe fe 20 20 20 fe fe fe fe fe     +.+.+...   .....
    28b9:	20 20 20 fe fe fe fe fe 20 20 20 20 fe fe fe fe        .....    ....
    28c9:	29 20 20 20 fe fe fe 2b 29 2b 2b 2b 2b 2b 2b 2b     )   ...+)+++++++
    28d9:	fe fe fe fe fe fe fe fe fe fe fe fe fe fe fe fe     ................
    28e9:	fe fe ff ff fe fe 3f 3f fe fe ff ff fe fe 3f 3f     ......??......??
    28f9:	fe fe fe fe ff ff 3f 3f fe fe fe fe ff ff 3f 3f     ......??......??
    2909:	fe fe fe fe 3f 3f 3f 3f fe fe fe fe 3f 3f 3f 3f     ....????....????
    2919:	fe fe fe fe fe fe fe fe fe fe fe fe fe fe fe fe     ................
    2929:	fe fe fe fe ff ff fe fe fe fe fe fe ff ff fe fe     ................
    2939:	fe fe ff ff fe fe fe fe fe fe ff ff fe fe fe fe     ................
    2949:	3f 3f 3f 3f 3f 3f fe fe 3f 3f 3f 3f 3f 3f fe fe     ??????..??????..
    2959:	3f 3f 3f 3f fe fe fe fe 3f 3f 3f 3f fe fe fe fe     ????....????....
    2969:	3f 3f ff ff 1f 1f 3f 3f 3f 3f ff ff 1f 1f 3f 3f     ??....????....??
    2979:	fe fe 1f 1f ff ff 3f 3f fe fe 1f 1f ff ff 3f 3f     ......??......??
    2989:	fe fe fe fe 3f 3f 3f 3f fe fe fe fe 3f 3f 3f 3f     ....????....????
    2999:	fe fe fe fe 3f 3f 3f 3f fe fe fe fe 3f 3f 3f 3f     ....????....????
    29a9:	fe fe 1f 1f ff ff 3f 3f fe fe 1f 1f ff ff 3f 3f     ......??......??
    29b9:	fe fe ff ff 3f 3f fe fe fe fe ff ff 3f 3f fe fe     ....??......??..
    29c9:	3f 3f 3f 3f 3f 3f fe fe 3f 3f 3f 3f 3f 3f fe fe     ??????..??????..
    29d9:	fe fe fe fe fe fe fe fe fe fe fe fe fe fe fe fe     ................
    29e9:	fe fe ff ff fe fe fe fe fe fe ff ff fe fe fe fe     ................
    29f9:	fe fe fe fe ff ff fe fe fe fe fe fe ff ff fe fe     ................
    2a09:	fe fe fe fe fe fe fe fe fe fe fe fe fe fe fe fe     ................
    2a19:	fe fe fe fe fe fe fe fe fe fe fe fe fe fe fe fe     ................
    2a29:	fe fe fe fe ff ff fe fe fe fe fe fe ff ff fe fe     ................
    2a39:	fe fe ff ff fe fe fe fe fe fe ff ff fe fe fe fe     ................
    2a49:	fe fe fe fe fe fe fe fe fe fe fe fe fe fe fe fe     ................
    2a59:	12 12 12 20 20 20 29 2b 2b 2b 2b 20 20 20 29 29     ...   )++++   ))
    2a69:	12 12 12 20 20 20 20 20 2b 2b 2b 20 20 20 20 20     ...     +++     
    2a79:	12 12 12 20 20 20 fe fe 2b 2b 2b 20 20 fe fe fe     ...   ..+++  ...
    2a89:	12 12 12 fe fe fe fe fe 2b 2b 2b fe fe fe fe fe     ........+++.....
    2a99:	2b 29 20 20 20 12 12 12 29 29 20 20 20 2b 2b 2b     +)   ...))   +++
    2aa9:	20 20 20 20 20 12 12 12 20 20 20 20 20 2b 2b 2b          ...     +++
    2ab9:	fe fe 20 20 20 12 12 12 fe fe fe 20 20 2b 2b 2b     ..   ......  +++
    2ac9:	fe fe fe fe fe 12 12 12 fe fe fe fe fe 2b 2b 2b     .............+++
    2ad9:	fe fe fe fe 20 20 29 2b fe fe fe fe 20 20 29 29     ....  )+....  ))
    2ae9:	fe fe fe 20 20 20 20 20 fe fe 20 20 20 20 20 20     ...     ..      
    2af9:	fe fe 20 20 20 20 20 20 2b 12 2b 12 2b 12 2b 12     ..      +.+.+.+.
    2b09:	2b 12 2b 12 2b 12 2b 12 2b 12 2b 12 2b 12 2b 12     +.+.+.+.+.+.+.+.
    2b19:	29 2b 2b 2b 2b 2b 2b 2b 29 20 20 20 fe fe fe 2b     )+++++++)   ...+
    2b29:	20 20 20 20 fe fe fe fe 20 20 20 fe fe fe fe fe         ....   .....
    2b39:	20 20 20 fe fe fe fe fe 2b 12 2b 12 2b fe fe fe        .....+.+.+...
    2b49:	2b 12 2b 12 2b fe fe fe 2b 12 2b 12 2b fe fe fe     +.+.+...+.+.+...
    2b59:	fe fe 3f 3f 3f 3f 3f 3f fe fe 3f 3f 3f 3f 3f 3f     ..??????..??????
    2b69:	fe fe fe fe ff ff fe fe fe fe fe fe ff ff fe fe     ................
    2b79:	fe fe ff ff fe fe fe fe fe fe ff ff fe fe fe fe     ................
    2b89:	fe fe fe fe fe fe fe fe fe fe fe fe fe fe fe fe     ................
    2b99:	3f 3f 3f 3f fe fe fe fe 3f 3f 3f 3f fe fe fe fe     ????....????....
    2ba9:	3f 3f ff ff fe fe fe fe 3f 3f ff ff fe fe fe fe     ??......??......
    2bb9:	3f 3f fe fe ff ff fe fe 3f 3f fe fe ff ff fe fe     ??......??......
    2bc9:	fe fe fe fe fe fe fe fe fe fe fe fe fe fe fe fe     ................
    2bd9:	fe fe 3f 3f 3f 3f 3f 3f fe fe 3f 3f 3f 3f 3f 3f     ..??????..??????
    2be9:	fe fe 1f 1f ff ff fe fe fe fe 1f 1f ff ff fe fe     ................
    2bf9:	3f 3f ff ff 1f 1f fe fe 3f 3f ff ff 1f 1f fe fe     ??......??......
    2c09:	3f 3f 3f 3f fe fe fe fe 3f 3f 3f 3f fe fe fe fe     ????....????....
    2c19:	3f 3f 3f 3f fe fe fe fe 3f 3f 3f 3f fe fe fe fe     ????....????....
    2c29:	3f 3f ff ff 1f 1f fe fe 3f 3f ff ff 1f 1f fe fe     ??......??......
    2c39:	3f 3f 1f 1f ff ff 3f 3f 3f 3f 1f 1f ff ff 3f 3f     ??....????....??
    2c49:	fe fe fe fe 3f 3f 3f 3f fe fe fe fe 3f 3f 3f 3f     ....????....????
    2c59:	fe fe fe fe fe fe f5 f5 fe fe fe fe fe fe fe f5     ................
    2c69:	fe fe fe fe fe fe fe f5 f5 f5 f5 fe fe fe fe f5     ................
    2c79:	90 90 90 fe fe e1 e1 f5 f5 f5 f5 e1 e1 e1 e1 f5     ................
    2c89:	90 90 90 e1 e1 e1 e1 f5 f5 f5 f5 e1 e1 e1 f0 f0     ................
    2c99:	f5 f5 fe fe fe fe fe fe f5 fe fe fe fe fe fe fe     ................
    2ca9:	f5 fe fe fe fe fe fe fe f5 fe fe fe fe f5 f5 f5     ................
    2cb9:	f5 e1 e1 fe fe 90 90 90 f5 e1 e1 e1 e1 f5 f5 f5     ................
    2cc9:	f5 e1 e1 e1 e1 90 90 90 f0 f0 e1 e1 e1 f5 f5 f5     ................
    2cd9:	f5 90 f5 90 f5 90 f5 90 f5 90 f5 90 f5 90 f5 90     ................
    2ce9:	f5 90 f5 90 f5 90 f5 90 fe fe e1 e1 e1 e1 e1 e1     ................
    2cf9:	fe fe e1 e1 e1 e1 e1 e1 fe fe fe e1 e1 e1 e1 e1     ................
    2d09:	fe fe fe fe e1 e1 f0 f0 fe fe fe fe e1 e1 f0 f5     ................
    2d19:	f5 90 f5 90 f5 fe fe fe f5 90 f5 90 f5 fe fe fe     ................
    2d29:	f5 90 f5 90 f5 fe fe fe e1 e1 e1 fe fe fe fe fe     ................
    2d39:	e1 e1 e1 fe fe fe fe fe e1 e1 e1 e1 fe fe fe fe     ................
    2d49:	f0 e1 e1 e1 fe fe fe f5 f0 f5 f5 f5 f5 f5 f5 f5     ................
    2d59:	fe fe fe fe fe fe fe fe fe fe fe fe fe fe fe fe     ................
    2d69:	fe fe fe ad ad fe fe fe fe fe ad ad ad ad fe fe     ................
    2d79:	fe fe ad ad ad ad fe fe fe fe fe ad ad fe fe fe     ................
    2d89:	fe fe fe fe fe fe fe fe fe fe fe fe fe fe fe fe     ................
    2d99:	fe fe fe ad ad fe fe fe fe fe fe ad ad fe fe fe     ................
    2da9:	fe fe ad ad ad ad fe fe fe fe ad ad ad ad fe fe     ................
    2db9:	fe ad ad ad ad ad ad fe fe fe 3f 3f 3f 3f fe fe     ..........????..
    2dc9:	fe fe fe 3f 3f fe fe fe fe fe fe fe fe fe fe fe     ...??...........
    2dd9:	fe fe fe ad ad fe fe fe fe fe fe ad ad fe fe fe     ................
    2de9:	fe fe ad ad ad ad fe fe fe fe ad ad ad ad fe fe     ................
    2df9:	fe ad ad ad ad ad ad fe fe fe fe 3f 3f fe fe fe     ...........??...
    2e09:	fe fe fe fe fe fe fe fe fe fe fe fe fe fe fe fe     ................
    2e19:	fe fe fe fe fe fe fe fe fe fe fe ad fe fe fe fe     ................
    2e29:	fe fe 3f ad ad ad fe fe fe 3f 3f ad ad ad ad ad     ..?......??.....
    2e39:	fe 3f 3f ad ad ad ad ad fe fe 3f ad ad ad fe fe     .??.......?.....
    2e49:	fe fe fe ad fe fe fe fe fe fe fe fe fe fe fe fe     ................
    2e59:	fe fe fe fe fe fe fe fe fe fe fe ad fe fe fe fe     ................
    2e69:	fe fe fe ad ad ad fe fe fe fe 3f ad ad ad ad ad     ..........?.....
    2e79:	fe fe 3f ad ad ad ad ad fe fe fe ad ad ad fe fe     ..?.............
    2e89:	fe fe fe ad fe fe fe fe fe fe fe fe fe fe fe fe     ................
    2e99:	fe fe fe fe fe fe fe fe fe fe fe fe fe fe fe fe     ................
    2ea9:	fe fe fe 9f 9f fe fe fe fe fe 9f 9f 9f 9f fe fe     ................
    2eb9:	fe fe 9f 9f 9f 9f fe fe fe fe fe 9f 9f fe fe fe     ................
    2ec9:	fe fe fe fe fe fe fe fe fe fe fe fe fe fe fe fe     ................
    2ed9:	90 90 90 e1 e1 e1 f0 f5 f5 f5 f5 e1 e1 e1 f0 f0     ................
    2ee9:	90 90 90 e1 e1 e1 e1 e1 f5 f5 f5 e1 e1 e1 e1 e1     ................
    2ef9:	90 90 90 e1 e1 e1 fe fe f5 f5 f5 e1 e1 fe fe fe     ................
    2f09:	90 90 90 fe fe fe fe fe f5 f5 f5 fe fe fe fe fe     ................
    2f19:	f5 f0 e1 e1 e1 90 90 90 f0 f0 e1 e1 e1 f5 f5 f5     ................
    2f29:	e1 e1 e1 e1 e1 90 90 90 e1 e1 e1 e1 e1 f5 f5 f5     ................
    2f39:	fe fe e1 e1 e1 90 90 90 fe fe fe e1 e1 f5 f5 f5     ................
    2f49:	fe fe fe fe fe 90 90 90 fe fe fe fe fe f5 f5 f5     ................
    2f59:	fe fe fe fe e1 e1 f0 f5 fe fe fe fe e1 e1 f0 f0     ................
    2f69:	fe fe fe e1 e1 e1 e1 e1 fe fe e1 e1 e1 e1 e1 e1     ................
    2f79:	fe fe e1 e1 e1 e1 e1 e1 f5 90 f5 90 f5 90 f5 90     ................
    2f89:	f5 90 f5 90 f5 90 f5 90 f5 90 f5 90 f5 90 f5 90     ................
    2f99:	f0 f5 f5 f5 f5 f5 f5 f5 f0 e1 e1 e1 fe fe fe f5     ................
    2fa9:	e1 e1 e1 e1 fe fe fe fe e1 e1 e1 fe fe fe fe fe     ................
    2fb9:	e1 e1 e1 fe fe fe fe fe f5 90 f5 90 f5 fe fe fe     ................
    2fc9:	f5 90 f5 90 f5 fe fe fe f5 90 f5 90 f5 fe fe fe     ................
    2fd9:	fe fe fe fe fe fe fe fe fe fe fe fe ff fe fe fe     ................
    2fe9:	fe fe fe fe 7f ff fe fe fe fe fe fe 7f 7f ff fe     ................
    2ff9:	fe fe fe fe 7f 7f 7f ff fe fe fe fe 7f 7f 7f fe     ................
    3009:	fe fe fe fe 7f 7f fe fe fe fe fe fe 7f fe fe fe     ................
    3019:	fe fe fe fe fe fe fe fe fe fe fe fe fe fe fe fe     ................
    3029:	fe fe fe fe fe fe fe fe fe fe fe fe fe fe fe fe     ................
    3039:	7f 7f 7f 7f 7f 7f ff fe fe 7f 7f 7f 7f ff fe fe     ................
    3049:	fe fe 7f 7f ff fe fe fe fe fe fe fe fe fe fe fe     ................
    3059:	fe fe fe ff fe fe fe fe fe fe ff 7f 7f fe fe fe     ................
    3069:	fe ff 7f 7f 7f 7f fe fe ff 7f 7f 7f 7f 7f 7f fe     ................
    3079:	fe fe fe fe fe fe fe fe fe fe fe fe fe fe fe fe     ................
    3089:	fe fe fe fe fe fe fe fe fe fe fe fe fe fe fe fe     ................
    3099:	4a 4a 4a 4a 4a 4a 4a 4a 4a 4a 4a 4a 4a 4a 4a 4a     JJJJJJJJJJJJJJJJ
    30a9:	4a 4a 4a a6 a6 4a 4a 4a 4a 4a 4a a6 a6 4a 4a 4a     JJJ..JJJJJJ..JJJ
    30b9:	fe 4a 4a a6 a6 4a 4a fe fe fe 4a a6 a6 4a fe fe     .JJ..JJ...J..J..
    30c9:	fe fe fe a6 a6 fe fe fe fe fe fe a6 a6 fe fe fe     ................
    30d9:	fe fe fe fe fe fe fe fe fe fe fe fe fe fe fe fe     ................
    30e9:	fe fe fe fe fe fe fe fe fe fe fe fe fe fe fe fe     ................
    30f9:	fe fe fe fe fe fe fe fe fe fe fe fe fe fe fe fe     ................
    3109:	fe fe fe fe fe fe fe fe fe fe fe fe fe fe fe fe     ................

00003119 <map_sub_turret>:
    3119:	01 01 23                                            ..#

0000311c <map_sub_shot>:
    311c:	01 01 1b                                            ...

0000311f <map_up_arrow>:
    311f:	01 01 22                                            .."

00003122 <map_down_arrow>:
    3122:	01 01 21                                            ..!

00003125 <map_right_arrow>:
    3125:	01 01 20                                            .. 

00003128 <map_rocket_right_1>:
    3128:	01 01 1a                                            ...

0000312b <map_rocket_right_0>:
    312b:	01 01 19                                            ...

0000312e <map_rocket_up_1>:
    312e:	01 01 18                                            ...

00003131 <map_rocket_up_0>:
    3131:	01 01 17                                            ...

00003134 <map_ball>:
    3134:	01 01 16                                            ...

00003137 <map_explosion_2>:
    3137:	02 02 08 09 09 08                                   ......

0000313d <map_explosion_1>:
    313d:	02 02 06 07 10 11                                   ......

00003143 <map_explosion_0>:
    3143:	02 02 04 05 0e 0f                                   ......

00003149 <map_tank2_right_0>:
    3149:	02 02 14 15 1e 1f                                   ......

0000314f <map_tank2_up_0>:
    314f:	02 02 12 13 1c 1d                                   ......

00003155 <map_tank1_right_0>:
    3155:	02 02 02 03 0c 0d                                   ......

0000315b <map_tank1_up_0>:
    315b:	02 02 00 01 0a 0b                                   ......

00003161 <map_tank_blank>:
    3161:	02 02 24 24 24 24                                   ..$$$$

00003167 <map_none>:
    3167:	01 01 24                                            ..$

0000316a <tiles_data>:
	...
    31aa:	66 66 66 26 66 66 66 66 77 77 77 26 77 77 77 77     fff&ffffwww&wwww
    31ba:	77 77 77 26 77 77 77 77 77 77 77 26 77 77 77 77     www&wwwwwww&wwww
    31ca:	26 26 26 26 26 26 26 26 77 77 77 77 77 77 77 26     &&&&&&&&wwwwwww&
    31da:	77 77 77 77 77 77 77 26 77 77 77 77 77 77 77 26     wwwwwww&wwwwwww&
    31ea:	00 d2 d2 d2 d2 d2 d2 00 d2 ff ff ff ff ff ff d2     ................
    31fa:	d2 d2 ff ff ff ff f6 d2 d2 d2 d2 ff ff f6 d2 d2     ................
    320a:	d2 d2 d2 ff f6 d2 d2 d2 d2 d2 ff f6 d2 d2 d2 d2     ................
    321a:	d2 d2 d2 d2 d2 d2 d2 d2 00 d2 d2 d2 d2 d2 d2 00     ................
    322a:	00 d2 d2 d2 d2 d2 d2 00 d2 ff d2 d2 d2 d2 ff d2     ................
    323a:	d2 d2 ff d2 d2 ff d2 d2 d2 d2 d2 3f 3f d2 d2 d2     ...........??...
    324a:	d2 d2 d2 3f 3f d2 d2 d2 d2 d2 ff d2 d2 ff d2 d2     ...??...........
    325a:	d2 ff d2 d2 d2 d2 ff d2 00 d2 d2 d2 d2 d2 d2 00     ................
    326a:	00 d2 d2 d2 d2 d2 d2 00 d2 d2 d2 d2 d2 d2 ff d2     ................
    327a:	d2 d2 d2 d2 ff ff d2 d2 d2 d2 d2 ff ff ff d2 d2     ................
    328a:	d2 ff f6 ff ff d2 d2 d2 d2 d2 ff f6 d2 d2 d2 d2     ................
    329a:	d2 3f d2 ff d2 d2 d2 d2 00 d2 d2 d2 d2 d2 d2 00     .?..............
    32aa:	05 05 05 05 05 05 05 05 05 05 05 05 05 05 05 04     ................
    32ba:	05 05 05 05 05 05 04 04 05 05 05 07 07 04 04 04     ................
    32ca:	05 05 05 07 07 04 04 04 05 05 05 04 04 04 04 04     ................
    32da:	05 05 04 04 04 04 04 04 05 04 04 04 04 04 04 04     ................
	...
    32f2:	00 ff 00 3f 00 00 ff 00 00 00 ff 3f 00 ff 00 00     ...?.......?....
    3302:	00 00 3f 3f 3f 3f 3f 00 00 3f 3f 3f 3f 3f 00 00     ..?????..?????..
    3312:	00 00 ff 00 3f ff 00 00 00 ff 00 00 3f 00 ff 00     ....?.......?...
	...
    332a:	3f 3f 00 00 00 00 3f 3f 3f ff 1f 3f 00 1f ff 3f     ??....???..?...?
    333a:	00 1f ff 3f 00 ff 3f 00 00 00 3f 3f 3f 3f 3f 00     ...?..?...?????.
    334a:	00 3f 3f 3f 3f 3f 00 00 00 1f ff 00 3f ff 1f 00     .?????......?...
    335a:	3f ff 1f 00 3f 1f ff 3f 3f 3f 00 00 00 00 3f 3f     ?...?..???....??
	...
    3372:	00 ff 00 00 00 00 ff 00 00 00 ff 00 00 ff 00 00     ................
	...
    3392:	00 00 ff 00 00 ff 00 00 00 ff 00 00 00 00 ff 00     ................
	...
    33aa:	05 05 05 05 05 05 05 05 05 05 05 05 05 05 05 00     ................
    33ba:	05 05 05 05 05 05 00 00 05 05 05 07 07 00 00 00     ................
    33ca:	05 05 05 07 00 00 00 00 05 05 05 00 00 00 00 00     ................
    33da:	05 05 00 00 00 00 00 00 05 00 00 00 00 00 00 00     ................
    33ea:	00 00 00 00 00 00 00 04 00 00 00 00 00 00 04 04     ................
    33fa:	00 00 00 00 00 04 04 04 00 00 00 00 07 04 04 04     ................
    340a:	00 00 00 07 07 04 04 04 00 00 04 04 04 04 04 04     ................
    341a:	00 04 04 04 04 04 04 04 04 04 04 04 04 04 04 04     ................
    342a:	05 05 05 05 05 05 05 05 00 05 05 05 05 05 05 05     ................
    343a:	00 00 05 05 05 05 05 05 00 00 00 07 07 05 05 05     ................
    344a:	00 00 00 00 07 05 05 05 00 00 00 00 00 05 05 05     ................
    345a:	00 00 00 00 00 00 05 05 00 00 00 00 00 00 00 05     ................
    346a:	04 00 00 00 00 00 00 00 04 04 00 00 00 00 00 00     ................
    347a:	04 04 04 00 00 00 00 00 04 04 04 07 00 00 00 00     ................
    348a:	04 04 04 07 07 00 00 00 04 04 04 04 04 04 00 00     ................
    349a:	04 04 04 04 04 04 04 00 04 04 04 04 04 04 04 04     ................
    34aa:	f0 f3 f0 f0 f3 f0 f3 f0 f5 f0 f0 f5 f5 f0 f0 f5     ................
    34ba:	f4 f5 f5 f4 f4 f5 f5 f4 f0 f0 f3 f0 f0 f3 f0 f0     ................
    34ca:	f3 f0 f2 f3 f0 f0 f3 f0 f0 f5 f5 f0 f3 f5 f5 f0     ................
    34da:	f5 f4 f4 f5 f5 f4 f4 f5 f0 f0 f3 f0 f3 f0 f3 f0     ................
    34ea:	18 64 18 18 64 18 18 64 18 62 64 18 18 64 62 18     .d..d..d.bd..db.
    34fa:	18 64 18 62 64 18 64 18 64 18 62 18 18 62 18 62     .d.bd.d.d.b..b.b
    350a:	18 64 18 64 62 18 64 18 64 18 64 18 18 62 18 18     .d.db.d.d.d..b..
    351a:	18 64 18 62 64 18 64 18 18 18 18 64 18 18 18 64     .d.bd.d....d...d
    352a:	65 65 65 65 65 65 65 65 65 65 65 65 65 65 65 65     eeeeeeeeeeeeeeee
    353a:	16 65 65 65 65 65 65 16 16 16 65 65 65 65 16 16     .eeeeee...eeee..
    354a:	16 16 16 16 16 16 16 16 16 14 14 14 14 14 14 16     ................
    355a:	14 65 65 65 65 65 65 14 65 65 65 65 65 65 65 65     .eeeeee.eeeeeeee
    356a:	f0 f3 f0 f0 f3 f0 f3 f0 f5 f0 f0 f5 f5 f0 f0 f5     ................
    357a:	f4 f5 f5 f4 f4 f5 f5 f4 f0 f0 f3 f0 f0 f3 f0 f0     ................
    358a:	f3 f0 f2 f3 f0 f0 f3 f0 f0 f5 ff ff ff ff f5 f0     ................
    359a:	f5 ff ff ff ff ff ff f5 f0 f0 ff ff ff ff f3 f0     ................
    35aa:	f0 f3 f0 f0 f3 f0 f3 f0 f5 f0 f0 f5 f5 f0 f0 f5     ................
    35ba:	f4 f5 f5 4a 4a 4a f5 f4 f0 f0 4a 4a bf bf 4a f0     ...JJJ....JJ..J.
    35ca:	f3 f0 4a 4a bf bf 4a f0 f0 f5 ff 4a 4a 4a f5 f0     ..JJ..J....JJJ..
    35da:	f5 ff ff ff ff ff ff f5 f0 f0 ff ff ff ff f3 f0     ................
    35ea:	f0 f3 f0 4a 4a 4a f3 f0 f5 f0 4a 4a bf bf 4a f5     ...JJJ....JJ..J.
    35fa:	f4 f5 4a 4a bf bf 4a f4 f0 f0 f3 4a 4a 4a f0 f0     ..JJ..J....JJJ..
    360a:	f3 f0 f2 4a 4a f0 f3 f0 f0 f5 ff 4a 4a ff f5 f0     ...JJ......JJ...
    361a:	f5 ff ff ff ff ff ff f5 f0 f0 ff ff ff ff f3 f0     ................
    362a:	7f 7f 7f 7f 7f 7f 7f 7f 7f 28 28 28 28 28 28 28     .........(((((((
    363a:	7f 28 28 28 28 28 28 28 7f 28 28 28 28 28 28 28     .(((((((.(((((((
    364a:	7f 28 28 28 28 28 28 28 7f 28 28 28 28 28 28 28     .(((((((.(((((((
    365a:	7f 28 28 28 28 28 28 28 7f 28 28 28 28 28 28 28     .(((((((.(((((((
    366a:	7f 7f 7f 7f 7f 7f 7f 7f 28 28 28 28 28 28 28 28     ........((((((((
    367a:	28 28 28 28 28 28 28 28 28 28 28 28 28 28 28 28     ((((((((((((((((
    368a:	28 28 28 28 28 28 28 28 28 28 28 28 28 28 28 28     ((((((((((((((((
    369a:	28 28 28 28 28 28 28 28 28 28 28 28 28 28 28 28     ((((((((((((((((
	...
    36ca:	7f 7f 7f 7f 7f 7f 7f 7f 28 28 28 28 28 28 28 28     ........((((((((
    36da:	28 28 28 28 28 28 28 28 28 28 28 28 28 28 28 28     ((((((((((((((((
    36ea:	00 00 00 00 00 00 7f 7f 00 00 00 00 00 00 7f 28     ...............(
    36fa:	00 00 00 00 00 00 7f 28 00 00 00 00 00 00 7f 28     .......(.......(
    370a:	00 00 00 00 00 00 7f 28 00 00 00 00 00 00 7f 28     .......(.......(
    371a:	00 00 00 00 00 00 7f 28 00 00 00 00 00 00 7f 28     .......(.......(
    372a:	7f 7f 7f 7f 7f 7f 00 00 28 28 28 28 28 28 00 00     ........((((((..
    373a:	28 28 28 28 28 28 00 00 28 28 28 28 28 28 00 00     ((((((..((((((..
    374a:	28 28 28 28 28 28 00 00 28 28 28 28 28 28 00 00     ((((((..((((((..
    375a:	28 28 28 28 28 28 00 00 28 28 28 28 28 28 00 00     ((((((..((((((..
    376a:	00 00 00 00 00 00 2b 2b 00 00 00 00 00 00 00 2b     ......++.......+
    377a:	00 00 00 00 00 00 00 2b 2b 2b 2b 00 00 00 00 2b     .......++++....+
    378a:	12 12 12 00 00 20 20 2b 2b 2b 2b 20 20 20 20 2b     .....  ++++    +
    379a:	12 12 12 20 20 20 20 2b 2b 2b 2b 20 20 20 29 29     ...    ++++   ))
    37aa:	2b 2b 00 00 00 00 00 00 2b 00 00 00 00 00 00 00     ++......+.......
    37ba:	2b 00 00 00 00 00 00 00 2b 00 00 00 00 2b 2b 2b     +.......+....+++
    37ca:	2b 20 20 00 00 12 12 12 2b 20 20 20 20 2b 2b 2b     +  .....+    +++
    37da:	2b 20 20 20 20 12 12 12 29 29 20 20 20 2b 2b 2b     +    ...))   +++
    37ea:	7f 28 28 28 28 28 28 28 7f 28 28 28 28 28 28 28     .(((((((.(((((((
    37fa:	7f 28 28 28 28 28 28 28 7f 28 28 28 28 28 28 28     .(((((((.(((((((
    380a:	7f 28 28 28 28 28 28 28 7f 28 28 28 28 28 28 28     .(((((((.(((((((
    381a:	7f 28 28 28 28 28 28 28 7f 28 28 28 28 28 28 28     .(((((((.(((((((
    382a:	28 28 28 28 28 28 28 28 28 28 28 28 28 28 28 28     ((((((((((((((((
    383a:	28 28 28 28 28 28 28 28 28 28 28 28 28 28 28 28     ((((((((((((((((
	...
    386a:	28 28 28 28 28 28 28 28 28 28 28 28 28 28 28 28     ((((((((((((((((
    387a:	28 28 28 28 28 28 28 28 28 28 28 28 28 28 28 28     ((((((((((((((((
    388a:	7f 28 28 28 28 28 28 28 7f 28 28 28 28 28 28 28     .(((((((.(((((((
    389a:	7f 28 28 28 28 28 28 28 7f 28 28 28 28 28 28 28     .(((((((.(((((((
    38aa:	7f 7f 7f 7f 7f 7f 7f 28 28 28 28 28 28 28 28 28     .......(((((((((
    38ba:	28 28 28 28 28 28 28 28 28 28 28 28 28 28 28 28     ((((((((((((((((
    38ca:	28 28 28 28 28 28 28 28 28 28 28 28 28 28 28 28     ((((((((((((((((
    38da:	28 28 28 28 28 28 28 28 28 28 28 28 28 28 28 28     ((((((((((((((((
    38ea:	28 28 28 28 28 28 00 00 00 00 00 00 00 00 00 00     ((((((..........
	...
    392a:	00 00 f5 90 f5 90 f5 90 00 00 f5 90 f5 90 f5 90     ................
    393a:	00 00 f5 90 f5 90 f5 90 00 00 00 00 e1 e1 e1 e1     ................
    394a:	00 00 00 00 e1 e1 e1 e1 00 00 00 00 00 e1 e1 e1     ................
    395a:	00 00 00 00 00 00 e1 e1 00 00 00 00 00 00 e1 e1     ................
    396a:	f5 90 f5 90 f5 90 f5 00 f5 90 f5 90 f5 90 f5 00     ................
    397a:	f5 90 f5 90 f5 90 f5 00 e1 e1 e1 e1 e1 00 00 00     ................
    398a:	e1 e1 e1 e1 e1 00 00 00 e1 e1 e1 e1 e1 e1 00 00     ................
    399a:	f0 f0 f0 e1 e1 e1 00 00 f0 f5 f0 f5 f5 f5 f5 f5     ................
	...
    39da:	00 f5 00 00 00 00 00 00 f5 f5 00 00 00 00 00 00     ................
	...
    3a12:	7f 7f 7f 7f 7f 7f 7f 7f 28 28 28 28 28 28 28 28     ........((((((((
    3a22:	28 28 28 28 28 28 28 28 12 12 12 20 20 20 29 2b     ((((((((...   )+
    3a32:	2b 2b 2b 20 20 20 29 29 12 12 12 20 20 20 20 20     +++   ))...     
    3a42:	2b 2b 2b 20 20 20 20 20 12 12 12 20 20 20 00 00     +++     ...   ..
    3a52:	2b 2b 2b 20 20 00 00 00 12 12 12 00 00 00 00 00     +++  ...........
    3a62:	2b 2b 2b 00 00 00 00 00 2b 29 20 20 20 12 12 12     +++.....+)   ...
    3a72:	29 29 20 20 20 2b 2b 2b 20 20 20 20 20 12 12 12     ))   +++     ...
    3a82:	20 20 20 20 20 2b 2b 2b 00 00 20 20 20 12 12 12          +++..   ...
    3a92:	00 00 00 20 20 2b 2b 2b 00 00 00 00 00 12 12 12     ...  +++........
    3aa2:	00 00 00 00 00 2b 2b 2b 7f 28 28 28 28 28 28 28     .....+++.(((((((
    3ab2:	28 28 28 28 28 28 28 28 28 28 28 28 28 28 28 28     ((((((((((((((((
    3ac2:	28 28 28 28 28 28 28 28 28 28 28 28 28 28 28 28     ((((((((((((((((
    3ad2:	28 28 28 28 28 28 28 28 28 28 28 28 28 28 28 28     ((((((((((((((((
    3ae2:	28 28 28 28 28 28 28 28 28 28 28 28 28 28 28 28     ((((((((((((((((
    3af2:	28 28 28 28 28 28 28 28 28 28 28 28 28 28 28 28     ((((((((((((((((
    3b02:	28 28 28 28 28 28 28 28 28 28 28 28 28 28 28 28     ((((((((((((((((
    3b12:	28 28 28 28 28 28 28 28 28 28 28 28 28 28 28 28     ((((((((((((((((
    3b22:	28 28 28 28 28 28 28 28 00 00 00 00 00 00 e1 e1     ((((((((........
    3b32:	00 00 00 00 00 00 e1 e1 00 00 00 00 00 e1 e1 e1     ................
    3b42:	00 00 00 00 e1 e1 e1 e1 00 00 00 00 e1 e1 e1 e1     ................
    3b52:	00 00 f5 90 f5 90 f5 90 00 00 f5 90 f5 90 f5 90     ................
    3b62:	00 00 f5 90 f5 90 f5 90 f0 f5 f0 f5 f5 f5 f5 f5     ................
    3b72:	f0 f0 f0 e1 e1 e1 00 00 e1 e1 e1 e1 e1 e1 00 00     ................
    3b82:	e1 e1 e1 e1 e1 00 00 00 e1 e1 e1 e1 e1 00 00 00     ................
    3b92:	f5 90 f5 90 f5 90 f5 00 f5 90 f5 90 f5 90 f5 00     ................
    3ba2:	f5 90 f5 90 f5 90 f5 00 f5 f5 00 00 00 00 00 00     ................
    3bb2:	00 f5 00 00 00 00 00 00 00 00 00 00 00 00 00 00     ................
	...
    3bea:	28 28 28 28 28 28 28 28 28 28 28 28 28 28 28 28     ((((((((((((((((
    3bfa:	28 28 28 28 28 28 28 28 28 28 28 28 28 28 28 28     ((((((((((((((((
    3c0a:	28 28 28 28 28 28 28 28 00 00 00 00 00 00 00 00     ((((((((........
	...
    3c2e:	00 00 f5 f5 00 00 00 00 00 00 00 f5 00 00 00 00     ................
    3c3e:	00 00 00 f5 f5 f5 f5 00 00 00 00 f5 90 90 90 00     ................
    3c4e:	00 e1 e1 f5 f5 f5 f5 e1 e1 e1 e1 f5 90 90 90 e1     ................
    3c5e:	e1 e1 e1 f5 f5 f5 f5 e1 e1 e1 f0 f0 f5 f5 00 00     ................
    3c6e:	00 00 00 00 f5 00 00 00 00 00 00 00 f5 00 00 00     ................
    3c7e:	00 00 00 00 f5 00 00 00 00 f5 f5 f5 f5 e1 e1 00     ................
    3c8e:	00 90 90 90 f5 e1 e1 e1 e1 f5 f5 f5 f5 e1 e1 e1     ................
    3c9e:	e1 90 90 90 f0 f0 e1 e1 e1 f5 f5 f5 00 00 00 00     ................
    3cae:	00 00 7f 28 00 00 00 00 00 00 7f 28 00 00 00 00     ...(.......(....
    3cbe:	00 00 7f 28 00 00 00 00 00 00 7f 28 00 00 00 00     ...(.......(....
    3cce:	00 00 7f 28 00 00 00 00 00 00 7f 28 00 00 00 00     ...(.......(....
    3cde:	00 00 7f 28 00 00 00 00 00 00 7f 28 28 28 28 28     ...(.......(((((
    3cee:	28 28 00 00 28 28 28 28 28 28 00 00 28 28 28 28     ((..((((((..((((
    3cfe:	28 28 00 00 28 28 28 28 28 28 00 00 28 28 28 28     ((..((((((..((((
    3d0e:	28 28 00 00 28 28 28 28 28 28 00 00 28 28 28 28     ((..((((((..((((
    3d1e:	28 28 00 00 28 28 28 28 28 28 00 00 00 00 00 00     ((..((((((......
    3d2e:	00 00 00 00 7f 7f 7f 7f 7f 7f 7f 7f 28 28 28 28     ............((((
    3d3e:	28 28 28 28 28 28 28 28 28 28 28 28 28 28 28 28     ((((((((((((((((
    3d4e:	28 28 28 28 28 28 28 28 28 28 28 28 28 28 28 28     ((((((((((((((((
    3d5e:	28 28 28 28 28 28 28 28 28 28 28 28 7f 28 28 28     ((((((((((((.(((
    3d6e:	28 28 28 28 7f 28 28 28 28 28 28 28 28 28 28 28     ((((.(((((((((((
    3d7e:	28 28 28 28 28 28 28 28 28 28 28 28 28 28 28 28     ((((((((((((((((
    3d8e:	28 28 28 28 28 28 28 28 28 28 28 28 28 28 28 28     ((((((((((((((((
    3d9e:	28 28 28 28 28 28 28 28 28 28 28 28 90 90 90 e1     ((((((((((((....
    3dae:	e1 e1 f0 f5 f5 f5 f5 e1 e1 e1 f0 f0 90 90 90 e1     ................
    3dbe:	e1 e1 e1 e1 f5 f5 f5 e1 e1 e1 e1 e1 90 90 90 e1     ................
    3dce:	e1 e1 00 00 f5 f5 f5 e1 e1 00 00 00 90 90 90 00     ................
    3dde:	00 00 00 00 f5 f5 f5 00 00 00 00 00 f5 f0 e1 e1     ................
    3dee:	e1 90 90 90 f0 f0 e1 e1 e1 f5 f5 f5 e1 e1 e1 e1     ................
    3dfe:	e1 90 90 90 e1 e1 e1 e1 e1 f5 f5 f5 00 00 e1 e1     ................
    3e0e:	e1 90 90 90 00 00 00 e1 e1 f5 f5 f5 00 00 00 00     ................
    3e1e:	00 90 90 90 00 00 00 00 00 f5 f5 f5 f0 f3 f0 f0     ................
    3e2e:	f3 f0 f3 f0 f5 f0 f0 f5 f5 f0 f0 f5 f4 f5 f5 f4     ................
    3e3e:	f4 f5 f5 f4 f0 f0 f3 f0 f0 f3 f0 f0 f3 f0 f2 f3     ................
    3e4e:	f3 f0 f2 f3 f0 f5 f5 f0 f0 f5 f5 f0 f5 f4 f4 f5     ................
    3e5e:	f5 f4 f4 f5 f0 f0 f3 f0 f0 f0 f3 f0 f0 f3 f0 f0     ................
    3e6e:	f3 f0 f3 f0 f5 f0 f0 f5 f5 f0 f0 f5 f4 f5 f5 f4     ................
    3e7e:	f4 f5 f5 f4 f0 f0 f3 f0 f0 f3 f0 f0 f3 f0 f2 f3     ................
    3e8e:	f0 f0 f3 f0 f0 f5 f5 e8 e8 e8 e8 e8 f5 f4 f4 e8     ................
    3e9e:	e8 e8 f4 f5 f0 f0 f3 e8 e8 e8 f3 f0 f0 f3 f0 f0     ................
    3eae:	f3 f0 f3 f0 f5 f0 f0 f5 f5 f0 f0 f5 f4 f5 f5 f4     ................
    3ebe:	f4 f5 f5 f4 f0 f0 f3 f0 f0 f3 f0 f0 f3 f0 f2 f3     ................
    3ece:	f0 f0 f3 f0 f0 f5 f5 f0 f3 f5 f5 f0 e8 f4 f4 f5     ................
    3ede:	f5 f4 f4 f5 f0 e8 f3 f0 f3 f0 f3 f0 f0 f3 f0 f0     ................
    3eee:	f3 f0 f3 f0 f5 f0 f0 f5 f5 f0 f0 f5 f4 f5 f5 f4     ................
    3efe:	f4 f5 f5 f4 f0 f0 f3 f0 f0 f3 f0 f0 a3 a3 a3 a3     ................
    3f0e:	a3 a3 a3 a3 a3 a3 a3 a3 a3 a3 a3 a3 a3 a3 a3 a3     ................
    3f1e:	a3 a3 a3 a3 a3 a3 a3 a3 a3 a3 a3 a3 f0 f3 f0 f0     ................
    3f2e:	f3 f0 f3 f0 f5 f0 f0 f5 f0 f3 f0 f0 f4 f5 f5 f4     ................
    3f3e:	f5 f0 f0 f5 f0 f0 f3 f0 f0 f3 f0 f0 a3 a3 a3 a3     ................
    3f4e:	a3 a3 a3 a3 a3 a3 a3 a3 a3 a3 a3 a3 a3 a3 a3 a3     ................
    3f5e:	a3 a3 a3 a3 a3 a3 a4 a4 a4 a4 a4 a4 f0 f3 f0 f0     ................
    3f6e:	f3 f0 f3 f0 f3 f0 f3 f0 f5 f0 f0 f5 f5 f0 f0 a3     ................
    3f7e:	a3 a3 a3 a3 f0 f0 f3 a3 a3 a3 a3 a3 a3 a3 a3 a3     ................
    3f8e:	a3 a3 a3 a3 a3 a3 a3 a3 a3 a3 a3 a3 a3 a3 a3 a3     ................
    3f9e:	a3 a3 a3 a3 a4 a4 a4 a4 a4 a4 a4 a4 f0 f3 f0 f0     ................
    3fae:	f3 f0 f3 f0 f5 f0 f0 f5 f5 f0 f0 f5 a3 a3 a3 a3     ................
    3fbe:	a3 a3 a3 a3 a3 a3 a3 a3 a3 a3 a3 a3 a3 a3 a3 a3     ................
    3fce:	a3 a3 a3 a3 a3 a3 a3 a3 a3 a3 a3 a3 a3 a3 a3 a3     ................
    3fde:	a3 a3 a3 a4 a4 a4 a4 a4 a4 9a a4 a4 f0 f3 f0 f0     ................
    3fee:	f3 f0 f3 a3 f5 f0 f0 f5 f5 f0 f0 a3 a3 a3 a3 a3     ................
    3ffe:	a3 a3 a3 a3 a3 a3 a3 a3 a3 a3 a3 a3 a3 a3 a3 a3     ................
    400e:	a3 a3 a3 a3 a3 a3 a3 a3 a3 a3 a3 a3 a4 a4 a4 a4     ................
    401e:	a4 a4 a4 a4 a4 a4 a4 a4 a4 a4 a4 a4 a3 a3 a3 a3     ................
    402e:	a3 a3 a3 a3 a3 a3 a3 a3 a3 a3 a3 a3 a3 a3 a3 a3     ................
    403e:	a3 a3 a3 a3 a3 a3 a3 a3 a3 a3 a3 a3 a3 a3 a3 a3     ................
    404e:	a3 a3 a3 a3 a3 a3 a3 a3 a3 a3 a3 a3 a4 a4 a4 a4     ................
    405e:	a4 a4 a4 a4 a4 a4 a4 a4 a4 a4 a4 a4 a3 f3 f0 f0     ................
    406e:	f3 f0 f3 f0 a3 f0 f0 f5 f5 f0 f0 f5 a3 a3 a3 a3     ................
    407e:	a3 a3 a3 a3 a3 a3 a3 a3 a3 a3 a3 a3 a3 a3 a3 a3     ................
    408e:	a3 a3 a3 a3 a3 a3 a3 a3 a3 a3 a3 a3 a4 a4 a4 a4     ................
    409e:	a4 a4 a4 a4 a4 a4 a4 a4 a4 a4 a4 a4 f0 f3 f0 f0     ................
    40ae:	f3 f0 f3 f0 f5 f0 f0 f5 f5 f0 f0 f5 a3 a3 a3 a3     ................
    40be:	a3 a3 a3 a3 a3 a3 a3 a3 a3 a3 a3 a3 a3 a3 a3 a3     ................
    40ce:	a3 a3 a3 a3 a3 a3 a3 a3 a3 a3 a3 a3 a4 a4 a3 a3     ................
    40de:	a3 a3 a3 a3 a4 a4 a4 9a a4 a4 a4 a4 f0 f3 f0 f0     ................
    40ee:	f3 f0 f3 f0 f5 f0 f0 f5 f5 f0 f0 f5 a3 a3 a3 a3     ................
    40fe:	a3 f5 f5 f4 a3 a3 a3 a3 a3 f3 f0 f0 a3 a3 a3 a3     ................
    410e:	a3 a3 a3 a3 a3 a3 a3 a3 a3 a3 a3 a3 a3 a3 a3 a3     ................
    411e:	a3 a3 a3 a3 a4 a4 a4 a4 a4 a4 a4 a4 f0 f3 f0 f0     ................
    412e:	f3 f0 f3 f0 f5 f0 f0 f5 f5 f0 f0 f5 f4 f5 f5 f4     ................
    413e:	f4 f5 f5 f4 f0 f0 f3 f0 f0 f3 f0 f0 a3 a3 a3 a3     ................
    414e:	a3 a3 a3 a3 a3 a3 a3 a3 a3 a3 a3 a3 a3 a3 a3 a3     ................
    415e:	a3 a3 a3 a3 a4 a4 a4 a4 a4 a4 a3 a3 f0 f3 f0 f0     ................
    416e:	f3 f0 f3 f0 f5 f0 f0 f5 f5 f0 f0 f5 f4 f5 f5 f4     ................
    417e:	f4 f5 f5 f4 f0 f0 f3 f0 f0 f3 f0 f0 f3 f0 f2 e8     ................
    418e:	e8 e8 e8 e8 f0 f5 f5 e8 e8 e8 e8 f0 f5 f4 f4 e8     ................
    419e:	e8 e8 e8 f5 f0 f0 f3 e8 e8 e8 e8 f0 f0 f3 f0 f0     ................
    41ae:	f3 f0 f3 f0 f5 f0 f0 f5 f5 f0 f0 f5 f4 f5 f5 f4     ................
    41be:	f4 f5 f5 f4 f0 f0 f3 f0 f0 f3 f0 f0 e8 f0 f2 f3     ................
    41ce:	f0 f0 f3 f0 f0 e8 f5 f0 f3 f5 f5 f0 f5 f4 e8 f5     ................
    41de:	f5 f4 f4 f5 f0 f0 f3 e8 f3 f0 f3 f0 f0 f3 f0 f0     ................
    41ee:	f3 f0 f3 f0 f5 f0 f0 f5 f5 f0 f0 f5 f4 f5 f5 f4     ................
    41fe:	f4 f5 f5 f4 f0 f0 f3 f0 f0 f3 f0 ff f3 f0 f2 f3     ................
    420e:	ff ff ff a3 f0 ff ff ff ff ff ff a3 ff f4 f4 a3     ................
    421e:	a3 a3 a3 a3 f0 f0 a3 a3 a3 a3 a3 a3 f0 f3 f0 f0     ................
    422e:	f3 ff ff f0 f5 f0 f0 f5 ff ff ff f5 f4 f5 ff ff     ................
    423e:	ff ff f5 f4 ff ff ff ff ff f3 f0 f0 a3 a3 a3 a3     ................
    424e:	a3 a3 a3 a3 a3 a3 a3 a3 a3 a3 a3 a3 a3 a3 a3 9a     ................
    425e:	a3 a3 a3 a3 a3 a3 9a 9a 9a a3 a3 a3 f0 f3 f0 e8     ................
    426e:	e8 e8 f3 f0 a3 a3 a3 a3 a3 a3 a3 a3 a3 a3 a3 a3     ................
    427e:	a3 a3 a3 a3 a3 a3 a3 a3 a3 a3 a3 a3 a3 a3 a3 a3     ................
    428e:	a3 a3 a3 a3 a3 a3 a3 a3 a3 a3 a3 a3 a3 a3 a3 a3     ................
    429e:	a3 a3 a3 a3 a3 a3 a3 a3 a3 a3 a3 a3 f0 f3 e8 f0     ................
    42ae:	f3 f0 f3 f0 a3 a3 a3 a3 a3 a3 a3 a3 a3 a3 a3 a3     ................
    42be:	a3 a3 a3 a3 a3 a3 a3 a3 a3 a3 a3 a3 a3 a3 a3 a3     ................
    42ce:	a3 a3 a3 a3 a3 a4 a4 a4 a4 a4 a4 a4 a3 a4 a4 a4     ................
    42de:	a4 a4 a4 9a a3 a4 a4 a4 a4 a4 a4 9a f0 f3 f0 f0     ................
    42ee:	f3 f0 f3 f0 a3 a3 a3 a3 a3 a3 a3 a3 a3 a3 a3 a3     ................
    42fe:	a3 a3 a3 a3 a3 a3 a3 a3 a3 a3 a3 a3 a3 a3 a3 a3     ................
    430e:	a3 a3 a3 a3 a4 a4 a4 a4 a4 a4 a4 9a 9a 9a 9a a4     ................
    431e:	a4 a4 a4 a4 9a 9a 9a a4 a4 a4 a4 a4 f0 f3 f0 f0     ................
    432e:	f3 f0 f3 f0 a3 a3 a3 a3 a3 a3 a3 a3 a3 a3 a3 a3     ................
    433e:	a3 a3 a3 a3 a3 a3 a3 a3 a3 a3 a3 a3 a3 a3 a3 a3     ................
    434e:	a3 a3 a3 a3 9a 9a 9a 9a 9a 9a 9a 9a 9a 9a 9a 9a     ................
    435e:	9a 9a 9a 9a a4 a4 a4 a4 a4 a4 a4 a4 a3 a3 a3 a3     ................
    436e:	a3 a3 a3 a3 a3 a3 a3 a3 a3 a3 a3 a3 a3 a3 a3 a3     ................
    437e:	a3 a3 a3 a3 a3 a3 a3 a3 a3 a3 a3 a3 a3 a3 a3 a3     ................
    438e:	a3 a3 a3 a3 9a 9a 9a 9a 9a 9a 9a 9a 9a 9a 9a 9a     ................
    439e:	9a 9a 9a 9a a4 a4 a4 a4 a4 a4 a4 a4 a3 a3 9a a4     ................
    43ae:	a4 9a 9a a4 a3 a3 a4 a4 a4 a4 a4 a4 a3 a3 9a a4     ................
    43be:	a4 9a 9a a4 a3 a3 a4 a4 a4 a4 a4 a4 a3 a3 9a 9a     ................
    43ce:	9a 9a 9a 9a 9a a4 a4 a4 a4 a4 a4 a4 a4 a4 a4 a4     ................
    43de:	a4 a4 a4 a4 a4 a4 a4 a4 a4 a4 a4 a4 a4 9a 9a a4     ................
    43ee:	a4 9a 9a a4 a4 a4 a4 a4 a4 a4 a4 a4 a4 9a 9a a4     ................
    43fe:	a4 9a 9a a4 a4 a4 a4 a4 a4 a4 a4 a4 9a 9a 9a 9a     ................
    440e:	9a 9a 9a 9a a4 a4 a4 a4 a4 a4 a4 a4 a4 a4 a4 a4     ................
    441e:	a4 a4 a4 a4 a4 a4 a4 a4 a4 a4 a4 a4 a4 9a 9a a4     ................
    442e:	a4 9a 9a a4 a4 a4 a4 a4 a4 9a a4 a4 a4 9a 9a a4     ................
    443e:	a4 9a 9a a4 a4 a4 a4 a4 a4 9a a4 a4 9a 9a 9a 9a     ................
    444e:	9a 9a 9a 9a a4 a4 a4 a4 a4 a4 a4 a4 a4 a4 a4 a4     ................
    445e:	a4 a4 a4 a4 a4 a4 a4 a4 a4 a4 a4 a4 a4 9a 9a a4     ................
    446e:	a4 9a 9a a4 a4 a4 a4 a4 a4 a4 a4 a4 a4 9a 9a a4     ................
    447e:	a4 9a 9a a4 a4 a4 a4 a4 a4 a4 a4 a3 9a 9a 9a 9a     ................
    448e:	9a 9a 9a a3 a4 a4 a4 a4 a4 a4 a3 a3 a4 a4 a4 a4     ................
    449e:	a4 a3 a3 a3 a4 a4 a4 a4 a4 a3 a3 a3 a4 9a 9a a4     ................
    44ae:	a3 a3 a3 a3 a4 9a a3 a3 a3 a3 a3 a3 a3 a3 a3 a3     ................
    44be:	a3 a3 a3 a3 a3 a3 a3 a3 a3 a3 a3 a3 a3 a3 a3 a3     ................
    44ce:	a3 a3 a3 a3 a3 a3 a3 a3 a3 a3 a3 a3 a3 a3 a3 a3     ................
    44de:	4a a3 a3 a3 a3 a3 a3 4a 4a 4a a3 a3 a3 a3 a3 a4     J......JJJ......
    44ee:	a4 9a 9a a4 a3 a3 a3 a3 a4 a4 a4 a4 a3 a3 a3 a0     ................
    44fe:	a0 a0 a0 a0 a3 a3 a0 a0 a0 a0 a0 a0 a3 a0 a0 a0     ................
    450e:	a0 a0 a0 a0 a3 a0 a0 a0 a0 a0 a0 a0 a3 a0 a0 a0     ................
    451e:	4a 4a 4a a0 a3 a0 a0 4a 4a 4a 4a 4a a4 9a 9a a4     JJJ....JJJJJ....
    452e:	a4 9a 9a a4 a4 a4 a4 a4 a4 a4 a4 a4 a0 a0 a0 a4     ................
    453e:	a4 9a 9a a4 a0 a0 a0 a4 a4 a4 a4 a4 a0 a0 a0 a0     ................
    454e:	a0 a0 a0 9a a0 a0 a0 a0 a0 a0 a0 a4 a0 a0 a0 a0     ................
    455e:	a0 a0 a0 9a a0 a0 a0 a0 a0 a0 a0 ad a4 9a 9a a4     ................
    456e:	a4 9a 9a a4 a4 a4 a4 a4 a4 a4 a4 a4 a4 9a 9a a4     ................
    457e:	a4 9a 9a a4 a4 a4 a4 a4 a4 a4 a4 a4 9a 9a 9a 9a     ................
    458e:	9a 9a 9a 9a a4 a4 a4 a4 a4 a4 a4 a4 a4 a4 a4 a4     ................
    459e:	a4 a4 a4 a4 ad ad ad ad ad ad ad ad a4 9a 9a 9a     ................
    45ae:	a4 9a 9a a4 a4 a4 a4 9a a4 a4 a4 a4 a4 9a 9a 9a     ................
    45be:	a4 9a 9a a4 a4 a4 a4 9a a4 a4 a4 a4 9a 9a 9a 9a     ................
    45ce:	9a 9a 9a 9a a4 a4 a4 a4 a4 a4 a4 a4 a4 a4 a4 a4     ................
    45de:	a4 a4 a4 a4 ad ad ad ad ad ad ad ad a4 9a 9a a4     ................
    45ee:	a4 9a 9a a4 a4 a4 a4 a4 a4 a4 a4 a4 a4 9a 9a a4     ................
    45fe:	a4 9a 9a a4 a4 a4 a4 a4 a4 a4 a4 a4 9a 9a 9a 9a     ................
    460e:	9a 9a 9a 9a a4 a4 a4 a4 a4 a4 a4 a4 a4 a4 a4 a4     ................
    461e:	a4 a4 9a 9a ad ad ad ad ad ad ad ad a4 9a 9a a4     ................
    462e:	a4 9a a3 a3 a4 a4 a4 a4 a4 a4 9a a3 a4 9a 9a a4     ................
    463e:	a4 9a 9a a3 a4 a4 a4 a4 a4 a4 9a a3 9a 9a 9a 9a     ................
    464e:	9a 9a 9a a3 a4 a4 a4 a4 a4 a4 a4 a4 9a 9a 9a 9a     ................
    465e:	9a 9a 9a a4 ad ad ad ad ad ad ad ad a3 a3 a3 a3     ................
    466e:	a3 a3 a3 a3 a3 a3 a3 a3 a3 a3 a3 a3 a3 a3 a3 a3     ................
    467e:	a3 a3 a3 a3 a3 a3 a3 a3 a3 a3 a3 a3 a3 a3 a3 a3     ................
    468e:	a3 a3 a3 a3 a4 a4 a4 a4 a4 a4 a4 a4 a4 a4 a4 a4     ................
    469e:	a4 a4 a4 a4 ad ad ad ad ad ad ad ad f0 f3 f0 f0     ................
    46ae:	f3 f0 f3 f0 a3 a3 a3 a3 a3 a3 a3 a3 a3 a3 a3 a3     ................
    46be:	a3 a3 a3 a3 a3 a3 a3 a3 a3 a3 a3 a3 a3 a3 a3 a3     ................
    46ce:	a3 a3 a3 a3 a4 a4 a4 a4 a4 a4 a4 a4 a4 a4 a4 a4     ................
    46de:	a4 a4 a4 a4 ad ad ad ad ad ad ad ad f0 f3 f0 e8     ................
    46ee:	e8 e8 e8 f0 a3 a3 a3 a3 a3 a3 a3 a3 a3 a3 a3 a3     ................
    46fe:	a3 a3 a3 a3 a3 a3 a3 a3 a3 a3 a3 a3 a3 a3 a3 a3     ................
    470e:	a3 a3 a3 a3 a4 a4 a4 a4 a4 a4 a4 a3 a4 a4 a4 a4     ................
    471e:	a4 a4 a4 a3 ad ad ad ad ad ad ad ad f0 f3 f0 f0     ................
    472e:	e8 f0 f3 f0 a3 a3 a3 a3 a3 a3 a3 a3 a3 a3 a3 a3     ................
    473e:	a3 a3 a3 a3 a3 a3 a3 a3 a3 a3 a3 a3 a3 a3 a3 a3     ................
    474e:	a3 a3 a3 a3 a3 a3 a3 a3 a3 a3 a3 a3 a3 a3 a3 a3     ................
    475e:	a3 a3 a3 a3 ad ad ad ad ad ad ad ad f0 ff ff f0     ................
    476e:	f3 f0 f3 f0 f5 ff ff ff f5 f0 f0 f5 f4 f5 ff ff     ................
    477e:	ff ff f5 f4 f0 f0 f3 f0 f0 ff ff ff a3 a3 a3 a3     ................
    478e:	a3 a3 a3 a3 a3 a3 a3 a3 a3 a3 a3 a3 a3 a3 a3 a3     ................
    479e:	a3 a3 a3 a3 ad ad ad ad ad ad ad ad f0 f3 f0 f0     ................
    47ae:	f3 f0 f3 f0 f5 f0 f0 f5 f5 f0 f0 f5 f4 f5 f5 f4     ................
    47be:	f4 f5 f5 f4 ff f0 f3 f0 f0 f3 f0 f0 a3 ff ff ff     ................
    47ce:	f0 f0 f3 f0 a3 ff ff ff ff ff ff f0 a3 a3 a3 a3     ................
    47de:	a3 f4 f4 ff ad ad ad ad ad 9a 9a f0 f0 f3 a3 a3     ................
    47ee:	a3 a3 a3 a3 ff f0 f0 a3 a3 a3 a3 a3 f4 ff ff ff     ................
    47fe:	ff ff ff a3 f0 ff ff ff ff ff ff 9a f3 f0 f2 f3     ................
    480e:	f0 f0 f3 ff f0 f5 f5 f0 f3 f5 f5 f0 f5 f4 f4 f5     ................
    481e:	f5 f4 f4 f5 f0 f0 f3 f0 f3 f0 f3 f0 a3 a3 9a 9a     ................
    482e:	9a a3 a3 a3 a3 a3 a3 9a a3 a3 a3 a3 a3 a3 a3 a3     ................
    483e:	a3 a3 a3 a3 9a 9a 9a 9a 9a 9a 9a 9a ff 9a 9a 9a     ................
    484e:	9a 9a 9a 9a f0 f5 ff ff ff ff f5 9a f5 f4 f4 f5     ................
    485e:	f5 ff ff 9a f0 f0 f3 f0 f3 ff ff 9a a3 a3 a3 a3     ................
    486e:	a3 a3 a3 a3 a3 a3 a3 a3 a3 a3 a3 a3 a3 a3 a3 a3     ................
    487e:	a3 a3 a3 a3 9a a3 a3 a3 a3 a3 a3 a3 9a a3 a3 a3     ................
    488e:	a3 a3 a3 a3 9a a3 a3 a3 a3 a3 a3 a3 9a 9a 9a 9a     ................
    489e:	9a 9a 9a 9a 9a 9a 9a 9a 9a 9a 9a 9a a3 a4 a4 a4     ................
    48ae:	a4 a4 a4 9a a3 a4 a4 a4 a4 a4 a4 9a a3 a4 a4 a4     ................
    48be:	a4 a4 a4 a4 a3 a3 9a 9a 9a 9a 9a 9a a3 a3 a3 a3     ................
    48ce:	a3 a3 a3 a3 a3 a3 a3 a3 a3 a3 a3 a3 9a 9a 9a 9a     ................
    48de:	9a 9a 9a 9a 9a 9a 9a 9a 9a 9a 9a 9a 9a 9a 9a a4     ................
    48ee:	a4 a4 a4 a4 9a 9a 9a a4 a4 a4 a4 a4 a4 a4 a4 a4     ................
    48fe:	a4 a4 a4 9a 9a 9a 9a 9a 9a 9a 9a 9a a3 a3 a3 a3     ................
    490e:	a3 a3 a3 a3 a3 a3 a3 a3 a3 a3 a3 a3 9a 9a 9a 9a     ................
    491e:	9a 9a 9a 9a 9a 9a 9a 9a 9a 9a 9a 9a a4 a4 a4 a4     ................
    492e:	a4 a4 a4 a4 9a 9a 9a 9a 9a 9a 9a 9a 9a 9a 9a 9a     ................
    493e:	9a 9a 9a 9a 9a 9a 9a 9a 9a 9a 9a 9a a3 a3 a3 a3     ................
    494e:	a3 a3 a3 a3 a3 a3 a3 a3 a3 a3 a3 a3 9a 9a 9a 9a     ................
    495e:	9a 9a 9a 9a 9a 9a 9a 9a 9a 9a 9a 9a a4 a4 a4 a4     ................
    496e:	a4 a4 a4 a4 9a 9a 9a 9a 9a 9a 9a 9a 9a 9a 9a 9a     ................
    497e:	9a 9a 9a 9a 9a 9a 9a 9a 9a 9a 9a 9a a3 a3 a3 a3     ................
    498e:	a3 a3 a3 a3 a3 a3 a3 a3 a3 a3 a3 a3 9a a3 a3 a3     ................
    499e:	a3 a3 a3 a3 9a a3 a3 a3 a3 a3 a3 a3 a4 a4 a4 a4     ................
    49ae:	a4 a4 a4 a4 a4 a4 a4 a4 a4 a4 a4 a4 9a a4 a4 a4     ................
    49be:	a4 a4 a4 a4 9a 9a 9a 9a 9a 9a 9a 9a a3 a3 a4 a4     ................
    49ce:	a4 a4 a4 a4 a3 a3 9a a4 a4 9a 9a a4 a3 a3 a4 a4     ................
    49de:	a4 a4 a4 a4 a3 a3 9a a4 a4 9a 9a a4 a4 a4 a4 a4     ................
    49ee:	a4 a4 a4 a4 a4 a4 a4 a4 a4 a4 a4 a4 a4 a4 a4 a4     ................
    49fe:	a4 a4 a4 a4 9a 9a 9a 9a 9a 9a 9a 9a a4 a4 a4 a4     ................
    4a0e:	a4 a4 a4 a4 a4 9a 9a a4 a4 9a 9a a4 a4 a4 a4 a4     ................
    4a1e:	a4 a4 a4 a4 a4 9a 9a a4 a4 9a 9a a4 a4 a4 a4 a4     ................
    4a2e:	a4 a4 a4 a4 a4 a4 a4 a4 a4 a4 a4 a4 a4 a4 a4 a4     ................
    4a3e:	a4 a4 a4 a4 9a 9a 9a 9a 9a 9a 9a 9a a4 a4 a4 a4     ................
    4a4e:	a4 9a a4 a4 a4 9a 9a a4 a4 9a 9a a4 a4 a4 a4 a4     ................
    4a5e:	a4 9a a4 a4 a4 9a 9a a4 a4 9a 9a a4 a4 a4 a4 a4     ................
    4a6e:	a4 a3 a3 a3 a4 a4 a4 a4 a4 a3 a3 a3 a4 a4 a4 a4     ................
    4a7e:	a4 a4 9a a3 9a 9a 9a 9a 9a 9a 9a a3 a4 a4 a4 a4     ................
    4a8e:	a4 a4 9a 9a a4 a4 9a 9a a4 a4 9a 9a a4 a4 a4 a4     ................
    4a9e:	a4 a4 a4 a4 a4 a4 9a 9a a4 a4 9a 9a a3 a3 a3 4a     ...............J
    4aae:	4a 4a a3 a3 a3 a3 a3 a3 4a a3 a3 a3 a3 a3 a3 a3     JJ......J.......
    4abe:	a3 a3 a3 a3 a3 a3 a3 a3 a3 a3 a3 a3 a3 a3 a3 a3     ................
    4ace:	a3 a3 a3 a3 9a a3 a3 a3 a3 a3 a3 a3 9a 9a 9a 9a     ................
    4ade:	a3 a3 a3 a3 a4 9a 9a 9a 9a 9a 9a 9a a3 a0 a0 4a     ...............J
    4aee:	4a 4a 4a 4a a3 a0 a0 a0 4a 4a 4a a0 a3 a0 a0 a0     JJJJ....JJJ.....
    4afe:	a0 a0 a0 a0 a3 a0 a0 a0 a0 a0 a0 a0 a3 a3 9a a0     ................
    4b0e:	a0 a0 a0 a0 a3 a3 a3 9a 9a 9a 9a 9a a3 a3 a3 9a     ................
    4b1e:	9a 9a 9a 9a 9a 9a 9a 9a 9a 9a 9a a4 a0 a0 a0 a0     ................
    4b2e:	a0 a0 a0 9a a0 a0 a0 a0 a0 a0 9a a4 a0 a0 a0 a0     ................
    4b3e:	a0 a0 9a 9a a0 a0 9a 9a 9a 9a 9a 9a a0 a0 9a 9a     ................
    4b4e:	9a 9a 9a 9a 9a 9a 9a 9a a4 9a 9a a4 9a 9a 9a a4     ................
    4b5e:	a4 a4 a4 a4 a4 9a 9a a4 a4 9a 9a a4 a4 a4 a4 a4     ................
    4b6e:	a4 a4 a4 a4 a4 a4 a4 a4 a4 a4 a4 a4 a4 a4 a4 a4     ................
    4b7e:	a4 a4 a4 a4 9a 9a 9a 9a 9a 9a 9a 9a a4 a4 a4 9a     ................
    4b8e:	a4 a4 a4 a4 a4 9a 9a 9a a4 9a 9a a4 a4 a4 a4 9a     ................
    4b9e:	a4 a4 a4 a4 a4 9a 9a 9a a4 9a 9a a4 a4 a4 a4 a4     ................
    4bae:	a4 a4 9a 9a a4 a4 a4 a4 a4 a4 a4 a4 a4 a4 a4 a4     ................
    4bbe:	a4 a4 a4 a4 9a 9a 9a 9a 9a 9a 9a 9a a4 a4 a4 a4     ................
    4bce:	a4 a4 a4 a4 a4 9a 9a a4 a4 9a 9a a4 a4 a4 a4 a4     ................
    4bde:	a4 a4 a4 a4 a4 9a 9a a4 a4 9a 9a a4 9a 9a 9a 9a     ................
    4bee:	9a 9a 9a a4 a4 a4 a4 a4 a4 a4 a4 a4 a4 a4 a4 a4     ................
    4bfe:	a4 a4 a4 a4 9a 9a 9a 9a 9a 9a 9a 9a a4 a4 a4 a4     ................
    4c0e:	a4 a4 a3 a3 a4 9a 9a a4 a4 9a a3 a3 a4 a4 a4 a4     ................
    4c1e:	a4 a4 9a a3 a4 9a 9a a4 a4 9a 9a a3 a4 a4 a4 a4     ................
    4c2e:	a4 a4 a4 a4 a4 a4 a4 a4 a4 a4 a4 a4 a4 a4 a4 a4     ................
    4c3e:	a4 a4 a4 a4 9a 9a 9a 9a 9a 9a 9a 9a a3 a3 a3 a3     ................
    4c4e:	a3 a3 a3 a3 a3 a3 a3 a3 a3 a3 a3 a3 a3 a3 a3 a3     ................
    4c5e:	a3 a3 a3 9a a3 a3 a3 a3 a3 a3 a3 9a a4 a4 a4 a4     ................
    4c6e:	a4 a4 a4 a4 a4 a4 a4 a4 a4 a4 a4 a4 a4 a4 a4 a4     ................
    4c7e:	a4 a4 a4 a4 9a 9a 9a 9a 9a 9a 9a 9a a3 a3 a3 a3     ................
    4c8e:	a3 a3 a3 a3 a3 a3 a3 a3 a3 a3 a3 a3 9a 9a 9a 9a     ................
    4c9e:	9a 9a 9a 9a 9a 9a 9a 9a 9a 9a 9a 9a a4 a4 a4 a4     ................
    4cae:	a4 a4 a4 9a a4 a4 a4 a4 a4 a4 a4 9a a4 a4 a4 a4     ................
    4cbe:	a4 a4 a4 9a 9a 9a 9a 9a 9a 9a 9a 9a a3 a3 a3 a3     ................
    4cce:	a3 a3 a3 a3 a3 a3 a3 a3 a3 a3 a3 a3 9a 9a 9a 9a     ................
    4cde:	9a 9a 9a 9a 9a 9a 9a 9a 9a 9a 9a 9a a3 a3 a3 a3     ................
    4cee:	a3 a3 a3 a3 a3 a3 a3 a3 a3 a3 a3 a3 a3 a3 a3 a3     ................
    4cfe:	a3 a3 a3 a3 a3 a3 a3 a3 a3 a3 a3 9a a3 a3 a3 a3     ................
    4d0e:	a3 a3 a3 9a a3 a3 a3 a3 a3 a3 a3 9a 9a 9a 9a 9a     ................
    4d1e:	9a 9a 9a 9a 9a 9a 9a 9a 9a 9a 9a 9a a3 a3 a3 a3     ................
    4d2e:	a3 a3 a3 a3 a3 a3 a3 a3 a3 a3 a3 a3 a3 a3 a3 a3     ................
    4d3e:	a3 a3 a3 a3 9a 9a 9a 9a 9a 9a 9a 9a 9a 9a 9a 9a     ................
    4d4e:	9a 9a 9a 9a 9a f5 ff ff ff ff f5 f0 9a ff ff ff     ................
    4d5e:	ff f4 f4 f5 9a ff ff f0 f3 f0 f3 f0 a3 a3 a3 a3     ................
    4d6e:	a3 9a 9a f0 9a 9a 9a 9a 9a 9a 9a ff 9a 9a 9a 9a     ................
    4d7e:	9a ff ff f4 9a 9a ff ff ff f3 f0 f0 9a 9a f2 f3     ................
    4d8e:	f0 f0 f3 f0 f0 f5 f5 f0 f3 f5 f5 f0 f5 f4 f4 f5     ................
    4d9e:	f5 f4 f4 f5 f0 f0 f3 f0 f3 f0 f3 f0 f0 f3 f0 e8     ................
    4dae:	e8 e8 f3 f0 f5 f0 f0 e8 e8 e8 f0 f5 f4 f5 f5 e8     ................
    4dbe:	e8 e8 e8 e8 f0 f0 f3 f0 f0 f3 f0 f0 f3 f0 f2 f3     ................
    4dce:	f0 f0 f3 f0 f0 f5 f5 f0 f3 f5 f5 f0 f5 f4 f4 f5     ................
    4dde:	f5 f4 f4 f5 f0 f0 f3 f0 f3 f0 f3 f0 f0 e8 f0 f0     ................
    4dee:	f3 f0 f3 f0 e8 f0 f0 f5 f5 f0 f0 f5 f4 f5 f5 f4     ................
    4dfe:	f4 f5 f5 f4 f0 f0 f3 f0 f0 f3 f0 f0 f3 f0 f2 f3     ................
    4e0e:	f0 f0 f3 f0 f0 f5 f5 f0 f3 f5 f5 f0 f5 f4 f4 f5     ................
    4e1e:	f5 f4 f4 f5 f0 f0 f3 f0 f3 f0 f3 f0 f0 f3 f0 f0     ................
    4e2e:	f3 f0 f3 9a f5 f0 f0 f5 f5 f0 f0 9a f4 f5 f5 f4     ................
    4e3e:	f4 f5 f5 9a f0 f0 f3 f0 f0 f3 f0 9a f3 f0 f2 f3     ................
    4e4e:	f3 f0 f2 9a f0 f5 f5 f0 f0 f5 f5 f0 f5 f4 f4 f5     ................
    4e5e:	f5 f4 f4 f5 f0 f0 f3 f0 f0 f0 f3 f0 9a a3 a3 a3     ................
    4e6e:	a3 a3 a3 a3 9a a3 a3 a3 a3 a3 a3 a3 9a a3 a3 a3     ................
    4e7e:	a3 a3 a3 a3 9a 9a 9a 9a 9a 9a 9a 9a 9a 9a 9a 9a     ................
    4e8e:	9a 9a 9a 9a f0 f5 f5 f0 f3 f5 f5 f0 f5 f4 f4 f5     ................
    4e9e:	f5 f4 f4 f5 f0 f0 f3 f0 f3 f0 f3 f0 a3 a3 a4 a4     ................
    4eae:	a4 a4 a4 a4 a3 a3 a3 a3 9a 9a 9a 9a a3 a3 a3 a3     ................
    4ebe:	a3 a3 a3 a3 9a 9a 9a 9a 9a 9a 9a 9a 9a 9a 9a 9a     ................
    4ece:	9a 9a 9a 9a f0 f5 f5 f0 f3 f5 f5 f0 f5 f4 f4 f5     ................
    4ede:	f5 f4 f4 f5 f0 f0 f3 f0 f3 f0 f3 f0 a4 a4 a4 a4     ................
    4eee:	a4 a4 a4 a4 9a 9a 9a 9a 9a 9a 9a 9a a3 a3 a3 a3     ................
    4efe:	a3 a3 a3 a3 9a 9a 9a 9a a3 a3 a3 a3 9a 9a 9a 9a     ................
    4f0e:	a3 a3 a3 a3 f0 f5 9a 9a 9a 9a 9a 9a f5 f4 9a 9a     ................
    4f1e:	9a 9a 9a 9a f0 f0 f3 f0 f3 f0 f3 f0 a4 a4 a4 a4     ................
    4f2e:	a4 9a a4 a4 9a 9a 9a 9a 9a 9a 9a a4 a3 a3 a3 a3     ................
    4f3e:	a3 a3 9a 9a a3 a3 a3 a3 a3 a3 a3 a3 a3 a3 a3 a3     ................
    4f4e:	a3 a3 a3 a3 9a 9a 9a 9a 9a 9a 9a 9a 9a 9a 9a 9a     ................
    4f5e:	9a 9a 9a 9a f0 f0 f3 f0 f3 f0 f3 f0 a4 a4 a4 a4     ................
    4f6e:	a4 a4 a4 a4 a4 a4 a4 a4 a4 a4 a4 a4 9a 9a 9a 9a     ................
    4f7e:	9a 9a 9a 9a a3 a3 a3 a3 a3 a3 a3 a3 a3 a3 a3 a3     ................
    4f8e:	a3 a3 a3 a3 9a 9a 9a 9a 9a 9a 9a 9a 9a 9a 9a 9a     ................
    4f9e:	9a 9a 9a 9a f0 f0 f3 f0 f3 f0 9a 9a a4 a4 a4 a4     ................
    4fae:	a4 a4 a4 a4 a4 a4 a4 a4 a4 a4 a4 a4 9a 9a 9a 9a     ................
    4fbe:	9a 9a 9a 9a a3 a3 a3 a3 a3 a3 a3 a3 a3 a3 a3 a3     ................
    4fce:	a3 a3 a3 a3 a3 a3 a3 a3 a3 a3 a3 a3 a3 a3 a3 a3     ................
    4fde:	a3 a3 a3 a3 9a 9a 9a 9a 9a 9a 9a 9a a4 a4 a4 a4     ................
    4fee:	9a 9a 9a 9a a4 a4 a4 a4 a4 a4 a4 a4 9a 9a 9a 9a     ................
    4ffe:	9a 9a 9a 9a a3 a3 a3 a3 a3 a3 a3 a3 a3 a3 a3 a3     ................
    500e:	a3 a3 a3 a3 a3 a3 a3 a3 a3 a3 a3 a3 a3 a3 a3 a3     ................
    501e:	a3 a3 a3 a3 9a 9a 9a 9a 9a 9a 9a 9a 9a 9a 9a 9a     ................
    502e:	a4 a4 a4 a4 a4 a4 a4 a4 a4 a4 a4 a4 9a 9a 9a 9a     ................
    503e:	9a 9a 9a 9a a3 a3 a3 a3 a3 a3 a3 a3 a3 a3 a3 a3     ................
    504e:	a3 a3 a3 a3 a3 a3 a3 a3 a3 a3 a3 a3 a3 a3 a3 a3     ................
    505e:	a3 a3 a3 a3 9a 9a 9a 9a 9a 9a 9a 9a a4 a4 a4 a4     ................
    506e:	a4 a4 a4 a4 a4 a4 a4 a4 a4 a4 a4 a4 9a 9a 9a 9a     ................
    507e:	9a 9a 9a 9a a3 a3 a3 a3 a3 a3 a3 a3 a3 a3 a3 a3     ................
    508e:	a3 a3 a3 a3 9a 9a 9a 9a 9a 9a 9a 9a 9a 9a 9a 9a     ................
    509e:	9a 9a 9a 9a 9a 9a f3 f0 f3 f0 f3 f0 a4 a4 a4 9a     ................
    50ae:	a4 a4 a4 a4 a4 a4 9a 9a 9a 9a 9a 9a 9a 9a 9a a3     ................
    50be:	a3 a3 a3 a3 a3 a3 a3 a3 a3 a3 a3 a3 a3 a3 a3 a3     ................
    50ce:	a3 a3 a3 a3 9a 9a 9a 9a 9a 9a 9a 9a 9a 9a 9a 9a     ................
    50de:	9a 9a 9a 9a f0 f0 f3 f0 f3 f0 f3 f0 a4 a4 a4 a4     ................
    50ee:	a4 a4 a4 a4 9a 9a 9a 9a 9a 9a 9a 9a a3 a3 a3 a3     ................
    50fe:	a3 a3 a3 a3 a3 a3 a3 a3 9a 9a 9a 9a a3 a3 a3 a3     ................
    510e:	9a 9a 9a 9a 9a 9a 9a 9a 9a 9a f5 f0 9a 9a 9a 9a     ................
    511e:	9a 9a f4 f5 f0 f0 f3 f0 f3 f0 f3 f0 a4 a4 a4 a4     ................
    512e:	a4 a4 9a a3 9a 9a 9a 9a 9a 9a 9a a3 a3 a3 a3 a3     ................
    513e:	a3 a3 a3 a3 9a 9a 9a 9a 9a 9a 9a 9a 9a 9a 9a 9a     ................
    514e:	9a 9a 9a 9a f0 f5 f5 f0 f3 f5 f5 f0 f5 f4 f4 f5     ................
    515e:	f5 f4 f4 f5 f0 f0 f3 f0 f3 f0 f3 f0 a3 a3 a3 a3     ................
    516e:	a3 a3 a3 9a a3 a3 a3 a3 a3 a3 a3 9a a3 a3 a3 a3     ................
    517e:	a3 a3 a3 9a 9a 9a 9a 9a 9a 9a 9a 9a 9a 9a 9a 9a     ................
    518e:	9a 9a 9a 9a f0 f5 f5 f0 f3 f5 f5 f0 f5 f4 f4 f5     ................
    519e:	f5 f4 f4 f5 f0 f0 f3 f0 f3 f0 f3 f0 9a f3 f0 f0     ................
    51ae:	f3 f0 f3 f0 9a f0 f0 f5 f5 f0 f0 f5 9a f5 f5 f4     ................
    51be:	f4 f5 f5 f4 9a f0 f3 f0 f0 f3 f0 f0 9a f0 f2 f3     ................
    51ce:	f0 f0 f3 f0 f0 f5 f5 f0 f3 f5 f5 f0 f5 f4 f4 f5     ................
    51de:	f5 f4 f4 f5 f0 f0 f3 f0 f3 f0 f3 f0 f0 f3 f0 e8     ................
    51ee:	e8 e8 e8 f0 f5 f0 f0 e8 e8 e8 e8 f5 f4 f5 f5 e8     ................
    51fe:	e8 e8 e8 f4 f0 f0 f3 e8 e8 e8 e8 e8 f3 f0 f2 f3     ................
    520e:	f0 f0 f3 f0 f0 f5 f5 f0 f3 f5 f5 f0 f5 f4 f4 f5     ................
    521e:	f5 f4 f4 f5 f0 f0 f3 f0 f3 f0 f3 f0 f0 f3 f0 e8     ................
    522e:	f3 f0 f3 f0 f5 f0 e8 f5 f5 f0 f0 f5 f4 e8 f5 f4     ................
    523e:	f4 f5 f5 f4 e8 f0 f3 f0 f0 f3 f0 f0 f3 f0 f2 f3     ................
    524e:	f0 f0 f3 f0 f0 f5 f5 f0 f3 f5 f5 f0 f5 f4 f4 f5     ................
    525e:	f5 f4 f4 f5 f0 f0 f3 f0 f3 f0 f3 f0 f0 f3 f0 f0     ................
    526e:	f3 f0 9a 9a f5 f0 f0 f5 f5 f0 f0 f5 f4 f5 f5 f4     ................
    527e:	f4 f5 f5 f4 f0 f0 f3 f0 f0 f3 f0 f0 f3 f0 f2 f3     ................
    528e:	f0 f0 f3 f0 f0 f5 f5 f0 f3 f5 f5 f0 f5 f4 f4 f5     ................
    529e:	f5 f4 f4 f5 f0 f0 f3 f0 f3 f0 f3 f0 9a 9a 9a 9a     ................
    52ae:	9a 9a 9a 9a f5 f0 f0 f5 f5 f0 f0 f5 f4 f5 f5 f4     ................
    52be:	f4 f5 f5 f4 f0 f0 f3 f0 f0 f3 f0 f0 f3 f0 f2 f3     ................
    52ce:	f0 f0 f3 f0 f0 f5 f5 f0 f3 f5 f5 f0 f5 f4 f4 f5     ................
    52de:	f5 f4 f4 f5 f0 f0 f3 f0 f3 f0 f3 f0 9a 9a f0 f0     ................
    52ee:	f3 f0 f3 f0 f5 f0 f0 f5 f5 f0 f0 f5 f4 f5 f5 f4     ................
    52fe:	f4 f5 f5 f4 f0 f0 f3 f0 f0 f3 f0 f0 f3 f0 f2 f3     ................
    530e:	f0 f0 f3 f0 f0 f5 f5 f0 f3 f5 f5 f0 f5 f4 f4 f5     ................
    531e:	f5 f4 f4 f5 f0 f0 f3 f0 f3 f0 f3 f0 f0 f3 f0 f0     ................
    532e:	f3 f0 f3 f0 f5 f0 f0 f5 f5 f0 f0 f5 f4 f5 f5 f4     ................
    533e:	f4 f5 f5 f4 f0 f0 f3 f0 f0 f3 f0 f0 e8 e8 e8 e8     ................
    534e:	e8 e8 e8 e8 e8 e8 e8 e8 e8 e8 e8 e8 e8 e8 e8 e8     ................
    535e:	e8 e8 e8 e8 e8 e8 e8 e8 e8 e8 e8 e8 f0 f3 f0 f0     ................
    536e:	f3 f0 f3 f0 f5 f0 f0 f5 f0 f3 f0 f0 f4 f5 f5 f4     ................
    537e:	f5 f0 f0 f5 f0 f0 f3 f0 f0 f3 f0 f0 e8 e8 e8 e8     ................
    538e:	e8 e8 e8 e8 e8 e8 e8 e8 e8 e8 e8 e8 e8 e8 e8 e8     ................
    539e:	e8 e8 e8 e8 e8 e8 e8 e8 e8 e8 e8 e8 f0 f3 f0 f0     ................
    53ae:	f3 f0 f3 f0 f3 f0 f3 f0 f5 f0 f0 f5 f5 f0 f0 e8     ................
    53be:	e8 e8 e8 e8 f0 f0 f3 e8 e8 e8 e8 e8 e8 e8 e8 e8     ................
    53ce:	e8 e8 e8 e8 e8 e8 e8 e8 e8 e8 e8 e8 e8 e8 e8 e8     ................
    53de:	e8 e8 e8 e8 e8 e8 e8 e8 e8 e8 e8 e8 f0 f3 f0 f0     ................
    53ee:	f3 f0 f3 f0 f5 f0 f0 f5 f5 f0 f0 f5 e8 e8 e8 e8     ................
    53fe:	e8 e8 e8 e8 e8 e8 e8 e8 e8 e8 e8 e8 e8 e8 e8 e8     ................
    540e:	e8 e8 e8 e8 e8 e8 e8 e8 e8 e8 e8 e8 e8 e8 e8 e8     ................
    541e:	e8 e8 e8 e8 e8 e8 e8 e8 e8 e8 e8 e8 f0 f3 f0 f0     ................
    542e:	f3 f0 f3 e8 f5 f0 f0 f5 f5 f0 f0 e8 e8 e8 e8 e8     ................
    543e:	e8 e8 e8 e8 e8 e8 e8 e8 e8 e8 e8 e8 e8 e8 e8 e8     ................
    544e:	e8 e8 e8 e8 e8 e8 e8 e8 e8 e8 e8 e8 e8 e8 e8 e8     ................
    545e:	e8 e8 e8 e8 e8 e8 e8 e8 e8 e8 e8 e8 e8 e8 e8 e8     ................
    546e:	e8 e8 e8 e8 e8 e8 e8 e8 e8 e8 e8 e8 e8 e8 e8 e8     ................
    547e:	e8 e8 e8 e8 e8 e8 e8 e8 e8 e8 e8 e8 e8 e8 e8 e8     ................
    548e:	e8 e8 e8 e8 e8 e8 e8 e8 e8 e8 e8 e8 e8 e8 e8 e8     ................
    549e:	e8 e8 e8 e8 e8 e8 e8 e8 e8 e8 e8 e8 e8 f3 f0 f0     ................
    54ae:	f3 f0 f3 f0 e8 f0 f0 f5 f5 f0 f0 f5 e8 e8 e8 e8     ................
    54be:	e8 e8 e8 e8 e8 e8 e8 e8 e8 e8 e8 e8 e8 e8 e8 e8     ................
    54ce:	e8 e8 e8 e8 e8 e8 e8 e8 e8 e8 e8 e8 e8 e8 e8 e8     ................
    54de:	e8 e8 e8 e8 e8 e8 e8 e8 e8 e8 e8 e8 f0 f3 f0 f0     ................
    54ee:	f3 f0 f3 f0 f5 f0 f0 f5 f5 f0 f0 f5 e8 e8 e8 e8     ................
    54fe:	e8 f5 f5 f4 e8 e8 e8 e8 e8 f3 f0 f0 e8 e8 e8 e8     ................
    550e:	e8 e8 e8 e8 e8 e8 e8 e8 e8 e8 e8 e8 e8 e8 e8 e8     ................
    551e:	e8 e8 e8 e8 e8 e8 e8 e8 e8 e8 e8 e8 f0 f3 f0 f0     ................
    552e:	f3 f0 f3 f0 f5 f0 f0 f5 f5 f0 f0 f5 f4 f5 f5 f4     ................
    553e:	f4 f5 f5 f4 f0 f0 f3 f0 f0 f3 f0 f0 f3 f0 f2 f3     ................
    554e:	f0 f0 f3 e8 f0 f5 f5 f0 f3 f5 f5 e8 f5 f4 f4 e8     ................
    555e:	e8 e8 e8 e8 f0 f0 e8 e8 e8 e8 e8 e8 f0 f3 f0 f0     ................
    556e:	f3 f0 f3 f0 e8 e8 e8 e8 e8 e8 e8 e8 e8 e8 e8 e8     ................
    557e:	e8 e8 e8 e8 e8 e8 e8 e8 e8 e8 e8 e8 e8 e8 e8 e8     ................
    558e:	e8 e8 e8 e8 e8 e8 e8 e8 e8 e8 e8 e8 e8 e8 e8 e8     ................
    559e:	e8 e8 e8 e8 e8 e8 e8 e8 e8 e8 e8 e8 f0 f3 f0 f0     ................
    55ae:	f3 f0 f3 f0 f5 f0 f0 f5 f5 f0 f0 f5 f4 f5 f5 f4     ................
    55be:	f4 f5 f5 f4 f0 f0 f3 f0 f0 f3 f0 f0 e8 f0 f2 f3     ................
    55ce:	f0 f0 f3 f0 e8 f5 f5 f0 f3 f5 f5 f0 e8 e8 e8 e8     ................
    55de:	e8 f4 f4 f5 e8 e8 e8 e8 e8 e8 f3 f0 f0 f3 e8 e8     ................
    55ee:	e8 e8 e8 e8 f5 f0 f0 e8 e8 e8 e8 e8 f4 f5 f5 f4     ................
    55fe:	f4 f5 f5 e8 f0 f0 f3 f0 f0 f3 f0 e8 f3 f0 f2 f3     ................
    560e:	f0 f0 f3 f0 f0 f5 f5 f0 f3 f5 f5 f0 f5 f4 f4 f5     ................
    561e:	f5 f4 f4 f5 f0 f0 f3 f0 f3 f0 f3 f0 e8 e8 e8 e8     ................
    562e:	e8 e8 e8 e8 e8 e8 e8 e8 e8 e8 e8 e8 e8 e8 e8 e8     ................
    563e:	e8 e8 e8 e8 e8 e8 e8 e8 e8 e8 e8 e8 f3 f0 f2 f3     ................
    564e:	f0 f0 f3 f0 f0 f5 f5 f0 f3 f5 f5 f0 f5 f4 f4 f5     ................
    565e:	f5 f4 f4 f5 f0 f0 f3 f0 f3 f0 f3 f0 e8 e8 e8 e8     ................
    566e:	e8 e8 e8 e8 e8 e8 e8 e8 e8 e8 e8 e8 e8 e8 e8 e8     ................
    567e:	e8 e8 e8 e8 e8 e8 e8 e8 e8 e8 e8 e8 e8 e8 e8 e8     ................
    568e:	e8 e8 e8 e8 e8 e8 e8 e8 e8 e8 e8 e8 e8 e8 e8 e8     ................
    569e:	e8 e8 e8 e8 f0 f0 f3 f0 f3 f0 f3 f0 e8 e8 e8 e8     ................
    56ae:	e8 e8 f3 f0 e8 e8 e8 e8 e8 f0 f0 f5 e8 f5 f5 f4     ................
    56be:	f4 f5 f5 f4 e8 f0 f3 f0 f0 f3 f0 f0 f3 f0 f2 f3     ................
    56ce:	f0 f0 f3 f0 f0 f5 f5 f0 f3 f5 f5 f0 f5 f4 f4 f5     ................
    56de:	f5 f4 f4 f5 f0 f0 f3 f0 f3 f0 f3 f0 e8 e8 e8 e8     ................
    56ee:	e8 e8 e8 e8 e8 e8 e8 e8 e8 e8 e8 e8 e8 e8 e8 e8     ................
    56fe:	e8 e8 e8 e8 e8 e8 e8 e8 e8 e8 e8 e8 f3 f0 f2 e8     ................
    570e:	e8 e8 e8 e8 f0 f5 f5 e8 e8 e8 e8 e8 f5 f4 f4 f5     ................
    571e:	f5 f4 f4 f5 f0 f0 f3 f0 f3 f0 f3 f0 e8 e8 e8 e8     ................
    572e:	e8 e8 e8 e8 e8 e8 e8 e8 e8 e8 e8 e8 e8 e8 e8 e8     ................
    573e:	e8 e8 e8 e8 e8 e8 e8 e8 e8 e8 e8 e8 e8 e8 e8 e8     ................
    574e:	e8 e8 e8 e8 e8 e8 e8 e8 e8 e8 e8 e8 f5 f4 f4 f5     ................
    575e:	f5 f4 f4 f5 f0 f0 f3 f0 f3 f0 f3 f0 e8 e8 e8 e8     ................
    576e:	e8 e8 e8 e8 e8 e8 e8 e8 e8 e8 e8 e8 e8 e8 e8 e8     ................
    577e:	e8 e8 e8 e8 e8 e8 e8 e8 e8 e8 e8 e8 e8 e8 e8 e8     ................
    578e:	e8 e8 e8 e8 e8 e8 e8 e8 e8 e8 e8 e8 f5 f4 f4 f5     ................
    579e:	f5 f4 f4 e8 f0 f0 f3 f0 f3 f0 f3 e8 e8 e8 e8 e8     ................
    57ae:	e8 e8 e8 e8 e8 e8 e8 e8 e8 e8 e8 e8 e8 e8 e8 e8     ................
    57be:	e8 e8 e8 e8 e8 e8 e8 e8 e8 e8 e8 e8 e8 e8 e8 e8     ................
    57ce:	e8 e8 e8 e8 e8 e8 e8 e8 e8 e8 e8 e8 e8 f4 f4 f5     ................
    57de:	f5 f4 f4 f5 e8 f0 f3 f0 f3 f0 f3 f0 e8 e8 e8 e8     ................
    57ee:	e8 e8 e8 e8 e8 e8 e8 e8 e8 e8 e8 e8 e8 e8 e8 e8     ................
    57fe:	e8 e8 e8 e8 e8 e8 e8 e8 e8 e8 e8 e8 e8 e8 e8 e8     ................
    580e:	e8 f0 f3 f0 e8 e8 e8 e8 e8 f5 f5 f0 f5 f4 f4 f5     ................
    581e:	f5 f4 f4 f5 f0 f0 f3 f0 f3 f0 f3 f0 00 00 00 00     ................
	...
    5872:	00 00 00 ff ff 00 00 00 00 00 00 ff ff 00 00 00     ................
    5882:	00 00 00 ff ff 00 00 00 00 00 00 ff ff 00 00 00     ................
	...
    589a:	00 00 00 ff ff 00 00 00 00 00 00 00 00 00 00 00     ................
	...
    58b2:	00 ff ff 00 00 ff ff 00 00 ff ff 00 00 ff ff 00     ................
    58c2:	00 ff ff 00 00 ff ff 00 00 00 00 00 00 00 00 00     ................
	...
    58f2:	00 ff ff 00 00 ff ff 00 ff ff ff ff ff ff ff ff     ................
    5902:	00 ff ff 00 00 ff ff 00 00 ff ff 00 00 ff ff 00     ................
    5912:	ff ff ff ff ff ff ff ff 00 ff ff 00 00 ff ff 00     ................
	...
    592a:	00 00 00 ff ff 00 00 00 00 00 ff ff ff ff ff 00     ................
    593a:	00 ff ff 00 00 00 00 00 00 00 ff ff ff ff 00 00     ................
    594a:	00 00 00 00 00 ff ff 00 00 ff ff ff ff ff 00 00     ................
    595a:	00 00 00 ff ff 00 00 00 00 00 00 00 00 00 00 00     ................
	...
    5972:	00 ff ff 00 00 ff ff 00 00 ff ff 00 ff ff 00 00     ................
    5982:	00 00 00 ff ff 00 00 00 00 00 ff ff 00 00 00 00     ................
    5992:	00 ff ff 00 00 ff ff 00 00 ff 00 00 00 ff ff 00     ................
	...
    59aa:	00 00 00 ff ff ff 00 00 00 00 ff ff 00 ff ff 00     ................
    59ba:	00 00 00 ff ff ff 00 00 00 00 ff ff ff 00 00 00     ................
    59ca:	00 ff ff 00 ff ff ff ff 00 ff ff 00 00 ff ff 00     ................
    59da:	00 00 ff ff ff 00 ff ff 00 00 00 00 00 00 00 00     ................
	...
    59f2:	00 00 00 ff ff 00 00 00 00 00 00 ff ff 00 00 00     ................
    5a02:	00 00 00 ff ff 00 00 00 00 00 00 00 00 00 00 00     ................
	...
    5a36:	ff ff ff 00 00 00 00 ff ff ff 00 00 00 00 00 ff     ................
    5a46:	ff 00 00 00 00 00 00 ff ff 00 00 00 00 00 00 ff     ................
    5a56:	ff ff 00 00 00 00 00 00 ff ff ff 00 00 00 00 00     ................
	...
    5a72:	00 ff ff ff 00 00 00 00 00 00 ff ff ff 00 00 00     ................
    5a82:	00 00 00 ff ff 00 00 00 00 00 00 ff ff 00 00 00     ................
    5a92:	00 00 ff ff ff 00 00 00 00 ff ff ff 00 00 00 00     ................
	...
    5ab2:	00 df df 00 00 df df 00 00 00 df df df df 00 00     ................
    5ac2:	df df df df df df df df 00 00 df df df df 00 00     ................
    5ad2:	00 df df 00 00 df df 00 00 00 00 00 00 00 00 00     ................
	...
    5af2:	00 00 00 ff ff 00 00 00 00 00 00 ff ff 00 00 00     ................
    5b02:	00 ff ff ff ff ff ff 00 00 00 00 ff ff 00 00 00     ................
    5b12:	00 00 00 ff ff 00 00 00 00 00 00 00 00 00 00 00     ................
	...
    5b52:	00 00 00 ff ff 00 00 00 00 00 00 ff ff 00 00 00     ................
    5b62:	00 00 ff ff 00 00 00 00 00 00 00 00 00 00 00 00     ................
	...
    5b82:	00 ff ff ff ff ff ff 00 00 00 00 00 00 00 00 00     ................
	...
    5bd2:	00 00 00 ff ff 00 00 00 00 00 00 ff ff 00 00 00     ................
	...
    5bf6:	00 ff ff 00 00 00 00 00 ff ff 00 00 00 00 00 ff     ................
    5c06:	ff 00 00 00 00 00 ff ff 00 00 00 00 00 ff ff 00     ................
    5c16:	00 00 00 00 00 ff 00 00 00 00 00 00 00 00 00 00     ................
	...
    5c32:	00 00 6f 6f 6f 6f 00 00 00 6f 6f 00 00 6f 6f 00     ..oooo...oo..oo.
    5c42:	00 6f 6f 00 6f 6f 6f 00 00 6f 6f 6f 00 6f 6f 00     .oo.ooo..ooo.oo.
    5c52:	00 6f 6f 00 00 6f 6f 00 00 00 6f 6f 6f 6f 00 00     .oo..oo...oooo..
	...
    5c72:	00 00 00 6f 6f 00 00 00 00 00 6f 6f 6f 00 00 00     ...oo.....ooo...
    5c82:	00 00 00 6f 6f 00 00 00 00 00 00 6f 6f 00 00 00     ...oo......oo...
    5c92:	00 00 00 6f 6f 00 00 00 00 6f 6f 6f 6f 6f 6f 00     ...oo....oooooo.
	...
    5cb2:	00 00 6f 6f 6f 6f 00 00 00 6f 6f 00 00 6f 6f 00     ..oooo...oo..oo.
    5cc2:	00 00 00 00 6f 6f 00 00 00 00 00 6f 6f 00 00 00     ....oo.....oo...
    5cd2:	00 00 6f 6f 00 00 00 00 00 6f 6f 6f 6f 6f 6f 00     ..oo.....oooooo.
	...
    5cf2:	00 6f 6f 6f 6f 6f 6f 00 00 00 00 00 6f 6f 00 00     .oooooo.....oo..
    5d02:	00 00 00 6f 6f 00 00 00 00 00 00 00 6f 6f 00 00     ...oo.......oo..
    5d12:	00 6f 6f 00 00 6f 6f 00 00 00 6f 6f 6f 6f 00 00     .oo..oo...oooo..
	...
    5d36:	6f 6f 00 00 00 00 00 6f 6f 6f 00 00 00 00 6f 6f     oo.....ooo....oo
    5d46:	6f 6f 00 00 00 6f 6f 00 6f 6f 00 00 00 6f 6f 6f     oo...oo.oo...ooo
    5d56:	6f 6f 6f 00 00 00 00 00 6f 6f 00 00 00 00 00 00     ooo.....oo......
	...
    5d72:	00 6f 6f 6f 6f 6f 6f 00 00 6f 6f 00 00 00 00 00     .oooooo..oo.....
    5d82:	00 6f 6f 6f 6f 6f 00 00 00 00 00 00 00 6f 6f 00     .ooooo.......oo.
    5d92:	00 6f 6f 00 00 6f 6f 00 00 00 6f 6f 6f 6f 00 00     .oo..oo...oooo..
	...
    5db2:	00 00 6f 6f 6f 6f 00 00 00 6f 6f 00 00 00 00 00     ..oooo...oo.....
    5dc2:	00 6f 6f 6f 6f 6f 00 00 00 6f 6f 00 00 6f 6f 00     .ooooo...oo..oo.
    5dd2:	00 6f 6f 00 00 6f 6f 00 00 00 6f 6f 6f 6f 00 00     .oo..oo...oooo..
	...
    5df2:	00 6f 6f 6f 6f 6f 6f 00 00 00 00 00 00 6f 6f 00     .oooooo......oo.
    5e02:	00 00 00 00 6f 6f 00 00 00 00 00 6f 6f 00 00 00     ....oo.....oo...
    5e12:	00 00 6f 6f 00 00 00 00 00 00 6f 6f 00 00 00 00     ..oo......oo....
	...
    5e32:	00 00 6f 6f 6f 6f 00 00 00 6f 6f 00 00 6f 6f 00     ..oooo...oo..oo.
    5e42:	00 00 6f 6f 6f 6f 00 00 00 6f 6f 00 00 6f 6f 00     ..oooo...oo..oo.
    5e52:	00 6f 6f 00 00 6f 6f 00 00 00 6f 6f 6f 6f 00 00     .oo..oo...oooo..
	...
    5e72:	00 00 6f 6f 6f 6f 00 00 00 6f 6f 00 00 6f 6f 00     ..oooo...oo..oo.
    5e82:	00 00 6f 6f 6f 6f 6f 00 00 00 00 00 00 6f 6f 00     ..ooooo......oo.
    5e92:	00 00 00 00 6f 6f 00 00 00 00 6f 6f 6f 00 00 00     ....oo....ooo...
	...
    5eba:	00 00 00 ff ff 00 00 00 00 00 00 ff ff 00 00 00     ................
	...
    5ed2:	00 00 00 ff ff 00 00 00 00 00 00 ff ff 00 00 00     ................
	...
    5eea:	00 00 00 ff ff 00 00 00 00 00 00 ff ff 00 00 00     ................
    5efa:	00 00 00 ff ff 00 00 00 00 00 00 ff ff 00 00 00     ................
    5f0a:	00 00 00 ff ff 00 00 00 00 00 00 ff ff 00 00 00     ................
    5f1a:	00 00 00 ff ff 00 00 00 00 00 00 ff ff 00 00 00     ................
    5f2a:	00 00 00 00 00 ff ff 00 00 00 00 00 ff ff 00 00     ................
    5f3a:	00 00 00 ff ff 00 00 00 00 00 ff ff 00 00 00 00     ................
    5f4a:	00 00 00 ff ff 00 00 00 00 00 00 00 ff ff 00 00     ................
    5f5a:	00 00 00 00 00 ff ff 00 00 00 00 00 00 00 00 00     ................
	...
    5f7a:	00 ff ff ff ff ff ff 00 00 00 00 00 00 00 00 00     ................
	...
    5f92:	00 ff ff ff ff ff ff 00 00 00 00 00 00 00 00 00     ................
	...
    5faa:	00 ff ff 00 00 00 00 00 00 00 ff ff 00 00 00 00     ................
    5fba:	00 00 00 ff ff 00 00 00 00 00 00 00 ff ff 00 00     ................
    5fca:	00 00 00 ff ff 00 00 00 00 00 ff ff 00 00 00 00     ................
    5fda:	00 ff ff 00 00 00 00 00 00 00 00 00 00 00 00 00     ................
	...
    5ff2:	00 00 ff ff ff ff 00 00 00 ff ff 00 00 ff ff 00     ................
    6002:	00 00 00 00 ff ff 00 00 00 00 00 ff ff 00 00 00     ................
	...
    601a:	00 00 00 ff ff 00 00 00 00 00 00 00 00 00 00 00     ................
	...
    6032:	00 00 ff ff ff ff 00 00 00 ff ff 00 00 ff ff 00     ................
    6042:	00 ff ff 00 ff ff ff 00 00 ff ff 00 ff ff ff 00     ................
    6052:	00 ff ff 00 00 00 00 00 00 00 ff ff ff ff ff 00     ................
	...
    6072:	00 00 00 ff ff 00 00 00 00 00 ff ff ff ff 00 00     ................
    6082:	00 ff ff 00 00 ff ff 00 00 ff ff 00 00 ff ff 00     ................
    6092:	00 ff ff ff ff ff ff 00 00 ff ff 00 00 ff ff 00     ................
	...
    60b2:	00 ff ff ff ff ff 00 00 00 ff ff 00 00 ff ff 00     ................
    60c2:	00 ff ff ff ff ff 00 00 00 ff ff 00 00 ff ff 00     ................
    60d2:	00 ff ff 00 00 ff ff 00 00 ff ff ff ff ff 00 00     ................
	...
    60f2:	00 00 ff ff ff ff 00 00 00 ff ff 00 00 ff ff 00     ................
    6102:	00 ff ff 00 00 00 00 00 00 ff ff 00 00 00 00 00     ................
    6112:	00 ff ff 00 00 ff ff 00 00 00 ff ff ff ff 00 00     ................
	...
    6132:	00 ff ff ff ff 00 00 00 00 ff ff 00 ff ff 00 00     ................
    6142:	00 ff ff 00 00 ff ff 00 00 ff ff 00 00 ff ff 00     ................
    6152:	00 ff ff 00 ff ff 00 00 00 ff ff ff ff 00 00 00     ................
	...
    6172:	00 ff ff ff ff ff ff 00 00 ff ff 00 00 00 00 00     ................
    6182:	00 ff ff ff ff ff 00 00 00 ff ff 00 00 00 00 00     ................
    6192:	00 ff ff 00 00 00 00 00 00 ff ff ff ff ff ff 00     ................
	...
    61b2:	00 ff ff ff ff ff ff 00 00 ff ff 00 00 00 00 00     ................
    61c2:	00 ff ff ff ff ff 00 00 00 ff ff 00 00 00 00 00     ................
    61d2:	00 ff ff 00 00 00 00 00 00 ff ff 00 00 00 00 00     ................
	...
    61f2:	00 00 ff ff ff ff ff 00 00 ff ff 00 00 00 00 00     ................
    6202:	00 ff ff 00 00 00 00 00 00 ff ff 00 ff ff ff 00     ................
    6212:	00 ff ff 00 00 ff ff 00 00 00 ff ff ff ff ff 00     ................
	...
    6232:	00 ff ff 00 00 ff ff 00 00 ff ff 00 00 ff ff 00     ................
    6242:	00 ff ff ff ff ff ff 00 00 ff ff 00 00 ff ff 00     ................
    6252:	00 ff ff 00 00 ff ff 00 00 ff ff 00 00 ff ff 00     ................
	...
    6272:	00 ff ff ff ff ff ff 00 00 00 00 ff ff 00 00 00     ................
    6282:	00 00 00 ff ff 00 00 00 00 00 00 ff ff 00 00 00     ................
    6292:	00 00 00 ff ff 00 00 00 00 ff ff ff ff ff ff 00     ................
	...
    62b6:	ff ff ff 00 00 00 00 00 00 ff ff 00 00 00 00 00     ................
    62c6:	00 ff ff 00 00 00 00 00 00 ff ff 00 00 ff ff 00     ................
    62d6:	00 ff ff 00 00 00 ff ff ff ff 00 00 00 00 00 00     ................
	...
    62f2:	00 ff ff 00 00 ff ff 00 00 ff ff 00 ff ff 00 00     ................
    6302:	00 ff ff ff ff 00 00 00 00 ff ff ff ff 00 00 00     ................
    6312:	00 ff ff 00 ff ff 00 00 00 ff ff 00 00 ff ff 00     ................
	...
    6332:	00 ff ff 00 00 00 00 00 00 ff ff 00 00 00 00 00     ................
    6342:	00 ff ff 00 00 00 00 00 00 ff ff 00 00 00 00 00     ................
    6352:	00 ff ff 00 00 00 00 00 00 ff ff ff ff ff ff 00     ................
	...
    6372:	00 ff ff 00 00 00 ff ff 00 ff ff ff 00 ff ff ff     ................
    6382:	00 ff ff ff ff ff ff ff 00 ff ff 00 ff 00 ff ff     ................
    6392:	00 ff ff 00 00 00 ff ff 00 ff ff 00 00 00 ff ff     ................
	...
    63b2:	00 ff ff 00 00 ff ff 00 00 ff ff ff 00 ff ff 00     ................
    63c2:	00 ff ff ff ff ff ff 00 00 ff ff ff ff ff ff 00     ................
    63d2:	00 ff ff 00 ff ff ff 00 00 ff ff 00 00 ff ff 00     ................
	...
    63f2:	00 00 ff ff ff ff 00 00 00 ff ff 00 00 ff ff 00     ................
    6402:	00 ff ff 00 00 ff ff 00 00 ff ff 00 00 ff ff 00     ................
    6412:	00 ff ff 00 00 ff ff 00 00 00 ff ff ff ff 00 00     ................
	...
    6432:	00 ff ff ff ff ff 00 00 00 ff ff 00 00 ff ff 00     ................
    6442:	00 ff ff 00 00 ff ff 00 00 ff ff ff ff ff 00 00     ................
    6452:	00 ff ff 00 00 00 00 00 00 ff ff 00 00 00 00 00     ................
	...
    6472:	00 00 ff ff ff ff 00 00 00 ff ff 00 00 ff ff 00     ................
    6482:	00 ff ff 00 00 ff ff 00 00 ff ff 00 00 ff ff 00     ................
    6492:	00 ff ff 00 ff ff 00 00 00 00 ff ff 00 ff ff 00     ................
	...
    64b2:	00 ff ff ff ff ff 00 00 00 ff ff 00 00 ff ff 00     ................
    64c2:	00 ff ff 00 00 ff ff 00 00 ff ff ff ff ff 00 00     ................
    64d2:	00 ff ff 00 ff ff 00 00 00 ff ff 00 00 ff ff 00     ................
	...
    64f2:	00 00 ff ff ff ff 00 00 00 ff ff 00 00 00 00 00     ................
    6502:	00 00 ff ff ff ff 00 00 00 00 00 00 00 ff ff 00     ................
    6512:	00 00 00 00 00 ff ff 00 00 00 ff ff ff ff 00 00     ................
	...
    6532:	00 ff ff ff ff ff ff 00 00 00 00 ff ff 00 00 00     ................
    6542:	00 00 00 ff ff 00 00 00 00 00 00 ff ff 00 00 00     ................
    6552:	00 00 00 ff ff 00 00 00 00 00 00 ff ff 00 00 00     ................
	...
    6572:	00 ff ff 00 00 ff ff 00 00 ff ff 00 00 ff ff 00     ................
    6582:	00 ff ff 00 00 ff ff 00 00 ff ff 00 00 ff ff 00     ................
    6592:	00 ff ff 00 00 ff ff 00 00 ff ff ff ff ff ff 00     ................
	...
    65b2:	00 ff ff 00 00 ff ff 00 00 ff ff 00 00 ff ff 00     ................
    65c2:	00 ff ff 00 00 ff ff 00 00 ff ff 00 00 ff ff 00     ................
    65d2:	00 00 ff ff ff ff 00 00 00 00 00 ff ff 00 00 00     ................
	...
    65f2:	00 ff ff 00 00 00 ff ff 00 ff ff 00 00 00 ff ff     ................
    6602:	00 ff ff 00 ff 00 ff ff 00 ff ff ff ff ff ff ff     ................
    6612:	00 ff ff ff 00 ff ff ff 00 ff ff 00 00 00 ff ff     ................
	...
    6632:	00 ff ff 00 00 ff ff 00 00 ff ff 00 00 ff ff 00     ................
    6642:	00 00 ff ff ff ff 00 00 00 00 ff ff ff ff 00 00     ................
    6652:	00 ff ff 00 00 ff ff 00 00 ff ff 00 00 ff ff 00     ................
	...
    6672:	00 ff ff 00 00 ff ff 00 00 ff ff 00 00 ff ff 00     ................
    6682:	00 00 ff ff ff ff 00 00 00 00 00 ff ff 00 00 00     ................
    6692:	00 00 00 ff ff 00 00 00 00 00 00 ff ff 00 00 00     ................
	...
    66b2:	00 ff ff ff ff ff ff 00 00 00 00 00 ff ff 00 00     ................
    66c2:	00 00 00 ff ff 00 00 00 00 00 ff ff 00 00 00 00     ................
    66d2:	00 ff ff 00 00 00 00 00 00 ff ff ff ff ff ff 00     ................
	...
    66f2:	00 00 00 ff ff ff ff 00 00 00 00 ff ff 00 00 00     ................
    6702:	00 00 00 ff ff 00 00 00 00 00 00 ff ff 00 00 00     ................
    6712:	00 00 00 ff ff 00 00 00 00 00 00 ff ff ff ff 00     ................
	...
    6732:	00 ff 00 00 00 00 00 00 00 ff ff 00 00 00 00 00     ................
    6742:	00 00 ff ff 00 00 00 00 00 00 00 ff ff 00 00 00     ................
    6752:	00 00 00 00 ff ff 00 00 00 00 00 00 00 ff ff 00     ................
	...
    6772:	00 ff ff ff ff 00 00 00 00 00 00 ff ff 00 00 00     ................
    6782:	00 00 00 ff ff 00 00 00 00 00 00 ff ff 00 00 00     ................
    6792:	00 00 00 ff ff 00 00 00 00 ff ff ff ff 00 00 00     ................
	...
    67b6:	ff 00 00 00 00 00 00 ff ff ff 00 00 00 00 ff ff     ................
    67c6:	00 ff ff 00 00 ff ff 00 00 00 ff ff 00 00 00 00     ................
	...
    681a:	ff ff ff ff ff ff ff ff 00 00 00 00 00 00 00 00     ................

0000682a <map_sub_emerging>:
    682a:	1c 0b 0d 0d 0d 0d 0d 0d 0d 0d 0d 0d 0d 0d 0d 0d     ................
    683a:	0d 0d 0d 0d 0d 0d 33 0d 0d 0d 0d 0d 0d 0d 0d 0d     ......3.........
    684a:	0d 0d 0d 0d 0d 0d 0d 0d 0d 0d 0d 0d 0d 0d 0d 0d     ................
    685a:	0d 0d 0d 0d 0d 0d 0d 0d 0d 0d 0d 0d 0d 0d 0d 0d     ................
    686a:	0d 0d 0d 0d 0d 0d 0d 0d 0d 0d 0d 0d 0d 0d 0d 0d     ................
    687a:	0d 0d 0d 0d 0d 0d 0d 0d 0d 0d 0d 0d 0d 87 88 89     ................
    688a:	8a 8b 8c 8c 8c 8c 8d 8a 8e 87 87 0d 0d 0d 0d 0d     ................
    689a:	0d 0d 0d 8f 87 90 90 90 90 8c 8c 8c 8c 8c 8c 8c     ................
    68aa:	8c 8c 8c 8c 8c 8c 8c 90 90 90 90 87 91 0d 0d 92     ................
    68ba:	93 94 94 94 94 8c 8c 8c 8c 8c 8c 8c 8c 8c 8c 8c     ................
    68ca:	8c 8c 8c 94 94 94 94 93 95 0d 0d 0d 0d 0d 0d 0d     ................
    68da:	33 93 93 96 97 98 8c 8c 8c 8c 99 97 9a 93 93 0d     3...............
    68ea:	0d 0d 0d 0d 0d 0d 0d 0d 0d 0d 0d 0d 0d 0d 0d 0d     ................
    68fa:	0d 0d 0d 0d 0d 0d 0d 0d 0d 0d 33 0d 0d 0d 0d 0d     ..........3.....
    690a:	0d 0d 0d 0d 0d 0d 0d 0d 0d 0d 0d 0d 0d 0d 0d 0d     ................
    691a:	0d 0d 0d 0d 0d 0d 0d 0d 0d 0d 0d 0d 0d 0d 0d 0d     ................
    692a:	0d 0d 0d 0d 0d 0d 0d 0d 0d 0d 0d 0d 0d 0d 0d 0d     ................
    693a:	0d 0d 0d 0d 0d 0d 0d 0d 0d 0d 0d 0d 0d 0d 0d 0d     ................
    694a:	0d 0d 0d 0d 0d 0d 0d 0d 0d 0d 0d 0d 0d 0d 0d 0d     ................
    695a:	0d 0d 0d 0d 0d 0d                                   ......

00006960 <map_sub>:
    6960:	1c 0b 0d 0d 0d 0d 0d 0d 0d 0d 0d 0d 0d 0d 0d 0d     ................
    6970:	0d 0d 0d 0d 0d 0d 33 0d 0d 0d 0d 0d 0d 0d 0d 0d     ......3.........
    6980:	0d 0d 0d 0d 0d 0d 0d 0d 0d 0d 0d 0d 0d 0d 0d 0d     ................
    6990:	0d 0d 0d 0d 0d 0d 0d 0d 0d 0d 0d 0d 0d 0d 0d 0d     ................
    69a0:	0d 0d 0d 0d 0d 0d 0d 0d 0d 0d 0d 0d 0d 0d 0d 0d     ................
    69b0:	0d 0d 0d 0d 0d 0d 0d 0d 0d 34 35 0d 0d 36 37 38     .........45..678
    69c0:	39 3a 3b 3b 3b 3b 3c 3d 3e 3f 36 0d 0d 40 41 0d     9:;;;;<=>?6..@A.
    69d0:	0d 0d 0d 42 43 44 45 46 47 48 49 4a 4b 4a 4c 4d     ...BCDEFGHIJKJLM
    69e0:	4e 4f 50 51 52 53 54 55 55 56 57 58 59 0d 0d 5a     NOPQRSTUUVWXY..Z
    69f0:	5b 5c 5d 5e 5f 60 61 62 63 62 64 65 66 67 62 68     [\]^_`abcbdefgbh
    6a00:	69 6a 6b 6c 6c 6d 6e 6f 70 0d 0d 0d 0d 71 72 0d     ijkllmnop....qr.
    6a10:	73 74 75 76 77 78 79 7a 7b 79 7c 7d 7e 7f 80 81     stuvwxyz{y|}~...
    6a20:	0d 82 83 0d 0d 0d 0d 0d 0d 0d 0d 0d 0d 0d 0d 0d     ................
    6a30:	0d 84 85 85 85 85 86 0d 0d 0d 33 0d 0d 0d 0d 0d     ..........3.....
    6a40:	0d 0d 0d 0d 0d 0d 0d 0d 0d 0d 0d 0d 0d 0d 0d 0d     ................
    6a50:	0d 0d 0d 0d 0d 0d 0d 0d 0d 0d 0d 0d 0d 0d 0d 0d     ................
    6a60:	0d 0d 0d 0d 0d 0d 0d 0d 0d 0d 0d 0d 0d 0d 0d 0d     ................
    6a70:	0d 0d 0d 0d 0d 0d 0d 0d 0d 0d 0d 0d 0d 0d 0d 0d     ................
    6a80:	0d 0d 0d 0d 0d 0d 0d 0d 0d 0d 0d 0d 0d 0d 0d 0d     ................
    6a90:	0d 0d 0d 0d 0d 0d                                   ......

00006a96 <map_scope_2>:
    6a96:	01 01 12                                            ...

00006a99 <map_scope_1>:
    6a99:	01 01 11                                            ...

00006a9c <map_scope_0>:
    6a9c:	01 01 10                                            ...

00006a9f <map_blue_tank>:
    6a9f:	02 02 2b 2c 31 32                                   ..+,12

00006aa5 <map_green_tank>:
    6aa5:	02 02 18 19 23 24                                   ....#$

00006aab <map_fence>:
    6aab:	01 01 0f                                            ...

00006aae <map_turf>:
    6aae:	01 01 0e                                            ...

00006ab1 <map_water>:
    6ab1:	01 01 0d                                            ...

00006ab4 <map_metal_bl>:
    6ab4:	01 01 0c                                            ...

00006ab7 <map_metal_tr>:
    6ab7:	01 01 0b                                            ...

00006aba <map_metal_br>:
    6aba:	01 01 0a                                            ...

00006abd <map_metal_tl>:
    6abd:	01 01 09                                            ...

00006ac0 <map_tile_exp_2>:
    6ac0:	01 01 08                                            ...

00006ac3 <map_tile_exp_1>:
    6ac3:	01 01 07                                            ...

00006ac6 <map_tile_exp_0>:
    6ac6:	01 01 06                                            ...

00006ac9 <map_rocket_itm>:
    6ac9:	01 01 04                                            ...

00006acc <map_explode_itm>:
    6acc:	01 01 03                                            ...

00006acf <map_speed_itm>:
    6acf:	01 01 02                                            ...

00006ad2 <map_metal>:
    6ad2:	01 01 05                                            ...

00006ad5 <map_brick>:
    6ad5:	01 01 01                                            ...

00006ad8 <map_splash>:
    6ad8:	15 04 13 14 14 13 14 14 13 15 15 13 16 17 00 00     ................
    6ae8:	00 13 14 14 13 00 13 00 1a 00 1a 00 1a 1a 1b 1c     ................
    6af8:	1a 1d 1e 1f 20 21 1a 22 00 1a 00 1a 00 1a 00 1a     .... !."........
    6b08:	14 25 1a 00 1a 1a 26 00 27 28 29 1a 2a 00 1a 00     .%....&.'().*...
    6b18:	1a 00 1a 00 1a 00 1a 1a 00 1a 1a 2d 2e 00 00 00     ...........-....
    6b28:	1a 00 00 1a 2f 30                                   ..../0

00006b2e <map_pause>:
    6b2e:	0f 04 01 01 01 01 01 01 01 01 01 01 01 01 01 01     ................
    6b3e:	01 01 00 00 00 00 00 00 00 00 00 00 00 00 00 01     ................
    6b4e:	01 00 00 00 00 00 00 00 00 00 00 00 00 00 01 01     ................
    6b5e:	01 01 01 01 01 01 01 01 01 01 01 01 01 01           ..............

00006b6c <map_tile_none>:
    6b6c:	01 01 00 00                                         ....

00006b70 <__ctors_end>:
    6b70:	11 24       	eor	r1, r1
    6b72:	1f be       	out	0x3f, r1	; 63
    6b74:	cf ef       	ldi	r28, 0xFF	; 255
    6b76:	d0 e1       	ldi	r29, 0x10	; 16
    6b78:	de bf       	out	0x3e, r29	; 62
    6b7a:	cd bf       	out	0x3d, r28	; 61

00006b7c <__do_copy_data>:
    6b7c:	11 e0       	ldi	r17, 0x01	; 1
    6b7e:	a0 e0       	ldi	r26, 0x00	; 0
    6b80:	b1 e0       	ldi	r27, 0x01	; 1
    6b82:	ec e6       	ldi	r30, 0x6C	; 108
    6b84:	ff ee       	ldi	r31, 0xEF	; 239
    6b86:	02 c0       	rjmp	.+4      	; 0x6b8c <__do_copy_data+0x10>
    6b88:	05 90       	lpm	r0, Z+
    6b8a:	0d 92       	st	X+, r0
    6b8c:	a4 35       	cpi	r26, 0x54	; 84
    6b8e:	b1 07       	cpc	r27, r17
    6b90:	d9 f7       	brne	.-10     	; 0x6b88 <__do_copy_data+0xc>

00006b92 <__do_clear_bss>:
    6b92:	10 e1       	ldi	r17, 0x10	; 16
    6b94:	a4 e5       	ldi	r26, 0x54	; 84
    6b96:	b1 e0       	ldi	r27, 0x01	; 1
    6b98:	01 c0       	rjmp	.+2      	; 0x6b9c <.do_clear_bss_start>

00006b9a <.do_clear_bss_loop>:
    6b9a:	1d 92       	st	X+, r1

00006b9c <.do_clear_bss_start>:
    6b9c:	a9 36       	cpi	r26, 0x69	; 105
    6b9e:	b1 07       	cpc	r27, r17
    6ba0:	e1 f7       	brne	.-8      	; 0x6b9a <.do_clear_bss_loop>

00006ba2 <wdt_init>:

void wdt_init(void)
{

#if TRUE_RANDOM_GEN == 1	
	wdt_randomize();
    6ba2:	0e 94 87 3a 	call	0x750e	; 0x750e <wdt_randomize>
#endif

    MCUSR = 0;
    6ba6:	14 be       	out	0x34, r1	; 52
    wdt_disable();
    6ba8:	88 e1       	ldi	r24, 0x18	; 24
    6baa:	0f b6       	in	r0, 0x3f	; 63
    6bac:	f8 94       	cli
    6bae:	80 93 60 00 	sts	0x0060, r24
    6bb2:	10 92 60 00 	sts	0x0060, r1
    6bb6:	0f be       	out	0x3f, r0	; 63

00006bb8 <Initialize>:


void Initialize(void){
	int i;

	if(!isEepromFormatted()) FormatEeprom();
    6bb8:	0e 94 49 3b 	call	0x7692	; 0x7692 <isEepromFormatted>
    6bbc:	81 11       	cpse	r24, r1
    6bbe:	02 c0       	rjmp	.+4      	; 0x6bc4 <Initialize+0xc>
    6bc0:	0e 94 27 3b 	call	0x764e	; 0x764e <FormatEeprom>

	cli();
    6bc4:	f8 94       	cli
		mix_bank=0;
	#endif
	
	#if MIXER_CHAN4_TYPE == 0
		//initialize LFSR		
		tr4_barrel_lo=1;
    6bc6:	c1 e0       	ldi	r28, 0x01	; 1
    6bc8:	c0 93 58 0a 	sts	0x0A58, r28
		tr4_barrel_hi=1;		
    6bcc:	c0 93 59 0a 	sts	0x0A59, r28
		tr4_params=0b00000001; //15 bits no divider (1)
    6bd0:	c0 93 57 0a 	sts	0x0A57, r28
	#endif

	#if UART == 1
		InitUartRxBuffer();
    6bd4:	0e 94 4c 3c 	call	0x7898	; 0x7898 <InitUartRxBuffer>
		InitUartTxBuffer();
    6bd8:	0e 94 65 3c 	call	0x78ca	; 0x78ca <InitUartTxBuffer>
		snesMouseEnabled=false;
	#endif

	//silence all sound channels
	for(i=0;i<CHANNELS;i++){
		mixer.channels.all[i].volume=0;
    6bdc:	10 92 44 0a 	sts	0x0A44, r1
    6be0:	10 92 4a 0a 	sts	0x0A4A, r1
    6be4:	10 92 50 0a 	sts	0x0A50, r1
    6be8:	10 92 56 0a 	sts	0x0A56, r1
	}
	
	//set sync parameters. starts at odd field, in pre-eq pulses, line 1, vsync flag cleared
	sync_phase=0;
    6bec:	10 92 1e 0a 	sts	0x0A1E, r1
	sync_flags=0;
    6bf0:	10 92 20 0a 	sts	0x0A20, r1
	sync_pulse=SYNC_PRE_EQ_PULSES+SYNC_EQ_PULSES+SYNC_POST_EQ_PULSES;
    6bf4:	82 e1       	ldi	r24, 0x12	; 18
    6bf6:	80 93 1f 0a 	sts	0x0A1F, r24

	//set rendering parameters
	render_lines_count=FRAME_LINES;
    6bfa:	80 ee       	ldi	r24, 0xE0	; 224
    6bfc:	80 93 26 0a 	sts	0x0A26, r24
	first_render_line=FIRST_RENDER_LINE;
    6c00:	84 e1       	ldi	r24, 0x14	; 20
    6c02:	80 93 25 0a 	sts	0x0A25, r24

	joypad1_status_hi=0;
    6c06:	10 92 2a 0a 	sts	0x0A2A, r1
    6c0a:	10 92 29 0a 	sts	0x0A29, r1
	joypad2_status_hi=0;
    6c0e:	10 92 2e 0a 	sts	0x0A2E, r1
    6c12:	10 92 2d 0a 	sts	0x0A2D, r1
	sound_enabled=1;
    6c16:	c0 93 43 0a 	sts	0x0A43, r28

	InitializeVideoMode();
    6c1a:	0e 94 5e 48 	call	0x90bc	; 0x90bc <InitializeVideoMode>
    6c1e:	80 e7       	ldi	r24, 0x70	; 112
    6c20:	90 e0       	ldi	r25, 0x00	; 0
	
	//Initialize I/O registers
	u16 val;
	u8 *ptr;
	for(u8 j=0;j<(sizeof(io_table)>>1);j++){
		val=pgm_read_word(&io_table[j]);
    6c22:	fc 01       	movw	r30, r24
    6c24:	25 91       	lpm	r18, Z+
    6c26:	34 91       	lpm	r19, Z
		ptr=(u8*)(val&0xff);
    6c28:	f9 01       	movw	r30, r18
    6c2a:	ff 27       	eor	r31, r31
		*ptr=val>>8;	
    6c2c:	30 83       	st	Z, r19
    6c2e:	02 96       	adiw	r24, 0x02	; 2
	InitializeVideoMode();
	
	//Initialize I/O registers
	u16 val;
	u8 *ptr;
	for(u8 j=0;j<(sizeof(io_table)>>1);j++){
    6c30:	20 e0       	ldi	r18, 0x00	; 0
    6c32:	8e 39       	cpi	r24, 0x9E	; 158
    6c34:	92 07       	cpc	r25, r18
    6c36:	a9 f7       	brne	.-22     	; 0x6c22 <Initialize+0x6a>
		val=pgm_read_word(&io_table[j]);
		ptr=(u8*)(val&0xff);
		*ptr=val>>8;	
	}

	sei();
    6c38:	78 94       	sei
	
	DisplayLogo();
    6c3a:	0e 94 5d 48 	call	0x90ba	; 0x90ba <DisplayLogo>
    6c3e:	0e 94 48 71 	call	0xe290	; 0xe290 <main>
    6c42:	0c 94 b4 77 	jmp	0xef68	; 0xef68 <_exit>

00006c46 <__bad_interrupt>:
    6c46:	0c 94 00 00 	jmp	0	; 0x0 <__vectors>

00006c4a <sub_video_mode3>:
	; Mode 3 with NO scrolling
	;***************************************************	
	sub_video_mode3:

		;wait cycles to align with next hsync
		WAIT r16,465 //30-3+340+98
    6c4a:	0b e9       	ldi	r16, 0x9B	; 155
    6c4c:	0a 95       	dec	r16
    6c4e:	f1 f7       	brne	.-4      	; 0x6c4c <sub_video_mode3+0x2>
		dec r19
		brne 1b

#else

		WAIT  r17,     19 + MAX_RAMTILES * 14 - 1
    6c50:	10 e0       	ldi	r17, 0x00	; 0
    6c52:	1a 95       	dec	r17
    6c54:	f1 f7       	brne	.-4      	; 0x6c52 <sub_video_mode3+0x8>
    6c56:	1e e1       	ldi	r17, 0x1E	; 30
    6c58:	1a 95       	dec	r17
    6c5a:	f1 f7       	brne	.-4      	; 0x6c58 <sub_video_mode3+0xe>

#endif


		lds r2,overlay_tile_table
    6c5c:	20 90 1b 0a 	lds	r2, 0x0A1B
		lds r3,overlay_tile_table+1
    6c60:	30 90 1c 0a 	lds	r3, 0x0A1C
		lds r16,tile_table_lo 
    6c64:	00 91 17 0a 	lds	r16, 0x0A17
		lds r17,tile_table_hi
    6c68:	10 91 18 0a 	lds	r17, 0x0A18
		movw r12,r16
    6c6c:	68 01       	movw	r12, r16
		movw r6,r16
    6c6e:	38 01       	movw	r6, r16

		ldi r24,SCREEN_TILES_V
    6c70:	8c e1       	ldi	r24, 0x1C	; 28
		ldi YL,lo8(vram)
    6c72:	c0 e6       	ldi	r28, 0x60	; 96
		ldi YH,hi8(vram)
    6c74:	d1 e0       	ldi	r29, 0x01	; 1
		movw r8,YL	
    6c76:	4e 01       	movw	r8, r28
		clr r0
    6c78:	00 24       	eor	r0, r0

		;load values for overlay if it's activated (overlay_height>0)
		lds r19,overlay_height	
    6c7a:	30 91 1a 0a 	lds	r19, 0x0A1A
		cpi r19,0
    6c7e:	30 30       	cpi	r19, 0x00	; 0
		
		breq .+2
    6c80:	09 f0       	breq	.+2      	; 0x6c84 <sub_video_mode3+0x3a>
		ldi YL,lo8(overlay_vram)
    6c82:	c8 ea       	ldi	r28, 0xA8	; 168
		
		breq .+2
    6c84:	09 f0       	breq	.+2      	; 0x6c88 <sub_video_mode3+0x3e>
		ldi YH,hi8(overlay_vram)
    6c86:	d4 e0       	ldi	r29, 0x04	; 4
		
		breq .+2
    6c88:	09 f0       	breq	.+2      	; 0x6c8c <sub_video_mode3+0x42>
		mov r24,r19
    6c8a:	83 2f       	mov	r24, r19

		breq .+2
    6c8c:	09 f0       	breq	.+2      	; 0x6c90 <sub_video_mode3+0x46>
		movw r12,r2
    6c8e:	61 01       	movw	r12, r2


		ldi r16,SCREEN_TILES_V*TILE_HEIGHT; total scanlines to draw (28*8)
    6c90:	00 ee       	ldi	r16, 0xE0	; 224
		mov r10,r16
    6c92:	a0 2e       	mov	r10, r16
		clr r22
    6c94:	66 27       	eor	r22, r22
		ldi r23,TILE_WIDTH ;tile width in pixels
    6c96:	78 e0       	ldi	r23, 0x08	; 8

00006c98 <next_tile_line>:
	;r12:r13= Main tile table or overlay tile table if overlay_height>0
	;r24	= vertical tiles to draw before reloading vram adress (for overlay)
	;Y      = vram or overlay_ram if overlay_height>0
	;
	next_tile_line:	
		rcall hsync_pulse
    6c98:	07 d3       	rcall	.+1550   	; 0x72a8 <hsync_pulse>

		WAIT r19,250 - AUDIO_OUT_HSYNC_CYCLES + CENTER_ADJUSTMENT + FILL_DELAY
    6c9a:	3c e0       	ldi	r19, 0x0C	; 12
    6c9c:	3a 95       	dec	r19
    6c9e:	f1 f7       	brne	.-4      	; 0x6c9c <next_tile_line+0x4>
    6ca0:	00 00       	nop

		;***draw line***
		call render_tile_line
    6ca2:	0e 94 7d 36 	call	0x6cfa	; 0x6cfa <render_tile_line>

		WAIT r19,47 + FILL_DELAY - CENTER_ADJUSTMENT	
    6ca6:	3f e0       	ldi	r19, 0x0F	; 15
    6ca8:	3a 95       	dec	r19
    6caa:	f1 f7       	brne	.-4      	; 0x6ca8 <next_tile_line+0x10>
    6cac:	00 c0       	rjmp	.+0      	; 0x6cae <next_tile_line+0x16>

		dec r10
    6cae:	aa 94       	dec	r10
		breq frame_end
    6cb0:	a1 f0       	breq	.+40     	; 0x6cda <frame_end>
	
		inc r22
    6cb2:	63 95       	inc	r22
		lpm ;3 nop
    6cb4:	c8 95       	lpm

		cpi r22,TILE_HEIGHT ;last char line? 1
    6cb6:	68 30       	cpi	r22, 0x08	; 8
		breq next_tile_row 
    6cb8:	29 f0       	breq	.+10     	; 0x6cc4 <next_tile_row>
	
		;wait to align with next_tile_row instructions (+1 cycle for the breq)
		WAIT r19,11
    6cba:	33 e0       	ldi	r19, 0x03	; 3
    6cbc:	3a 95       	dec	r19
    6cbe:	f1 f7       	brne	.-4      	; 0x6cbc <next_tile_line+0x24>
    6cc0:	00 c0       	rjmp	.+0      	; 0x6cc2 <next_tile_line+0x2a>
		
		rjmp next_tile_line	
    6cc2:	ea cf       	rjmp	.-44     	; 0x6c98 <next_tile_line>

00006cc4 <next_tile_row>:

	next_tile_row:
		clr r22		;current char line			;1	
    6cc4:	66 27       	eor	r22, r22

		clr r0
    6cc6:	00 24       	eor	r0, r0
		ldi r19,VRAM_TILES_H
    6cc8:	3e e1       	ldi	r19, 0x1E	; 30
		add YL,r19
    6cca:	c3 0f       	add	r28, r19
		adc YH,r0
    6ccc:	d0 1d       	adc	r29, r0

		dec r24		;overlay done?
    6cce:	8a 95       	dec	r24
		brne .+2
    6cd0:	09 f4       	brne	.+2      	; 0x6cd4 <next_tile_row+0x10>
		movw YL,r8	;main vram
    6cd2:	e4 01       	movw	r28, r8
		brne .+2
    6cd4:	09 f4       	brne	.+2      	; 0x6cd8 <next_tile_row+0x14>
		movw r12,r6	;main tile table
    6cd6:	63 01       	movw	r12, r6

	
		rjmp next_tile_line
    6cd8:	df cf       	rjmp	.-66     	; 0x6c98 <next_tile_line>

00006cda <frame_end>:

	frame_end:

		WAIT r19,18
    6cda:	36 e0       	ldi	r19, 0x06	; 6
    6cdc:	3a 95       	dec	r19
    6cde:	f1 f7       	brne	.-4      	; 0x6cdc <frame_end+0x2>

		rcall hsync_pulse ;145
    6ce0:	e3 d2       	rcall	.+1478   	; 0x72a8 <hsync_pulse>
		clr r1
		call RestoreBackground
#endif

		;set vsync flag & flip field
		lds ZL,sync_flags
    6ce2:	e0 91 20 0a 	lds	r30, 0x0A20
		ldi r20,SYNC_FLAG_FIELD
    6ce6:	42 e0       	ldi	r20, 0x02	; 2
		ori ZL,SYNC_FLAG_VSYNC
    6ce8:	e1 60       	ori	r30, 0x01	; 1
		eor ZL,r20
    6cea:	e4 27       	eor	r30, r20
		sts sync_flags,ZL
    6cec:	e0 93 20 0a 	sts	0x0A20, r30

		;clear any pending timer int
		ldi ZL,(1<<OCF1A)
    6cf0:	e2 e0       	ldi	r30, 0x02	; 2
		sts _SFR_MEM_ADDR(TIFR1),ZL
    6cf2:	e0 93 36 00 	sts	0x0036, r30



		clr r1
    6cf6:	11 24       	eor	r1, r1


		ret
    6cf8:	08 95       	ret

00006cfa <render_tile_line>:
	;*************************************************
	render_tile_line:

		;load first tile and determine if its a ROM or RAM tile

		movw XL,YL
    6cfa:	de 01       	movw	r26, r28

		mul r22,r23
    6cfc:	67 9f       	mul	r22, r23

		movw r16,r12 ;current tile table (main or overlay)
    6cfe:	86 01       	movw	r16, r12
		subi r16,lo8(RAM_TILES_COUNT*TILE_HEIGHT*TILE_WIDTH)
    6d00:	00 50       	subi	r16, 0x00	; 0
		sbci r17,hi8(RAM_TILES_COUNT*TILE_HEIGHT*TILE_WIDTH)
    6d02:	15 40       	sbci	r17, 0x05	; 5

		add r16,r0
    6d04:	00 0d       	add	r16, r0
		adc r17,r1
    6d06:	11 1d       	adc	r17, r1
		movw r2,r16			;rom tiles
    6d08:	18 01       	movw	r2, r16

		ldi r16,lo8(ram_tiles)
    6d0a:	00 ed       	ldi	r16, 0xD0	; 208
		ldi r17,hi8(ram_tiles)
    6d0c:	14 e0       	ldi	r17, 0x04	; 4
		add r16,r0
    6d0e:	00 0d       	add	r16, r0
		adc r17,r1
    6d10:	11 1d       	adc	r17, r1
		movw r4,r16			;ram tiles
    6d12:	28 01       	movw	r4, r16

		ldi r19,TILE_HEIGHT*TILE_WIDTH
    6d14:	30 e4       	ldi	r19, 0x40	; 64
		ldi r17,SCREEN_TILES_H
    6d16:	1e e1       	ldi	r17, 0x1E	; 30

	    ld r18,X+     	;load next tile # from VRAM
    6d18:	2d 91       	ld	r18, X+

		mul r18,r19 	;tile*width*height
    6d1a:	23 9f       	mul	r18, r19
		movw r20,r2		;rom tiles
    6d1c:	a1 01       	movw	r20, r2
		
		cpi r18,RAM_TILES_COUNT
    6d1e:	24 31       	cpi	r18, 0x14	; 20
		brcc .+2
    6d20:	08 f4       	brcc	.+2      	; 0x6d24 <render_tile_line+0x2a>
		movw r20,r4		;ram tiles
    6d22:	a2 01       	movw	r20, r4

	    add r0,r20    ;add title table address +row offset
    6d24:	04 0e       	add	r0, r20
	    adc r1,r21
    6d26:	15 1e       	adc	r1, r21

		movw ZL,r0
    6d28:	f0 01       	movw	r30, r0
		
		cpi r18,RAM_TILES_COUNT
    6d2a:	24 31       	cpi	r18, 0x14	; 20
		brcs ramloop
    6d2c:	f0 f0       	brcs	.+60     	; 0x6d6a <ramloop>

00006d2e <romloop>:
	

	romloop:
	    lpm r16,Z+
    6d2e:	05 91       	lpm	r16, Z+
	    out _SFR_IO_ADDR(DATA_PORT),r16        ;pixel 1
    6d30:	08 b9       	out	0x08, r16	; 8
	    ld r18,X+     ;load next tile # from VRAM
    6d32:	2d 91       	ld	r18, X+


	    lpm r16,Z+
    6d34:	05 91       	lpm	r16, Z+
	    out _SFR_IO_ADDR(DATA_PORT),r16        ;pixel 2
    6d36:	08 b9       	out	0x08, r16	; 8
		mul r18,r19 ;tile*width*height
    6d38:	23 9f       	mul	r18, r19


	    lpm r16,Z+
    6d3a:	05 91       	lpm	r16, Z+
	    out _SFR_IO_ADDR(DATA_PORT),r16        ;pixel 3
    6d3c:	08 b9       	out	0x08, r16	; 8
		cpi r18,RAM_TILES_COUNT		;is tile in RAM or ROM? (RAM tiles have indexes<RAM_TILES_COUNT)
    6d3e:	24 31       	cpi	r18, 0x14	; 20
		nop
    6d40:	00 00       	nop

	    lpm r16,Z+
    6d42:	05 91       	lpm	r16, Z+
	    out _SFR_IO_ADDR(DATA_PORT),r16        ;pixel 4
    6d44:	08 b9       	out	0x08, r16	; 8
		brsh .+2		;skip in next tile is in ROM	
    6d46:	08 f4       	brcc	.+2      	; 0x6d4a <romloop+0x1c>
		movw r20,r4 	;load RAM title table address +row offset	
    6d48:	a2 01       	movw	r20, r4
   
	    lpm r16,Z+
    6d4a:	05 91       	lpm	r16, Z+
	    out _SFR_IO_ADDR(DATA_PORT),r16        ;pixel 5
    6d4c:	08 b9       	out	0x08, r16	; 8
		add r0,r20		;add title table address +row offset lsb
    6d4e:	04 0e       	add	r0, r20
	    adc r1,r21		;add title table address +row offset msb
    6d50:	15 1e       	adc	r1, r21

	    lpm r16,Z+
    6d52:	05 91       	lpm	r16, Z+
	    out _SFR_IO_ADDR(DATA_PORT),r16        ;pixel 6
    6d54:	08 b9       	out	0x08, r16	; 8
		
		cpi r18,RAM_TILES_COUNT	
    6d56:	24 31       	cpi	r18, 0x14	; 20
		dec r17			;decrement tiles to draw on line
    6d58:	1a 95       	dec	r17
   
	    lpm r16,Z+
    6d5a:	05 91       	lpm	r16, Z+
	    out _SFR_IO_ADDR(DATA_PORT),r16        ;pixel 7   
    6d5c:	08 b9       	out	0x08, r16	; 8
	    lpm r16,Z+
    6d5e:	05 91       	lpm	r16, Z+

		breq end	
    6d60:	31 f1       	breq	.+76     	; 0x6dae <end>
	    movw ZL,r0   	;copy next tile adress
    6d62:	f0 01       	movw	r30, r0

	    out _SFR_IO_ADDR(DATA_PORT),r16        ;pixel 8   
    6d64:	08 b9       	out	0x08, r16	; 8
	    brcc romloop
    6d66:	18 f7       	brcc	.-58     	; 0x6d2e <romloop>
	
		rjmp .
    6d68:	00 c0       	rjmp	.+0      	; 0x6d6a <ramloop>

00006d6a <ramloop>:

	ramloop:

	    ld r16,Z+
    6d6a:	01 91       	ld	r16, Z+
	    out _SFR_IO_ADDR(DATA_PORT),r16        ;pixel 1
    6d6c:	08 b9       	out	0x08, r16	; 8
	    ld r18,X+     ;load next tile # from VRAM
    6d6e:	2d 91       	ld	r18, X+

	    ld r16,Z+ 
    6d70:	01 91       	ld	r16, Z+
		nop   
    6d72:	00 00       	nop
		out _SFR_IO_ADDR(DATA_PORT),r16 		;pixel 2
    6d74:	08 b9       	out	0x08, r16	; 8
		mul r18,r19 ;tile*width*height
    6d76:	23 9f       	mul	r18, r19


	    ld r16,Z+
    6d78:	01 91       	ld	r16, Z+
		nop
    6d7a:	00 00       	nop
		out _SFR_IO_ADDR(DATA_PORT),r16         ;pixel 3
    6d7c:	08 b9       	out	0x08, r16	; 8
		cpi r18,RAM_TILES_COUNT
    6d7e:	24 31       	cpi	r18, 0x14	; 20
   		rjmp .
    6d80:	00 c0       	rjmp	.+0      	; 0x6d82 <ramloop+0x18>

	    ld r16,Z+
    6d82:	01 91       	ld	r16, Z+
		out _SFR_IO_ADDR(DATA_PORT),r16        ;pixel 4
    6d84:	08 b9       	out	0x08, r16	; 8
		brcs .+2 
    6d86:	08 f0       	brcs	.+2      	; 0x6d8a <ramloop+0x20>
		movw r20,r2 	;ROM title table address +row offset	
    6d88:	a1 01       	movw	r20, r2
   
   
	    ld r16,Z+
    6d8a:	01 91       	ld	r16, Z+
	    add r0,r20    ;add title table address +row offset
    6d8c:	04 0e       	add	r0, r20
		out _SFR_IO_ADDR(DATA_PORT),r16       ;pixel 5
    6d8e:	08 b9       	out	0x08, r16	; 8
	    adc r1,r21
    6d90:	15 1e       	adc	r1, r21
		rjmp .
    6d92:	00 c0       	rjmp	.+0      	; 0x6d94 <ramloop+0x2a>
    
		ld r16,Z+		
    6d94:	01 91       	ld	r16, Z+
		out _SFR_IO_ADDR(DATA_PORT),r16       ;pixel 6
    6d96:	08 b9       	out	0x08, r16	; 8
		cpi r18,RAM_TILES_COUNT
    6d98:	24 31       	cpi	r18, 0x14	; 20
		rjmp .  
    6d9a:	00 c0       	rjmp	.+0      	; 0x6d9c <ramloop+0x32>

	    ld r16,Z+	
    6d9c:	01 91       	ld	r16, Z+
		out _SFR_IO_ADDR(DATA_PORT),r16      ;pixel 7   
    6d9e:	08 b9       	out	0x08, r16	; 8
	    ld r16,Z+
    6da0:	01 91       	ld	r16, Z+

	    dec r17
    6da2:	1a 95       	dec	r17
	    breq end
    6da4:	21 f0       	breq	.+8      	; 0x6dae <end>
	
		movw ZL,r0
    6da6:	f0 01       	movw	r30, r0
		out _SFR_IO_ADDR(DATA_PORT),r16        ;pixel 8   
    6da8:	08 b9       	out	0x08, r16	; 8
	
	    brcc romloop
    6daa:	08 f6       	brcc	.-126    	; 0x6d2e <romloop>
		rjmp ramloop
    6dac:	de cf       	rjmp	.-68     	; 0x6d6a <ramloop>

00006dae <end>:
	
	end:
		out _SFR_IO_ADDR(DATA_PORT),r16  	;pixel 8
    6dae:	08 b9       	out	0x08, r16	; 8
		clr r16	
    6db0:	00 27       	eor	r16, r16
		lpm	
    6db2:	c8 95       	lpm
		nop
    6db4:	00 00       	nop
		out _SFR_IO_ADDR(DATA_PORT),r16        
    6db6:	08 b9       	out	0x08, r16	; 8

		ret
    6db8:	08 95       	ret

00006dba <CopyFlashTile>:
; C-callable
; r24=Source ROM tile index
; r22=Dest RAM tile index
;************************************
CopyFlashTile:
	ldi r18,TILE_HEIGHT*TILE_WIDTH
    6dba:	20 e4       	ldi	r18, 0x40	; 64

	;compute source adress
	lds ZL,tile_table_lo
    6dbc:	e0 91 17 0a 	lds	r30, 0x0A17
	lds ZH,tile_table_hi
    6dc0:	f0 91 18 0a 	lds	r31, 0x0A18
	mul r24,r18
    6dc4:	82 9f       	mul	r24, r18
	add ZL,r0
    6dc6:	e0 0d       	add	r30, r0
	adc ZH,r1
    6dc8:	f1 1d       	adc	r31, r1

	;compute destination adress
	ldi XL,lo8(ram_tiles)
    6dca:	a0 ed       	ldi	r26, 0xD0	; 208
	ldi XH,hi8(ram_tiles)
    6dcc:	b4 e0       	ldi	r27, 0x04	; 4
	mul r22,r18
    6dce:	62 9f       	mul	r22, r18
	add XL,r0
    6dd0:	a0 0d       	add	r26, r0
	adc XH,r1
    6dd2:	b1 1d       	adc	r27, r1

	;copy data (fastest possible)
.rept TILE_HEIGHT*TILE_WIDTH
	lpm r1,Z+
	st X+,r1
.endr
    6dd4:	15 90       	lpm	r1, Z+
    6dd6:	1d 92       	st	X+, r1
    6dd8:	15 90       	lpm	r1, Z+
    6dda:	1d 92       	st	X+, r1
    6ddc:	15 90       	lpm	r1, Z+
    6dde:	1d 92       	st	X+, r1
    6de0:	15 90       	lpm	r1, Z+
    6de2:	1d 92       	st	X+, r1
    6de4:	15 90       	lpm	r1, Z+
    6de6:	1d 92       	st	X+, r1
    6de8:	15 90       	lpm	r1, Z+
    6dea:	1d 92       	st	X+, r1
    6dec:	15 90       	lpm	r1, Z+
    6dee:	1d 92       	st	X+, r1
    6df0:	15 90       	lpm	r1, Z+
    6df2:	1d 92       	st	X+, r1
    6df4:	15 90       	lpm	r1, Z+
    6df6:	1d 92       	st	X+, r1
    6df8:	15 90       	lpm	r1, Z+
    6dfa:	1d 92       	st	X+, r1
    6dfc:	15 90       	lpm	r1, Z+
    6dfe:	1d 92       	st	X+, r1
    6e00:	15 90       	lpm	r1, Z+
    6e02:	1d 92       	st	X+, r1
    6e04:	15 90       	lpm	r1, Z+
    6e06:	1d 92       	st	X+, r1
    6e08:	15 90       	lpm	r1, Z+
    6e0a:	1d 92       	st	X+, r1
    6e0c:	15 90       	lpm	r1, Z+
    6e0e:	1d 92       	st	X+, r1
    6e10:	15 90       	lpm	r1, Z+
    6e12:	1d 92       	st	X+, r1
    6e14:	15 90       	lpm	r1, Z+
    6e16:	1d 92       	st	X+, r1
    6e18:	15 90       	lpm	r1, Z+
    6e1a:	1d 92       	st	X+, r1
    6e1c:	15 90       	lpm	r1, Z+
    6e1e:	1d 92       	st	X+, r1
    6e20:	15 90       	lpm	r1, Z+
    6e22:	1d 92       	st	X+, r1
    6e24:	15 90       	lpm	r1, Z+
    6e26:	1d 92       	st	X+, r1
    6e28:	15 90       	lpm	r1, Z+
    6e2a:	1d 92       	st	X+, r1
    6e2c:	15 90       	lpm	r1, Z+
    6e2e:	1d 92       	st	X+, r1
    6e30:	15 90       	lpm	r1, Z+
    6e32:	1d 92       	st	X+, r1
    6e34:	15 90       	lpm	r1, Z+
    6e36:	1d 92       	st	X+, r1
    6e38:	15 90       	lpm	r1, Z+
    6e3a:	1d 92       	st	X+, r1
    6e3c:	15 90       	lpm	r1, Z+
    6e3e:	1d 92       	st	X+, r1
    6e40:	15 90       	lpm	r1, Z+
    6e42:	1d 92       	st	X+, r1
    6e44:	15 90       	lpm	r1, Z+
    6e46:	1d 92       	st	X+, r1
    6e48:	15 90       	lpm	r1, Z+
    6e4a:	1d 92       	st	X+, r1
    6e4c:	15 90       	lpm	r1, Z+
    6e4e:	1d 92       	st	X+, r1
    6e50:	15 90       	lpm	r1, Z+
    6e52:	1d 92       	st	X+, r1
    6e54:	15 90       	lpm	r1, Z+
    6e56:	1d 92       	st	X+, r1
    6e58:	15 90       	lpm	r1, Z+
    6e5a:	1d 92       	st	X+, r1
    6e5c:	15 90       	lpm	r1, Z+
    6e5e:	1d 92       	st	X+, r1
    6e60:	15 90       	lpm	r1, Z+
    6e62:	1d 92       	st	X+, r1
    6e64:	15 90       	lpm	r1, Z+
    6e66:	1d 92       	st	X+, r1
    6e68:	15 90       	lpm	r1, Z+
    6e6a:	1d 92       	st	X+, r1
    6e6c:	15 90       	lpm	r1, Z+
    6e6e:	1d 92       	st	X+, r1
    6e70:	15 90       	lpm	r1, Z+
    6e72:	1d 92       	st	X+, r1
    6e74:	15 90       	lpm	r1, Z+
    6e76:	1d 92       	st	X+, r1
    6e78:	15 90       	lpm	r1, Z+
    6e7a:	1d 92       	st	X+, r1
    6e7c:	15 90       	lpm	r1, Z+
    6e7e:	1d 92       	st	X+, r1
    6e80:	15 90       	lpm	r1, Z+
    6e82:	1d 92       	st	X+, r1
    6e84:	15 90       	lpm	r1, Z+
    6e86:	1d 92       	st	X+, r1
    6e88:	15 90       	lpm	r1, Z+
    6e8a:	1d 92       	st	X+, r1
    6e8c:	15 90       	lpm	r1, Z+
    6e8e:	1d 92       	st	X+, r1
    6e90:	15 90       	lpm	r1, Z+
    6e92:	1d 92       	st	X+, r1
    6e94:	15 90       	lpm	r1, Z+
    6e96:	1d 92       	st	X+, r1
    6e98:	15 90       	lpm	r1, Z+
    6e9a:	1d 92       	st	X+, r1
    6e9c:	15 90       	lpm	r1, Z+
    6e9e:	1d 92       	st	X+, r1
    6ea0:	15 90       	lpm	r1, Z+
    6ea2:	1d 92       	st	X+, r1
    6ea4:	15 90       	lpm	r1, Z+
    6ea6:	1d 92       	st	X+, r1
    6ea8:	15 90       	lpm	r1, Z+
    6eaa:	1d 92       	st	X+, r1
    6eac:	15 90       	lpm	r1, Z+
    6eae:	1d 92       	st	X+, r1
    6eb0:	15 90       	lpm	r1, Z+
    6eb2:	1d 92       	st	X+, r1
    6eb4:	15 90       	lpm	r1, Z+
    6eb6:	1d 92       	st	X+, r1
    6eb8:	15 90       	lpm	r1, Z+
    6eba:	1d 92       	st	X+, r1
    6ebc:	15 90       	lpm	r1, Z+
    6ebe:	1d 92       	st	X+, r1
    6ec0:	15 90       	lpm	r1, Z+
    6ec2:	1d 92       	st	X+, r1
    6ec4:	15 90       	lpm	r1, Z+
    6ec6:	1d 92       	st	X+, r1
    6ec8:	15 90       	lpm	r1, Z+
    6eca:	1d 92       	st	X+, r1
    6ecc:	15 90       	lpm	r1, Z+
    6ece:	1d 92       	st	X+, r1
    6ed0:	15 90       	lpm	r1, Z+
    6ed2:	1d 92       	st	X+, r1
	clr r1
    6ed4:	11 24       	eor	r1, r1
	ret
    6ed6:	08 95       	ret

00006ed8 <CopyRamTile>:
; r24=Source RAM tile index
; r22=Dest RAM tile index
;************************************
CopyRamTile:

	ldi r18,TILE_HEIGHT*TILE_WIDTH
    6ed8:	20 e4       	ldi	r18, 0x40	; 64

	;compute source adress
	ldi ZL,lo8(ram_tiles)
    6eda:	e0 ed       	ldi	r30, 0xD0	; 208
	ldi ZH,hi8(ram_tiles)
    6edc:	f4 e0       	ldi	r31, 0x04	; 4
	mul r24,r18
    6ede:	82 9f       	mul	r24, r18
	add ZL,r0
    6ee0:	e0 0d       	add	r30, r0
	adc ZH,r1
    6ee2:	f1 1d       	adc	r31, r1

	;compute destination adress
	ldi XL,lo8(ram_tiles)
    6ee4:	a0 ed       	ldi	r26, 0xD0	; 208
	ldi XH,hi8(ram_tiles)
    6ee6:	b4 e0       	ldi	r27, 0x04	; 4
	mul r22,r18
    6ee8:	62 9f       	mul	r22, r18
	add XL,r0
    6eea:	a0 0d       	add	r26, r0
	adc XH,r1
    6eec:	b1 1d       	adc	r27, r1

	;copy data (fastest possible)
.rept TILE_HEIGHT*TILE_WIDTH
	ld r1,Z+
	st X+,r1
.endr
    6eee:	11 90       	ld	r1, Z+
    6ef0:	1d 92       	st	X+, r1
    6ef2:	11 90       	ld	r1, Z+
    6ef4:	1d 92       	st	X+, r1
    6ef6:	11 90       	ld	r1, Z+
    6ef8:	1d 92       	st	X+, r1
    6efa:	11 90       	ld	r1, Z+
    6efc:	1d 92       	st	X+, r1
    6efe:	11 90       	ld	r1, Z+
    6f00:	1d 92       	st	X+, r1
    6f02:	11 90       	ld	r1, Z+
    6f04:	1d 92       	st	X+, r1
    6f06:	11 90       	ld	r1, Z+
    6f08:	1d 92       	st	X+, r1
    6f0a:	11 90       	ld	r1, Z+
    6f0c:	1d 92       	st	X+, r1
    6f0e:	11 90       	ld	r1, Z+
    6f10:	1d 92       	st	X+, r1
    6f12:	11 90       	ld	r1, Z+
    6f14:	1d 92       	st	X+, r1
    6f16:	11 90       	ld	r1, Z+
    6f18:	1d 92       	st	X+, r1
    6f1a:	11 90       	ld	r1, Z+
    6f1c:	1d 92       	st	X+, r1
    6f1e:	11 90       	ld	r1, Z+
    6f20:	1d 92       	st	X+, r1
    6f22:	11 90       	ld	r1, Z+
    6f24:	1d 92       	st	X+, r1
    6f26:	11 90       	ld	r1, Z+
    6f28:	1d 92       	st	X+, r1
    6f2a:	11 90       	ld	r1, Z+
    6f2c:	1d 92       	st	X+, r1
    6f2e:	11 90       	ld	r1, Z+
    6f30:	1d 92       	st	X+, r1
    6f32:	11 90       	ld	r1, Z+
    6f34:	1d 92       	st	X+, r1
    6f36:	11 90       	ld	r1, Z+
    6f38:	1d 92       	st	X+, r1
    6f3a:	11 90       	ld	r1, Z+
    6f3c:	1d 92       	st	X+, r1
    6f3e:	11 90       	ld	r1, Z+
    6f40:	1d 92       	st	X+, r1
    6f42:	11 90       	ld	r1, Z+
    6f44:	1d 92       	st	X+, r1
    6f46:	11 90       	ld	r1, Z+
    6f48:	1d 92       	st	X+, r1
    6f4a:	11 90       	ld	r1, Z+
    6f4c:	1d 92       	st	X+, r1
    6f4e:	11 90       	ld	r1, Z+
    6f50:	1d 92       	st	X+, r1
    6f52:	11 90       	ld	r1, Z+
    6f54:	1d 92       	st	X+, r1
    6f56:	11 90       	ld	r1, Z+
    6f58:	1d 92       	st	X+, r1
    6f5a:	11 90       	ld	r1, Z+
    6f5c:	1d 92       	st	X+, r1
    6f5e:	11 90       	ld	r1, Z+
    6f60:	1d 92       	st	X+, r1
    6f62:	11 90       	ld	r1, Z+
    6f64:	1d 92       	st	X+, r1
    6f66:	11 90       	ld	r1, Z+
    6f68:	1d 92       	st	X+, r1
    6f6a:	11 90       	ld	r1, Z+
    6f6c:	1d 92       	st	X+, r1
    6f6e:	11 90       	ld	r1, Z+
    6f70:	1d 92       	st	X+, r1
    6f72:	11 90       	ld	r1, Z+
    6f74:	1d 92       	st	X+, r1
    6f76:	11 90       	ld	r1, Z+
    6f78:	1d 92       	st	X+, r1
    6f7a:	11 90       	ld	r1, Z+
    6f7c:	1d 92       	st	X+, r1
    6f7e:	11 90       	ld	r1, Z+
    6f80:	1d 92       	st	X+, r1
    6f82:	11 90       	ld	r1, Z+
    6f84:	1d 92       	st	X+, r1
    6f86:	11 90       	ld	r1, Z+
    6f88:	1d 92       	st	X+, r1
    6f8a:	11 90       	ld	r1, Z+
    6f8c:	1d 92       	st	X+, r1
    6f8e:	11 90       	ld	r1, Z+
    6f90:	1d 92       	st	X+, r1
    6f92:	11 90       	ld	r1, Z+
    6f94:	1d 92       	st	X+, r1
    6f96:	11 90       	ld	r1, Z+
    6f98:	1d 92       	st	X+, r1
    6f9a:	11 90       	ld	r1, Z+
    6f9c:	1d 92       	st	X+, r1
    6f9e:	11 90       	ld	r1, Z+
    6fa0:	1d 92       	st	X+, r1
    6fa2:	11 90       	ld	r1, Z+
    6fa4:	1d 92       	st	X+, r1
    6fa6:	11 90       	ld	r1, Z+
    6fa8:	1d 92       	st	X+, r1
    6faa:	11 90       	ld	r1, Z+
    6fac:	1d 92       	st	X+, r1
    6fae:	11 90       	ld	r1, Z+
    6fb0:	1d 92       	st	X+, r1
    6fb2:	11 90       	ld	r1, Z+
    6fb4:	1d 92       	st	X+, r1
    6fb6:	11 90       	ld	r1, Z+
    6fb8:	1d 92       	st	X+, r1
    6fba:	11 90       	ld	r1, Z+
    6fbc:	1d 92       	st	X+, r1
    6fbe:	11 90       	ld	r1, Z+
    6fc0:	1d 92       	st	X+, r1
    6fc2:	11 90       	ld	r1, Z+
    6fc4:	1d 92       	st	X+, r1
    6fc6:	11 90       	ld	r1, Z+
    6fc8:	1d 92       	st	X+, r1
    6fca:	11 90       	ld	r1, Z+
    6fcc:	1d 92       	st	X+, r1
    6fce:	11 90       	ld	r1, Z+
    6fd0:	1d 92       	st	X+, r1
    6fd2:	11 90       	ld	r1, Z+
    6fd4:	1d 92       	st	X+, r1
    6fd6:	11 90       	ld	r1, Z+
    6fd8:	1d 92       	st	X+, r1
    6fda:	11 90       	ld	r1, Z+
    6fdc:	1d 92       	st	X+, r1
    6fde:	11 90       	ld	r1, Z+
    6fe0:	1d 92       	st	X+, r1
    6fe2:	11 90       	ld	r1, Z+
    6fe4:	1d 92       	st	X+, r1
    6fe6:	11 90       	ld	r1, Z+
    6fe8:	1d 92       	st	X+, r1
    6fea:	11 90       	ld	r1, Z+
    6fec:	1d 92       	st	X+, r1
	clr r1
    6fee:	11 24       	eor	r1, r1
	ret
    6ff0:	08 95       	ret

00006ff2 <RestoreBackground>:
#if (RTLIST_ENABLE != 0)

	; Restore list: Begin at user_ram_tiles_c (above the user RAM tiles),
	; end before free_tile_index (the first unused RAM tile).

	lds   ZL,      user_ram_tiles_c
    6ff2:	e0 91 0d 0a 	lds	r30, 0x0A0D
	mov   r24,     ZL
    6ff6:	8e 2f       	mov	r24, r30
	add   ZL,      ZL
    6ff8:	ee 0f       	add	r30, r30
	add   ZL,      r24     ; Multiply by 3
    6ffa:	e8 0f       	add	r30, r24
	clr   ZH
    6ffc:	ff 27       	eor	r31, r31
	subi  ZL,      lo8(-(ram_tiles_restore))
    6ffe:	e0 53       	subi	r30, 0x30	; 48
	sbci  ZH,      hi8(-(ram_tiles_restore))
    7000:	f6 4f       	sbci	r31, 0xF6	; 246

	lds   r0,      free_tile_index
    7002:	00 90 0c 0a 	lds	r0, 0x0A0C
	sub   r24,     r0
    7006:	80 19       	sub	r24, r0
	brcc  rbg_exit
    7008:	30 f4       	brcc	.+12     	; 0x7016 <rbg_exit>

0000700a <rbg_loop>:

	; Restore loop

rbg_loop:
	ld    XL,      Z+      ; VRAM address low
    700a:	a1 91       	ld	r26, Z+
	ld    XH,      Z+      ; VRAM address high
    700c:	b1 91       	ld	r27, Z+
	ld    r0,      Z+      ; Tile index to restore
    700e:	01 90       	ld	r0, Z+
	st    X,       r0
    7010:	0c 92       	st	X, r0
	inc   r24
    7012:	83 95       	inc	r24
	brne  rbg_loop
    7014:	d1 f7       	brne	.-12     	; 0x700a <rbg_loop>

00007016 <rbg_exit>:
	lds   r0,      user_ram_tiles_c_tmp
	sts   user_ram_tiles_c, r0
	sts   free_tile_index, r0
#endif

	ret
    7016:	08 95       	ret

00007018 <BlitSpritePart>:
;************************************
BlitSpritePart:

	; Get tile bank addr

	ldi   r25,     4 * 2
    7018:	98 e0       	ldi	r25, 0x08	; 8
	mul   r23,     r25
    701a:	79 9f       	mul	r23, r25
	mov   XL,      r1
    701c:	a1 2d       	mov	r26, r1
	clr   XH
    701e:	bb 27       	eor	r27, r27
	subi  XL,      lo8(-(sprites_tile_banks))
    7020:	a1 5f       	subi	r26, 0xF1	; 241
	sbci  XH,      hi8(-(sprites_tile_banks))
    7022:	b5 4f       	sbci	r27, 0xF5	; 245
	ld    ZL,      X+
    7024:	ed 91       	ld	r30, X+
	ld    ZH,      X+
    7026:	fd 91       	ld	r31, X+

	ldi   r25,     TILE_WIDTH * TILE_HEIGHT
    7028:	90 e4       	ldi	r25, 0x40	; 64
	mul   r22,     r25
    702a:	69 9f       	mul	r22, r25
	add   ZL,      r0      ; Tile data src
    702c:	e0 0d       	add	r30, r0
	adc   ZH,      r1
    702e:	f1 1d       	adc	r31, r1

	; dest = ram_tiles + (bt * TILE_HEIGHT * TILE_WIDTH)

	mul   r24,     r25
    7030:	89 9f       	mul	r24, r25
	movw  XL,      r0
    7032:	d0 01       	movw	r26, r0
	subi  XL,      lo8(-(ram_tiles))
    7034:	a0 53       	subi	r26, 0x30	; 48
	sbci  XH,      hi8(-(ram_tiles))
    7036:	bb 4f       	sbci	r27, 0xFB	; 251
			dest += (dx - 1U);
		}
	}
	*/

	ldi   r25,     0       ; srcXdiff high byte & used for zero
    7038:	90 e0       	ldi	r25, 0x00	; 0
	sbrc  r20,     0
    703a:	40 fd       	sbrc	r20, 0
	rjmp  x_2nd_tile
    703c:	09 c0       	rjmp	.+18     	; 0x7050 <x_2nd_tile>

	mov   r24,     r18     ; srcXdiff = dx
    703e:	82 2f       	mov	r24, r18
	ldi   r20,     TILE_WIDTH
    7040:	48 e0       	ldi	r20, 0x08	; 8
	sub   r20,     r18     ; xspan = TILE_WIDTH - dx
    7042:	42 1b       	sub	r20, r18
	sbrs  r23,     SPRITE_FLIP_X_BIT
    7044:	70 ff       	sbrs	r23, 0
	rjmp  x_1st_tile_nxf
    7046:	0a c0       	rjmp	.+20     	; 0x705c <x_1st_tile_nxf>

	adiw  XL,      TILE_WIDTH - 1 ; dest += (TILE_WIDTH - 1)
    7048:	17 96       	adiw	r26, 0x07	; 7

0000704a <x_2nd_tile_nxf>:

x_2nd_tile_nxf:

	add   ZL,      r24
    704a:	e8 0f       	add	r30, r24
	adc   ZH,      r25     ; src += srcXdiff
    704c:	f9 1f       	adc	r31, r25
	rjmp  x_check_end
    704e:	08 c0       	rjmp	.+16     	; 0x7060 <x_check_end>

00007050 <x_2nd_tile>:

x_2nd_tile:

	ldi   r24,     TILE_WIDTH
    7050:	88 e0       	ldi	r24, 0x08	; 8
	sub   r24,     r18     ; srcXdiff = TILE_WIDTH - dx
    7052:	82 1b       	sub	r24, r18
	mov   r20,     r18     ; xspan = dx;
    7054:	42 2f       	mov	r20, r18
	sbrs  r23,     SPRITE_FLIP_X_BIT
    7056:	70 ff       	sbrs	r23, 0
	rjmp  x_2nd_tile_nxf
    7058:	f8 cf       	rjmp	.-16     	; 0x704a <x_2nd_tile_nxf>

	sbiw  XL,      1       ; dest -= 1
    705a:	11 97       	sbiw	r26, 0x01	; 1

0000705c <x_1st_tile_nxf>:

x_1st_tile_nxf:

	add   XL,      r18
    705c:	a2 0f       	add	r26, r18
	adc   XH,      r25     ; dest += dx
    705e:	b9 1f       	adc	r27, r25

00007060 <x_check_end>:
			src += (TILE_WIDTH * (TILE_HEIGHT - dy));
		}
	}
	*/

	ldi   r22,     TILE_WIDTH
    7060:	68 e0       	ldi	r22, 0x08	; 8
	ldi   r18,     TILE_HEIGHT
    7062:	28 e0       	ldi	r18, 0x08	; 8
	sub   r18,     r19     ; temp = (TILE_HEIGHT - dy)
    7064:	23 1b       	sub	r18, r19

	sbrc  r21,     0
    7066:	50 fd       	sbrc	r21, 0
	rjmp  y_2nd_tile
    7068:	09 c0       	rjmp	.+18     	; 0x707c <y_2nd_tile>

	mul   r22,     r19
    706a:	63 9f       	mul	r22, r19
	add   XL,      r0
    706c:	a0 0d       	add	r26, r0
	adc   XH,      r1      ; dest += (dy * TILE_WIDTH)
    706e:	b1 1d       	adc	r27, r1

	sbrc  r23,     SPRITE_FLIP_Y_BIT
    7070:	71 fd       	sbrc	r23, 1
	subi  ZL,      lo8(-(TILE_WIDTH * (TILE_HEIGHT - 1)))
    7072:	e8 5c       	subi	r30, 0xC8	; 200
	sbrc  r23,     SPRITE_FLIP_Y_BIT
    7074:	71 fd       	sbrc	r23, 1
	sbci  ZH,      hi8(-(TILE_WIDTH * (TILE_HEIGHT - 1)))
    7076:	ff 4f       	sbci	r31, 0xFF	; 255

	mov   r1,      r18     ; yspan = temp
    7078:	12 2e       	mov	r1, r18

	rjmp  y_check_end
    707a:	08 c0       	rjmp	.+16     	; 0x708c <y_check_end>

0000707c <y_2nd_tile>:

y_2nd_tile:

	mov   r1,      r19     ; temp = dy - 1
    707c:	13 2e       	mov	r1, r19
	dec   r1
    707e:	1a 94       	dec	r1
	sbrs  r23,     SPRITE_FLIP_Y_BIT
    7080:	71 ff       	sbrs	r23, 1
	mov   r1,      r18     ; temp = TILE_HEIGHT - dy
    7082:	12 2e       	mov	r1, r18
	mul   r22,     r1      ; src += (temp * TILE_WIDTH)
    7084:	61 9d       	mul	r22, r1
	add   ZL,      r0
    7086:	e0 0d       	add	r30, r0
	adc   ZH,      r1
    7088:	f1 1d       	adc	r31, r1

	mov   r1,      r19     ; yspan = dy
    708a:	13 2e       	mov	r1, r19

0000708c <y_check_end>:
	if ((flags & SPRITE_FLIP_Y) != 0U){
		srcXdiff -= (TILE_WIDTH * 2);
	}
	*/

	sbrc  r23,     SPRITE_FLIP_Y_BIT
    708c:	71 fd       	sbrc	r23, 1
	sbiw  r24,     (TILE_WIDTH * 2)
    708e:	40 97       	sbiw	r24, 0x10	; 16
		step = -1;
	}
	; destXdiff is calculated negated for an optimization in the loop
	*/

	sbrc  r23,     SPRITE_FLIP_X_BIT
    7090:	70 fd       	sbrc	r23, 0
	rjmp  x_diff_xf
    7092:	05 c0       	rjmp	.+10     	; 0x709e <x_diff_xf>

	ldi   r21,     -(TILE_WIDTH + 1) ; destXdiff = -(TILE_WIDTH + 1)
    7094:	57 ef       	ldi	r21, 0xF7	; 247
	add   r21,     r20     ; destXdiff += xspan
    7096:	54 0f       	add	r21, r20
#if (RT_ALIGNED == 0)
	ldi   r23,     0x00
    7098:	70 e0       	ldi	r23, 0x00	; 0
#endif
	ldi   r22,     0x01    ; step = 1
    709a:	61 e0       	ldi	r22, 0x01	; 1
	rjmp  x_diff_end
    709c:	04 c0       	rjmp	.+8      	; 0x70a6 <x_diff_end>

0000709e <x_diff_xf>:

x_diff_xf:

	ldi   r21,     -(TILE_WIDTH - 1) ; destXdiff = -(TILE_WIDTH - 1)
    709e:	59 ef       	ldi	r21, 0xF9	; 249
	sub   r21,     r20     ; destXdiff -= xspan
    70a0:	54 1b       	sub	r21, r20
#if (RT_ALIGNED == 0)
	ldi   r23,     0xFF
    70a2:	7f ef       	ldi	r23, 0xFF	; 255
#endif
	ldi   r22,     0xFF    ; step = -1
    70a4:	6f ef       	ldi	r22, 0xFF	; 255

000070a6 <x_diff_end>:
	; dest += step; is omitted for the last X iteration, compensated with
	; destXdiff.
	; destXdiff is negated to allow for using sub instead of add, so subi
	; can be used to subtract high byte.

	ldi   r19,     TRANSLUCENT_COLOR
    70a6:	3e ef       	ldi	r19, 0xFE	; 254

	mov   r0,      r20     ; xspan
    70a8:	04 2e       	mov	r0, r20
	lsr   r20
    70aa:	46 95       	lsr	r20
	brcc  x_loop1
    70ac:	30 f4       	brcc	.+12     	; 0x70ba <x_loop1>
	breq  x_loopx
    70ae:	61 f0       	breq	.+24     	; 0x70c8 <x_loopx>

000070b0 <x_loop0>:

x_loop0:
	lpm   r18,     Z+      ; px = pgm_read_byte(src); src ++;
    70b0:	25 91       	lpm	r18, Z+
	cpse  r18,     r19     ; if (px != TRANSLUCENT_COLOR)
    70b2:	23 13       	cpse	r18, r19
	st    X,       r18     ; *dest = px
    70b4:	2c 93       	st	X, r18
	add   XL,      r22     ; dest += step;
    70b6:	a6 0f       	add	r26, r22
#if (RT_ALIGNED == 0)
	adc   XH,      r23
    70b8:	b7 1f       	adc	r27, r23

000070ba <x_loop1>:
#endif
x_loop1:
	lpm   r18,     Z+      ; px = pgm_read_byte(src); src ++;
    70ba:	25 91       	lpm	r18, Z+
	cpse  r18,     r19     ; if (px != TRANSLUCENT_COLOR)
    70bc:	23 13       	cpse	r18, r19
	st    X,       r18     ; *dest = px
    70be:	2c 93       	st	X, r18
	add   XL,      r22     ; dest += step;
    70c0:	a6 0f       	add	r26, r22
#if (RT_ALIGNED == 0)
	adc   XH,      r23
    70c2:	b7 1f       	adc	r27, r23
#endif
	subi  r20,     1
    70c4:	41 50       	subi	r20, 0x01	; 1
	brne  x_loop0
    70c6:	a1 f7       	brne	.-24     	; 0x70b0 <x_loop0>

000070c8 <x_loopx>:
x_loopx:
	lpm   r18,     Z+      ; px = pgm_read_byte(src); src ++;
    70c8:	25 91       	lpm	r18, Z+
	cpse  r18,     r19     ; if (px != TRANSLUCENT_COLOR)
    70ca:	23 13       	cpse	r18, r19
	st    X,       r18     ; *dest = px
    70cc:	2c 93       	st	X, r18

	dec   r1
    70ce:	1a 94       	dec	r1
	breq  loop_e
    70d0:	49 f0       	breq	.+18     	; 0x70e4 <loop_e>

	add   ZL,      r24     ; src += srcXdiff
    70d2:	e8 0f       	add	r30, r24
	adc   ZH,      r25
    70d4:	f9 1f       	adc	r31, r25
	sub   XL,      r21     ; dest += destXdiff (negated)
    70d6:	a5 1b       	sub	r26, r21
#if (RT_ALIGNED == 0)
	sbci  XH,      0xFF
    70d8:	bf 4f       	sbci	r27, 0xFF	; 255
#endif

	mov   r20,     r0      ; xspan
    70da:	40 2d       	mov	r20, r0
	lsr   r20
    70dc:	46 95       	lsr	r20
	brcc  x_loop1
    70de:	68 f7       	brcc	.-38     	; 0x70ba <x_loop1>
	brne  x_loop0
    70e0:	39 f7       	brne	.-50     	; 0x70b0 <x_loop0>
	rjmp  x_loopx
    70e2:	f2 cf       	rjmp	.-28     	; 0x70c8 <x_loopx>

000070e4 <loop_e>:

loop_e:

	ret                    ; r1 is zero at this point
    70e4:	08 95       	ret

000070e6 <__vector_13>:
TIMER1_COMPA_vect:

	; (3 cy IT entry latency)
	; (3 cy JMP)

	push  r0
    70e6:	0f 92       	push	r0
	push  r1
    70e8:	1f 92       	push	r1
	push  ZL
    70ea:	ef 93       	push	r30
	push  ZH
    70ec:	ff 93       	push	r31
	in    ZH,      _SFR_IO_ADDR(SREG)
    70ee:	ff b7       	in	r31, 0x3f	; 63
	lds   ZL,      _SFR_MEM_ADDR(TCNT1L) ; 0x10 - 0x15 (5 cy jitter)
    70f0:	e0 91 84 00 	lds	r30, 0x0084
	push  ZH
    70f4:	ff 93       	push	r31

	sbrc  ZL,      2
    70f6:	e2 fd       	sbrc	r30, 2
	rjmp  .+8              ; 0x15 ( 5) or 0x14 ( 6)
    70f8:	04 c0       	rjmp	.+8      	; 0x7102 <__vector_13+0x1c>
	sbrc  ZL,      1
    70fa:	e1 fd       	sbrc	r30, 1
	rjmp  .+4              ; 0x13 ( 7) or 0x12 ( 8)
    70fc:	02 c0       	rjmp	.+4      	; 0x7102 <__vector_13+0x1c>
	nop
    70fe:	00 00       	nop
	rjmp  .                ; 0x11 ( 9) or 0x10 (10)
    7100:	00 c0       	rjmp	.+0      	; 0x7102 <__vector_13+0x1c>
	sbrs  ZL,      0
    7102:	e0 ff       	sbrs	r30, 0
	rjmp  .
    7104:	00 c0       	rjmp	.+0      	; 0x7106 <__vector_13+0x20>

	; An lds of TCNT1L here would result 0x1E

	;decrement sync pulse counter
	lds ZL,sync_pulse
    7106:	e0 91 1f 0a 	lds	r30, 0x0A1F
	dec ZL
    710a:	ea 95       	dec	r30
	sts sync_pulse,ZL
    710c:	e0 93 1f 0a 	sts	0x0A1F, r30

	;process sync phases
	lds ZH,sync_phase
    7110:	f0 91 1e 0a 	lds	r31, 0x0A1E
	sbrc ZH,0
    7114:	f0 fd       	sbrc	r31, 0
	rjmp sync_hsync
    7116:	51 c0       	rjmp	.+162    	; 0x71ba <sync_hsync>
; Note: TCNT1 should be equal to 
; 0x68 on the cbi
; 0xAC on the sbi
; pulse duration: 68 clocks
;***************************************************		
	cpi ZL,SYNC_EQ_PULSES+SYNC_POST_EQ_PULSES
    7118:	ec 30       	cpi	r30, 0x0C	; 12
	brlo sync_eq
    711a:	98 f0       	brcs	.+38     	; 0x7142 <sync_eq>

	;Set HDRIVE to double rate during VSYNC
	ldi ZH,hi8(HDRIVE_CL_TWICE)
    711c:	f3 e0       	ldi	r31, 0x03	; 3
	sts _SFR_MEM_ADDR(OCR1AH),ZH	
    711e:	f0 93 89 00 	sts	0x0089, r31
	ldi ZH,lo8(HDRIVE_CL_TWICE)
    7122:	fd e8       	ldi	r31, 0x8D	; 141
	sts _SFR_MEM_ADDR(OCR1AL),ZH
    7124:	f0 93 88 00 	sts	0x0088, r31

	bst ZL,0
    7128:	e0 fb       	bst	r30, 0
	cbi _SFR_IO_ADDR(SYNC_PORT),SYNC_PIN	;TCNT1=0x68
    712a:	28 98       	cbi	0x05, 0	; 5
	brtc sync_pre_eq_no_sound_update
    712c:	26 f4       	brtc	.+8      	; 0x7136 <sync_pre_eq_no_sound_update>
	ldi ZL,1	;indicate update_sound to generate the SBI for pre-eq
    712e:	e1 e0       	ldi	r30, 0x01	; 1
	call update_sound
    7130:	0e 94 65 39 	call	0x72ca	; 0x72ca <update_sound>
	rjmp sync_end
    7134:	b2 c0       	rjmp	.+356    	; 0x729a <sync_end>

00007136 <sync_pre_eq_no_sound_update>:

sync_pre_eq_no_sound_update:
	WAIT ZL,64
    7136:	e5 e1       	ldi	r30, 0x15	; 21
    7138:	ea 95       	dec	r30
    713a:	f1 f7       	brne	.-4      	; 0x7138 <sync_pre_eq_no_sound_update+0x2>
    713c:	00 00       	nop
	sbi _SFR_IO_ADDR(SYNC_PORT),SYNC_PIN	;TCNT1=0xAC
    713e:	28 9a       	sbi	0x05, 0	; 5
		
	rjmp sync_end
    7140:	ac c0       	rjmp	.+344    	; 0x729a <sync_end>

00007142 <sync_eq>:
; 0x68  on the cbi
; 0x36E on the sbi
; low pulse duration: 774 clocks
;***************************************************	
sync_eq:
	cpi ZL,SYNC_POST_EQ_PULSES
    7142:	e6 30       	cpi	r30, 0x06	; 6
	brlo sync_post_eq
    7144:	08 f1       	brcs	.+66     	; 0x7188 <sync_post_eq>

	rjmp .
    7146:	00 c0       	rjmp	.+0      	; 0x7148 <sync_eq+0x6>
	rjmp .
    7148:	00 c0       	rjmp	.+0      	; 0x714a <sync_eq+0x8>

	cbi _SFR_IO_ADDR(SYNC_PORT),SYNC_PIN ;2
    714a:	28 98       	cbi	0x05, 0	; 5

	bst ZL,0
    714c:	e0 fb       	bst	r30, 0
	ldi ZL,4
    714e:	e4 e0       	ldi	r30, 0x04	; 4
	brtc sync_eq_skip
    7150:	16 f4       	brtc	.+4      	; 0x7156 <sync_eq_skip>
	
	call update_sound
    7152:	0e 94 65 39 	call	0x72ca	; 0x72ca <update_sound>

00007156 <sync_eq_skip>:
	;enable interupt to bring back sync 
	;level instead of wasting cycles
	;in a big wait loop

 	;clear interrupt flag
	ldi ZL,(1<<OCF1B)
    7156:	e4 e0       	ldi	r30, 0x04	; 4
	sts _SFR_MEM_ADDR(TIFR1),ZL 
    7158:	e0 93 36 00 	sts	0x0036, r30
	
	;generate interrupt on match
	;for timer1 compare unit b
	ldi ZL,(1<<OCIE1A)+(1<<OCIE1B)
    715c:	e6 e0       	ldi	r30, 0x06	; 6
	sts _SFR_MEM_ADDR(TIMSK1),ZL
    715e:	e0 93 6f 00 	sts	0x006F, r30

	rjmp sync_end
    7162:	9b c0       	rjmp	.+310    	; 0x729a <sync_end>

00007164 <__vector_14>:
; Interrupt that set the sync signal back to .3v
; during VSYNC EQ pulses to recover ~5000 cycles per field
; with interrupt latency conpensation
;**********************************************************
TIMER1_COMPB_vect:
	push  ZL
    7164:	ef 93       	push	r30

	lds   ZL,      _SFR_MEM_ADDR(TCNT1L) ; 0x28 - 0x2D (5 cy jitter)
    7166:	e0 91 84 00 	lds	r30, 0x0084

	sbrc  ZL,      2
    716a:	e2 fd       	sbrc	r30, 2
	rjmp  .+8              ; 0x2D ( 5) or 0x2C ( 6)
    716c:	04 c0       	rjmp	.+8      	; 0x7176 <__vector_14+0x12>
	sbrc  ZL,      1
    716e:	e1 fd       	sbrc	r30, 1
	rjmp  .+4              ; 0x2B ( 7) or 0x2A ( 8)
    7170:	02 c0       	rjmp	.+4      	; 0x7176 <__vector_14+0x12>
	nop
    7172:	00 00       	nop
	rjmp  .                ; 0x29 ( 9) or 0x28 (10)
    7174:	00 c0       	rjmp	.+0      	; 0x7176 <__vector_14+0x12>
	sbrs  ZL,      0
    7176:	e0 ff       	sbrs	r30, 0
	rjmp  .
    7178:	00 c0       	rjmp	.+0      	; 0x717a <__vector_14+0x16>

	ldi   ZL,      (1 << OCIE1A) ; Disable OCIE1B
    717a:	e2 e0       	ldi	r30, 0x02	; 2
	nop
    717c:	00 00       	nop
	sbi   _SFR_IO_ADDR(SYNC_PORT), SYNC_PIN ; 68
    717e:	28 9a       	sbi	0x05, 0	; 5
	sts   _SFR_MEM_ADDR(TIMSK1), ZL ; Stop generate interrupt on match
    7180:	e0 93 6f 00 	sts	0x006F, r30

	pop   ZL
    7184:	ef 91       	pop	r30
	reti
    7186:	18 95       	reti

00007188 <sync_post_eq>:
; 0x68 on the cbi
; 0xAC on the sbi
; pulse cycles: 68 clocks
;***************************************************	
sync_post_eq:	
	rjmp .
    7188:	00 c0       	rjmp	.+0      	; 0x718a <sync_post_eq+0x2>

	bst ZL,0
    718a:	e0 fb       	bst	r30, 0
	cbi _SFR_IO_ADDR(SYNC_PORT),SYNC_PIN ;2
    718c:	28 98       	cbi	0x05, 0	; 5
	brtc sync_post_eq_no_sound_update
    718e:	26 f4       	brtc	.+8      	; 0x7198 <sync_post_eq_no_sound_update>
	ldi ZL,1	
    7190:	e1 e0       	ldi	r30, 0x01	; 1
	call update_sound
    7192:	0e 94 65 39 	call	0x72ca	; 0x72ca <update_sound>
	rjmp sync_pre_eq_cont
    7196:	05 c0       	rjmp	.+10     	; 0x71a2 <sync_pre_eq_cont>

00007198 <sync_post_eq_no_sound_update>:

sync_post_eq_no_sound_update:
	WAIT ZL,64
    7198:	e5 e1       	ldi	r30, 0x15	; 21
    719a:	ea 95       	dec	r30
    719c:	f1 f7       	brne	.-4      	; 0x719a <sync_post_eq_no_sound_update+0x2>
    719e:	00 00       	nop

	sbi _SFR_IO_ADDR(SYNC_PORT),SYNC_PIN 
    71a0:	28 9a       	sbi	0x05, 0	; 5

000071a2 <sync_pre_eq_cont>:

sync_pre_eq_cont:	
	;check if it's the last vsync pulse
	lds ZL,sync_pulse
    71a2:	e0 91 1f 0a 	lds	r30, 0x0A1F
	cpi ZL,0
    71a6:	e0 30       	cpi	r30, 0x00	; 0
	breq .+2 ;skip rjmp
    71a8:	09 f0       	breq	.+2      	; 0x71ac <sync_pre_eq_cont+0xa>
	rjmp sync_end
    71aa:	77 c0       	rjmp	.+238    	; 0x729a <sync_end>
	
	;update sync flags
	ldi ZL,SYNC_HSYNC_PULSES
    71ac:	ed ef       	ldi	r30, 0xFD	; 253
	sts sync_pulse,ZL
    71ae:	e0 93 1f 0a 	sts	0x0A1F, r30
	ldi ZL,1
    71b2:	e1 e0       	ldi	r30, 0x01	; 1
	sts sync_phase,ZL
    71b4:	e0 93 1e 0a 	sts	0x0A1E, r30
	
	rjmp sync_end
    71b8:	70 c0       	rjmp	.+224    	; 0x729a <sync_end>

000071ba <sync_hsync>:
; 0xF0 on the sbi
; pulse duration: 136 clocks
;***************************************************	

	; Set HDRIVE to normal rate
	ldi ZL,hi8(HDRIVE_CL)
    71ba:	e7 e0       	ldi	r30, 0x07	; 7
	sts _SFR_MEM_ADDR(OCR1AH),ZL	
    71bc:	e0 93 89 00 	sts	0x0089, r30
	ldi ZL,lo8(HDRIVE_CL)
    71c0:	eb e1       	ldi	r30, 0x1B	; 27
	sts _SFR_MEM_ADDR(OCR1AL),ZL
    71c2:	e0 93 88 00 	sts	0x0088, r30
	rjmp .
    71c6:	00 c0       	rjmp	.+0      	; 0x71c8 <sync_hsync+0xe>

	cbi _SFR_IO_ADDR(SYNC_PORT),SYNC_PIN ;2
    71c8:	28 98       	cbi	0x05, 0	; 5
	
	ldi ZL,2	;indicate update_sound to generate the SBI for pre-eq
    71ca:	e2 e0       	ldi	r30, 0x02	; 2
	rjmp .
    71cc:	00 c0       	rjmp	.+0      	; 0x71ce <sync_hsync+0x14>
	call update_sound
    71ce:	0e 94 65 39 	call	0x72ca	; 0x72ca <update_sound>

	;check if we have reached the first line to render
	ldi ZH,SYNC_HSYNC_PULSES
    71d2:	fd ef       	ldi	r31, 0xFD	; 253
	lds r0,first_render_line
    71d4:	00 90 25 0a 	lds	r0, 0x0A25
	sub ZH,r0				
    71d8:	f0 19       	sub	r31, r0
	lds ZL,sync_pulse
    71da:	e0 91 1f 0a 	lds	r30, 0x0A1F
	cp ZL,ZH
    71de:	ef 17       	cp	r30, r31
	brsh no_render
    71e0:	d8 f4       	brcc	.+54     	; 0x7218 <no_render>

	ldi ZH,SYNC_HSYNC_PULSES
    71e2:	fd ef       	ldi	r31, 0xFD	; 253
	lds r0,first_render_line
    71e4:	00 90 25 0a 	lds	r0, 0x0A25
	sub ZH,r0				
    71e8:	f0 19       	sub	r31, r0
	lds r0,render_lines_count
    71ea:	00 90 26 0a 	lds	r0, 0x0A26
	sub ZH,r0			
    71ee:	f0 19       	sub	r31, r0
	cp ZL,ZH
    71f0:	ef 17       	cp	r30, r31
	brlo no_render
    71f2:	90 f0       	brcs	.+36     	; 0x7218 <no_render>

	;push r1-r29
	ldi ZL,29
    71f4:	ed e1       	ldi	r30, 0x1D	; 29
	clr ZH
    71f6:	ff 27       	eor	r31, r31

000071f8 <push_loop>:
push_loop:
	ld r0,Z	;load value from register file
    71f8:	00 80       	ld	r0, Z
	push r0
    71fa:	0f 92       	push	r0
	dec ZL
    71fc:	ea 95       	dec	r30
	brne push_loop	
    71fe:	e1 f7       	brne	.-8      	; 0x71f8 <push_loop>

	;timing compensation
	;to insure we always call the video mode 
	;routine at the same cycle	
	WAIT r16,230-(AUDIO_OUT_HSYNC_CYCLES)
    7200:	05 e0       	ldi	r16, 0x05	; 5
    7202:	0a 95       	dec	r16
    7204:	f1 f7       	brne	.-4      	; 0x7202 <push_loop+0xa>
    7206:	00 c0       	rjmp	.+0      	; 0x7208 <push_loop+0x10>

	call VMODE_FUNC		;TCNT1=0x234
    7208:	0e 94 25 36 	call	0x6c4a	; 0x6c4a <sub_video_mode3>

	;pop r1-r29
	ldi ZL,1
    720c:	e1 e0       	ldi	r30, 0x01	; 1
	clr ZH
    720e:	ff 27       	eor	r31, r31

00007210 <pop_loop>:
pop_loop:
	pop r0
    7210:	0f 90       	pop	r0
	st Z+,r0 ;store value to register file
    7212:	01 92       	st	Z+, r0
	cpi ZL,30
    7214:	ee 31       	cpi	r30, 0x1E	; 30
	brlo pop_loop	
    7216:	e0 f3       	brcs	.-8      	; 0x7210 <pop_loop>

00007218 <no_render>:

no_render:

	;check if it's the last hsync pulse and we are 
	;ready for VSYNC
	lds ZL,sync_pulse
    7218:	e0 91 1f 0a 	lds	r30, 0x0A1F
	cpi ZL,0
    721c:	e0 30       	cpi	r30, 0x00	; 0
	breq .+2
    721e:	09 f0       	breq	.+2      	; 0x7222 <no_render+0xa>
	rjmp sync_end
    7220:	3c c0       	rjmp	.+120    	; 0x729a <sync_end>
;***************************************************
; Process VSYNC stuff
;***************************************************
	
	;push C-call registers
	push r18
    7222:	2f 93       	push	r18
	push r19
    7224:	3f 93       	push	r19
	push r20
    7226:	4f 93       	push	r20
	push r21
    7228:	5f 93       	push	r21
	push r22
    722a:	6f 93       	push	r22
	push r23
    722c:	7f 93       	push	r23
	push r24
    722e:	8f 93       	push	r24
	push r25
    7230:	9f 93       	push	r25
	push r26
    7232:	af 93       	push	r26
	push r27
    7234:	bf 93       	push	r27

	sei ;must enable ints for re-entrant sync pulses
    7236:	78 94       	sei
	clr r1
    7238:	11 24       	eor	r1, r1

	;set vsync flags
	clr ZL
    723a:	ee 27       	eor	r30, r30
	sts sync_phase,ZL
    723c:	e0 93 1e 0a 	sts	0x0A1E, r30
	ldi ZL,SYNC_PRE_EQ_PULSES+SYNC_EQ_PULSES+SYNC_POST_EQ_PULSES
    7240:	e2 e1       	ldi	r30, 0x12	; 18
	sts sync_pulse,ZL
    7242:	e0 93 1f 0a 	sts	0x0A1F, r30



	;increment the vsync counter
	lds r24,vsync_counter
    7246:	80 91 2f 0a 	lds	r24, 0x0A2F
	lds r25,vsync_counter+1
    724a:	90 91 30 0a 	lds	r25, 0x0A30
	adiw r24,1
    724e:	01 96       	adiw	r24, 0x01	; 1
	sts vsync_counter,r24
    7250:	80 93 2f 0a 	sts	0x0A2F, r24
	sts vsync_counter+1,r25
    7254:	90 93 30 0a 	sts	0x0A30, r25


	;process user pre callback
	lds ZL,pre_vsync_user_callback+0
    7258:	e0 91 21 0a 	lds	r30, 0x0A21
	lds ZH,pre_vsync_user_callback+1
    725c:	f0 91 22 0a 	lds	r31, 0x0A22
	cp  ZL,r1
    7260:	e1 15       	cp	r30, r1
	cpc ZH,r1
    7262:	f1 05       	cpc	r31, r1
	breq .+2 
    7264:	09 f0       	breq	.+2      	; 0x7268 <no_render+0x50>
	icall
    7266:	09 95       	icall

	;refresh buttons states
	#if CONTROLLERS_VSYNC_READ == 1
		call ReadControllers
    7268:	0e 94 17 3b 	call	0x762e	; 0x762e <ReadControllers>
	#endif 
	
	;invoke stuff the video mode may have to do
	call VideoModeVsync	
    726c:	0e 94 6c 49 	call	0x92d8	; 0x92d8 <VideoModeVsync>

	;process music (music, envelopes, etc)
	call process_music
    7270:	0e 94 5f 39 	call	0x72be	; 0x72be <process_music>
	clr r1
    7274:	11 24       	eor	r1, r1

	;process user post callback
	lds ZL,post_vsync_user_callback+0
    7276:	e0 91 23 0a 	lds	r30, 0x0A23
	lds ZH,post_vsync_user_callback+1
    727a:	f0 91 24 0a 	lds	r31, 0x0A24
	cp  ZL,r1
    727e:	e1 15       	cp	r30, r1
	cpc ZH,r1
    7280:	f1 05       	cpc	r31, r1
	breq .+2 
    7282:	09 f0       	breq	.+2      	; 0x7286 <no_render+0x6e>
	icall
    7284:	09 95       	icall
	#if SNES_MOUSE == 1
		call ReadMouseExtendedData
		call ProcessMouseMovement
	#endif

	pop r27
    7286:	bf 91       	pop	r27
	pop r26
    7288:	af 91       	pop	r26
	pop r25
    728a:	9f 91       	pop	r25
	pop r24
    728c:	8f 91       	pop	r24
	pop r23
    728e:	7f 91       	pop	r23
	pop r22
    7290:	6f 91       	pop	r22
	pop r21
    7292:	5f 91       	pop	r21
	pop r20
    7294:	4f 91       	pop	r20
	pop r19
    7296:	3f 91       	pop	r19
	pop r18
    7298:	2f 91       	pop	r18

0000729a <sync_end>:
	
sync_end:	
	;restore flags
	pop ZL
    729a:	ef 91       	pop	r30
	out _SFR_IO_ADDR(SREG),ZL
    729c:	ef bf       	out	0x3f, r30	; 63
	
	pop ZH
    729e:	ff 91       	pop	r31
	pop ZL
    72a0:	ef 91       	pop	r30
	pop r1
    72a2:	1f 90       	pop	r1
	pop r0
    72a4:	0f 90       	pop	r0
	reti
    72a6:	18 95       	reti

000072a8 <hsync_pulse>:
; 0xf0 on the sbi 
;	
; Destroys: ZL (r30)
;*************************************************
hsync_pulse:
	cbi _SFR_IO_ADDR(SYNC_PORT),SYNC_PIN ;2
    72a8:	28 98       	cbi	0x05, 0	; 5
	ldi ZL,2
    72aa:	e2 e0       	ldi	r30, 0x02	; 2
	rjmp .
    72ac:	00 c0       	rjmp	.+0      	; 0x72ae <hsync_pulse+0x6>
	call update_sound
    72ae:	0e 94 65 39 	call	0x72ca	; 0x72ca <update_sound>

	lds ZL,sync_pulse
    72b2:	e0 91 1f 0a 	lds	r30, 0x0A1F
	dec ZL
    72b6:	ea 95       	dec	r30
	sts sync_pulse,ZL
    72b8:	e0 93 1f 0a 	sts	0x0A1F, r30

	ret
    72bc:	08 95       	ret

000072be <process_music>:
; NOTE: registers r18-r27 are already saved by the caller
;***********************
process_music:
	
#if ENABLE_MIXER==1
	lds ZL,sound_enabled
    72be:	e0 91 43 0a 	lds	r30, 0x0A43
	sbrc ZL,0
    72c2:	e0 fd       	sbrc	r30, 0
 	call ProcessMusic
    72c4:	0e 94 73 3e 	call	0x7ce6	; 0x7ce6 <ProcessMusic>
#endif

	ret
    72c8:	08 95       	ret

000072ca <update_sound>:

; Destroys: Z,r0,r1
; cycles: 212+
;****************************
update_sound:
	push r16
    72ca:	0f 93       	push	r16
	push r17
    72cc:	1f 93       	push	r17
	push r18
    72ce:	2f 93       	push	r18
	push r28
    72d0:	cf 93       	push	r28
	push r29
    72d2:	df 93       	push	r29

	mov r18,ZL
    72d4:	2e 2f       	mov	r18, r30

	;channel 1 
	lds r16,tr1_step_lo
    72d6:	00 91 45 0a 	lds	r16, 0x0A45
	lds r17,tr1_pos_frac
    72da:	10 91 47 0a 	lds	r17, 0x0A47
	add	r17,r16	;add step to fractional part of sample pos
    72de:	10 0f       	add	r17, r16
	lds r16,tr1_step_hi	
    72e0:	00 91 46 0a 	lds	r16, 0x0A46
	lds ZL,tr1_pos_lo
    72e4:	e0 91 48 0a 	lds	r30, 0x0A48
	lds ZH,tr1_pos_hi 
    72e8:	f0 91 49 0a 	lds	r31, 0x0A49
	adc ZL,r16	;add step to low byte of sample pos
    72ec:	e0 1f       	adc	r30, r16
	lpm	r16,Z	;load sample
    72ee:	04 91       	lpm	r16, Z
	sts tr1_pos_lo,ZL
    72f0:	e0 93 48 0a 	sts	0x0A48, r30
	sts tr1_pos_frac,r17
    72f4:	10 93 47 0a 	sts	0x0A47, r17
	lds r17,tr1_vol
    72f8:	10 91 44 0a 	lds	r17, 0x0A44
	mulsu r16,r17;(sample*mixing vol)
    72fc:	01 03       	mulsu	r16, r17
	sbc r0,r0	;sign extend	
    72fe:	00 08       	sbc	r0, r0
	mov r28,r1	;set (sample*vol>>8) to mix buffer lsb
    7300:	c1 2d       	mov	r28, r1
	mov r29,r0	;set mix buffer msb	
    7302:	d0 2d       	mov	r29, r0
	nop
    7304:	00 00       	nop

;38
	
	;channel 2
	lds r16,tr2_step_lo
    7306:	00 91 4b 0a 	lds	r16, 0x0A4B
	lds r17,tr2_pos_frac
    730a:	10 91 4d 0a 	lds	r17, 0x0A4D
	add	r17,r16	;add step to fractional part of sample pos
    730e:	10 0f       	add	r17, r16
	lds r16,tr2_step_hi	
    7310:	00 91 4c 0a 	lds	r16, 0x0A4C
	lds ZL,tr2_pos_lo
    7314:	e0 91 4e 0a 	lds	r30, 0x0A4E
	lds ZH,tr2_pos_hi 
    7318:	f0 91 4f 0a 	lds	r31, 0x0A4F
	adc ZL,r16	;add step to low byte of sample pos
    731c:	e0 1f       	adc	r30, r16
	lpm	r16,Z	;load sample
    731e:	04 91       	lpm	r16, Z
	sts tr2_pos_lo,ZL
    7320:	e0 93 4e 0a 	sts	0x0A4E, r30
	sts tr2_pos_frac,r17
    7324:	10 93 4d 0a 	sts	0x0A4D, r17
	lds r17,tr2_vol
    7328:	10 91 4a 0a 	lds	r17, 0x0A4A

	;*** Video sync update ***
	sbrc r18,0								;pre-eq/post-eq sync
    732c:	20 fd       	sbrc	r18, 0
	sbi _SFR_IO_ADDR(SYNC_PORT),SYNC_PIN	;TCNT1=0xAC
    732e:	28 9a       	sbi	0x05, 0	; 5
	sbrs r18,0								
    7330:	20 ff       	sbrs	r18, 0
	rjmp .
    7332:	00 c0       	rjmp	.+0      	; 0x7334 <update_sound+0x6a>
	;*************************

	mulsu r16,r17;(sample*mixing vol)
    7334:	01 03       	mulsu	r16, r17
	clr r0
    7336:	00 24       	eor	r0, r0
	sbc r0,r0	;sign extend
    7338:	00 08       	sbc	r0, r0
	add r28,r1	;add (sample*vol>>8) to mix buffer lsb
    733a:	c1 0d       	add	r28, r1
	adc r29,r0	;ajust mix buffer msb		
    733c:	d0 1d       	adc	r29, r0
;70
	
	;channel 3
	lds r16,tr3_step_lo
    733e:	00 91 51 0a 	lds	r16, 0x0A51
	lds r17,tr3_pos_frac
    7342:	10 91 53 0a 	lds	r17, 0x0A53
	add	r17,r16				;add step to fractional part of sample pos
    7346:	10 0f       	add	r17, r16
	lds r16,tr3_step_hi	
    7348:	00 91 52 0a 	lds	r16, 0x0A52
	lds ZL,tr3_pos_lo
    734c:	e0 91 54 0a 	lds	r30, 0x0A54
	lds ZH,tr3_pos_hi 
    7350:	f0 91 55 0a 	lds	r31, 0x0A55
	adc ZL,r16				;add step to low byte of sample pos
    7354:	e0 1f       	adc	r30, r16
	lpm	r16,Z				;load sample
    7356:	04 91       	lpm	r16, Z
	sts tr3_pos_lo,ZL
    7358:	e0 93 54 0a 	sts	0x0A54, r30
	sts tr3_pos_frac,r17
    735c:	10 93 53 0a 	sts	0x0A53, r17
	lds r17,tr3_vol
    7360:	10 91 50 0a 	lds	r17, 0x0A50
	mulsu r16,r17			;(sample*mixing vol)
    7364:	01 03       	mulsu	r16, r17
	sbc r0,r0				;sign extend
    7366:	00 08       	sbc	r0, r0
	add r28,r1				;add (sample*vol>>8) to mix buffer lsb
    7368:	c1 0d       	add	r28, r1
	adc r29,r0				;ajust mix buffer msb
    736a:	d0 1d       	adc	r29, r0
;97	

	;channel 4 - 7/15 bit LFSR 
	lds r16,tr4_barrel_lo
    736c:	00 91 58 0a 	lds	r16, 0x0A58
	lds r17,tr4_barrel_hi
    7370:	10 91 59 0a 	lds	r17, 0x0A59
	lds ZL,tr4_divider
    7374:	e0 91 5a 0a 	lds	r30, 0x0A5A
	dec ZL	
    7378:	ea 95       	dec	r30
	brpl ch4_no_shift	
    737a:	92 f4       	brpl	.+36     	; 0x73a0 <ch4_no_shift>

	lds ZH,tr4_params
    737c:	f0 91 57 0a 	lds	r31, 0x0A57
	mov ZL,ZH
    7380:	ef 2f       	mov	r30, r31
	lsr ZL 			;keep bits7:1
    7382:	e6 95       	lsr	r30

	mov r0,r16  ;copy barrel shifter
    7384:	00 2e       	mov	r0, r16
	lsr r0
    7386:	06 94       	lsr	r0
	eor r0,r16  ;xor bit0 and bit1
    7388:	00 26       	eor	r0, r16
	bst r0,0
    738a:	00 fa       	bst	r0, 0
	lsr r17
    738c:	16 95       	lsr	r17
	ror r16
    738e:	07 95       	ror	r16
	bld r17,6	;15 bits mode
    7390:	16 f9       	bld	r17, 6
	sbrs ZH,0
    7392:	f0 ff       	sbrs	r31, 0
	bld r16,6	;7 bits mode
    7394:	06 f9       	bld	r16, 6

	sts tr4_barrel_lo,r16
    7396:	00 93 58 0a 	sts	0x0A58, r16
	sts tr4_barrel_hi,r17
    739a:	10 93 59 0a 	sts	0x0A59, r17

	rjmp ch4_end
    739e:	03 c0       	rjmp	.+6      	; 0x73a6 <ch4_end>

000073a0 <ch4_no_shift>:
ch4_no_shift:
	;wait loop 21 cycles
	ldi r17,6
    73a0:	16 e0       	ldi	r17, 0x06	; 6
	dec r17
    73a2:	1a 95       	dec	r17
	brne .-4
    73a4:	f1 f7       	brne	.-4      	; 0x73a2 <ch4_no_shift+0x2>

000073a6 <ch4_end>:
	;rjmp .
ch4_end:

	sts tr4_divider,ZL
    73a6:	e0 93 5a 0a 	sts	0x0A5A, r30
	ldi r17,0x80 ;-128
    73aa:	10 e8       	ldi	r17, 0x80	; 128
	
	;*** Video sync update ***
	sbrc r18,1								;hsync
    73ac:	21 fd       	sbrc	r18, 1
	sbi _SFR_IO_ADDR(SYNC_PORT),SYNC_PIN	;TCNT1=0xF0
    73ae:	28 9a       	sbi	0x05, 0	; 5
	sbrs r18,1								
    73b0:	21 ff       	sbrs	r18, 1
	rjmp .
    73b2:	00 c0       	rjmp	.+0      	; 0x73b4 <ch4_end+0xe>
	;*************************
	
	sbrc r16,0
    73b4:	00 fd       	sbrc	r16, 0
	ldi r17,0x7f ;+127
    73b6:	1f e7       	ldi	r17, 0x7F	; 127
	
	lds r16,tr4_vol
    73b8:	00 91 56 0a 	lds	r16, 0x0A56

	mulsu r17,r16;(sample*mixing vol)
    73bc:	10 03       	mulsu	r17, r16
	sbc r0,r0	;sign extend
    73be:	00 08       	sbc	r0, r0
	add r28,r1	;add (sample*vol>>8) to mix buffer lsb
    73c0:	c1 0d       	add	r28, r1
	adc r29,r0	;ajust mix buffer msb
    73c2:	d0 1d       	adc	r29, r0
#endif
	
	;final processing

	;clip
	clr r0
    73c4:	00 24       	eor	r0, r0
	cpi r28,128	;> 127?
    73c6:	c0 38       	cpi	r28, 0x80	; 128
	cpc r29,r0 ;0	
    73c8:	d0 05       	cpc	r29, r0
	brlt .+2
    73ca:	0c f0       	brlt	.+2      	; 0x73ce <ch4_end+0x28>
	ldi r28,127
    73cc:	cf e7       	ldi	r28, 0x7F	; 127
	
	dec r0
    73ce:	0a 94       	dec	r0
	cpi r28,-128; <-128?
    73d0:	c0 38       	cpi	r28, 0x80	; 128
	cpc r29,r0 ;0xff
    73d2:	d0 05       	cpc	r29, r0
	brge .+2
    73d4:	0c f4       	brge	.+2      	; 0x73d8 <ch4_end+0x32>
	ldi r28,-128
    73d6:	c0 e8       	ldi	r28, 0x80	; 128

	subi r28,128	;convert to unsigned		
    73d8:	c0 58       	subi	r28, 0x80	; 128
	sts _SFR_MEM_ADDR(OCR2A),r28 ;output sound byte
    73da:	c0 93 b3 00 	sts	0x00B3, r28
	

#if UART == 1
	;read UART data (23 cycles)
	
	ldi ZL,lo8(uart_rx_buf)
    73de:	e4 ea       	ldi	r30, 0xA4	; 164
	ldi ZH,hi8(uart_rx_buf)
    73e0:	fa e0       	ldi	r31, 0x0A	; 10
	lds r16,uart_rx_head
    73e2:	00 91 a1 0a 	lds	r16, 0x0AA1

	clr r0
    73e6:	00 24       	eor	r0, r0
	add ZL,r16
    73e8:	e0 0f       	add	r30, r16
	adc ZH,r0
    73ea:	f0 1d       	adc	r31, r0

	lds r17,_SFR_MEM_ADDR(UCSR0A)	
    73ec:	10 91 c0 00 	lds	r17, 0x00C0

	sbrs r17,RXC0	;data in?
    73f0:	17 ff       	sbrs	r17, 7
	rjmp 1f
    73f2:	08 c0       	rjmp	.+16     	; 0x7404 <ch4_end+0x5e>

	lds r18,_SFR_MEM_ADDR(UDR0)
    73f4:	20 91 c6 00 	lds	r18, 0x00C6
	st Z,r18
    73f8:	20 83       	st	Z, r18
	inc r16
    73fa:	03 95       	inc	r16
	andi r16,(UART_RX_BUFFER_SIZE-1) ;wrap
    73fc:	0f 73       	andi	r16, 0x3F	; 63
	sts uart_rx_head,r16
    73fe:	00 93 a1 0a 	sts	0x0AA1, r16
	rjmp uart_tx
    7402:	03 c0       	rjmp	.+6      	; 0x740a <uart_tx>
1:
	WAIT r28,9
    7404:	c3 e0       	ldi	r28, 0x03	; 3
    7406:	ca 95       	dec	r28
    7408:	f1 f7       	brne	.-4      	; 0x7406 <ch4_end+0x60>

0000740a <uart_tx>:

uart_tx:
	;send UART data (24 cycles)
	
	ldi ZL,lo8(uart_tx_buf)
    740a:	e0 e6       	ldi	r30, 0x60	; 96
	ldi ZH,hi8(uart_tx_buf)
    740c:	fa e0       	ldi	r31, 0x0A	; 10
	lds r16,uart_tx_tail
    740e:	00 91 e4 0a 	lds	r16, 0x0AE4
	lds r29,uart_tx_head
    7412:	d0 91 a2 0a 	lds	r29, 0x0AA2
	
	add ZL,r16
    7416:	e0 0f       	add	r30, r16
	adc ZH,r0	;r0=0
    7418:	f0 1d       	adc	r31, r0

	lds r28,_SFR_MEM_ADDR(UCSR0A)
    741a:	c0 91 c0 00 	lds	r28, 0x00C0
	andi r28,(1<<UDRE0)	 	//UCSR0A & (1<<UDRE0)
    741e:	c0 72       	andi	r28, 0x20	; 32

	;if(ring_head == ring_tail || (UCSR0A & (1<<UDRE0)==0 ), nothing to send
	sub r29,r16
    7420:	d0 1b       	sub	r29, r16
	mul r28,r29
    7422:	cd 9f       	mul	r28, r29
	breq 1f		
    7424:	41 f0       	breq	.+16     	; 0x7436 <uart_tx+0x2c>

	ld r18,Z
    7426:	20 81       	ld	r18, Z
	sts _SFR_MEM_ADDR(UDR0),r18	;TCNT1=0x134
    7428:	20 93 c6 00 	sts	0x00C6, r18
	inc r16
    742c:	03 95       	inc	r16
	andi r16,(UART_TX_BUFFER_SIZE-1) ;wrap
    742e:	0f 73       	andi	r16, 0x3F	; 63
	sts uart_tx_tail,r16
    7430:	00 93 e4 0a 	sts	0x0AE4, r16
	rjmp update_sound_end
    7434:	03 c0       	rjmp	.+6      	; 0x743c <update_sound_end>
1:
	WAIT r28,9
    7436:	c3 e0       	ldi	r28, 0x03	; 3
    7438:	ca 95       	dec	r28
    743a:	f1 f7       	brne	.-4      	; 0x7438 <uart_tx+0x2e>

0000743c <update_sound_end>:
#endif


update_sound_end:

	pop r29
    743c:	df 91       	pop	r29
	pop r28
    743e:	cf 91       	pop	r28
	pop r18
    7440:	2f 91       	pop	r18
	pop r17
    7442:	1f 91       	pop	r17
	pop r16
    7444:	0f 91       	pop	r16
	
	ret
    7446:	08 95       	ret

00007448 <SetSpritesTileTable>:
; C-callable
; r25:r24=pointer to sprites pixel data.
;*****************************
.section .text.SetSpritesTileTable
SetSpritesTileTable:
	sts sprites_tile_banks,r24
    7448:	80 93 0f 0a 	sts	0x0A0F, r24
	sts sprites_tile_banks+1,r25
    744c:	90 93 10 0a 	sts	0x0A10, r25
	ret
    7450:	08 95       	ret

00007452 <ClearVram>:
; C-callable
;************************************
.section .text.ClearVram
ClearVram:
	//init vram		
	ldi r30,lo8(VRAM_SIZE+(VRAM_TILES_H*OVERLAY_LINES))
    7452:	e8 e4       	ldi	r30, 0x48	; 72
	ldi r31,hi8(VRAM_SIZE+(VRAM_TILES_H*OVERLAY_LINES))
    7454:	f3 e0       	ldi	r31, 0x03	; 3

	ldi XL,lo8(vram)
    7456:	a0 e6       	ldi	r26, 0x60	; 96
	ldi XH,hi8(vram)
    7458:	b1 e0       	ldi	r27, 0x01	; 1

	ldi r22,RAM_TILES_COUNT
    745a:	64 e1       	ldi	r22, 0x14	; 20

0000745c <fill_vram_loop>:

fill_vram_loop:
	st X+,r22
    745c:	6d 93       	st	X+, r22
	sbiw r30,1
    745e:	31 97       	sbiw	r30, 0x01	; 1
	brne fill_vram_loop
    7460:	e9 f7       	brne	.-6      	; 0x745c <fill_vram_loop>

	clr r1
    7462:	11 24       	eor	r1, r1

	ret
    7464:	08 95       	ret

00007466 <SetFont>:
; r22=Y pos (8 bit)
; r20=Font tile No (8 bit)
;************************************
.section .text.SetFont
SetFont:
	lds r21,font_tile_index
    7466:	50 91 19 0a 	lds	r21, 0x0A19
	add r20,21
    746a:	45 0f       	add	r20, r21
	rjmp SetTile	
    746c:	00 c0       	rjmp	.+0      	; 0x746e <SetTile>

0000746e <SetTile>:

	ret

#else

	clr r25
    746e:	99 27       	eor	r25, r25
	clr r23	
    7470:	77 27       	eor	r23, r23

	ldi r18,VRAM_TILES_H
    7472:	2e e1       	ldi	r18, 0x1E	; 30

	mul r22,r18		;calculate Y line addr in vram
    7474:	62 9f       	mul	r22, r18
	add r0,r24		;add X offset
    7476:	08 0e       	add	r0, r24
	adc r1,r25
    7478:	19 1e       	adc	r1, r25
	ldi XL,lo8(vram)
    747a:	a0 e6       	ldi	r26, 0x60	; 96
	ldi XH,hi8(vram)
    747c:	b1 e0       	ldi	r27, 0x01	; 1
	add XL,r0
    747e:	a0 0d       	add	r26, r0
	adc XH,r1
    7480:	b1 1d       	adc	r27, r1
	
	subi r20,~(RAM_TILES_COUNT-1)	
    7482:	4c 5e       	subi	r20, 0xEC	; 236
	st X,r20
    7484:	4c 93       	st	X, r20

	clr r1
    7486:	11 24       	eor	r1, r1

	ret
    7488:	08 95       	ret

0000748a <SetFontTilesIndex>:
; C-callable
; r24=First font tile index in tile table (8 bit)
;************************************
.section .text.SetFontTilesIndex
	SetFontTilesIndex:
	sts font_tile_index,r24
    748a:	80 93 19 0a 	sts	0x0A19, r24
	ret
    748e:	08 95       	ret

00007490 <SetTileTable>:
; C-callable
; r25:r24=pointer to tiles data
;************************************
.section .text.SetTileTable
SetTileTable:
	sts tile_table_lo,r24
    7490:	80 93 17 0a 	sts	0x0A17, r24
	sts tile_table_hi,r25	
    7494:	90 93 18 0a 	sts	0x0A18, r25
	ret
    7498:	08 95       	ret

0000749a <GetVsyncFlag>:
;
; C-callable
;************************************
.section .text.GetVsyncFlag
GetVsyncFlag:
	lds r24,sync_flags
    749a:	80 91 20 0a 	lds	r24, 0x0A20
	andi r24,SYNC_FLAG_VSYNC
    749e:	81 70       	andi	r24, 0x01	; 1
	ret
    74a0:	08 95       	ret

000074a2 <ClearVsyncFlag>:
; 
; C-callable
;*****************************
.section .text.ClearVsyncFlag
ClearVsyncFlag:
	lds r18,sync_flags
    74a2:	20 91 20 0a 	lds	r18, 0x0A20
	andi r18,~SYNC_FLAG_VSYNC
    74a6:	2e 7f       	andi	r18, 0xFE	; 254
	sts sync_flags,r18
    74a8:	20 93 20 0a 	sts	0x0A20, r18
	ret
    74ac:	08 95       	ret

000074ae <GetVsyncCounter>:
; C-callable
; returns: (unsigned int) r25:r24
;************************************
.section .text.GetVsyncCounter
GetVsyncCounter:
	lds r24,vsync_counter
    74ae:	80 91 2f 0a 	lds	r24, 0x0A2F
	lds r25,vsync_counter+1
    74b2:	90 91 30 0a 	lds	r25, 0x0A30
	ret
    74b6:	08 95       	ret

000074b8 <ClearVsyncCounter>:
;
; C-callable
;************************************
.section .text.ClearVsyncCounter
ClearVsyncCounter:
	sts vsync_counter,r1
    74b8:	10 92 2f 0a 	sts	0x0A2F, r1
	sts vsync_counter+1,r1
    74bc:	10 92 30 0a 	sts	0x0A30, r1
	ret
    74c0:	08 95       	ret

000074c2 <ReadJoypad>:
; r24=joypad No (0 or 1)
; returns: (int) r25:r24
;*****************************
.section .text.ReadJoypad
ReadJoypad:	
	tst r24
    74c2:	88 23       	and	r24, r24
	brne rj_p2
    74c4:	29 f4       	brne	.+10     	; 0x74d0 <rj_p2>
		
	lds r24,joypad1_status_lo
    74c6:	80 91 27 0a 	lds	r24, 0x0A27
	lds r25,joypad1_status_lo+1
    74ca:	90 91 28 0a 	lds	r25, 0x0A28
	ret
    74ce:	08 95       	ret

000074d0 <rj_p2>:
rj_p2:
	lds r24,joypad2_status_lo
    74d0:	80 91 2b 0a 	lds	r24, 0x0A2B
	lds r25,joypad2_status_lo+1	
    74d4:	90 91 2c 0a 	lds	r25, 0x0A2C

	ret
    74d8:	08 95       	ret

000074da <WaitUs>:
; r25:r24 - us to wait
; returns: void
;****************************
.section .text.WaitUs
WaitUs:	
	ldi r23,8
    74da:	78 e0       	ldi	r23, 0x08	; 8
	dec 23
    74dc:	7a 95       	dec	r23
	brne .-4 ;~1 us
    74de:	f1 f7       	brne	.-4      	; 0x74dc <WaitUs+0x2>
	nop
    74e0:	00 00       	nop
	sbiw r24,1
    74e2:	01 97       	sbiw	r24, 0x01	; 1
	brne WaitUs
    74e4:	d1 f7       	brne	.-12     	; 0x74da <WaitUs>

	ret
    74e6:	08 95       	ret

000074e8 <WriteEeprom>:
;****************************

.section .text.WriteEeprom
WriteEeprom:
   ; Wait for completion of previous write
   sbic _SFR_IO_ADDR(EECR),EEPE
    74e8:	f9 99       	sbic	0x1f, 1	; 31
   rjmp WriteEeprom
    74ea:	fe cf       	rjmp	.-4      	; 0x74e8 <WriteEeprom>
   ; Set up address (r25:r24) in address register
   out _SFR_IO_ADDR(EEARH), r25
    74ec:	92 bd       	out	0x22, r25	; 34
   out _SFR_IO_ADDR(EEARL), r24
    74ee:	81 bd       	out	0x21, r24	; 33
   ; Write data (r22) to Data Register
   out _SFR_IO_ADDR(EEDR),r22
    74f0:	60 bd       	out	0x20, r22	; 32
   cli
    74f2:	f8 94       	cli
   ; Write logical one to EEMPE
   sbi _SFR_IO_ADDR(EECR),EEMPE
    74f4:	fa 9a       	sbi	0x1f, 2	; 31
   ; Start eeprom write by setting EEPE
   sbi _SFR_IO_ADDR(EECR),EEPE
    74f6:	f9 9a       	sbi	0x1f, 1	; 31
   sei
    74f8:	78 94       	sei
   ret
    74fa:	08 95       	ret

000074fc <ReadEeprom>:
; r24 - value read
;****************************
.section .text.ReadEeprom
ReadEeprom:
   ; Wait for completion of previous write
   sbic _SFR_IO_ADDR(EECR),EEPE
    74fc:	f9 99       	sbic	0x1f, 1	; 31
   rjmp ReadEeprom
    74fe:	fe cf       	rjmp	.-4      	; 0x74fc <ReadEeprom>
   ; Set up address (r25:r24) in address register
   out _SFR_IO_ADDR(EEARH), r25
    7500:	92 bd       	out	0x22, r25	; 34
   out _SFR_IO_ADDR(EEARL), r24
    7502:	81 bd       	out	0x21, r24	; 33
   ; Start eeprom read by writing EERE
   cli
    7504:	f8 94       	cli
   sbi _SFR_IO_ADDR(EECR),EERE
    7506:	f8 9a       	sbi	0x1f, 0	; 31
   ; Read data from Data Register
   in r24,_SFR_IO_ADDR(EEDR)
    7508:	80 b5       	in	r24, 0x20	; 32
   sei
    750a:	78 94       	sei
   ret
    750c:	08 95       	ret

0000750e <wdt_randomize>:
	.global wdt_randomize
	.section .text.wdt_randomize
	wdt_randomize:

		;set timer 1 full speed count to 0xffff
		ldi r24,0
    750e:	80 e0       	ldi	r24, 0x00	; 0
		sts sync_pulse,r24
    7510:	80 93 1f 0a 	sts	0x0A1F, r24


		sts _SFR_MEM_ADDR(TIMSK1),r24
    7514:	80 93 6f 00 	sts	0x006F, r24
		sts _SFR_MEM_ADDR(OCR1AL),r24
    7518:	80 93 88 00 	sts	0x0088, r24
		sts _SFR_MEM_ADDR(OCR1AH),r24
    751c:	80 93 89 00 	sts	0x0089, r24
		sts _SFR_MEM_ADDR(OCR1BL),r24
    7520:	80 93 8a 00 	sts	0x008A, r24
		sts _SFR_MEM_ADDR(OCR1BH),r24
    7524:	80 93 8b 00 	sts	0x008B, r24
		sts _SFR_MEM_ADDR(TCNT1H),r24
    7528:	80 93 85 00 	sts	0x0085, r24
		sts _SFR_MEM_ADDR(TCNT1L),r24
    752c:	80 93 84 00 	sts	0x0084, r24
		
		sts _SFR_MEM_ADDR(TCCR1A),r24	
    7530:	80 93 80 00 	sts	0x0080, r24
		ldi 24,(1<<CS10)
    7534:	81 e0       	ldi	r24, 0x01	; 1
		sts _SFR_MEM_ADDR(TCCR1B),r24
    7536:	80 93 81 00 	sts	0x0081, r24

		cli
    753a:	f8 94       	cli

		;enable watchdog at fastest speed and generate interrupts
		ldi r24,0
    753c:	80 e0       	ldi	r24, 0x00	; 0
		sts _SFR_MEM_ADDR(MCUSR),r24	
    753e:	80 93 54 00 	sts	0x0054, r24
		ldi r25,(1<<WDIE)+(1<<WDE)+(0<<WDP3)+(0<<WDP2)+(0<<WDP1)+(0<<WDP0)
    7542:	98 e4       	ldi	r25, 0x48	; 72
		lds r24,_SFR_MEM_ADDR(WDTCSR)
    7544:	80 91 60 00 	lds	r24, 0x0060
		ori r24,(1<<WDCE)+(1<<WDE)
    7548:	88 61       	ori	r24, 0x18	; 24
		sts _SFR_MEM_ADDR(WDTCSR),r24
    754a:	80 93 60 00 	sts	0x0060, r24
		sts _SFR_MEM_ADDR(WDTCSR),r25
    754e:	90 93 60 00 	sts	0x0060, r25
	
		sei
    7552:	78 94       	sei

00007554 <wait>:

		;generate 8 random cycles
	wait:
		lds r24,sync_pulse ;using the yet unalocated "sync_pulse" as a temp variable
    7554:	80 91 1f 0a 	lds	r24, 0x0A1F
		cpi r24,8
    7558:	88 30       	cpi	r24, 0x08	; 8
		brlo wait
    755a:	e0 f3       	brcs	.-8      	; 0x7554 <wait>

		ret
    755c:	08 95       	ret

0000755e <GetTrueRandomSeed>:
	;********************************

	.global GetTrueRandomSeed
	.section .text.GetTrueRandomSeed
	GetTrueRandomSeed:
		lds r24,random_value
    755e:	80 91 31 0a 	lds	r24, 0x0A31
		lds r25,random_value+1
    7562:	90 91 32 0a 	lds	r25, 0x0A32
		ret
    7566:	08 95       	ret

00007568 <__vector_8>:
	;*************************************
	; Watchdog timer interrupt
	;*************************************
	WDT_vect:
		;save flags & status register
		push r16
    7568:	0f 93       	push	r16
		push r17
    756a:	1f 93       	push	r17

		in r16,_SFR_IO_ADDR(SREG)
    756c:	0f b7       	in	r16, 0x3f	; 63
		push r16
    756e:	0f 93       	push	r16

		lds r16,sync_pulse
    7570:	00 91 1f 0a 	lds	r16, 0x0A1F
		inc r16
    7574:	03 95       	inc	r16
		sts sync_pulse,r16
    7576:	00 93 1f 0a 	sts	0x0A1F, r16

		;XOR succesive timer1 LSB into a int
		sbrc r16,0
    757a:	00 fd       	sbrc	r16, 0
		rjmp 1f
    757c:	08 c0       	rjmp	.+16     	; 0x758e <__vector_8+0x26>
		lds r17,random_value
    757e:	10 91 31 0a 	lds	r17, 0x0A31
		lds r16,_SFR_MEM_ADDR(TCNT1L)
    7582:	00 91 84 00 	lds	r16, 0x0084
		eor r17,r16
    7586:	10 27       	eor	r17, r16
		sts random_value,r17
    7588:	10 93 31 0a 	sts	0x0A31, r17
		rjmp 2f
    758c:	07 c0       	rjmp	.+14     	; 0x759c <__vector_8+0x34>
	1:
		lds r17,random_value+1
    758e:	10 91 32 0a 	lds	r17, 0x0A32
		lds r16,_SFR_MEM_ADDR(TCNT1L)
    7592:	00 91 84 00 	lds	r16, 0x0084
		eor r17,r16
    7596:	10 27       	eor	r17, r16
		sts random_value+1,r17
    7598:	10 93 32 0a 	sts	0x0A32, r17
	2:

		ldi r16,(1<<WDIE)+(1<<WDE)
    759c:	08 e4       	ldi	r16, 0x48	; 72
		sts _SFR_MEM_ADDR(WDTCSR),r16
    759e:	00 93 60 00 	sts	0x0060, r16

		;restore flags
		pop r16
    75a2:	0f 91       	pop	r16
		out _SFR_IO_ADDR(SREG),r16
    75a4:	0f bf       	out	0x3f, r16	; 63
	
		pop r17
    75a6:	1f 91       	pop	r17
		pop r16
    75a8:	0f 91       	pop	r16
		reti
    75aa:	18 95       	reti

000075ac <SoftReset>:

/**
 * Performs a software reset
 */
void SoftReset(void){        
	wdt_enable(WDTO_15MS);  
    75ac:	98 e0       	ldi	r25, 0x08	; 8
    75ae:	88 e1       	ldi	r24, 0x18	; 24
    75b0:	0f b6       	in	r0, 0x3f	; 63
    75b2:	f8 94       	cli
    75b4:	a8 95       	wdr
    75b6:	80 93 60 00 	sts	0x0060, r24
    75ba:	0f be       	out	0x3f, r0	; 63
    75bc:	90 93 60 00 	sts	0x0060, r25
	while(1);
    75c0:	ff cf       	rjmp	.-2      	; 0x75c0 <SoftReset+0x14>

000075c2 <ReadButtons>:
void ReadButtons(){
	unsigned int p1ButtonsLo=0,p2ButtonsLo=0;
	unsigned char i;

	//latch controllers
	JOYPAD_OUT_PORT|=_BV(JOYPAD_LATCH_PIN);
    75c2:	12 9a       	sbi	0x02, 2	; 2
		}else{
			Wait200ns();
			Wait200ns();
		}	
	#else
		Wait200ns();
    75c4:	c8 95       	lpm
    75c6:	c8 95       	lpm
		Wait200ns();
    75c8:	c8 95       	lpm
    75ca:	c8 95       	lpm
	#endif
	JOYPAD_OUT_PORT&=~(_BV(JOYPAD_LATCH_PIN));
    75cc:	12 98       	cbi	0x02, 2	; 2
    75ce:	40 e1       	ldi	r20, 0x10	; 16
	DisplayLogo();
	
}

void ReadButtons(){
	unsigned int p1ButtonsLo=0,p2ButtonsLo=0;
    75d0:	80 e0       	ldi	r24, 0x00	; 0
    75d2:	90 e0       	ldi	r25, 0x00	; 0
    75d4:	20 e0       	ldi	r18, 0x00	; 0
    75d6:	30 e0       	ldi	r19, 0x00	; 0


	//read button states
	for(i=0;i<16;i++){

		p1ButtonsLo>>=1;
    75d8:	36 95       	lsr	r19
    75da:	27 95       	ror	r18
		p2ButtonsLo>>=1;
    75dc:	96 95       	lsr	r25
    75de:	87 95       	ror	r24
			}else{
				Wait200ns();
				Wait200ns();
			}	
		#else
			Wait200ns();
    75e0:	c8 95       	lpm
    75e2:	c8 95       	lpm
			Wait200ns();
    75e4:	c8 95       	lpm
    75e6:	c8 95       	lpm
		#endif
			
		//pulse clock pin		
		JOYPAD_OUT_PORT&=~(_BV(JOYPAD_CLOCK_PIN));
    75e8:	13 98       	cbi	0x02, 3	; 2
		
		if((JOYPAD_IN_PORT&(1<<JOYPAD_DATA1_PIN))==0) p1ButtonsLo|=(1<<15);
    75ea:	00 9b       	sbis	0x00, 0	; 0
    75ec:	30 68       	ori	r19, 0x80	; 128
		if((JOYPAD_IN_PORT&(1<<JOYPAD_DATA2_PIN))==0) p2ButtonsLo|=(1<<15);
    75ee:	01 9b       	sbis	0x00, 1	; 0
    75f0:	90 68       	ori	r25, 0x80	; 128
		
		JOYPAD_OUT_PORT|=_BV(JOYPAD_CLOCK_PIN);
    75f2:	13 9a       	sbi	0x02, 3	; 2
			}else{
				Wait200ns();
				Wait200ns();
			}	
		#else
			Wait200ns();
    75f4:	c8 95       	lpm
    75f6:	c8 95       	lpm
			Wait200ns();
    75f8:	c8 95       	lpm
    75fa:	c8 95       	lpm
    75fc:	41 50       	subi	r20, 0x01	; 1
	#endif
	JOYPAD_OUT_PORT&=~(_BV(JOYPAD_LATCH_PIN));


	//read button states
	for(i=0;i<16;i++){
    75fe:	61 f7       	brne	.-40     	; 0x75d8 <ReadButtons+0x16>
		#endif

	}

	#if JOYSTICK==TYPE_SNES
		joypad1_status_lo=p1ButtonsLo;
    7600:	30 93 28 0a 	sts	0x0A28, r19
    7604:	20 93 27 0a 	sts	0x0A27, r18
		joypad2_status_lo=p2ButtonsLo;
    7608:	90 93 2c 0a 	sts	0x0A2C, r25
    760c:	80 93 2b 0a 	sts	0x0A2B, r24
	#else
		joypad1_status_lo=p1ButtonsLo&0xff;
		joypad2_status_lo=p2ButtonsLo&0xff;	
	#endif

	if(joypad1_status_lo==(BTN_START+BTN_SELECT+BTN_Y+BTN_B) || joypad2_status_lo==(BTN_START+BTN_SELECT+BTN_Y+BTN_B)){
    7610:	80 91 27 0a 	lds	r24, 0x0A27
    7614:	90 91 28 0a 	lds	r25, 0x0A28
    7618:	0f 97       	sbiw	r24, 0x0f	; 15
    761a:	31 f0       	breq	.+12     	; 0x7628 <ReadButtons+0x66>
    761c:	80 91 2b 0a 	lds	r24, 0x0A2B
    7620:	90 91 2c 0a 	lds	r25, 0x0A2C
    7624:	0f 97       	sbiw	r24, 0x0f	; 15
    7626:	11 f4       	brne	.+4      	; 0x762c <ReadButtons+0x6a>
		SoftReset();
    7628:	0e 94 d6 3a 	call	0x75ac	; 0x75ac <SoftReset>
    762c:	08 95       	ret

0000762e <ReadControllers>:
 * program when CONTROLLERS_VSYNC_READ==0.
*/
void ReadControllers(){

	//Detect if devices are connected.
	joypadsConnectionStatus=0;
    762e:	10 92 a0 0a 	sts	0x0AA0, r1
	if((JOYPAD_IN_PORT&(1<<JOYPAD_DATA1_PIN))==0) joypadsConnectionStatus|=1;
    7632:	00 99       	sbic	0x00, 0	; 0
    7634:	03 c0       	rjmp	.+6      	; 0x763c <ReadControllers+0xe>
    7636:	81 e0       	ldi	r24, 0x01	; 1
    7638:	80 93 a0 0a 	sts	0x0AA0, r24
	if((JOYPAD_IN_PORT&(1<<JOYPAD_DATA2_PIN))==0) joypadsConnectionStatus|=2;
    763c:	01 99       	sbic	0x00, 1	; 0
    763e:	05 c0       	rjmp	.+10     	; 0x764a <ReadControllers+0x1c>
    7640:	80 91 a0 0a 	lds	r24, 0x0AA0
    7644:	82 60       	ori	r24, 0x02	; 2
    7646:	80 93 a0 0a 	sts	0x0AA0, r24
			
	//read the standard buttons
	ReadButtons();
    764a:	0c 94 e1 3a 	jmp	0x75c2	; 0x75c2 <ReadButtons>

0000764e <FormatEeprom>:
	return resp;
}

	
// Format eeprom, wiping all data to zero
void FormatEeprom(void) {
    764e:	cf 93       	push	r28
    7650:	df 93       	push	r29
    7652:	c0 e0       	ldi	r28, 0x00	; 0
    7654:	d0 e0       	ldi	r29, 0x00	; 0
    7656:	fe 01       	movw	r30, r28
    7658:	e2 56       	subi	r30, 0x62	; 98
    765a:	ff 4f       	sbci	r31, 0xFF	; 255

   // Set sig. so we don't format next time
   for (u8 i = 0; i < sizeof(eeprom_format_table); i++) {
	 WriteEeprom(i,pgm_read_byte(&eeprom_format_table[i]));
    765c:	64 91       	lpm	r22, Z
    765e:	ce 01       	movw	r24, r28
    7660:	0e 94 74 3a 	call	0x74e8	; 0x74e8 <WriteEeprom>
    7664:	21 96       	adiw	r28, 0x01	; 1
	
// Format eeprom, wiping all data to zero
void FormatEeprom(void) {

   // Set sig. so we don't format next time
   for (u8 i = 0; i < sizeof(eeprom_format_table); i++) {
    7666:	c0 32       	cpi	r28, 0x20	; 32
    7668:	d1 05       	cpc	r29, r1
    766a:	a9 f7       	brne	.-22     	; 0x7656 <FormatEeprom+0x8>
    766c:	c0 e2       	ldi	r28, 0x20	; 32
    766e:	d0 e0       	ldi	r29, 0x00	; 0
	 WriteEeprom(i,pgm_read_byte(&eeprom_format_table[i]));
   }
   
   // Write free blocks IDs
   for (u16 i = (EEPROM_BLOCK_SIZE*EEPROM_HEADER_SIZE); i < (EEPROM_MAX_BLOCKS*EEPROM_BLOCK_SIZE); i+=EEPROM_BLOCK_SIZE) {
	  WriteEeprom(i,(u8)EEPROM_FREE_BLOCK);
    7670:	6f ef       	ldi	r22, 0xFF	; 255
    7672:	ce 01       	movw	r24, r28
    7674:	0e 94 74 3a 	call	0x74e8	; 0x74e8 <WriteEeprom>
	  WriteEeprom(i+1,(u8)(EEPROM_FREE_BLOCK>>8));
    7678:	6f ef       	ldi	r22, 0xFF	; 255
    767a:	ce 01       	movw	r24, r28
    767c:	01 96       	adiw	r24, 0x01	; 1
    767e:	0e 94 74 3a 	call	0x74e8	; 0x74e8 <WriteEeprom>
   for (u8 i = 0; i < sizeof(eeprom_format_table); i++) {
	 WriteEeprom(i,pgm_read_byte(&eeprom_format_table[i]));
   }
   
   // Write free blocks IDs
   for (u16 i = (EEPROM_BLOCK_SIZE*EEPROM_HEADER_SIZE); i < (EEPROM_MAX_BLOCKS*EEPROM_BLOCK_SIZE); i+=EEPROM_BLOCK_SIZE) {
    7682:	a0 96       	adiw	r28, 0x20	; 32
    7684:	c1 15       	cp	r28, r1
    7686:	88 e0       	ldi	r24, 0x08	; 8
    7688:	d8 07       	cpc	r29, r24
    768a:	91 f7       	brne	.-28     	; 0x7670 <FormatEeprom+0x22>
	  WriteEeprom(i,(u8)EEPROM_FREE_BLOCK);
	  WriteEeprom(i+1,(u8)(EEPROM_FREE_BLOCK>>8));
   }
   
}
    768c:	df 91       	pop	r29
    768e:	cf 91       	pop	r28
    7690:	08 95       	ret

00007692 <isEepromFormatted>:
	  }
   }
}
	
//returns true if the EEPROM has been setup to work with the kernel.
bool isEepromFormatted(){
    7692:	cf 93       	push	r28
	unsigned id;
	id=ReadEeprom(0)+(ReadEeprom(1)<<8);
    7694:	80 e0       	ldi	r24, 0x00	; 0
    7696:	90 e0       	ldi	r25, 0x00	; 0
    7698:	0e 94 7e 3a 	call	0x74fc	; 0x74fc <ReadEeprom>
    769c:	c8 2f       	mov	r28, r24
    769e:	81 e0       	ldi	r24, 0x01	; 1
    76a0:	90 e0       	ldi	r25, 0x00	; 0
    76a2:	0e 94 7e 3a 	call	0x74fc	; 0x74fc <ReadEeprom>
    76a6:	28 2f       	mov	r18, r24
    76a8:	30 e0       	ldi	r19, 0x00	; 0
    76aa:	32 2f       	mov	r19, r18
    76ac:	22 27       	eor	r18, r18
    76ae:	2c 0f       	add	r18, r28
    76b0:	31 1d       	adc	r19, r1
	return (id==EEPROM_SIGNATURE);
    76b2:	81 e0       	ldi	r24, 0x01	; 1
    76b4:	2a 35       	cpi	r18, 0x5A	; 90
    76b6:	35 45       	sbci	r19, 0x55	; 85
    76b8:	09 f0       	breq	.+2      	; 0x76bc <isEepromFormatted+0x2a>
    76ba:	80 e0       	ldi	r24, 0x00	; 0
}
    76bc:	cf 91       	pop	r28
    76be:	08 95       	ret

000076c0 <EepromBlockExists>:
 * @return
 *  0x00 = Success, Block exists.
 * 	0x01 = EEPROM_ERROR_INVALID_BLOCK.
 *	0x03 = EEPROM_ERROR_BLOCK_NOT_FOUND.
 */
char EepromBlockExists(unsigned int blockId, u16* eepromAddr, u8* nextFreeBlockId){
    76c0:	8f 92       	push	r8
    76c2:	9f 92       	push	r9
    76c4:	af 92       	push	r10
    76c6:	bf 92       	push	r11
    76c8:	cf 92       	push	r12
    76ca:	df 92       	push	r13
    76cc:	ef 92       	push	r14
    76ce:	ff 92       	push	r15
    76d0:	0f 93       	push	r16
    76d2:	1f 93       	push	r17
    76d4:	cf 93       	push	r28
    76d6:	df 93       	push	r29
	u8 nextFreeBlock=0;
	u8 result=EEPROM_ERROR_BLOCK_NOT_FOUND;
	u16 id;
	*eepromAddr=0;
    76d8:	fb 01       	movw	r30, r22
    76da:	11 82       	std	Z+1, r1	; 0x01
    76dc:	10 82       	st	Z, r1

	if(blockId==EEPROM_FREE_BLOCK) return EEPROM_ERROR_INVALID_BLOCK;
    76de:	8f 3f       	cpi	r24, 0xFF	; 255
    76e0:	ff ef       	ldi	r31, 0xFF	; 255
    76e2:	9f 07       	cpc	r25, r31
    76e4:	89 f1       	breq	.+98     	; 0x7748 <EepromBlockExists+0x88>
    76e6:	6a 01       	movw	r12, r20
    76e8:	8b 01       	movw	r16, r22
    76ea:	7c 01       	movw	r14, r24
    76ec:	a1 2c       	mov	r10, r1
    76ee:	b1 2c       	mov	r11, r1
    76f0:	c0 e0       	ldi	r28, 0x00	; 0
    76f2:	d3 e0       	ldi	r29, 0x03	; 3
    76f4:	91 2c       	mov	r9, r1
		
	//scan all blocks and get the memory adress of that block and the next free block
	for(u8 i=0;i<EEPROM_MAX_BLOCKS;i++){
		id=ReadEeprom(i*EEPROM_BLOCK_SIZE)+(ReadEeprom((i*EEPROM_BLOCK_SIZE)+1)<<8);
    76f6:	c5 01       	movw	r24, r10
    76f8:	0e 94 7e 3a 	call	0x74fc	; 0x74fc <ReadEeprom>
    76fc:	88 2e       	mov	r8, r24
    76fe:	c5 01       	movw	r24, r10
    7700:	01 96       	adiw	r24, 0x01	; 1
    7702:	0e 94 7e 3a 	call	0x74fc	; 0x74fc <ReadEeprom>
    7706:	28 2f       	mov	r18, r24
    7708:	30 e0       	ldi	r19, 0x00	; 0
    770a:	32 2f       	mov	r19, r18
    770c:	22 27       	eor	r18, r18
    770e:	28 0d       	add	r18, r8
    7710:	31 1d       	adc	r19, r1
		
		if(id==blockId){
    7712:	2e 15       	cp	r18, r14
    7714:	3f 05       	cpc	r19, r15
    7716:	29 f4       	brne	.+10     	; 0x7722 <EepromBlockExists+0x62>
			*eepromAddr=(i*EEPROM_BLOCK_SIZE);
    7718:	f8 01       	movw	r30, r16
    771a:	b1 82       	std	Z+1, r11	; 0x01
    771c:	a0 82       	st	Z, r10
			result=EEPROM_OK;
    771e:	d0 e0       	ldi	r29, 0x00	; 0
    7720:	0b c0       	rjmp	.+22     	; 0x7738 <EepromBlockExists+0x78>
		}
		
		if(id==0xffff && nextFreeBlock==0){
    7722:	2f 3f       	cpi	r18, 0xFF	; 255
    7724:	3f 4f       	sbci	r19, 0xFF	; 255
    7726:	41 f4       	brne	.+16     	; 0x7738 <EepromBlockExists+0x78>
    7728:	91 10       	cpse	r9, r1
    772a:	06 c0       	rjmp	.+12     	; 0x7738 <EepromBlockExists+0x78>
			nextFreeBlock=i;
			if(nextFreeBlockId!=NULL) *nextFreeBlockId=nextFreeBlock;					
    772c:	c1 14       	cp	r12, r1
    772e:	d1 04       	cpc	r13, r1
    7730:	11 f0       	breq	.+4      	; 0x7736 <EepromBlockExists+0x76>
    7732:	f6 01       	movw	r30, r12
    7734:	c0 83       	st	Z, r28
    7736:	9c 2e       	mov	r9, r28
	*eepromAddr=0;

	if(blockId==EEPROM_FREE_BLOCK) return EEPROM_ERROR_INVALID_BLOCK;
		
	//scan all blocks and get the memory adress of that block and the next free block
	for(u8 i=0;i<EEPROM_MAX_BLOCKS;i++){
    7738:	cf 5f       	subi	r28, 0xFF	; 255
    773a:	f0 e2       	ldi	r31, 0x20	; 32
    773c:	af 0e       	add	r10, r31
    773e:	b1 1c       	adc	r11, r1
    7740:	c0 34       	cpi	r28, 0x40	; 64
    7742:	c9 f6       	brne	.-78     	; 0x76f6 <EepromBlockExists+0x36>
			nextFreeBlock=i;
			if(nextFreeBlockId!=NULL) *nextFreeBlockId=nextFreeBlock;					
		}
	}

	return result;
    7744:	8d 2f       	mov	r24, r29
    7746:	01 c0       	rjmp	.+2      	; 0x774a <EepromBlockExists+0x8a>
	u8 nextFreeBlock=0;
	u8 result=EEPROM_ERROR_BLOCK_NOT_FOUND;
	u16 id;
	*eepromAddr=0;

	if(blockId==EEPROM_FREE_BLOCK) return EEPROM_ERROR_INVALID_BLOCK;
    7748:	81 e0       	ldi	r24, 0x01	; 1
			if(nextFreeBlockId!=NULL) *nextFreeBlockId=nextFreeBlock;					
		}
	}

	return result;
}
    774a:	df 91       	pop	r29
    774c:	cf 91       	pop	r28
    774e:	1f 91       	pop	r17
    7750:	0f 91       	pop	r16
    7752:	ff 90       	pop	r15
    7754:	ef 90       	pop	r14
    7756:	df 90       	pop	r13
    7758:	cf 90       	pop	r12
    775a:	bf 90       	pop	r11
    775c:	af 90       	pop	r10
    775e:	9f 90       	pop	r9
    7760:	8f 90       	pop	r8
    7762:	08 95       	ret

00007764 <EepromWriteBlock>:
 * Returns:
 *  0x00 = Success
 * 	0x01 = EEPROM_ERROR_INVALID_BLOCK
 *	0x02 = EEPROM_ERROR_FULL
 */
char EepromWriteBlock(struct EepromBlockStruct *block){
    7764:	ef 92       	push	r14
    7766:	ff 92       	push	r15
    7768:	0f 93       	push	r16
    776a:	1f 93       	push	r17
    776c:	cf 93       	push	r28
    776e:	df 93       	push	r29
    7770:	00 d0       	rcall	.+0      	; 0x7772 <EepromWriteBlock+0xe>
    7772:	1f 92       	push	r1
    7774:	cd b7       	in	r28, 0x3d	; 61
    7776:	de b7       	in	r29, 0x3e	; 62
    7778:	8c 01       	movw	r16, r24
	u16 eepromAddr=0;
    777a:	1a 82       	std	Y+2, r1	; 0x02
    777c:	19 82       	std	Y+1, r1	; 0x01
	u8 *srcPtr=(unsigned char *)block,res,nextFreeBlock=0;
    777e:	1b 82       	std	Y+3, r1	; 0x03

	res=EepromBlockExists(block->id,&eepromAddr,&nextFreeBlock);
    7780:	ae 01       	movw	r20, r28
    7782:	4d 5f       	subi	r20, 0xFD	; 253
    7784:	5f 4f       	sbci	r21, 0xFF	; 255
    7786:	be 01       	movw	r22, r28
    7788:	6f 5f       	subi	r22, 0xFF	; 255
    778a:	7f 4f       	sbci	r23, 0xFF	; 255
    778c:	fc 01       	movw	r30, r24
    778e:	80 81       	ld	r24, Z
    7790:	91 81       	ldd	r25, Z+1	; 0x01
    7792:	0e 94 60 3b 	call	0x76c0	; 0x76c0 <EepromBlockExists>
	if(res!=0 && res!=EEPROM_ERROR_BLOCK_NOT_FOUND) return res;
    7796:	88 23       	and	r24, r24
    7798:	11 f0       	breq	.+4      	; 0x779e <EepromWriteBlock+0x3a>
    779a:	83 30       	cpi	r24, 0x03	; 3
    779c:	19 f5       	brne	.+70     	; 0x77e4 <EepromWriteBlock+0x80>

	if(eepromAddr==0 && nextFreeBlock==0) return EEPROM_ERROR_FULL;
    779e:	89 81       	ldd	r24, Y+1	; 0x01
    77a0:	9a 81       	ldd	r25, Y+2	; 0x02
    77a2:	89 2b       	or	r24, r25
    77a4:	49 f4       	brne	.+18     	; 0x77b8 <EepromWriteBlock+0x54>
    77a6:	8b 81       	ldd	r24, Y+3	; 0x03
    77a8:	88 23       	and	r24, r24
    77aa:	d9 f0       	breq	.+54     	; 0x77e2 <EepromWriteBlock+0x7e>
	if(eepromAddr==0 && nextFreeBlock!=0) eepromAddr=nextFreeBlock*EEPROM_BLOCK_SIZE;
    77ac:	f0 e2       	ldi	r31, 0x20	; 32
    77ae:	8f 9f       	mul	r24, r31
    77b0:	c0 01       	movw	r24, r0
    77b2:	11 24       	eor	r1, r1
    77b4:	9a 83       	std	Y+2, r25	; 0x02
    77b6:	89 83       	std	Y+1, r24	; 0x01
    77b8:	78 01       	movw	r14, r16
    77ba:	20 e2       	ldi	r18, 0x20	; 32
    77bc:	e2 0e       	add	r14, r18
    77be:	f1 1c       	adc	r15, r1

	for(u8 i=0;i<EEPROM_BLOCK_SIZE;i++){
		WriteEeprom(eepromAddr++,*srcPtr);
    77c0:	f8 01       	movw	r30, r16
    77c2:	61 91       	ld	r22, Z+
    77c4:	8f 01       	movw	r16, r30
    77c6:	89 81       	ldd	r24, Y+1	; 0x01
    77c8:	9a 81       	ldd	r25, Y+2	; 0x02
    77ca:	9c 01       	movw	r18, r24
    77cc:	2f 5f       	subi	r18, 0xFF	; 255
    77ce:	3f 4f       	sbci	r19, 0xFF	; 255
    77d0:	3a 83       	std	Y+2, r19	; 0x02
    77d2:	29 83       	std	Y+1, r18	; 0x01
    77d4:	0e 94 74 3a 	call	0x74e8	; 0x74e8 <WriteEeprom>
	if(res!=0 && res!=EEPROM_ERROR_BLOCK_NOT_FOUND) return res;

	if(eepromAddr==0 && nextFreeBlock==0) return EEPROM_ERROR_FULL;
	if(eepromAddr==0 && nextFreeBlock!=0) eepromAddr=nextFreeBlock*EEPROM_BLOCK_SIZE;

	for(u8 i=0;i<EEPROM_BLOCK_SIZE;i++){
    77d8:	0e 15       	cp	r16, r14
    77da:	1f 05       	cpc	r17, r15
    77dc:	89 f7       	brne	.-30     	; 0x77c0 <EepromWriteBlock+0x5c>
		WriteEeprom(eepromAddr++,*srcPtr);
		srcPtr++;	
	}
	
	return 0;
    77de:	80 e0       	ldi	r24, 0x00	; 0
    77e0:	01 c0       	rjmp	.+2      	; 0x77e4 <EepromWriteBlock+0x80>
	u8 *srcPtr=(unsigned char *)block,res,nextFreeBlock=0;

	res=EepromBlockExists(block->id,&eepromAddr,&nextFreeBlock);
	if(res!=0 && res!=EEPROM_ERROR_BLOCK_NOT_FOUND) return res;

	if(eepromAddr==0 && nextFreeBlock==0) return EEPROM_ERROR_FULL;
    77e2:	82 e0       	ldi	r24, 0x02	; 2
		WriteEeprom(eepromAddr++,*srcPtr);
		srcPtr++;	
	}
	
	return 0;
}
    77e4:	0f 90       	pop	r0
    77e6:	0f 90       	pop	r0
    77e8:	0f 90       	pop	r0
    77ea:	df 91       	pop	r29
    77ec:	cf 91       	pop	r28
    77ee:	1f 91       	pop	r17
    77f0:	0f 91       	pop	r16
    77f2:	ff 90       	pop	r15
    77f4:	ef 90       	pop	r14
    77f6:	08 95       	ret

000077f8 <EepromReadBlock>:
 * Returns: 
 *  0x00 = Success
 * 	0x01 = EEPROM_ERROR_INVALID_BLOCK
 *	0x03 = EEPROM_ERROR_BLOCK_NOT_FOUND
 */
char EepromReadBlock(unsigned int blockId,struct EepromBlockStruct *block){	
    77f8:	cf 92       	push	r12
    77fa:	df 92       	push	r13
    77fc:	ff 92       	push	r15
    77fe:	0f 93       	push	r16
    7800:	1f 93       	push	r17
    7802:	cf 93       	push	r28
    7804:	df 93       	push	r29
    7806:	00 d0       	rcall	.+0      	; 0x7808 <EepromReadBlock+0x10>
    7808:	cd b7       	in	r28, 0x3d	; 61
    780a:	de b7       	in	r29, 0x3e	; 62
    780c:	8b 01       	movw	r16, r22
	u16 eepromAddr;
	u8 *blockPtr=(unsigned char *)block;

	u8 res=EepromBlockExists(blockId,&eepromAddr,NULL);
    780e:	40 e0       	ldi	r20, 0x00	; 0
    7810:	50 e0       	ldi	r21, 0x00	; 0
    7812:	be 01       	movw	r22, r28
    7814:	6f 5f       	subi	r22, 0xFF	; 255
    7816:	7f 4f       	sbci	r23, 0xFF	; 255
    7818:	0e 94 60 3b 	call	0x76c0	; 0x76c0 <EepromBlockExists>
    781c:	f8 2e       	mov	r15, r24
	if(res!=0) return res;
    781e:	81 11       	cpse	r24, r1
    7820:	13 c0       	rjmp	.+38     	; 0x7848 <EepromReadBlock+0x50>
    7822:	68 01       	movw	r12, r16
    7824:	80 e2       	ldi	r24, 0x20	; 32
    7826:	c8 0e       	add	r12, r24
    7828:	d1 1c       	adc	r13, r1

	for(u8 i=0;i<EEPROM_BLOCK_SIZE;i++){
		*blockPtr=ReadEeprom(eepromAddr++);
    782a:	89 81       	ldd	r24, Y+1	; 0x01
    782c:	9a 81       	ldd	r25, Y+2	; 0x02
    782e:	9c 01       	movw	r18, r24
    7830:	2f 5f       	subi	r18, 0xFF	; 255
    7832:	3f 4f       	sbci	r19, 0xFF	; 255
    7834:	3a 83       	std	Y+2, r19	; 0x02
    7836:	29 83       	std	Y+1, r18	; 0x01
    7838:	0e 94 7e 3a 	call	0x74fc	; 0x74fc <ReadEeprom>
    783c:	f8 01       	movw	r30, r16
    783e:	81 93       	st	Z+, r24
    7840:	8f 01       	movw	r16, r30
	u8 *blockPtr=(unsigned char *)block;

	u8 res=EepromBlockExists(blockId,&eepromAddr,NULL);
	if(res!=0) return res;

	for(u8 i=0;i<EEPROM_BLOCK_SIZE;i++){
    7842:	ec 15       	cp	r30, r12
    7844:	fd 05       	cpc	r31, r13
    7846:	89 f7       	brne	.-30     	; 0x782a <EepromReadBlock+0x32>
		*blockPtr=ReadEeprom(eepromAddr++);
		blockPtr++;	
	}
	
	return EEPROM_OK;
}
    7848:	8f 2d       	mov	r24, r15
    784a:	0f 90       	pop	r0
    784c:	0f 90       	pop	r0
    784e:	df 91       	pop	r29
    7850:	cf 91       	pop	r28
    7852:	1f 91       	pop	r17
    7854:	0f 91       	pop	r16
    7856:	ff 90       	pop	r15
    7858:	df 90       	pop	r13
    785a:	cf 90       	pop	r12
    785c:	08 95       	ret

0000785e <UartUnreadCount>:
		uart_rx_tail&=(UART_RX_BUFFER_SIZE-1);		//wrap pointer to buffer size
	}

	//obsolete
	u8 UartUnreadCount(){
		return uart_rx_head-uart_rx_tail;
    785e:	80 91 a1 0a 	lds	r24, 0x0AA1
    7862:	90 91 a3 0a 	lds	r25, 0x0AA3
	}
    7866:	89 1b       	sub	r24, r25
    7868:	08 95       	ret

0000786a <UartReadChar>:
		return (uart_rx_tail==uart_rx_head);
	}

	s16 UartReadChar(){

		if(uart_rx_head != uart_rx_tail){
    786a:	90 91 a1 0a 	lds	r25, 0x0AA1
    786e:	80 91 a3 0a 	lds	r24, 0x0AA3
    7872:	98 17       	cp	r25, r24
    7874:	71 f0       	breq	.+28     	; 0x7892 <UartReadChar+0x28>

			u8 data=uart_rx_buf[uart_rx_tail];
    7876:	e0 91 a3 0a 	lds	r30, 0x0AA3
    787a:	f0 e0       	ldi	r31, 0x00	; 0
    787c:	ec 55       	subi	r30, 0x5C	; 92
    787e:	f5 4f       	sbci	r31, 0xF5	; 245
    7880:	80 81       	ld	r24, Z
			uart_rx_tail=((uart_rx_tail+1) & (UART_RX_BUFFER_SIZE-1));	//wrap pointer to buffer size			
    7882:	90 91 a3 0a 	lds	r25, 0x0AA3
    7886:	9f 5f       	subi	r25, 0xFF	; 255
    7888:	9f 73       	andi	r25, 0x3F	; 63
    788a:	90 93 a3 0a 	sts	0x0AA3, r25
			return (data&0xff);
    788e:	90 e0       	ldi	r25, 0x00	; 0
    7890:	08 95       	ret

		}else{
			return -1;	//no data in buffer
    7892:	8f ef       	ldi	r24, 0xFF	; 255
    7894:	9f ef       	ldi	r25, 0xFF	; 255
		}
	}
    7896:	08 95       	ret

00007898 <InitUartRxBuffer>:

	void InitUartRxBuffer(){
		uart_rx_tail=0;
    7898:	10 92 a3 0a 	sts	0x0AA3, r1
		uart_rx_head=0;
    789c:	10 92 a1 0a 	sts	0x0AA1, r1
    78a0:	08 95       	ret

000078a2 <UartSendChar>:
		return (next_head == uart_tx_tail);
	}

	s8 UartSendChar(u8 data){

 		u8 next_head = ((uart_tx_head + 1) & (UART_TX_BUFFER_SIZE-1));
    78a2:	90 91 a2 0a 	lds	r25, 0x0AA2
    78a6:	9f 5f       	subi	r25, 0xFF	; 255
    78a8:	9f 73       	andi	r25, 0x3F	; 63

		if (next_head != uart_tx_tail) {
    78aa:	20 91 e4 0a 	lds	r18, 0x0AE4
    78ae:	92 17       	cp	r25, r18
    78b0:	51 f0       	breq	.+20     	; 0x78c6 <UartSendChar+0x24>
			uart_tx_buf[uart_tx_head]=data;
    78b2:	e0 91 a2 0a 	lds	r30, 0x0AA2
    78b6:	f0 e0       	ldi	r31, 0x00	; 0
    78b8:	e0 5a       	subi	r30, 0xA0	; 160
    78ba:	f5 4f       	sbci	r31, 0xF5	; 245
    78bc:	80 83       	st	Z, r24
			uart_tx_head=next_head;		
    78be:	90 93 a2 0a 	sts	0x0AA2, r25
			return 0;
    78c2:	80 e0       	ldi	r24, 0x00	; 0
    78c4:	08 95       	ret
		}else{
			return -1; //buffer full
    78c6:	8f ef       	ldi	r24, 0xFF	; 255
		}
	}
    78c8:	08 95       	ret

000078ca <InitUartTxBuffer>:

	void InitUartTxBuffer(){
		uart_tx_tail=0;
    78ca:	10 92 e4 0a 	sts	0x0AE4, r1
		uart_tx_head=0;
    78ce:	10 92 a2 0a 	sts	0x0AA2, r1
    78d2:	08 95       	ret

000078d4 <GetPrngNumber>:
 * Input: Zero=return the next random value. Non-zero=Sets the seed value.
 */
u16 GetPrngNumber(u16 seed){
	static u16 prng_state;
  	
	if(seed!=0) prng_state=seed;
    78d4:	00 97       	sbiw	r24, 0x00	; 0
    78d6:	21 f0       	breq	.+8      	; 0x78e0 <GetPrngNumber+0xc>
    78d8:	90 93 41 0a 	sts	0x0A41, r25
    78dc:	80 93 40 0a 	sts	0x0A40, r24
	
	u16 bit  = ((prng_state >> 0) ^ (prng_state >> 2) ^ (prng_state >> 3) ^ (prng_state >> 5) ) & 1;
    78e0:	20 91 40 0a 	lds	r18, 0x0A40
    78e4:	30 91 41 0a 	lds	r19, 0x0A41
    78e8:	a9 01       	movw	r20, r18
    78ea:	56 95       	lsr	r21
    78ec:	47 95       	ror	r20
    78ee:	56 95       	lsr	r21
    78f0:	47 95       	ror	r20
    78f2:	c9 01       	movw	r24, r18
    78f4:	63 e0       	ldi	r22, 0x03	; 3
    78f6:	96 95       	lsr	r25
    78f8:	87 95       	ror	r24
    78fa:	6a 95       	dec	r22
    78fc:	e1 f7       	brne	.-8      	; 0x78f6 <GetPrngNumber+0x22>
    78fe:	84 27       	eor	r24, r20
    7900:	95 27       	eor	r25, r21
    7902:	82 27       	eor	r24, r18
    7904:	93 27       	eor	r25, r19
    7906:	a9 01       	movw	r20, r18
    7908:	75 e0       	ldi	r23, 0x05	; 5
    790a:	56 95       	lsr	r21
    790c:	47 95       	ror	r20
    790e:	7a 95       	dec	r23
    7910:	e1 f7       	brne	.-8      	; 0x790a <GetPrngNumber+0x36>
    7912:	84 27       	eor	r24, r20
    7914:	95 27       	eor	r25, r21
	prng_state =  (prng_state >> 1) | (bit << 15);
    7916:	99 27       	eor	r25, r25
    7918:	86 95       	lsr	r24
    791a:	97 95       	ror	r25
    791c:	88 27       	eor	r24, r24
    791e:	36 95       	lsr	r19
    7920:	27 95       	ror	r18
    7922:	82 2b       	or	r24, r18
    7924:	93 2b       	or	r25, r19
    7926:	90 93 41 0a 	sts	0x0A41, r25
    792a:	80 93 40 0a 	sts	0x0A40, r24
	return prng_state;   
}
    792e:	08 95       	ret

00007930 <PatchCommand00>:
/*
 * Command 00: Set envelope speed per frame +127/-128, 0=no enveloppe
 * Param:
 */
void PatchCommand00(Track* track, char param){
	track->envelopeStep=param;
    7930:	fc 01       	movw	r30, r24
    7932:	67 87       	std	Z+15, r22	; 0x0f
    7934:	08 95       	ret

00007936 <PatchCommand01>:
 * Param:
 */
void PatchCommand01(Track* track, char param){
	(void)track; //to remove unused warning
	#if MIXER_CHAN4_TYPE == 0
		mixer.channels.type.noise.barrel=0x0101;
    7936:	e4 e4       	ldi	r30, 0x44	; 68
    7938:	fa e0       	ldi	r31, 0x0A	; 10
    793a:	81 e0       	ldi	r24, 0x01	; 1
    793c:	91 e0       	ldi	r25, 0x01	; 1
    793e:	95 8b       	std	Z+21, r25	; 0x15
    7940:	84 8b       	std	Z+20, r24	; 0x14
		mixer.channels.type.noise.params=param;
    7942:	63 8b       	std	Z+19, r22	; 0x13
    7944:	08 95       	ret

00007946 <PatchCommand05>:
}
/*
 * Command 05: End of note/fx
 * Param:
 */
void PatchCommand05(Track* track, char param){
    7946:	fc 01       	movw	r30, r24
	(void)param; //to remove unused warning
	track->flags&=~(TRACK_FLAGS_PLAYING+TRACK_FLAGS_PRIORITY);	//patchPlaying=false,priority=0	
    7948:	90 81       	ld	r25, Z
    794a:	9f 75       	andi	r25, 0x5F	; 95
    794c:	90 83       	st	Z, r25
    794e:	08 95       	ret

00007950 <PatchCommand06>:

/*
 * Command 06: Note hold
 * Param:
 */
void PatchCommand06(Track* track, char param){
    7950:	fc 01       	movw	r30, r24
	(void)param; //to remove unused warning
	track->flags|=TRACK_FLAGS_HOLD_ENV; //patchEnvelopeHold=true;
    7952:	90 81       	ld	r25, Z
    7954:	90 64       	ori	r25, 0x40	; 64
    7956:	90 83       	st	Z, r25
    7958:	08 95       	ret

0000795a <PatchCommand07>:
 * Command 07: Set envelope volume
 * Param:
 */

void PatchCommand07(Track* track, char param){
	track->envelopeVol=param;
    795a:	fc 01       	movw	r30, r24
    795c:	66 87       	std	Z+14, r22	; 0x0e
    795e:	08 95       	ret

00007960 <PatchCommand09>:
 * Command 09: Set tremolo level
 * Param:
*/

void PatchCommand09(Track* track, char param){
	track->tremoloLevel=param;
    7960:	fc 01       	movw	r30, r24
    7962:	62 87       	std	Z+10, r22	; 0x0a
    7964:	08 95       	ret

00007966 <PatchCommand10>:
/*
 * Command 10: Set tremolo rate
 * Param:
*/
void PatchCommand10(Track* track, char param){
	track->tremoloRate=param;
    7966:	fc 01       	movw	r30, r24
    7968:	63 87       	std	Z+11, r22	; 0x0b
    796a:	08 95       	ret

0000796c <PatchCommand11>:
/*
 * Command 11: Pitch slide (linear) 
 * Param: (+/-) half steps to slide to
*/

void PatchCommand11(Track* track, char param){
    796c:	cf 93       	push	r28
    796e:	df 93       	push	r29
    7970:	ec 01       	movw	r28, r24
    7972:	46 2f       	mov	r20, r22
	//slide to note from current note
	s16 currentStep,targetStep,delta;	
	
	currentStep=pgm_read_word(&(steptable[track->note]));
    7974:	29 81       	ldd	r18, Y+1	; 0x01
    7976:	30 e0       	ldi	r19, 0x00	; 0
    7978:	f9 01       	movw	r30, r18
    797a:	ee 0f       	add	r30, r30
    797c:	ff 1f       	adc	r31, r31
    797e:	e8 5f       	subi	r30, 0xF8	; 248
    7980:	fd 47       	sbci	r31, 0x7D	; 125
    7982:	65 91       	lpm	r22, Z+
    7984:	74 91       	lpm	r23, Z
	targetStep=pgm_read_word(&(steptable[track->note+param]));	
    7986:	f9 01       	movw	r30, r18
    7988:	e4 0f       	add	r30, r20
    798a:	f1 1d       	adc	r31, r1
    798c:	47 fd       	sbrc	r20, 7
    798e:	fa 95       	dec	r31
    7990:	ee 0f       	add	r30, r30
    7992:	ff 1f       	adc	r31, r31
    7994:	e8 5f       	subi	r30, 0xF8	; 248
    7996:	fd 47       	sbci	r31, 0x7D	; 125
    7998:	85 91       	lpm	r24, Z+
    799a:	94 91       	lpm	r25, Z
	delta=((targetStep-currentStep)/track->slideSpeed);
    799c:	86 1b       	sub	r24, r22
    799e:	97 0b       	sbc	r25, r23
    79a0:	68 85       	ldd	r22, Y+8	; 0x08
    79a2:	70 e0       	ldi	r23, 0x00	; 0
    79a4:	0e 94 9a 72 	call	0xe534	; 0xe534 <__divmodhi4>
	if(delta==0)delta++;
    79a8:	61 15       	cp	r22, r1
    79aa:	71 05       	cpc	r23, r1
    79ac:	11 f4       	brne	.+4      	; 0x79b2 <PatchCommand11+0x46>
    79ae:	61 e0       	ldi	r22, 0x01	; 1
    79b0:	70 e0       	ldi	r23, 0x00	; 0

	mixer.channels.all[track->channel].step+=delta;
    79b2:	ea 81       	ldd	r30, Y+2	; 0x02
    79b4:	86 e0       	ldi	r24, 0x06	; 6
    79b6:	e8 9f       	mul	r30, r24
    79b8:	f0 01       	movw	r30, r0
    79ba:	11 24       	eor	r1, r1
    79bc:	ec 5b       	subi	r30, 0xBC	; 188
    79be:	f5 4f       	sbci	r31, 0xF5	; 245
    79c0:	81 81       	ldd	r24, Z+1	; 0x01
    79c2:	92 81       	ldd	r25, Z+2	; 0x02
    79c4:	86 0f       	add	r24, r22
    79c6:	97 1f       	adc	r25, r23
    79c8:	92 83       	std	Z+2, r25	; 0x02
    79ca:	81 83       	std	Z+1, r24	; 0x01
	
	track->slideStep=delta;
    79cc:	7e 83       	std	Y+6, r23	; 0x06
    79ce:	6d 83       	std	Y+5, r22	; 0x05
	track->flags|=TRACK_FLAGS_SLIDING;
    79d0:	88 81       	ld	r24, Y
    79d2:	88 60       	ori	r24, 0x08	; 8
    79d4:	88 83       	st	Y, r24
	track->slideNote=track->note+param;
    79d6:	89 81       	ldd	r24, Y+1	; 0x01
    79d8:	48 0f       	add	r20, r24
    79da:	4f 83       	std	Y+7, r20	; 0x07
}
    79dc:	df 91       	pop	r29
    79de:	cf 91       	pop	r28
    79e0:	08 95       	ret

000079e2 <PatchCommand12>:
/*
 * Command 12: Pitch slide speed 
 * Param: slide speed (fixed 4:4)
 */
void PatchCommand12(Track* track, char param){
	track->slideSpeed=param;
    79e2:	fc 01       	movw	r30, r24
    79e4:	60 87       	std	Z+8, r22	; 0x08
    79e6:	08 95       	ret

000079e8 <PatchCommand13>:
 *  Command 13: Loop start
 * Description: Defines the start of a loop. Works in conjunction with command 14 (PC_LOOP_END).
 *		 Param: loop count
 */
void PatchCommand13(Track* track, char param){
	track->loopCount=(u8)param;
    79e8:	fc 01       	movw	r30, r24
    79ea:	64 83       	std	Z+4, r22	; 0x04
    79ec:	08 95       	ret

000079ee <PatchCommand02>:
/*
 * Command 02: Set wave
 * Param:
 */
void PatchCommand02(Track* track, char param){
	SetMixerWave(track->channel,param);
    79ee:	fc 01       	movw	r30, r24
    79f0:	82 81       	ldd	r24, Z+2	; 0x02
    79f2:	0c 94 ac 40 	jmp	0x8158	; 0x8158 <SetMixerWave>

000079f6 <PatchCommand03>:
}
/*
 * Command 03: Note up * param
 * Param:
 */
void PatchCommand03(Track* track, char param){
    79f6:	fc 01       	movw	r30, r24
	track->note+=param;
    79f8:	91 81       	ldd	r25, Z+1	; 0x01
    79fa:	69 0f       	add	r22, r25
    79fc:	61 83       	std	Z+1, r22	; 0x01
	SetMixerNote(track->channel,track->note);
    79fe:	82 81       	ldd	r24, Z+2	; 0x02
    7a00:	0c 94 95 40 	jmp	0x812a	; 0x812a <SetMixerNote>

00007a04 <PatchCommand04>:
}
/*
 * Command 04: Note down * param
 * Param:
 */
void PatchCommand04(Track* track, char param){
    7a04:	fc 01       	movw	r30, r24
	track->note-=param;
    7a06:	91 81       	ldd	r25, Z+1	; 0x01
    7a08:	96 1b       	sub	r25, r22
    7a0a:	69 2f       	mov	r22, r25
    7a0c:	91 83       	std	Z+1, r25	; 0x01
	SetMixerNote(track->channel,track->note);
    7a0e:	82 81       	ldd	r24, Z+2	; 0x02
    7a10:	0c 94 95 40 	jmp	0x812a	; 0x812a <SetMixerNote>

00007a14 <PatchCommand08>:
/*
 * Command 08: Set Note/Pitch
 * Param:
 */

void PatchCommand08(Track* track, char param){
    7a14:	1f 93       	push	r17
    7a16:	cf 93       	push	r28
    7a18:	df 93       	push	r29
    7a1a:	ec 01       	movw	r28, r24
    7a1c:	16 2f       	mov	r17, r22
	SetMixerNote(track->channel,param);
    7a1e:	8a 81       	ldd	r24, Y+2	; 0x02
    7a20:	0e 94 95 40 	call	0x812a	; 0x812a <SetMixerNote>
	track->note=param;
    7a24:	19 83       	std	Y+1, r17	; 0x01
	track->flags &= ~(TRACK_FLAGS_SLIDING);	
    7a26:	88 81       	ld	r24, Y
    7a28:	87 7f       	andi	r24, 0xF7	; 247
    7a2a:	88 83       	st	Y, r24
}
    7a2c:	df 91       	pop	r29
    7a2e:	cf 91       	pop	r28
    7a30:	1f 91       	pop	r17
    7a32:	08 95       	ret

00007a34 <PatchCommand14>:
 *					1,PC_NOTE_DOWN,3,
 *					0,PC_LOOP_END,2,
 *					0,PATCH_END  
 *				};
 */
void PatchCommand14(Track* track, char param){
    7a34:	dc 01       	movw	r26, r24
	if(track->loopCount>0){
    7a36:	14 96       	adiw	r26, 0x04	; 4
    7a38:	8c 91       	ld	r24, X
    7a3a:	14 97       	sbiw	r26, 0x04	; 4
    7a3c:	88 23       	and	r24, r24
    7a3e:	19 f1       	breq	.+70     	; 0x7a86 <PatchCommand14+0x52>
    7a40:	55 96       	adiw	r26, 0x15	; 21
    7a42:	2d 91       	ld	r18, X+
    7a44:	3c 91       	ld	r19, X
    7a46:	56 97       	sbiw	r26, 0x16	; 22
		//track->patchCommandStreamPos=track->loopStart;
		if(param!=0){
    7a48:	66 23       	and	r22, r22
    7a4a:	79 f0       	breq	.+30     	; 0x7a6a <PatchCommand14+0x36>
			track->patchCommandStreamPos-=((param+1)*3);
    7a4c:	77 27       	eor	r23, r23
    7a4e:	67 fd       	sbrc	r22, 7
    7a50:	70 95       	com	r23
    7a52:	6f 5f       	subi	r22, 0xFF	; 255
    7a54:	7f 4f       	sbci	r23, 0xFF	; 255
    7a56:	ab 01       	movw	r20, r22
    7a58:	44 0f       	add	r20, r20
    7a5a:	55 1f       	adc	r21, r21
    7a5c:	64 0f       	add	r22, r20
    7a5e:	75 1f       	adc	r23, r21
    7a60:	26 1b       	sub	r18, r22
    7a62:	37 0b       	sbc	r19, r23
    7a64:	09 c0       	rjmp	.+18     	; 0x7a78 <PatchCommand14+0x44>
			while(1){
				track->patchCommandStreamPos-=3;
				command=pgm_read_byte(track->patchCommandStreamPos-3+1);
				
				//if we found the loop point or somehow reached the previous patch, exit
				if(command==PC_LOOP_START || command==PATCH_END) break;				
    7a66:	ef 3f       	cpi	r30, 0xFF	; 255
    7a68:	39 f0       	breq	.+14     	; 0x7a78 <PatchCommand14+0x44>
		if(param!=0){
			track->patchCommandStreamPos-=((param+1)*3);
		}else{
			u8 command;
			while(1){
				track->patchCommandStreamPos-=3;
    7a6a:	23 50       	subi	r18, 0x03	; 3
    7a6c:	31 09       	sbc	r19, r1
    7a6e:	f9 01       	movw	r30, r18
    7a70:	32 97       	sbiw	r30, 0x02	; 2
				command=pgm_read_byte(track->patchCommandStreamPos-3+1);
    7a72:	e4 91       	lpm	r30, Z
				
				//if we found the loop point or somehow reached the previous patch, exit
				if(command==PC_LOOP_START || command==PATCH_END) break;				
    7a74:	ed 30       	cpi	r30, 0x0D	; 13
    7a76:	b9 f7       	brne	.-18     	; 0x7a66 <PatchCommand14+0x32>
    7a78:	56 96       	adiw	r26, 0x16	; 22
    7a7a:	3c 93       	st	X, r19
    7a7c:	2e 93       	st	-X, r18
    7a7e:	55 97       	sbiw	r26, 0x15	; 21
			}
		}
		track->loopCount--;
    7a80:	81 50       	subi	r24, 0x01	; 1
    7a82:	14 96       	adiw	r26, 0x04	; 4
    7a84:	8c 93       	st	X, r24
    7a86:	08 95       	ret

00007a88 <InitMusicPlayer>:

const Patch *patchPointers;

void InitMusicPlayer(const Patch *patchPointersParam){

	patchPointers=patchPointersParam;
    7a88:	90 93 46 0b 	sts	0x0B46, r25
    7a8c:	80 93 45 0b 	sts	0x0B45, r24

	masterVolume=DEFAULT_MASTER_VOL;
    7a90:	8f e6       	ldi	r24, 0x6F	; 111
    7a92:	80 93 48 0b 	sts	0x0B48, r24
#if MIDI_IN == ENABLED
	InitUartRxBuffer();
	lastMidiInStatus=0;
#endif

	playSong=false;
    7a96:	10 92 42 0a 	sts	0x0A42, r1
    7a9a:	e7 ef       	ldi	r30, 0xF7	; 247
    7a9c:	fa e0       	ldi	r31, 0x0A	; 10

	//initialize default channels patches			
	for(unsigned char t=0;t<CHANNELS;t++){		
    7a9e:	80 e0       	ldi	r24, 0x00	; 0
		tracks[t].channel=t;
		tracks[t].flags=TRACK_FLAGS_ALLOCATED;	//allocated=true,priority=0
    7aa0:	90 e1       	ldi	r25, 0x10	; 16
		tracks[t].noteVol=0;
		tracks[t].trackVol=DEFAULT_TRACK_VOL;
    7aa2:	3f ef       	ldi	r19, 0xFF	; 255
		tracks[t].patchNo=DEFAULT_PATCH;
		tracks[t].tremoloRate=24; //~6hz
    7aa4:	28 e1       	ldi	r18, 0x18	; 24
    7aa6:	df 01       	movw	r26, r30
    7aa8:	1e 97       	sbiw	r26, 0x0e	; 14

	playSong=false;

	//initialize default channels patches			
	for(unsigned char t=0;t<CHANNELS;t++){		
		tracks[t].channel=t;
    7aaa:	8c 93       	st	X, r24
    7aac:	12 97       	sbiw	r26, 0x02	; 2
		tracks[t].flags=TRACK_FLAGS_ALLOCATED;	//allocated=true,priority=0
    7aae:	9c 93       	st	X, r25
    7ab0:	1d 96       	adiw	r26, 0x0d	; 13
		tracks[t].noteVol=0;
    7ab2:	1c 92       	st	X, r1
    7ab4:	11 97       	sbiw	r26, 0x01	; 1
		tracks[t].trackVol=DEFAULT_TRACK_VOL;
    7ab6:	3c 93       	st	X, r19
		tracks[t].patchNo=DEFAULT_PATCH;
    7ab8:	10 82       	st	Z, r1
    7aba:	11 97       	sbiw	r26, 0x01	; 1
		tracks[t].tremoloRate=24; //~6hz
    7abc:	2c 93       	st	X, r18
    7abe:	13 97       	sbiw	r26, 0x03	; 3
		tracks[t].slideSpeed=0x10;
    7ac0:	9c 93       	st	X, r25
#endif

	playSong=false;

	//initialize default channels patches			
	for(unsigned char t=0;t<CHANNELS;t++){		
    7ac2:	8f 5f       	subi	r24, 0xFF	; 255
    7ac4:	77 96       	adiw	r30, 0x17	; 23
    7ac6:	84 30       	cpi	r24, 0x04	; 4
    7ac8:	71 f7       	brne	.-36     	; 0x7aa6 <InitMusicPlayer+0x1e>
		tracks[t].patchNo=DEFAULT_PATCH;
		tracks[t].tremoloRate=24; //~6hz
		tracks[t].slideSpeed=0x10;
	}

}
    7aca:	08 95       	ret

00007acc <ReadVarLen>:
}



unsigned int ReadVarLen(const char **songPos)
{
    7acc:	dc 01       	movw	r26, r24
    unsigned int value;
    unsigned char c;


    if ( (value = pgm_read_byte((*songPos)++)) & 0x80 )
    7ace:	ed 91       	ld	r30, X+
    7ad0:	fc 91       	ld	r31, X
    7ad2:	11 97       	sbiw	r26, 0x01	; 1
    7ad4:	9f 01       	movw	r18, r30
    7ad6:	2f 5f       	subi	r18, 0xFF	; 255
    7ad8:	3f 4f       	sbci	r19, 0xFF	; 255
    7ada:	11 96       	adiw	r26, 0x01	; 1
    7adc:	3c 93       	st	X, r19
    7ade:	2e 93       	st	-X, r18
    7ae0:	e4 91       	lpm	r30, Z
    7ae2:	e7 fd       	sbrc	r30, 7
    7ae4:	03 c0       	rjmp	.+6      	; 0x7aec <ReadVarLen+0x20>
    7ae6:	8e 2f       	mov	r24, r30
    7ae8:	90 e0       	ldi	r25, 0x00	; 0
    7aea:	08 95       	ret
    {
       value &= 0x7F;
    7aec:	ef 77       	andi	r30, 0x7F	; 127
    7aee:	8e 2f       	mov	r24, r30
    7af0:	90 e0       	ldi	r25, 0x00	; 0
       do
       {
         value = (value << 7) + ((c = pgm_read_byte((*songPos)++)) & 0x7F);
    7af2:	96 95       	lsr	r25
    7af4:	98 2f       	mov	r25, r24
    7af6:	88 27       	eor	r24, r24
    7af8:	97 95       	ror	r25
    7afa:	87 95       	ror	r24
    7afc:	2f 5f       	subi	r18, 0xFF	; 255
    7afe:	3f 4f       	sbci	r19, 0xFF	; 255
    7b00:	f9 01       	movw	r30, r18
    7b02:	31 97       	sbiw	r30, 0x01	; 1
    7b04:	e4 91       	lpm	r30, Z
    7b06:	4e 2f       	mov	r20, r30
    7b08:	4f 77       	andi	r20, 0x7F	; 127
    7b0a:	84 0f       	add	r24, r20
    7b0c:	91 1d       	adc	r25, r1
       } while (c & 0x80);
    7b0e:	e7 fd       	sbrc	r30, 7
    7b10:	f0 cf       	rjmp	.-32     	; 0x7af2 <ReadVarLen+0x26>
    7b12:	2d 93       	st	X+, r18
    7b14:	3c 93       	st	X, r19
    }


    return value;
}
    7b16:	08 95       	ret

00007b18 <TriggerCommon>:




void TriggerCommon(Track* track,u8 patch,u8 volume,u8 note){
    7b18:	ef 92       	push	r14
    7b1a:	ff 92       	push	r15
    7b1c:	0f 93       	push	r16
    7b1e:	1f 93       	push	r17
    7b20:	cf 93       	push	r28
    7b22:	df 93       	push	r29
    7b24:	1f 92       	push	r1
    7b26:	cd b7       	in	r28, 0x3d	; 61
    7b28:	de b7       	in	r29, 0x3e	; 62
    7b2a:	7c 01       	movw	r14, r24
    7b2c:	16 2f       	mov	r17, r22
		
	bool isFx = (track->flags&TRACK_FLAGS_PRIORITY);
    7b2e:	fc 01       	movw	r30, r24
    7b30:	80 81       	ld	r24, Z
    7b32:	08 2f       	mov	r16, r24
    7b34:	00 1f       	adc	r16, r16
    7b36:	00 27       	eor	r16, r16
    7b38:	00 1f       	adc	r16, r16

	track->envelopeStep=0; 
    7b3a:	17 86       	std	Z+15, r1	; 0x0f
	track->envelopeVol=0xff; 
    7b3c:	9f ef       	ldi	r25, 0xFF	; 255
    7b3e:	96 87       	std	Z+14, r25	; 0x0e
	track->noteVol=volume;
    7b40:	45 87       	std	Z+13, r20	; 0x0d
	track->patchPlayingTime=0;
    7b42:	14 8a       	std	Z+20, r1	; 0x14
	track->flags&=(~(TRACK_FLAGS_HOLD_ENV|TRACK_FLAGS_SLIDING));
    7b44:	87 7b       	andi	r24, 0xB7	; 183
    7b46:	80 83       	st	Z, r24
	track->tremoloLevel=0;
    7b48:	12 86       	std	Z+10, r1	; 0x0a
	track->tremoloPos=0;
    7b4a:	11 86       	std	Z+9, r1	; 0x09
	track->note=note;
    7b4c:	21 83       	std	Z+1, r18	; 0x01
	track->loopCount=0;
    7b4e:	14 82       	std	Z+4, r1	; 0x04

#if MUSIC_ENGINE == MIDI
	track->expressionVol=DEFAULT_EXPRESSION_VOL;
    7b50:	93 83       	std	Z+3, r25	; 0x03
#endif

	#if SOUND_MIXER == MIXER_TYPE_INLINE

		if(track->channel==3){
    7b52:	82 81       	ldd	r24, Z+2	; 0x02
    7b54:	83 30       	cpi	r24, 0x03	; 3
    7b56:	69 f4       	brne	.+26     	; 0x7b72 <TriggerCommon+0x5a>
			//noise channel		
			if(!isFx) patch=note;			
    7b58:	01 11       	cpse	r16, r1
    7b5a:	01 c0       	rjmp	.+2      	; 0x7b5e <TriggerCommon+0x46>
    7b5c:	12 2f       	mov	r17, r18
			mixer.channels.type.noise.barrel=0x0101;				
    7b5e:	81 e0       	ldi	r24, 0x01	; 1
    7b60:	91 e0       	ldi	r25, 0x01	; 1
    7b62:	90 93 59 0a 	sts	0x0A59, r25
    7b66:	80 93 58 0a 	sts	0x0A58, r24
			mixer.channels.type.noise.params=1; //default (15bits,no divider)
    7b6a:	81 e0       	ldi	r24, 0x01	; 1
    7b6c:	80 93 57 0a 	sts	0x0A57, r24
    7b70:	0a c0       	rjmp	.+20     	; 0x7b86 <TriggerCommon+0x6e>
				SetMixerNote(track->channel,note);
		#endif	

		}else{					
			//wave channels					
			SetMixerWave(track->channel,0);//default wave
    7b72:	60 e0       	ldi	r22, 0x00	; 0
    7b74:	29 83       	std	Y+1, r18	; 0x01
    7b76:	0e 94 ac 40 	call	0x8158	; 0x8158 <SetMixerWave>
			SetMixerNote(track->channel,note);
    7b7a:	29 81       	ldd	r18, Y+1	; 0x01
    7b7c:	62 2f       	mov	r22, r18
    7b7e:	f7 01       	movw	r30, r14
    7b80:	82 81       	ldd	r24, Z+2	; 0x02
    7b82:	0e 94 95 40 	call	0x812a	; 0x812a <SetMixerNote>
		#endif

	#endif //SOUND_MIXER == MIXER_TYPE_INLINE

	if(isFx){
		track->fxPatchNo=patch;
    7b86:	f7 01       	movw	r30, r14

		#endif

	#endif //SOUND_MIXER == MIXER_TYPE_INLINE

	if(isFx){
    7b88:	00 23       	and	r16, r16
    7b8a:	11 f0       	breq	.+4      	; 0x7b90 <TriggerCommon+0x78>
		track->fxPatchNo=patch;
    7b8c:	11 8b       	std	Z+17, r17	; 0x11
    7b8e:	01 c0       	rjmp	.+2      	; 0x7b92 <TriggerCommon+0x7a>
	}else{
		track->patchNo=patch;	
    7b90:	10 8b       	std	Z+16, r17	; 0x10
	}

	const char *pos = (const char*)pgm_read_word(&(patchPointers[patch].cmdStream));
    7b92:	e0 91 45 0b 	lds	r30, 0x0B45
    7b96:	f0 91 46 0b 	lds	r31, 0x0B46
    7b9a:	89 e0       	ldi	r24, 0x09	; 9
    7b9c:	18 9f       	mul	r17, r24
    7b9e:	e0 0d       	add	r30, r0
    7ba0:	f1 1d       	adc	r31, r1
    7ba2:	11 24       	eor	r1, r1
    7ba4:	33 96       	adiw	r30, 0x03	; 3
    7ba6:	85 91       	lpm	r24, Z+
    7ba8:	94 91       	lpm	r25, Z
	if(pos==NULL){
		track->patchCommandStreamPos=NULL;
    7baa:	f7 01       	movw	r30, r14
	}else{
		track->patchNo=patch;	
	}

	const char *pos = (const char*)pgm_read_word(&(patchPointers[patch].cmdStream));
	if(pos==NULL){
    7bac:	00 97       	sbiw	r24, 0x00	; 0
    7bae:	19 f4       	brne	.+6      	; 0x7bb6 <TriggerCommon+0x9e>
		track->patchCommandStreamPos=NULL;
    7bb0:	16 8a       	std	Z+22, r1	; 0x16
    7bb2:	15 8a       	std	Z+21, r1	; 0x15
    7bb4:	08 c0       	rjmp	.+16     	; 0x7bc6 <TriggerCommon+0xae>
	}else{
		track->patchCurrDeltaTime=0;
    7bb6:	13 8a       	std	Z+19, r1	; 0x13
		track->patchNextDeltaTime=pgm_read_byte(pos++);
    7bb8:	fc 01       	movw	r30, r24
    7bba:	24 91       	lpm	r18, Z
    7bbc:	f7 01       	movw	r30, r14
    7bbe:	22 8b       	std	Z+18, r18	; 0x12
    7bc0:	01 96       	adiw	r24, 0x01	; 1
		track->patchCommandStreamPos=pos;
    7bc2:	96 8b       	std	Z+22, r25	; 0x16
    7bc4:	85 8b       	std	Z+21, r24	; 0x15
	}

}
    7bc6:	0f 90       	pop	r0
    7bc8:	df 91       	pop	r29
    7bca:	cf 91       	pop	r28
    7bcc:	1f 91       	pop	r17
    7bce:	0f 91       	pop	r16
    7bd0:	ff 90       	pop	r15
    7bd2:	ef 90       	pop	r14
    7bd4:	08 95       	ret

00007bd6 <TriggerFx>:

/* Trigger a sound effect.
 * Method allocates the channel based on priority.
 * Retrig: if this fx if already playing on a track, reuse same track.
 */
void TriggerFx(unsigned char patch,unsigned char volume,bool retrig){
    7bd6:	cf 93       	push	r28
    7bd8:	df 93       	push	r29
	unsigned char channel;
	
	unsigned char type=(unsigned char)pgm_read_byte(&(patchPointers[patch].type));
    7bda:	e0 91 45 0b 	lds	r30, 0x0B45
    7bde:	f0 91 46 0b 	lds	r31, 0x0B46
    7be2:	99 e0       	ldi	r25, 0x09	; 9
    7be4:	89 9f       	mul	r24, r25
    7be6:	e0 0d       	add	r30, r0
    7be8:	f1 1d       	adc	r31, r1
    7bea:	11 24       	eor	r1, r1
    7bec:	e4 91       	lpm	r30, Z

	//find the channel to play the fx
	//try to steal voice 2 then 1
	//never steal voice 0, reserve it for lead melodies
	if(type==1 || (type==2 && MIXER_CHAN4_TYPE == 1)){
    7bee:	e1 30       	cpi	r30, 0x01	; 1
    7bf0:	e9 f0       	breq	.+58     	; 0x7c2c <TriggerFx+0x56>
		//noise or PCM channel fx		
		channel=3;
	}else if(type==2){
    7bf2:	e2 30       	cpi	r30, 0x02	; 2
    7bf4:	e9 f0       	breq	.+58     	; 0x7c30 <TriggerFx+0x5a>
		channel=4;
	}else if( (tracks[1].flags&TRACK_FLAGS_PRIORITY)==0 || (tracks[1].fxPatchNo==patch && (tracks[1].flags&TRACK_FLAGS_PRIORITY)!=0 && retrig==true)){ //fx already playing
    7bf6:	20 91 fe 0a 	lds	r18, 0x0AFE
    7bfa:	27 ff       	sbrs	r18, 7
    7bfc:	1d c0       	rjmp	.+58     	; 0x7c38 <TriggerFx+0x62>
    7bfe:	20 91 0f 0b 	lds	r18, 0x0B0F
    7c02:	28 13       	cpse	r18, r24
    7c04:	02 c0       	rjmp	.+4      	; 0x7c0a <TriggerFx+0x34>
    7c06:	41 11       	cpse	r20, r1
    7c08:	17 c0       	rjmp	.+46     	; 0x7c38 <TriggerFx+0x62>
		channel=1;
	}else if( (tracks[2].flags&TRACK_FLAGS_PRIORITY)==0 || (tracks[2].fxPatchNo==patch && (tracks[2].flags&TRACK_FLAGS_PRIORITY)!=0 && retrig==true)){ //fx already playing				
    7c0a:	20 91 15 0b 	lds	r18, 0x0B15
    7c0e:	27 ff       	sbrs	r18, 7
    7c10:	11 c0       	rjmp	.+34     	; 0x7c34 <TriggerFx+0x5e>
    7c12:	20 91 26 0b 	lds	r18, 0x0B26
    7c16:	28 13       	cpse	r18, r24
    7c18:	02 c0       	rjmp	.+4      	; 0x7c1e <TriggerFx+0x48>
    7c1a:	41 11       	cpse	r20, r1
    7c1c:	0b c0       	rjmp	.+22     	; 0x7c34 <TriggerFx+0x5e>
		channel=2;
	}else{
		//both channels have fx playing, use the oldest one
		if(tracks[1].patchPlayingTime>tracks[2].patchPlayingTime){
    7c1e:	20 91 12 0b 	lds	r18, 0x0B12
    7c22:	90 91 29 0b 	lds	r25, 0x0B29
    7c26:	92 17       	cp	r25, r18
    7c28:	28 f4       	brcc	.+10     	; 0x7c34 <TriggerFx+0x5e>
    7c2a:	06 c0       	rjmp	.+12     	; 0x7c38 <TriggerFx+0x62>
	//find the channel to play the fx
	//try to steal voice 2 then 1
	//never steal voice 0, reserve it for lead melodies
	if(type==1 || (type==2 && MIXER_CHAN4_TYPE == 1)){
		//noise or PCM channel fx		
		channel=3;
    7c2c:	c3 e0       	ldi	r28, 0x03	; 3
    7c2e:	05 c0       	rjmp	.+10     	; 0x7c3a <TriggerFx+0x64>
	}else if(type==2){
		channel=4;
    7c30:	c4 e0       	ldi	r28, 0x04	; 4
    7c32:	03 c0       	rjmp	.+6      	; 0x7c3a <TriggerFx+0x64>
	}else if( (tracks[1].flags&TRACK_FLAGS_PRIORITY)==0 || (tracks[1].fxPatchNo==patch && (tracks[1].flags&TRACK_FLAGS_PRIORITY)!=0 && retrig==true)){ //fx already playing
		channel=1;
	}else if( (tracks[2].flags&TRACK_FLAGS_PRIORITY)==0 || (tracks[2].fxPatchNo==patch && (tracks[2].flags&TRACK_FLAGS_PRIORITY)!=0 && retrig==true)){ //fx already playing				
		channel=2;
    7c34:	c2 e0       	ldi	r28, 0x02	; 2
    7c36:	01 c0       	rjmp	.+2      	; 0x7c3a <TriggerFx+0x64>
		//noise or PCM channel fx		
		channel=3;
	}else if(type==2){
		channel=4;
	}else if( (tracks[1].flags&TRACK_FLAGS_PRIORITY)==0 || (tracks[1].fxPatchNo==patch && (tracks[1].flags&TRACK_FLAGS_PRIORITY)!=0 && retrig==true)){ //fx already playing
		channel=1;
    7c38:	c1 e0       	ldi	r28, 0x01	; 1
			channel=2;
		}
	}				

	Track* track=&tracks[channel];
	track->flags=TRACK_FLAGS_PRIORITY; //priority=1;
    7c3a:	97 e1       	ldi	r25, 0x17	; 23
    7c3c:	c9 9f       	mul	r28, r25
    7c3e:	e0 01       	movw	r28, r0
    7c40:	11 24       	eor	r1, r1
    7c42:	c9 51       	subi	r28, 0x19	; 25
    7c44:	d5 4f       	sbci	r29, 0xF5	; 245
    7c46:	90 e8       	ldi	r25, 0x80	; 128
    7c48:	98 83       	st	Y, r25
	track->patchCommandStreamPos = NULL;
    7c4a:	1e 8a       	std	Y+22, r1	; 0x16
    7c4c:	1d 8a       	std	Y+21, r1	; 0x15
	TriggerCommon(track,patch,volume,80);
    7c4e:	20 e5       	ldi	r18, 0x50	; 80
    7c50:	46 2f       	mov	r20, r22
    7c52:	68 2f       	mov	r22, r24
    7c54:	ce 01       	movw	r24, r28
    7c56:	0e 94 8c 3d 	call	0x7b18	; 0x7b18 <TriggerCommon>
	track->flags|=TRACK_FLAGS_PLAYING;
    7c5a:	88 81       	ld	r24, Y
    7c5c:	80 62       	ori	r24, 0x20	; 32
    7c5e:	88 83       	st	Y, r24
}
    7c60:	df 91       	pop	r29
    7c62:	cf 91       	pop	r28
    7c64:	08 95       	ret

00007c66 <TriggerNote>:


void TriggerNote(unsigned char channel,unsigned char patch,unsigned char note,unsigned char volume){
    7c66:	cf 93       	push	r28
    7c68:	df 93       	push	r29
	Track* track=&tracks[channel];

	//allow only other music notes 
	if((track->flags&TRACK_FLAGS_PLAYING)==0 || (track->flags&TRACK_FLAGS_PRIORITY)==0){
    7c6a:	a8 2f       	mov	r26, r24
    7c6c:	b0 e0       	ldi	r27, 0x00	; 0
    7c6e:	97 e1       	ldi	r25, 0x17	; 23
    7c70:	89 9f       	mul	r24, r25
    7c72:	f0 01       	movw	r30, r0
    7c74:	11 24       	eor	r1, r1
    7c76:	e9 51       	subi	r30, 0x19	; 25
    7c78:	f5 4f       	sbci	r31, 0xF5	; 245
    7c7a:	80 81       	ld	r24, Z
    7c7c:	85 ff       	sbrs	r24, 5
    7c7e:	02 c0       	rjmp	.+4      	; 0x7c84 <TriggerNote+0x1e>
    7c80:	87 fd       	sbrc	r24, 7
    7c82:	2e c0       	rjmp	.+92     	; 0x7ce0 <TriggerNote+0x7a>
			
		if(volume==0){ //note-off received
    7c84:	21 11       	cpse	r18, r1
    7c86:	18 c0       	rjmp	.+48     	; 0x7cb8 <TriggerNote+0x52>

			
			//cut note if there's no envelope & no note hold
			if(track->envelopeStep==0 && !(track->flags&TRACK_FLAGS_HOLD_ENV)){
    7c88:	97 e1       	ldi	r25, 0x17	; 23
    7c8a:	9a 9f       	mul	r25, r26
    7c8c:	f0 01       	movw	r30, r0
    7c8e:	9b 9f       	mul	r25, r27
    7c90:	f0 0d       	add	r31, r0
    7c92:	11 24       	eor	r1, r1
    7c94:	e9 51       	subi	r30, 0x19	; 25
    7c96:	f5 4f       	sbci	r31, 0xF5	; 245
    7c98:	97 85       	ldd	r25, Z+15	; 0x0f
    7c9a:	91 11       	cpse	r25, r1
    7c9c:	02 c0       	rjmp	.+4      	; 0x7ca2 <TriggerNote+0x3c>
    7c9e:	86 ff       	sbrs	r24, 6
				track->noteVol=0;
    7ca0:	15 86       	std	Z+13, r1	; 0x0d
			}

			track->flags&=(~TRACK_FLAGS_HOLD_ENV);//patchEnvelopeHold=false;
    7ca2:	97 e1       	ldi	r25, 0x17	; 23
    7ca4:	9a 9f       	mul	r25, r26
    7ca6:	f0 01       	movw	r30, r0
    7ca8:	9b 9f       	mul	r25, r27
    7caa:	f0 0d       	add	r31, r0
    7cac:	11 24       	eor	r1, r1
    7cae:	e9 51       	subi	r30, 0x19	; 25
    7cb0:	f5 4f       	sbci	r31, 0xF5	; 245
    7cb2:	8f 7b       	andi	r24, 0xBF	; 191
    7cb4:	80 83       	st	Z, r24
    7cb6:	14 c0       	rjmp	.+40     	; 0x7ce0 <TriggerNote+0x7a>
    7cb8:	82 2f       	mov	r24, r18
    7cba:	24 2f       	mov	r18, r20
		}else{
		
			track->flags=0;//&=(~TRACK_FLAGS_PRIORITY);// priority=0;
    7cbc:	97 e1       	ldi	r25, 0x17	; 23
    7cbe:	9a 9f       	mul	r25, r26
    7cc0:	e0 01       	movw	r28, r0
    7cc2:	9b 9f       	mul	r25, r27
    7cc4:	d0 0d       	add	r29, r0
    7cc6:	11 24       	eor	r1, r1
    7cc8:	c9 51       	subi	r28, 0x19	; 25
    7cca:	d5 4f       	sbci	r29, 0xF5	; 245
    7ccc:	18 82       	st	Y, r1
			track->patchCommandStreamPos = NULL;
    7cce:	1e 8a       	std	Y+22, r1	; 0x16
    7cd0:	1d 8a       	std	Y+21, r1	; 0x15
			TriggerCommon(track,patch,volume,note);
    7cd2:	48 2f       	mov	r20, r24
    7cd4:	ce 01       	movw	r24, r28
    7cd6:	0e 94 8c 3d 	call	0x7b18	; 0x7b18 <TriggerCommon>
			track->flags|=TRACK_FLAGS_PLAYING;
    7cda:	88 81       	ld	r24, Y
    7cdc:	80 62       	ori	r24, 0x20	; 32
    7cde:	88 83       	st	Y, r24
		}

	}
}
    7ce0:	df 91       	pop	r29
    7ce2:	cf 91       	pop	r28
    7ce4:	08 95       	ret

00007ce6 <ProcessMusic>:
	}

#endif


void ProcessMusic(void){
    7ce6:	6f 92       	push	r6
    7ce8:	7f 92       	push	r7
    7cea:	8f 92       	push	r8
    7cec:	9f 92       	push	r9
    7cee:	af 92       	push	r10
    7cf0:	bf 92       	push	r11
    7cf2:	cf 92       	push	r12
    7cf4:	df 92       	push	r13
    7cf6:	ef 92       	push	r14
    7cf8:	ff 92       	push	r15
    7cfa:	0f 93       	push	r16
    7cfc:	1f 93       	push	r17
    7cfe:	cf 93       	push	r28
    7d00:	df 93       	push	r29
    7d02:	c7 ee       	ldi	r28, 0xE7	; 231
    7d04:	da e0       	ldi	r29, 0x0A	; 10
    7d06:	04 e4       	ldi	r16, 0x44	; 68
    7d08:	1a e0       	ldi	r17, 0x0A	; 10
    7d0a:	d8 01       	movw	r26, r16
    7d0c:	9e 01       	movw	r18, r28
    7d0e:	40 e0       	ldi	r20, 0x00	; 0
    7d10:	50 e0       	ldi	r21, 0x00	; 0
    7d12:	ca 01       	movw	r24, r20
    7d14:	89 51       	subi	r24, 0x19	; 25
    7d16:	95 4f       	sbci	r25, 0xF5	; 245
    7d18:	6c 01       	movw	r12, r24
	//process patches envelopes & pitch slides
	for(unsigned char trackNo=0;trackNo<CHANNELS;trackNo++){
		track=&tracks[trackNo];

		//update envelope
		if(track->envelopeStep!=0){
    7d1a:	fc 01       	movw	r30, r24
    7d1c:	87 85       	ldd	r24, Z+15	; 0x0f
    7d1e:	88 23       	and	r24, r24
    7d20:	91 f0       	breq	.+36     	; 0x7d46 <ProcessMusic+0x60>
			vol=track->envelopeVol+track->envelopeStep;		
    7d22:	66 85       	ldd	r22, Z+14	; 0x0e
    7d24:	99 27       	eor	r25, r25
    7d26:	87 fd       	sbrc	r24, 7
    7d28:	90 95       	com	r25
    7d2a:	86 0f       	add	r24, r22
    7d2c:	91 1d       	adc	r25, r1
    7d2e:	8f 3f       	cpi	r24, 0xFF	; 255
    7d30:	91 05       	cpc	r25, r1
    7d32:	19 f0       	breq	.+6      	; 0x7d3a <ProcessMusic+0x54>
    7d34:	14 f0       	brlt	.+4      	; 0x7d3a <ProcessMusic+0x54>
    7d36:	8f ef       	ldi	r24, 0xFF	; 255
    7d38:	90 e0       	ldi	r25, 0x00	; 0
    7d3a:	97 ff       	sbrs	r25, 7
    7d3c:	02 c0       	rjmp	.+4      	; 0x7d42 <ProcessMusic+0x5c>
    7d3e:	80 e0       	ldi	r24, 0x00	; 0
    7d40:	90 e0       	ldi	r25, 0x00	; 0
			if(vol<0){
				vol=0;			
			}else if(vol>0xff){
				vol=0xff;						
			}
			track->envelopeVol=vol;
    7d42:	f6 01       	movw	r30, r12
    7d44:	86 87       	std	Z+14, r24	; 0x0e
		}

		//if volumes reaches zero and no more patch command, explicitly end playing on track
		//if(vol==0 && track->patchCommandStreamPos==NULL) track->flags&=~(TRACK_FLAGS_PLAYING);

		if(track->flags & TRACK_FLAGS_SLIDING){
    7d46:	f9 01       	movw	r30, r18
    7d48:	f0 80       	ld	r15, Z
    7d4a:	f3 fe       	sbrs	r15, 3
    7d4c:	2a c0       	rjmp	.+84     	; 0x7da2 <ProcessMusic+0xbc>

			mixer.channels.all[trackNo].step+=track->slideStep;
    7d4e:	65 81       	ldd	r22, Z+5	; 0x05
    7d50:	76 81       	ldd	r23, Z+6	; 0x06
    7d52:	11 96       	adiw	r26, 0x01	; 1
    7d54:	8d 91       	ld	r24, X+
    7d56:	9c 91       	ld	r25, X
    7d58:	12 97       	sbiw	r26, 0x02	; 2
    7d5a:	86 0f       	add	r24, r22
    7d5c:	97 1f       	adc	r25, r23
    7d5e:	12 96       	adiw	r26, 0x02	; 2
    7d60:	9c 93       	st	X, r25
    7d62:	8e 93       	st	-X, r24
    7d64:	11 97       	sbiw	r26, 0x01	; 1
			u16 tStep=pgm_read_word(&(steptable[track->slideNote]));
    7d66:	f6 01       	movw	r30, r12
    7d68:	e7 80       	ldd	r14, Z+7	; 0x07
    7d6a:	ee 2d       	mov	r30, r14
    7d6c:	f0 e0       	ldi	r31, 0x00	; 0
    7d6e:	ee 0f       	add	r30, r30
    7d70:	ff 1f       	adc	r31, r31
    7d72:	e8 5f       	subi	r30, 0xF8	; 248
    7d74:	fd 47       	sbci	r31, 0x7D	; 125
    7d76:	c5 90       	lpm	r12, Z+
    7d78:	d4 90       	lpm	r13, Z

			if((track->slideStep>0 && mixer.channels.all[trackNo].step>=tStep) || 
    7d7a:	16 16       	cp	r1, r22
    7d7c:	17 06       	cpc	r1, r23
    7d7e:	24 f4       	brge	.+8      	; 0x7d88 <ProcessMusic+0xa2>
    7d80:	8c 15       	cp	r24, r12
    7d82:	9d 05       	cpc	r25, r13
    7d84:	30 f4       	brcc	.+12     	; 0x7d92 <ProcessMusic+0xac>
    7d86:	0d c0       	rjmp	.+26     	; 0x7da2 <ProcessMusic+0xbc>
    7d88:	67 2b       	or	r22, r23
    7d8a:	59 f0       	breq	.+22     	; 0x7da2 <ProcessMusic+0xbc>
				(track->slideStep<0 && mixer.channels.all[trackNo].step<=tStep))
    7d8c:	c8 16       	cp	r12, r24
    7d8e:	d9 06       	cpc	r13, r25
    7d90:	40 f0       	brcs	.+16     	; 0x7da2 <ProcessMusic+0xbc>
			{					
				mixer.channels.all[trackNo].step = tStep;					
    7d92:	12 96       	adiw	r26, 0x02	; 2
    7d94:	dc 92       	st	X, r13
    7d96:	ce 92       	st	-X, r12
    7d98:	11 97       	sbiw	r26, 0x01	; 1
				track->flags &= ~(TRACK_FLAGS_SLIDING);	
    7d9a:	8f 2d       	mov	r24, r15
    7d9c:	87 7f       	andi	r24, 0xF7	; 247
    7d9e:	f9 01       	movw	r30, r18
    7da0:	80 83       	st	Z, r24
    7da2:	49 5e       	subi	r20, 0xE9	; 233
    7da4:	5f 4f       	sbci	r21, 0xFF	; 255
    7da6:	29 5e       	subi	r18, 0xE9	; 233
    7da8:	3f 4f       	sbci	r19, 0xFF	; 255
    7daa:	16 96       	adiw	r26, 0x06	; 6
	u8 channel;
	Track* track;


	//process patches envelopes & pitch slides
	for(unsigned char trackNo=0;trackNo<CHANNELS;trackNo++){
    7dac:	4c 35       	cpi	r20, 0x5C	; 92
    7dae:	51 05       	cpc	r21, r1
    7db0:	09 f0       	breq	.+2      	; 0x7db4 <ProcessMusic+0xce>
    7db2:	af cf       	rjmp	.-162    	; 0x7d12 <ProcessMusic+0x2c>
	}



	//Process song MIDI notes
	if(playSong){
    7db4:	80 91 42 0a 	lds	r24, 0x0A42
    7db8:	88 23       	and	r24, r24
    7dba:	09 f4       	brne	.+2      	; 0x7dbe <ProcessMusic+0xd8>
    7dbc:	cc c0       	rjmp	.+408    	; 0x7f56 <ProcessMusic+0x270>
							}else if(c1==CONTROLER_EXPRESSION){
								tracks[channel].expressionVol=c2<<1;
							}else if(c1==CONTROLER_TREMOLO){
								tracks[channel].tremoloLevel=c2<<1;
							}else if(c1==CONTROLER_TREMOLO_RATE){
								tracks[channel].tremoloRate=c2<<1;
    7dbe:	57 e1       	ldi	r21, 0x17	; 23
    7dc0:	f5 2e       	mov	r15, r21
	if(playSong){
	
		#if MUSIC_ENGINE == MIDI
			
			//process all simultaneous events
			while(currDeltaTime==nextDeltaTime){
    7dc2:	80 91 43 0b 	lds	r24, 0x0B43
    7dc6:	90 91 44 0b 	lds	r25, 0x0B44
    7dca:	20 91 49 0b 	lds	r18, 0x0B49
    7dce:	30 91 4a 0b 	lds	r19, 0x0B4A
    7dd2:	82 17       	cp	r24, r18
    7dd4:	93 07       	cpc	r25, r19
    7dd6:	09 f0       	breq	.+2      	; 0x7dda <ProcessMusic+0xf4>
    7dd8:	b9 c0       	rjmp	.+370    	; 0x7f4c <ProcessMusic+0x266>

				c1=pgm_read_byte(songPos++);
    7dda:	20 91 4c 0b 	lds	r18, 0x0B4C
    7dde:	30 91 4d 0b 	lds	r19, 0x0B4D
    7de2:	b9 01       	movw	r22, r18
    7de4:	6f 5f       	subi	r22, 0xFF	; 255
    7de6:	7f 4f       	sbci	r23, 0xFF	; 255
    7de8:	70 93 4d 0b 	sts	0x0B4D, r23
    7dec:	60 93 4c 0b 	sts	0x0B4C, r22
    7df0:	f9 01       	movw	r30, r18
    7df2:	44 91       	lpm	r20, Z
			
				if(c1==0xff){
    7df4:	4f 3f       	cpi	r20, 0xFF	; 255
    7df6:	79 f5       	brne	.+94     	; 0x7e56 <ProcessMusic+0x170>
					//META data type event
					c1=pgm_read_byte(songPos++);
    7df8:	a9 01       	movw	r20, r18
    7dfa:	4e 5f       	subi	r20, 0xFE	; 254
    7dfc:	5f 4f       	sbci	r21, 0xFF	; 255
    7dfe:	50 93 4d 0b 	sts	0x0B4D, r21
    7e02:	40 93 4c 0b 	sts	0x0B4C, r20
    7e06:	fb 01       	movw	r30, r22
    7e08:	64 91       	lpm	r22, Z

				
					if(c1==0x2f){ //end of song
    7e0a:	6f 32       	cpi	r22, 0x2F	; 47
    7e0c:	19 f4       	brne	.+6      	; 0x7e14 <ProcessMusic+0x12e>
						playSong=false;
    7e0e:	10 92 42 0a 	sts	0x0A42, r1
						break;	
    7e12:	9c c0       	rjmp	.+312    	; 0x7f4c <ProcessMusic+0x266>
					}else if(c1==0x6){ //marker
    7e14:	66 30       	cpi	r22, 0x06	; 6
    7e16:	09 f0       	breq	.+2      	; 0x7e1a <ProcessMusic+0x134>
    7e18:	8c c0       	rjmp	.+280    	; 0x7f32 <ProcessMusic+0x24c>
						c1=pgm_read_byte(songPos++); //read len
    7e1a:	fa 01       	movw	r30, r20
    7e1c:	44 91       	lpm	r20, Z
						c2=pgm_read_byte(songPos++); //read data
    7e1e:	c9 01       	movw	r24, r18
    7e20:	04 96       	adiw	r24, 0x04	; 4
    7e22:	90 93 4d 0b 	sts	0x0B4D, r25
    7e26:	80 93 4c 0b 	sts	0x0B4C, r24
				
					if(c1==0x2f){ //end of song
						playSong=false;
						break;	
					}else if(c1==0x6){ //marker
						c1=pgm_read_byte(songPos++); //read len
    7e2a:	f9 01       	movw	r30, r18
    7e2c:	33 96       	adiw	r30, 0x03	; 3
						c2=pgm_read_byte(songPos++); //read data
    7e2e:	e4 91       	lpm	r30, Z
						if(c2=='S'){ //loop start
    7e30:	e3 35       	cpi	r30, 0x53	; 83
    7e32:	29 f4       	brne	.+10     	; 0x7e3e <ProcessMusic+0x158>
							loopStart=songPos;
    7e34:	90 93 4f 0b 	sts	0x0B4F, r25
    7e38:	80 93 4e 0b 	sts	0x0B4E, r24
    7e3c:	7a c0       	rjmp	.+244    	; 0x7f32 <ProcessMusic+0x24c>
						}else if(c2=='E'){//loop end
    7e3e:	e5 34       	cpi	r30, 0x45	; 69
    7e40:	09 f0       	breq	.+2      	; 0x7e44 <ProcessMusic+0x15e>
    7e42:	77 c0       	rjmp	.+238    	; 0x7f32 <ProcessMusic+0x24c>
							songPos=loopStart;
    7e44:	80 91 4e 0b 	lds	r24, 0x0B4E
    7e48:	90 91 4f 0b 	lds	r25, 0x0B4F
    7e4c:	90 93 4d 0b 	sts	0x0B4D, r25
    7e50:	80 93 4c 0b 	sts	0x0B4C, r24
    7e54:	6e c0       	rjmp	.+220    	; 0x7f32 <ProcessMusic+0x24c>
					}
				

				}else{

					if(c1&0x80) lastStatus=c1;					
    7e56:	47 fd       	sbrc	r20, 7
    7e58:	40 93 47 0b 	sts	0x0B47, r20
					channel=lastStatus&0x0f;
    7e5c:	90 91 47 0b 	lds	r25, 0x0B47
    7e60:	89 2f       	mov	r24, r25
    7e62:	8f 70       	andi	r24, 0x0F	; 15
				
					//get next data byte
					//Note: maybe we should not advance the cursor
					//in case we receive an unsupported command				
					if(c1&0x80) c1=pgm_read_byte(songPos++); 
    7e64:	47 ff       	sbrs	r20, 7
    7e66:	08 c0       	rjmp	.+16     	; 0x7e78 <ProcessMusic+0x192>
    7e68:	2e 5f       	subi	r18, 0xFE	; 254
    7e6a:	3f 4f       	sbci	r19, 0xFF	; 255
    7e6c:	30 93 4d 0b 	sts	0x0B4D, r19
    7e70:	20 93 4c 0b 	sts	0x0B4C, r18
    7e74:	fb 01       	movw	r30, r22
    7e76:	44 91       	lpm	r20, Z

					switch(lastStatus&0xf0){
    7e78:	90 7f       	andi	r25, 0xF0	; 240
    7e7a:	90 3b       	cpi	r25, 0xB0	; 176
    7e7c:	e1 f0       	breq	.+56     	; 0x7eb6 <ProcessMusic+0x1d0>
    7e7e:	90 3c       	cpi	r25, 0xC0	; 192
    7e80:	09 f4       	brne	.+2      	; 0x7e84 <ProcessMusic+0x19e>
    7e82:	51 c0       	rjmp	.+162    	; 0x7f26 <ProcessMusic+0x240>
    7e84:	90 39       	cpi	r25, 0x90	; 144
    7e86:	09 f0       	breq	.+2      	; 0x7e8a <ProcessMusic+0x1a4>
    7e88:	54 c0       	rjmp	.+168    	; 0x7f32 <ProcessMusic+0x24c>

						//note-on
						case 0x90:
							//c1 = note						
							c2=pgm_read_byte(songPos++)<<1; //get volume
    7e8a:	e0 91 4c 0b 	lds	r30, 0x0B4C
    7e8e:	f0 91 4d 0b 	lds	r31, 0x0B4D
    7e92:	9f 01       	movw	r18, r30
    7e94:	2f 5f       	subi	r18, 0xFF	; 255
    7e96:	3f 4f       	sbci	r19, 0xFF	; 255
    7e98:	30 93 4d 0b 	sts	0x0B4D, r19
    7e9c:	20 93 4c 0b 	sts	0x0B4C, r18
    7ea0:	24 91       	lpm	r18, Z
    7ea2:	22 0f       	add	r18, r18
						
							if(tracks[channel].flags|TRACK_FLAGS_ALLOCATED){ //allocated==true
								TriggerNote(channel,tracks[channel].patchNo,c1,c2);
    7ea4:	f8 9e       	mul	r15, r24
    7ea6:	f0 01       	movw	r30, r0
    7ea8:	11 24       	eor	r1, r1
    7eaa:	e9 51       	subi	r30, 0x19	; 25
    7eac:	f5 4f       	sbci	r31, 0xF5	; 245
    7eae:	60 89       	ldd	r22, Z+16	; 0x10
    7eb0:	0e 94 33 3e 	call	0x7c66	; 0x7c66 <TriggerNote>
    7eb4:	3e c0       	rjmp	.+124    	; 0x7f32 <ProcessMusic+0x24c>
							break;

						//controllers
						case 0xb0:
							///c1 = controller #
							c2=pgm_read_byte(songPos++); //get controller value
    7eb6:	e0 91 4c 0b 	lds	r30, 0x0B4C
    7eba:	f0 91 4d 0b 	lds	r31, 0x0B4D
    7ebe:	9f 01       	movw	r18, r30
    7ec0:	2f 5f       	subi	r18, 0xFF	; 255
    7ec2:	3f 4f       	sbci	r19, 0xFF	; 255
    7ec4:	30 93 4d 0b 	sts	0x0B4D, r19
    7ec8:	20 93 4c 0b 	sts	0x0B4C, r18
    7ecc:	e4 91       	lpm	r30, Z
						
							if(c1==CONTROLER_VOL){
    7ece:	47 30       	cpi	r20, 0x07	; 7
    7ed0:	49 f4       	brne	.+18     	; 0x7ee4 <ProcessMusic+0x1fe>
								tracks[channel].trackVol=c2<<1;
    7ed2:	f8 9e       	mul	r15, r24
    7ed4:	d0 01       	movw	r26, r0
    7ed6:	11 24       	eor	r1, r1
    7ed8:	a9 51       	subi	r26, 0x19	; 25
    7eda:	b5 4f       	sbci	r27, 0xF5	; 245
    7edc:	ee 0f       	add	r30, r30
    7ede:	1c 96       	adiw	r26, 0x0c	; 12
    7ee0:	ec 93       	st	X, r30
    7ee2:	27 c0       	rjmp	.+78     	; 0x7f32 <ProcessMusic+0x24c>
							}else if(c1==CONTROLER_EXPRESSION){
    7ee4:	4b 30       	cpi	r20, 0x0B	; 11
    7ee6:	49 f4       	brne	.+18     	; 0x7efa <ProcessMusic+0x214>
								tracks[channel].expressionVol=c2<<1;
    7ee8:	f8 9e       	mul	r15, r24
    7eea:	d0 01       	movw	r26, r0
    7eec:	11 24       	eor	r1, r1
    7eee:	a9 51       	subi	r26, 0x19	; 25
    7ef0:	b5 4f       	sbci	r27, 0xF5	; 245
    7ef2:	ee 0f       	add	r30, r30
    7ef4:	13 96       	adiw	r26, 0x03	; 3
    7ef6:	ec 93       	st	X, r30
    7ef8:	1c c0       	rjmp	.+56     	; 0x7f32 <ProcessMusic+0x24c>
							}else if(c1==CONTROLER_TREMOLO){
    7efa:	4c 35       	cpi	r20, 0x5C	; 92
    7efc:	49 f4       	brne	.+18     	; 0x7f10 <ProcessMusic+0x22a>
								tracks[channel].tremoloLevel=c2<<1;
    7efe:	f8 9e       	mul	r15, r24
    7f00:	d0 01       	movw	r26, r0
    7f02:	11 24       	eor	r1, r1
    7f04:	a9 51       	subi	r26, 0x19	; 25
    7f06:	b5 4f       	sbci	r27, 0xF5	; 245
    7f08:	ee 0f       	add	r30, r30
    7f0a:	1a 96       	adiw	r26, 0x0a	; 10
    7f0c:	ec 93       	st	X, r30
    7f0e:	11 c0       	rjmp	.+34     	; 0x7f32 <ProcessMusic+0x24c>
							}else if(c1==CONTROLER_TREMOLO_RATE){
    7f10:	44 36       	cpi	r20, 0x64	; 100
    7f12:	79 f4       	brne	.+30     	; 0x7f32 <ProcessMusic+0x24c>
								tracks[channel].tremoloRate=c2<<1;
    7f14:	f8 9e       	mul	r15, r24
    7f16:	d0 01       	movw	r26, r0
    7f18:	11 24       	eor	r1, r1
    7f1a:	a9 51       	subi	r26, 0x19	; 25
    7f1c:	b5 4f       	sbci	r27, 0xF5	; 245
    7f1e:	ee 0f       	add	r30, r30
    7f20:	1b 96       	adiw	r26, 0x0b	; 11
    7f22:	ec 93       	st	X, r30
    7f24:	06 c0       	rjmp	.+12     	; 0x7f32 <ProcessMusic+0x24c>
							break;

						//program change
						case 0xc0:
							// c1 = patch #						
							tracks[channel].patchNo=c1;
    7f26:	f8 9e       	mul	r15, r24
    7f28:	f0 01       	movw	r30, r0
    7f2a:	11 24       	eor	r1, r1
    7f2c:	e9 51       	subi	r30, 0x19	; 25
    7f2e:	f5 4f       	sbci	r31, 0xF5	; 245
    7f30:	40 8b       	std	Z+16, r20	; 0x10


				}//end if(c1==0xff)

				//read next delta time
				nextDeltaTime=ReadVarLen(&songPos);			
    7f32:	8c e4       	ldi	r24, 0x4C	; 76
    7f34:	9b e0       	ldi	r25, 0x0B	; 11
    7f36:	0e 94 66 3d 	call	0x7acc	; 0x7acc <ReadVarLen>
    7f3a:	90 93 4a 0b 	sts	0x0B4A, r25
    7f3e:	80 93 49 0b 	sts	0x0B49, r24
				currDeltaTime=0;
    7f42:	10 92 44 0b 	sts	0x0B44, r1
    7f46:	10 92 43 0b 	sts	0x0B43, r1
    7f4a:	3b cf       	rjmp	.-394    	; 0x7dc2 <ProcessMusic+0xdc>
					}
				#endif

			}//end while
		
			currDeltaTime++;
    7f4c:	01 96       	adiw	r24, 0x01	; 1
    7f4e:	90 93 44 0b 	sts	0x0B44, r25
    7f52:	80 93 43 0b 	sts	0x0B43, r24
    7f56:	90 ef       	ldi	r25, 0xF0	; 240
    7f58:	a9 2e       	mov	r10, r25
    7f5a:	9a e0       	ldi	r25, 0x0A	; 10
    7f5c:	b9 2e       	mov	r11, r25
    7f5e:	2a ef       	ldi	r18, 0xFA	; 250
    7f60:	c2 2e       	mov	r12, r18
    7f62:	2a e0       	ldi	r18, 0x0A	; 10
    7f64:	d2 2e       	mov	r13, r18
    7f66:	3b ef       	ldi	r19, 0xFB	; 251
    7f68:	e3 2e       	mov	r14, r19
    7f6a:	3a e0       	ldi	r19, 0x0A	; 10
    7f6c:	f3 2e       	mov	r15, r19
					tmp-=128; //convert to unsigned

					tVol=(track->tremoloLevel*tmp)+0x100;
					tVol>>=8;
					
					uVol=(uVol*(0xff-tVol))+0x100;
    7f6e:	66 24       	eor	r6, r6
    7f70:	6a 94       	dec	r6
    7f72:	71 2c       	mov	r7, r1
	//
	for(unsigned char trackNo=0;trackNo<CHANNELS;trackNo++){
		track=&tracks[trackNo];

		//process patch command stream
		if((track->flags & TRACK_FLAGS_PLAYING) && (track->patchCommandStreamPos!=NULL) && ((track->flags & TRACK_FLAGS_HOLD_ENV)==0)){
    7f74:	88 81       	ld	r24, Y
    7f76:	85 ff       	sbrs	r24, 5
    7f78:	42 c0       	rjmp	.+132    	; 0x7ffe <ProcessMusic+0x318>
    7f7a:	2d 89       	ldd	r18, Y+21	; 0x15
    7f7c:	3e 89       	ldd	r19, Y+22	; 0x16
    7f7e:	23 2b       	or	r18, r19
    7f80:	09 f4       	brne	.+2      	; 0x7f84 <ProcessMusic+0x29e>
    7f82:	3d c0       	rjmp	.+122    	; 0x7ffe <ProcessMusic+0x318>
    7f84:	86 fd       	sbrc	r24, 6
    7f86:	3b c0       	rjmp	.+118    	; 0x7ffe <ProcessMusic+0x318>
    7f88:	47 01       	movw	r8, r14
    7f8a:	f2 e0       	ldi	r31, 0x02	; 2
    7f8c:	8f 1a       	sub	r8, r31
    7f8e:	91 08       	sbc	r9, r1

			//process all simultaneous events
			while(track->patchCurrDeltaTime==track->patchNextDeltaTime){
    7f90:	d6 01       	movw	r26, r12
    7f92:	9c 91       	ld	r25, X
    7f94:	f4 01       	movw	r30, r8
    7f96:	80 81       	ld	r24, Z
    7f98:	98 13       	cpse	r25, r24
    7f9a:	2e c0       	rjmp	.+92     	; 0x7ff8 <ProcessMusic+0x312>

				c1=pgm_read_byte(track->patchCommandStreamPos++);
    7f9c:	ed 89       	ldd	r30, Y+21	; 0x15
    7f9e:	fe 89       	ldd	r31, Y+22	; 0x16
    7fa0:	bf 01       	movw	r22, r30
    7fa2:	6f 5f       	subi	r22, 0xFF	; 255
    7fa4:	7f 4f       	sbci	r23, 0xFF	; 255
    7fa6:	7e 8b       	std	Y+22, r23	; 0x16
    7fa8:	6d 8b       	std	Y+21, r22	; 0x15
    7faa:	84 91       	lpm	r24, Z
				if(c1==PATCH_END){
    7fac:	8f 3f       	cpi	r24, 0xFF	; 255
    7fae:	31 f4       	brne	.+12     	; 0x7fbc <ProcessMusic+0x2d6>
					//end of stream!
					track->flags&=(~TRACK_FLAGS_PRIORITY);// priority=0;
    7fb0:	88 81       	ld	r24, Y
    7fb2:	8f 77       	andi	r24, 0x7F	; 127
    7fb4:	88 83       	st	Y, r24
					track->patchCommandStreamPos=NULL;
    7fb6:	1e 8a       	std	Y+22, r1	; 0x16
    7fb8:	1d 8a       	std	Y+21, r1	; 0x15
					break;
    7fba:	1e c0       	rjmp	.+60     	; 0x7ff8 <ProcessMusic+0x312>

				}else{
					c2=pgm_read_byte(track->patchCommandStreamPos++);
    7fbc:	9f 01       	movw	r18, r30
    7fbe:	2e 5f       	subi	r18, 0xFE	; 254
    7fc0:	3f 4f       	sbci	r19, 0xFF	; 255
    7fc2:	3e 8b       	std	Y+22, r19	; 0x16
    7fc4:	2d 8b       	std	Y+21, r18	; 0x15
    7fc6:	fb 01       	movw	r30, r22
    7fc8:	64 91       	lpm	r22, Z
					//invoke patch command function
					((PatchCommand)pgm_read_word(&patchCommands[c1]))(track,c2);
    7fca:	e8 2f       	mov	r30, r24
    7fcc:	f0 e0       	ldi	r31, 0x00	; 0
    7fce:	ee 0f       	add	r30, r30
    7fd0:	ff 1f       	adc	r31, r31
    7fd2:	e2 54       	subi	r30, 0x42	; 66
    7fd4:	ff 4f       	sbci	r31, 0xFF	; 255
    7fd6:	25 91       	lpm	r18, Z+
    7fd8:	34 91       	lpm	r19, Z
    7fda:	ce 01       	movw	r24, r28
    7fdc:	f9 01       	movw	r30, r18
    7fde:	09 95       	icall
				}

				//read next delta time
				track->patchNextDeltaTime=pgm_read_byte(track->patchCommandStreamPos++);
    7fe0:	ed 89       	ldd	r30, Y+21	; 0x15
    7fe2:	fe 89       	ldd	r31, Y+22	; 0x16
    7fe4:	cf 01       	movw	r24, r30
    7fe6:	01 96       	adiw	r24, 0x01	; 1
    7fe8:	9e 8b       	std	Y+22, r25	; 0x16
    7fea:	8d 8b       	std	Y+21, r24	; 0x15
    7fec:	e4 91       	lpm	r30, Z
    7fee:	d4 01       	movw	r26, r8
    7ff0:	ec 93       	st	X, r30
				track->patchCurrDeltaTime=0;
    7ff2:	f6 01       	movw	r30, r12
    7ff4:	10 82       	st	Z, r1
    7ff6:	cc cf       	rjmp	.-104    	; 0x7f90 <ProcessMusic+0x2aa>
			}

			track->patchCurrDeltaTime++;
    7ff8:	9f 5f       	subi	r25, 0xFF	; 255
    7ffa:	d6 01       	movw	r26, r12
    7ffc:	9c 93       	st	X, r25
		}

		if(track->flags & TRACK_FLAGS_PLAYING){
    7ffe:	98 81       	ld	r25, Y
    8000:	95 ff       	sbrs	r25, 5
    8002:	6c c0       	rjmp	.+216    	; 0x80dc <ProcessMusic+0x3f6>

			if(track->patchPlayingTime<0xff){
    8004:	f7 01       	movw	r30, r14
    8006:	80 81       	ld	r24, Z
    8008:	8f 3f       	cpi	r24, 0xFF	; 255
    800a:	11 f0       	breq	.+4      	; 0x8010 <ProcessMusic+0x32a>
				track->patchPlayingTime++;
    800c:	8f 5f       	subi	r24, 0xFF	; 255
    800e:	80 83       	st	Z, r24
			}

			//compute final frame volume
			if(track->flags&TRACK_FLAGS_PRIORITY){
    8010:	97 fd       	sbrc	r25, 7
    8012:	04 c0       	rjmp	.+8      	; 0x801c <ProcessMusic+0x336>
    8014:	f7 01       	movw	r30, r14
    8016:	38 97       	sbiw	r30, 0x08	; 8
				//if an FX, use full track volume.
				trackVol=0xff;
			}else{
				//if regular note, apply MIDI track volume
				trackVol= track->trackVol;
    8018:	90 81       	ld	r25, Z
    801a:	01 c0       	rjmp	.+2      	; 0x801e <ProcessMusic+0x338>
			}

			//compute final frame volume
			if(track->flags&TRACK_FLAGS_PRIORITY){
				//if an FX, use full track volume.
				trackVol=0xff;
    801c:	9f ef       	ldi	r25, 0xFF	; 255
    801e:	f7 01       	movw	r30, r14
    8020:	37 97       	sbiw	r30, 0x07	; 7
			}else{
				//if regular note, apply MIDI track volume
				trackVol= track->trackVol;
			}
			if(track->noteVol!=0 && track->envelopeVol!=0 && trackVol!=0 && masterVolume!=0){
    8022:	80 81       	ld	r24, Z
    8024:	88 23       	and	r24, r24
    8026:	09 f4       	brne	.+2      	; 0x802a <ProcessMusic+0x344>
    8028:	4e c0       	rjmp	.+156    	; 0x80c6 <ProcessMusic+0x3e0>
    802a:	31 96       	adiw	r30, 0x01	; 1
    802c:	50 81       	ld	r21, Z
    802e:	55 23       	and	r21, r21
    8030:	09 f4       	brne	.+2      	; 0x8034 <ProcessMusic+0x34e>
    8032:	49 c0       	rjmp	.+146    	; 0x80c6 <ProcessMusic+0x3e0>
    8034:	99 23       	and	r25, r25
    8036:	09 f4       	brne	.+2      	; 0x803a <ProcessMusic+0x354>
    8038:	46 c0       	rjmp	.+140    	; 0x80c6 <ProcessMusic+0x3e0>
    803a:	40 91 48 0b 	lds	r20, 0x0B48
    803e:	44 23       	and	r20, r20
    8040:	09 f4       	brne	.+2      	; 0x8044 <ProcessMusic+0x35e>
    8042:	41 c0       	rjmp	.+130    	; 0x80c6 <ProcessMusic+0x3e0>

				uVol=(track->noteVol*trackVol)+0x100;
    8044:	89 9f       	mul	r24, r25
    8046:	c0 01       	movw	r24, r0
    8048:	11 24       	eor	r1, r1
    804a:	93 95       	inc	r25
				uVol>>=8;
    804c:	89 2f       	mov	r24, r25
    804e:	99 27       	eor	r25, r25
				
				uVol=(uVol*track->envelopeVol)+0x100;
    8050:	58 9f       	mul	r21, r24
    8052:	90 01       	movw	r18, r0
    8054:	59 9f       	mul	r21, r25
    8056:	30 0d       	add	r19, r0
    8058:	11 24       	eor	r1, r1
    805a:	c9 01       	movw	r24, r18
    805c:	93 95       	inc	r25
				uVol>>=8;
    805e:	89 2f       	mov	r24, r25
    8060:	99 27       	eor	r25, r25
    8062:	3b 97       	sbiw	r30, 0x0b	; 11
				
				#if MUSIC_ENGINE == MIDI
					uVol=(uVol*track->expressionVol)+0x100;
    8064:	50 81       	ld	r21, Z
    8066:	58 9f       	mul	r21, r24
    8068:	90 01       	movw	r18, r0
    806a:	59 9f       	mul	r21, r25
    806c:	30 0d       	add	r19, r0
    806e:	11 24       	eor	r1, r1
    8070:	33 95       	inc	r19
					uVol>>=8;
    8072:	23 2f       	mov	r18, r19
    8074:	33 27       	eor	r19, r19
				#endif
				
				uVol=(uVol*masterVolume)+0x100;
    8076:	42 9f       	mul	r20, r18
    8078:	c0 01       	movw	r24, r0
    807a:	43 9f       	mul	r20, r19
    807c:	90 0d       	add	r25, r0
    807e:	11 24       	eor	r1, r1
    8080:	93 95       	inc	r25
				uVol>>=8;
    8082:	89 2f       	mov	r24, r25
    8084:	99 27       	eor	r25, r25
    8086:	37 96       	adiw	r30, 0x07	; 7

				if(track->tremoloLevel>0){					
    8088:	20 81       	ld	r18, Z
    808a:	22 23       	and	r18, r18
    808c:	f1 f0       	breq	.+60     	; 0x80ca <ProcessMusic+0x3e4>
					tmp=pgm_read_byte(&(waves[track->tremoloPos]));
    808e:	d5 01       	movw	r26, r10
    8090:	ec 91       	ld	r30, X
    8092:	f0 e0       	ldi	r31, 0x00	; 0
    8094:	e0 50       	subi	r30, 0x00	; 0
    8096:	fc 47       	sbci	r31, 0x7C	; 124
    8098:	e4 91       	lpm	r30, Z
					tmp-=128; //convert to unsigned
    809a:	e0 58       	subi	r30, 0x80	; 128

					tVol=(track->tremoloLevel*tmp)+0x100;
    809c:	2e 9f       	mul	r18, r30
    809e:	f0 01       	movw	r30, r0
    80a0:	11 24       	eor	r1, r1
    80a2:	f3 95       	inc	r31
					tVol>>=8;
    80a4:	ef 2f       	mov	r30, r31
    80a6:	ff 27       	eor	r31, r31
					
					uVol=(uVol*(0xff-tVol))+0x100;
    80a8:	a3 01       	movw	r20, r6
    80aa:	4e 1b       	sub	r20, r30
    80ac:	5f 0b       	sbc	r21, r31
    80ae:	48 9f       	mul	r20, r24
    80b0:	90 01       	movw	r18, r0
    80b2:	49 9f       	mul	r20, r25
    80b4:	30 0d       	add	r19, r0
    80b6:	58 9f       	mul	r21, r24
    80b8:	30 0d       	add	r19, r0
    80ba:	11 24       	eor	r1, r1
    80bc:	c9 01       	movw	r24, r18
    80be:	93 95       	inc	r25
					uVol>>=8;
    80c0:	89 2f       	mov	r24, r25
    80c2:	99 27       	eor	r25, r25
    80c4:	02 c0       	rjmp	.+4      	; 0x80ca <ProcessMusic+0x3e4>
				}

			
			}else{
				uVol=0;
    80c6:	80 e0       	ldi	r24, 0x00	; 0
    80c8:	90 e0       	ldi	r25, 0x00	; 0
			}	

			track->tremoloPos+=track->tremoloRate;	
    80ca:	f5 01       	movw	r30, r10
    80cc:	30 81       	ld	r19, Z
    80ce:	f7 01       	movw	r30, r14
    80d0:	39 97       	sbiw	r30, 0x09	; 9
    80d2:	20 81       	ld	r18, Z
    80d4:	23 0f       	add	r18, r19
    80d6:	d5 01       	movw	r26, r10
    80d8:	2c 93       	st	X, r18
    80da:	02 c0       	rjmp	.+4      	; 0x80e0 <ProcessMusic+0x3fa>

		}else{
			uVol=0;
    80dc:	80 e0       	ldi	r24, 0x00	; 0
    80de:	90 e0       	ldi	r25, 0x00	; 0
		}
		
		mixer.channels.all[trackNo].volume=(uVol&0xff);
    80e0:	f8 01       	movw	r30, r16
    80e2:	80 83       	st	Z, r24
    80e4:	67 96       	adiw	r28, 0x17	; 23
    80e6:	0a 5f       	subi	r16, 0xFA	; 250
    80e8:	1f 4f       	sbci	r17, 0xFF	; 255
    80ea:	f7 e1       	ldi	r31, 0x17	; 23
    80ec:	af 0e       	add	r10, r31
    80ee:	b1 1c       	adc	r11, r1
    80f0:	87 e1       	ldi	r24, 0x17	; 23
    80f2:	c8 0e       	add	r12, r24
    80f4:	d1 1c       	adc	r13, r1
    80f6:	97 e1       	ldi	r25, 0x17	; 23
    80f8:	e9 0e       	add	r14, r25
    80fa:	f1 1c       	adc	r15, r1


	//
	// Process patches command streams & final volume
	//
	for(unsigned char trackNo=0;trackNo<CHANNELS;trackNo++){
    80fc:	ab e0       	ldi	r26, 0x0B	; 11
    80fe:	c3 34       	cpi	r28, 0x43	; 67
    8100:	da 07       	cpc	r29, r26
    8102:	09 f0       	breq	.+2      	; 0x8106 <ProcessMusic+0x420>
    8104:	37 cf       	rjmp	.-402    	; 0x7f74 <ProcessMusic+0x28e>
		}
		
		mixer.channels.all[trackNo].volume=(uVol&0xff);
	}
	
}
    8106:	df 91       	pop	r29
    8108:	cf 91       	pop	r28
    810a:	1f 91       	pop	r17
    810c:	0f 91       	pop	r16
    810e:	ff 90       	pop	r15
    8110:	ef 90       	pop	r14
    8112:	df 90       	pop	r13
    8114:	cf 90       	pop	r12
    8116:	bf 90       	pop	r11
    8118:	af 90       	pop	r10
    811a:	9f 90       	pop	r9
    811c:	8f 90       	pop	r8
    811e:	7f 90       	pop	r7
    8120:	6f 90       	pop	r6
    8122:	08 95       	ret

00008124 <SetMasterVolume>:
}



void SetMasterVolume(unsigned char vol){
	masterVolume=vol;
    8124:	80 93 48 0b 	sts	0x0B48, r24
    8128:	08 95       	ret

0000812a <SetMixerNote>:
; r22: -MIDI note, 69=A5(440) for waves channels (0,1,2)
;      -Noise params for channel 3
;***********************
.section .text.SetMixerNote
SetMixerNote:
	clr r25
    812a:	99 27       	eor	r25, r25
	clr r23
    812c:	77 27       	eor	r23, r23
	#if SOUND_MIXER == MIXER_TYPE_VSYNC
		cpi r24,3
		brlo set_note_waves
		ret		
	#else
		cpi r24,3
    812e:	83 30       	cpi	r24, 0x03	; 3
		brne set_note_waves		
    8130:	09 f4       	brne	.+2      	; 0x8134 <set_note_waves>
		ret
    8132:	08 95       	ret

00008134 <set_note_waves>:
	#endif
#endif

set_note_waves:
	;get step for note
	ldi ZL,lo8(steptable)
    8134:	e8 e0       	ldi	r30, 0x08	; 8
	ldi ZH,hi8(steptable)
    8136:	f2 e8       	ldi	r31, 0x82	; 130
	lsl r22
    8138:	66 0f       	add	r22, r22
	rol r23
    813a:	77 1f       	adc	r23, r23
	add ZL,r22
    813c:	e6 0f       	add	r30, r22
	adc ZH,r23	
    813e:	f7 1f       	adc	r31, r23

	lpm r26,Z+
    8140:	a5 91       	lpm	r26, Z+
	lpm r27,Z
    8142:	b4 91       	lpm	r27, Z

	ldi ZL,lo8(mixerStruct)
    8144:	e4 e4       	ldi	r30, 0x44	; 68
	ldi ZH,hi8(mixerStruct)
    8146:	fa e0       	ldi	r31, 0x0A	; 10
	ldi r18,CHANNEL_STRUCT_SIZE
    8148:	26 e0       	ldi	r18, 0x06	; 6
	mul r18,r24
    814a:	28 9f       	mul	r18, r24
	add ZL,r0
    814c:	e0 0d       	add	r30, r0
	adc ZH,r1
    814e:	f1 1d       	adc	r31, r1
	
	std Z+step_lo,r26
    8150:	a1 83       	std	Z+1, r26	; 0x01
	std Z+step_hi,r27
    8152:	b2 83       	std	Z+2, r27	; 0x02
	
	clr r1
    8154:	11 24       	eor	r1, r1
	

	ret
    8156:	08 95       	ret

00008158 <SetMixerWave>:
;         Noise channel: 0xfe=7 bit lfsr, 0xff=15 bit lfsr
;                 
;***********************
.section .text.SetMixerWave
SetMixerWave:
	clr r25
    8158:	99 27       	eor	r25, r25
	clr r23
    815a:	77 27       	eor	r23, r23

	ldi ZL,lo8(mixerStruct)
    815c:	e4 e4       	ldi	r30, 0x44	; 68
	ldi ZH,hi8(mixerStruct)
    815e:	fa e0       	ldi	r31, 0x0A	; 10
	ldi r18,CHANNEL_STRUCT_SIZE
    8160:	26 e0       	ldi	r18, 0x06	; 6
	mul r18,r24	
    8162:	28 9f       	mul	r18, r24
	add ZL,r0
    8164:	e0 0d       	add	r30, r0
	adc ZH,r1
    8166:	f1 1d       	adc	r31, r1

#if MIXER_CHAN4_TYPE == 0
	cpi r22,0xfe	;7bit lfsr
    8168:	6e 3f       	cpi	r22, 0xFE	; 254
	brne smw1
    816a:	31 f4       	brne	.+12     	; 0x8178 <smw1>
	lds r22,tr4_params
    816c:	60 91 57 0a 	lds	r22, 0x0A57
	andi r22,0xfe;
    8170:	6e 7f       	andi	r22, 0xFE	; 254
	sts tr4_params,r22
    8172:	60 93 57 0a 	sts	0x0A57, r22
	rjmp esmw	
    8176:	0b c0       	rjmp	.+22     	; 0x818e <esmw>

00008178 <smw1>:
smw1:
	cpi r22,0xff	;15bit lfsr
    8178:	6f 3f       	cpi	r22, 0xFF	; 255
	brne smw2
    817a:	31 f4       	brne	.+12     	; 0x8188 <smw2>
	lds r22,tr4_params
    817c:	60 91 57 0a 	lds	r22, 0x0A57
	ori r22,0xfe;
    8180:	6e 6f       	ori	r22, 0xFE	; 254
	sts tr4_params,r22	
    8182:	60 93 57 0a 	sts	0x0A57, r22
	rjmp esmw
    8186:	03 c0       	rjmp	.+6      	; 0x818e <esmw>

00008188 <smw2>:
smw2:
#endif

	ldi r23,hi8(waves)
    8188:	74 e8       	ldi	r23, 0x84	; 132
	add r23,r22
    818a:	76 0f       	add	r23, r22
	std Z+samplepos_hi,r23 ;store path No
    818c:	75 83       	std	Z+5, r23	; 0x05

0000818e <esmw>:

esmw:
	clr r1	
    818e:	11 24       	eor	r1, r1
	ret
    8190:	08 95       	ret
	...

00008200 <DisableSoundEngine>:
; no CPU cycles are consumed.
; C-callable
;*****************************
.section .text.DisableSoundEngine
DisableSoundEngine:	
	ldi r24,0
    8200:	80 e0       	ldi	r24, 0x00	; 0
	sts sound_enabled,r24
    8202:	80 93 43 0a 	sts	0x0A43, r24
	ret
    8206:	08 95       	ret

00008208 <steptable>:
    8208:	22 00       	.word	0x0022	; ????
    820a:	24 00       	.word	0x0024	; ????
    820c:	26 00       	.word	0x0026	; ????
    820e:	28 00       	.word	0x0028	; ????
    8210:	2b 00       	.word	0x002b	; ????
    8212:	2d 00       	.word	0x002d	; ????
    8214:	30 00       	.word	0x0030	; ????
    8216:	33 00       	.word	0x0033	; ????
    8218:	36 00       	.word	0x0036	; ????
    821a:	39 00       	.word	0x0039	; ????
    821c:	3d 00       	.word	0x003d	; ????
    821e:	40 00       	.word	0x0040	; ????
    8220:	44 00       	.word	0x0044	; ????
    8222:	48 00       	.word	0x0048	; ????
    8224:	4c 00       	.word	0x004c	; ????
    8226:	51 00       	.word	0x0051	; ????
    8228:	56 00       	.word	0x0056	; ????
    822a:	5b 00       	.word	0x005b	; ????
    822c:	60 00       	.word	0x0060	; ????
    822e:	66 00       	.word	0x0066	; ????
    8230:	6c 00       	.word	0x006c	; ????
    8232:	73 00       	.word	0x0073	; ????
    8234:	79 00       	.word	0x0079	; ????
    8236:	81 00       	.word	0x0081	; ????
    8238:	88 00       	.word	0x0088	; ????
    823a:	90 00       	.word	0x0090	; ????
    823c:	99 00       	.word	0x0099	; ????
    823e:	a2 00       	.word	0x00a2	; ????
    8240:	ac 00       	.word	0x00ac	; ????
    8242:	b6 00       	.word	0x00b6	; ????
    8244:	c1 00       	.word	0x00c1	; ????
    8246:	cc 00       	.word	0x00cc	; ????
    8248:	d8 00       	.word	0x00d8	; ????
    824a:	e5 00       	.word	0x00e5	; ????
    824c:	f3 00       	.word	0x00f3	; ????
    824e:	01 01       	movw	r0, r2
    8250:	10 01       	movw	r2, r0
    8252:	21 01       	movw	r4, r2
    8254:	32 01       	movw	r6, r4
    8256:	44 01       	movw	r8, r8
    8258:	57 01       	movw	r10, r14
    825a:	6c 01       	movw	r12, r24
    825c:	81 01       	movw	r16, r2
    825e:	98 01       	movw	r18, r16
    8260:	b0 01       	movw	r22, r0
    8262:	ca 01       	movw	r24, r20
    8264:	e5 01       	movw	r28, r10
    8266:	02 02       	muls	r16, r18
    8268:	21 02       	muls	r18, r17
    826a:	41 02       	muls	r20, r17
    826c:	64 02       	muls	r22, r20
    826e:	88 02       	muls	r24, r24
    8270:	ae 02       	muls	r26, r30
    8272:	d7 02       	muls	r29, r23
    8274:	03 03       	mulsu	r16, r19
    8276:	30 03       	mulsu	r19, r16
    8278:	61 03       	mulsu	r22, r17
    827a:	94 03       	fmuls	r17, r20
    827c:	cb 03       	fmulsu	r20, r19
    827e:	05 04       	cpc	r0, r5
    8280:	42 04       	cpc	r4, r2
    8282:	83 04       	cpc	r8, r3
    8284:	c7 04       	cpc	r12, r7
    8286:	10 05       	cpc	r17, r0
    8288:	5d 05       	cpc	r21, r13
    828a:	af 05       	cpc	r26, r15
    828c:	05 06       	cpc	r0, r21
    828e:	61 06       	cpc	r6, r17
    8290:	c2 06       	cpc	r12, r18
    8292:	29 07       	cpc	r18, r25
    8294:	96 07       	cpc	r25, r22
    8296:	09 08       	sbc	r0, r9
    8298:	83 08       	sbc	r8, r3
    829a:	05 09       	sbc	r16, r5
    829c:	8e 09       	sbc	r24, r14
    829e:	20 0a       	sbc	r2, r16
    82a0:	ba 0a       	sbc	r11, r26
    82a2:	5d 0b       	sbc	r21, r29
    82a4:	0a 0c       	add	r0, r10
    82a6:	c1 0c       	add	r12, r1
    82a8:	84 0d       	add	r24, r4
    82aa:	51 0e       	add	r5, r17
    82ac:	2b 0f       	add	r18, r27
    82ae:	12 10       	cpse	r1, r2
    82b0:	07 11       	cpse	r16, r7
    82b2:	0a 12       	cpse	r0, r26
    82b4:	1d 13       	cpse	r17, r29
    82b6:	40 14       	cp	r4, r0
    82b8:	74 15       	cp	r23, r4
    82ba:	ba 16       	cp	r11, r26
    82bc:	14 18       	sub	r1, r4
    82be:	83 19       	sub	r24, r3
    82c0:	07 1b       	sub	r16, r23
    82c2:	a3 1c       	adc	r10, r3
    82c4:	57 1e       	adc	r5, r23
    82c6:	24 20       	and	r2, r4
    82c8:	0e 22       	and	r0, r30
    82ca:	14 24       	eor	r1, r4
    82cc:	39 26       	eor	r3, r25
    82ce:	7f 28       	or	r7, r15
    82d0:	e8 2a       	or	r14, r24
    82d2:	75 2d       	mov	r23, r5
    82d4:	29 30       	cpi	r18, 0x09	; 9
    82d6:	06 33       	cpi	r16, 0x36	; 54
    82d8:	0f 36       	cpi	r16, 0x6F	; 111
    82da:	45 39       	cpi	r20, 0x95	; 149
    82dc:	ad 3c       	cpi	r26, 0xCD	; 205
    82de:	49 40       	sbci	r20, 0x09	; 9
    82e0:	1b 44       	sbci	r17, 0x4B	; 75
    82e2:	28 48       	sbci	r18, 0x88	; 136
    82e4:	73 4c       	sbci	r23, 0xC3	; 195
    82e6:	fe 50       	subi	r31, 0x0E	; 14
    82e8:	cf 55       	subi	r28, 0x5F	; 95
    82ea:	ea 5a       	subi	r30, 0xAA	; 170
    82ec:	51 60       	ori	r21, 0x01	; 1
    82ee:	0c 66       	ori	r16, 0x6C	; 108
    82f0:	1d 6c       	ori	r17, 0xCD	; 205
    82f2:	8b 72       	andi	r24, 0x2B	; 43
    82f4:	5a 79       	andi	r21, 0x9A	; 154
    82f6:	92 80       	ldd	r9, Z+2	; 0x02
    82f8:	37 88       	ldd	r3, Z+23	; 0x17
    82fa:	50 90 e5 98 	lds	r5, 0x98E5
    82fe:	fd a1       	ldd	r31, Y+37	; 0x25
    8300:	9f ab       	std	Y+55, r25	; 0x37
    8302:	d3 b5       	in	r29, 0x23	; 35
    8304:	a3 c0       	rjmp	.+326    	; 0x844c <waves+0x4c>
	...

00008400 <waves>:
    8400:	00 03       	mulsu	r16, r16
    8402:	06 09       	sbc	r16, r6
    8404:	0c 10       	cpse	r0, r12
    8406:	13 16       	cp	r1, r19
    8408:	19 1c       	adc	r1, r9
    840a:	1f 22       	and	r1, r31
    840c:	25 28       	or	r2, r5
    840e:	2b 2e       	mov	r2, r27
    8410:	31 33       	cpi	r19, 0x31	; 49
    8412:	36 39       	cpi	r19, 0x96	; 150
    8414:	3c 3f       	cpi	r19, 0xFC	; 252
    8416:	41 44       	sbci	r20, 0x41	; 65
    8418:	47 49       	sbci	r20, 0x97	; 151
    841a:	4c 4e       	sbci	r20, 0xEC	; 236
    841c:	51 53       	subi	r21, 0x31	; 49
    841e:	55 58       	subi	r21, 0x85	; 133
    8420:	5a 5c       	subi	r21, 0xCA	; 202
    8422:	5e 60       	ori	r21, 0x0E	; 14
    8424:	62 64       	ori	r22, 0x42	; 66
    8426:	66 68       	ori	r22, 0x86	; 134
    8428:	6a 6b       	ori	r22, 0xBA	; 186
    842a:	6d 6f       	ori	r22, 0xFD	; 253
    842c:	70 71       	andi	r23, 0x10	; 16
    842e:	73 74       	andi	r23, 0x43	; 67
    8430:	75 76       	andi	r23, 0x65	; 101
    8432:	78 79       	andi	r23, 0x98	; 152
    8434:	7a 7a       	andi	r23, 0xAA	; 170
    8436:	7b 7c       	andi	r23, 0xCB	; 203
    8438:	7d 7d       	andi	r23, 0xDD	; 221
    843a:	7e 7e       	andi	r23, 0xEE	; 238
    843c:	7e 7f       	andi	r23, 0xFE	; 254
    843e:	7f 7f       	andi	r23, 0xFF	; 255
    8440:	7f 7f       	andi	r23, 0xFF	; 255
    8442:	7f 7f       	andi	r23, 0xFF	; 255
    8444:	7e 7e       	andi	r23, 0xEE	; 238
    8446:	7e 7d       	andi	r23, 0xDE	; 222
    8448:	7d 7c       	andi	r23, 0xCD	; 205
    844a:	7b 7a       	andi	r23, 0xAB	; 171
    844c:	7a 79       	andi	r23, 0x9A	; 154
    844e:	78 76       	andi	r23, 0x68	; 104
    8450:	75 74       	andi	r23, 0x45	; 69
    8452:	73 71       	andi	r23, 0x13	; 19
    8454:	70 6f       	ori	r23, 0xF0	; 240
    8456:	6d 6b       	ori	r22, 0xBD	; 189
    8458:	6a 68       	ori	r22, 0x8A	; 138
    845a:	66 64       	ori	r22, 0x46	; 70
    845c:	62 60       	ori	r22, 0x02	; 2
    845e:	5e 5c       	subi	r21, 0xCE	; 206
    8460:	5a 58       	subi	r21, 0x8A	; 138
    8462:	55 53       	subi	r21, 0x35	; 53
    8464:	51 4e       	sbci	r21, 0xE1	; 225
    8466:	4c 49       	sbci	r20, 0x9C	; 156
    8468:	47 44       	sbci	r20, 0x47	; 71
    846a:	41 3f       	cpi	r20, 0xF1	; 241
    846c:	3c 39       	cpi	r19, 0x9C	; 156
    846e:	36 33       	cpi	r19, 0x36	; 54
    8470:	31 2e       	mov	r3, r17
    8472:	2b 28       	or	r2, r11
    8474:	25 22       	and	r2, r21
    8476:	1f 1c       	adc	r1, r15
    8478:	19 16       	cp	r1, r25
    847a:	13 10       	cpse	r1, r3
    847c:	0c 09       	sbc	r16, r12
    847e:	06 03       	mulsu	r16, r22
    8480:	00 fd       	sbrc	r16, 0
    8482:	fa f7       	brpl	.-2      	; 0x8482 <waves+0x82>
    8484:	f4 f0       	brlt	.+60     	; 0x84c2 <waves+0xc2>
    8486:	ed ea       	ldi	r30, 0xAD	; 173
    8488:	e7 e4       	ldi	r30, 0x47	; 71
    848a:	e1 de       	rcall	.-574    	; 0x824e <steptable+0x46>
    848c:	db d8       	rcall	.-3658   	; 0x7644 <ReadControllers+0x16>
    848e:	d5 d2       	rcall	.+1450   	; 0x8a3a <waves+0x63a>
    8490:	cf cd       	rjmp	.-1122   	; 0x8030 <ProcessMusic+0x34a>
    8492:	ca c7       	rjmp	.+3988   	; 0x9428 <wifiGetPBT+0xa>
    8494:	c4 c1       	rjmp	.+904    	; 0x881e <waves+0x41e>
    8496:	bf bc       	out	0x2f, r11	; 47
    8498:	b9 b7       	in	r27, 0x39	; 57
    849a:	b4 b2       	in	r11, 0x14	; 20
    849c:	af ad       	ldd	r26, Y+63	; 0x3f
    849e:	ab a8       	ldd	r10, Y+51	; 0x33
    84a0:	a6 a4       	ldd	r10, Z+46	; 0x2e
    84a2:	a2 a0       	ldd	r10, Z+34	; 0x22
    84a4:	9e 9c       	mul	r9, r14
    84a6:	9a 98       	cbi	0x13, 2	; 19
    84a8:	96 95       	lsr	r25
    84aa:	93 91       	.word	0x9193	; ????
    84ac:	90 8f       	std	Z+24, r25	; 0x18
    84ae:	8d 8c       	ldd	r8, Y+29	; 0x1d
    84b0:	8b 8a       	std	Y+19, r8	; 0x13
    84b2:	88 87       	std	Y+8, r24	; 0x08
    84b4:	86 86       	std	Z+14, r8	; 0x0e
    84b6:	85 84       	ldd	r8, Z+13	; 0x0d
    84b8:	83 83       	std	Z+3, r24	; 0x03
    84ba:	82 82       	std	Z+2, r8	; 0x02
    84bc:	82 81       	ldd	r24, Z+2	; 0x02
    84be:	81 81       	ldd	r24, Z+1	; 0x01
    84c0:	81 81       	ldd	r24, Z+1	; 0x01
    84c2:	81 81       	ldd	r24, Z+1	; 0x01
    84c4:	82 82       	std	Z+2, r8	; 0x02
    84c6:	82 83       	std	Z+2, r24	; 0x02
    84c8:	83 84       	ldd	r8, Z+11	; 0x0b
    84ca:	85 86       	std	Z+13, r8	; 0x0d
    84cc:	86 87       	std	Z+14, r24	; 0x0e
    84ce:	88 8a       	std	Y+16, r8	; 0x10
    84d0:	8b 8c       	ldd	r8, Y+27	; 0x1b
    84d2:	8d 8f       	std	Y+29, r24	; 0x1d
    84d4:	90 91 93 95 	lds	r25, 0x9593
    84d8:	96 98       	cbi	0x12, 6	; 18
    84da:	9a 9c       	mul	r9, r10
    84dc:	9e a0       	ldd	r9, Y+38	; 0x26
    84de:	a2 a4       	ldd	r10, Z+42	; 0x2a
    84e0:	a6 a8       	ldd	r10, Z+54	; 0x36
    84e2:	ab ad       	ldd	r26, Y+59	; 0x3b
    84e4:	af b2       	in	r10, 0x1f	; 31
    84e6:	b4 b7       	in	r27, 0x34	; 52
    84e8:	b9 bc       	out	0x29, r11	; 41
    84ea:	bf c1       	rjmp	.+894    	; 0x886a <waves+0x46a>
    84ec:	c4 c7       	rjmp	.+3976   	; 0x9476 <wifiGetPBT+0x58>
    84ee:	ca cd       	rjmp	.-1132   	; 0x8084 <ProcessMusic+0x39e>
    84f0:	cf d2       	rcall	.+1438   	; 0x8a90 <waves+0x690>
    84f2:	d5 d8       	rcall	.-3670   	; 0x769e <isEepromFormatted+0xc>
    84f4:	db de       	rcall	.-586    	; 0x82ac <steptable+0xa4>
    84f6:	e1 e4       	ldi	r30, 0x41	; 65
    84f8:	e7 ea       	ldi	r30, 0xA7	; 167
    84fa:	ed f0       	brhs	.+58     	; 0x8536 <waves+0x136>
    84fc:	f4 f7       	brge	.-4      	; 0x84fa <waves+0xfa>
    84fe:	fa fd       	.word	0xfdfa	; ????
    8500:	80 81       	ld	r24, Z
    8502:	82 83       	std	Z+2, r24	; 0x02
    8504:	84 85       	ldd	r24, Z+12	; 0x0c
    8506:	86 87       	std	Z+14, r24	; 0x0e
    8508:	88 89       	ldd	r24, Y+16	; 0x10
    850a:	8a 8b       	std	Y+18, r24	; 0x12
    850c:	8c 8d       	ldd	r24, Y+28	; 0x1c
    850e:	8e 8f       	std	Y+30, r24	; 0x1e
    8510:	90 91 92 93 	lds	r25, 0x9392
    8514:	94 95       	.word	0x9594	; ????
    8516:	96 97       	sbiw	r26, 0x26	; 38
    8518:	98 99       	sbic	0x13, 0	; 19
    851a:	9a 9b       	sbis	0x13, 2	; 19
    851c:	9c 9d       	mul	r25, r12
    851e:	9e 9f       	mul	r25, r30
    8520:	a0 a1       	ldd	r26, Z+32	; 0x20
    8522:	a2 a3       	std	Z+34, r26	; 0x22
    8524:	a4 a5       	ldd	r26, Z+44	; 0x2c
    8526:	a6 a7       	std	Z+46, r26	; 0x2e
    8528:	a8 a9       	ldd	r26, Y+48	; 0x30
    852a:	aa ab       	std	Y+50, r26	; 0x32
    852c:	ac ad       	ldd	r26, Y+60	; 0x3c
    852e:	ae af       	std	Y+62, r26	; 0x3e
    8530:	b0 b1       	in	r27, 0x00	; 0
    8532:	b2 b3       	in	r27, 0x12	; 18
    8534:	b4 b5       	in	r27, 0x24	; 36
    8536:	b6 b7       	in	r27, 0x36	; 54
    8538:	b8 b9       	out	0x08, r27	; 8
    853a:	ba bb       	out	0x1a, r27	; 26
    853c:	bc bd       	out	0x2c, r27	; 44
    853e:	be bf       	out	0x3e, r27	; 62
    8540:	c0 c1       	rjmp	.+896    	; 0x88c2 <waves+0x4c2>
    8542:	c2 c3       	rjmp	.+1924   	; 0x8cc8 <waves+0x8c8>
    8544:	c4 c5       	rjmp	.+2952   	; 0x90ce <InitializeVideoMode+0x12>
    8546:	c6 c7       	rjmp	.+3980   	; 0x94d4 <wifiRequest+0x1e>
    8548:	c8 c9       	rjmp	.-3184   	; 0x78da <GetPrngNumber+0x6>
    854a:	ca cb       	rjmp	.-2156   	; 0x7ce0 <TriggerNote+0x7a>
    854c:	cc cd       	rjmp	.-1128   	; 0x80e6 <ProcessMusic+0x400>
    854e:	ce cf       	rjmp	.-100    	; 0x84ec <waves+0xec>
    8550:	d0 d1       	rcall	.+928    	; 0x88f2 <waves+0x4f2>
    8552:	d2 d3       	rcall	.+1956   	; 0x8cf8 <waves+0x8f8>
    8554:	d4 d5       	rcall	.+2984   	; 0x90fe <DrawMap+0x26>
    8556:	d6 d7       	rcall	.+4012   	; 0x9504 <wifiRequestPT+0x2a>
    8558:	d8 d9       	rcall	.-3152   	; 0x790a <GetPrngNumber+0x36>
    855a:	da db       	rcall	.-2124   	; 0x7d10 <ProcessMusic+0x2a>
    855c:	dc dd       	rcall	.-1096   	; 0x8116 <ProcessMusic+0x430>
    855e:	de df       	rcall	.-68     	; 0x851c <waves+0x11c>
    8560:	e0 e1       	ldi	r30, 0x10	; 16
    8562:	e2 e3       	ldi	r30, 0x32	; 50
    8564:	e4 e5       	ldi	r30, 0x54	; 84
    8566:	e6 e7       	ldi	r30, 0x76	; 118
    8568:	e8 e9       	ldi	r30, 0x98	; 152
    856a:	ea eb       	ldi	r30, 0xBA	; 186
    856c:	ec ed       	ldi	r30, 0xDC	; 220
    856e:	ee ef       	ldi	r30, 0xFE	; 254
    8570:	f0 f1       	brcs	.+124    	; 0x85ee <waves+0x1ee>
    8572:	f2 f3       	brmi	.-4      	; 0x8570 <waves+0x170>
    8574:	f4 f5       	brge	.+124    	; 0x85f2 <waves+0x1f2>
    8576:	f6 f7       	brtc	.-4      	; 0x8574 <waves+0x174>
    8578:	f8 f9       	.word	0xf9f8	; ????
    857a:	fa fb       	.word	0xfbfa	; ????
    857c:	fc fd       	.word	0xfdfc	; ????
    857e:	fe ff       	.word	0xfffe	; ????
    8580:	00 01       	movw	r0, r0
    8582:	02 03       	mulsu	r16, r18
    8584:	04 05       	cpc	r16, r4
    8586:	06 07       	cpc	r16, r22
    8588:	08 09       	sbc	r16, r8
    858a:	0a 0b       	sbc	r16, r26
    858c:	0c 0d       	add	r16, r12
    858e:	0e 0f       	add	r16, r30
    8590:	10 11       	cpse	r17, r0
    8592:	12 13       	cpse	r17, r18
    8594:	14 15       	cp	r17, r4
    8596:	16 17       	cp	r17, r22
    8598:	18 19       	sub	r17, r8
    859a:	1a 1b       	sub	r17, r26
    859c:	1c 1d       	adc	r17, r12
    859e:	1e 1f       	adc	r17, r30
    85a0:	20 21       	and	r18, r0
    85a2:	22 23       	and	r18, r18
    85a4:	24 25       	eor	r18, r4
    85a6:	26 27       	eor	r18, r22
    85a8:	28 29       	or	r18, r8
    85aa:	2a 2b       	or	r18, r26
    85ac:	2c 2d       	mov	r18, r12
    85ae:	2e 2f       	mov	r18, r30
    85b0:	30 31       	cpi	r19, 0x10	; 16
    85b2:	32 33       	cpi	r19, 0x32	; 50
    85b4:	34 35       	cpi	r19, 0x54	; 84
    85b6:	36 37       	cpi	r19, 0x76	; 118
    85b8:	38 39       	cpi	r19, 0x98	; 152
    85ba:	3a 3b       	cpi	r19, 0xBA	; 186
    85bc:	3c 3d       	cpi	r19, 0xDC	; 220
    85be:	3e 3f       	cpi	r19, 0xFE	; 254
    85c0:	40 41       	sbci	r20, 0x10	; 16
    85c2:	42 43       	sbci	r20, 0x32	; 50
    85c4:	44 45       	sbci	r20, 0x54	; 84
    85c6:	46 47       	sbci	r20, 0x76	; 118
    85c8:	48 49       	sbci	r20, 0x98	; 152
    85ca:	4a 4b       	sbci	r20, 0xBA	; 186
    85cc:	4c 4d       	sbci	r20, 0xDC	; 220
    85ce:	4e 4f       	sbci	r20, 0xFE	; 254
    85d0:	50 51       	subi	r21, 0x10	; 16
    85d2:	52 53       	subi	r21, 0x32	; 50
    85d4:	54 55       	subi	r21, 0x54	; 84
    85d6:	56 57       	subi	r21, 0x76	; 118
    85d8:	58 59       	subi	r21, 0x98	; 152
    85da:	5a 5b       	subi	r21, 0xBA	; 186
    85dc:	5c 5d       	subi	r21, 0xDC	; 220
    85de:	5e 5f       	subi	r21, 0xFE	; 254
    85e0:	60 61       	ori	r22, 0x10	; 16
    85e2:	62 63       	ori	r22, 0x32	; 50
    85e4:	64 65       	ori	r22, 0x54	; 84
    85e6:	66 67       	ori	r22, 0x76	; 118
    85e8:	68 69       	ori	r22, 0x98	; 152
    85ea:	6a 6b       	ori	r22, 0xBA	; 186
    85ec:	6c 6d       	ori	r22, 0xDC	; 220
    85ee:	6e 6f       	ori	r22, 0xFE	; 254
    85f0:	70 71       	andi	r23, 0x10	; 16
    85f2:	72 73       	andi	r23, 0x32	; 50
    85f4:	74 75       	andi	r23, 0x54	; 84
    85f6:	76 77       	andi	r23, 0x76	; 118
    85f8:	78 79       	andi	r23, 0x98	; 152
    85fa:	7a 7b       	andi	r23, 0xBA	; 186
    85fc:	7c 7d       	andi	r23, 0xDC	; 220
    85fe:	7e 7f       	andi	r23, 0xFE	; 254
    8600:	00 02       	muls	r16, r16
    8602:	04 06       	cpc	r0, r20
    8604:	08 0a       	sbc	r0, r24
    8606:	0c 0e       	add	r0, r28
    8608:	10 12       	cpse	r1, r16
    860a:	14 16       	cp	r1, r20
    860c:	18 1a       	sub	r1, r24
    860e:	1c 1e       	adc	r1, r28
    8610:	20 22       	and	r2, r16
    8612:	24 26       	eor	r2, r20
    8614:	28 2a       	or	r2, r24
    8616:	2c 2e       	mov	r2, r28
    8618:	30 32       	cpi	r19, 0x20	; 32
    861a:	34 36       	cpi	r19, 0x64	; 100
    861c:	38 3a       	cpi	r19, 0xA8	; 168
    861e:	3c 3e       	cpi	r19, 0xEC	; 236
    8620:	40 42       	sbci	r20, 0x20	; 32
    8622:	44 46       	sbci	r20, 0x64	; 100
    8624:	48 4a       	sbci	r20, 0xA8	; 168
    8626:	4c 4e       	sbci	r20, 0xEC	; 236
    8628:	50 52       	subi	r21, 0x20	; 32
    862a:	54 56       	subi	r21, 0x64	; 100
    862c:	58 5a       	subi	r21, 0xA8	; 168
    862e:	5c 5e       	subi	r21, 0xEC	; 236
    8630:	60 62       	ori	r22, 0x20	; 32
    8632:	64 66       	ori	r22, 0x64	; 100
    8634:	68 6a       	ori	r22, 0xA8	; 168
    8636:	6c 6e       	ori	r22, 0xEC	; 236
    8638:	70 72       	andi	r23, 0x20	; 32
    863a:	74 76       	andi	r23, 0x64	; 100
    863c:	78 7a       	andi	r23, 0xA8	; 168
    863e:	7c 7e       	andi	r23, 0xEC	; 236
    8640:	7f 7d       	andi	r23, 0xDF	; 223
    8642:	7b 79       	andi	r23, 0x9B	; 155
    8644:	77 75       	andi	r23, 0x57	; 87
    8646:	73 71       	andi	r23, 0x13	; 19
    8648:	6f 6d       	ori	r22, 0xDF	; 223
    864a:	6b 69       	ori	r22, 0x9B	; 155
    864c:	67 65       	ori	r22, 0x57	; 87
    864e:	63 61       	ori	r22, 0x13	; 19
    8650:	5f 5d       	subi	r21, 0xDF	; 223
    8652:	5b 59       	subi	r21, 0x9B	; 155
    8654:	57 55       	subi	r21, 0x57	; 87
    8656:	53 51       	subi	r21, 0x13	; 19
    8658:	4f 4d       	sbci	r20, 0xDF	; 223
    865a:	4b 49       	sbci	r20, 0x9B	; 155
    865c:	47 45       	sbci	r20, 0x57	; 87
    865e:	43 41       	sbci	r20, 0x13	; 19
    8660:	3f 3d       	cpi	r19, 0xDF	; 223
    8662:	3b 39       	cpi	r19, 0x9B	; 155
    8664:	37 35       	cpi	r19, 0x57	; 87
    8666:	33 31       	cpi	r19, 0x13	; 19
    8668:	2f 2d       	mov	r18, r15
    866a:	2b 29       	or	r18, r11
    866c:	27 25       	eor	r18, r7
    866e:	23 21       	and	r18, r3
    8670:	1f 1d       	adc	r17, r15
    8672:	1b 19       	sub	r17, r11
    8674:	17 15       	cp	r17, r7
    8676:	13 11       	cpse	r17, r3
    8678:	0f 0d       	add	r16, r15
    867a:	0b 09       	sbc	r16, r11
    867c:	07 05       	cpc	r16, r7
    867e:	03 01       	movw	r0, r6
    8680:	ff fd       	.word	0xfdff	; ????
    8682:	fb f9       	.word	0xf9fb	; ????
    8684:	f7 f5       	brid	.+124    	; 0x8702 <waves+0x302>
    8686:	f3 f1       	brvs	.+124    	; 0x8704 <waves+0x304>
    8688:	ef ed       	ldi	r30, 0xDF	; 223
    868a:	eb e9       	ldi	r30, 0x9B	; 155
    868c:	e7 e5       	ldi	r30, 0x57	; 87
    868e:	e3 e1       	ldi	r30, 0x13	; 19
    8690:	df dd       	rcall	.-1090   	; 0x8250 <steptable+0x48>
    8692:	db d9       	rcall	.-3146   	; 0x7a4a <PatchCommand14+0x16>
    8694:	d7 d5       	rcall	.+2990   	; 0x9244 <doFade+0x2>
    8696:	d3 d1       	rcall	.+934    	; 0x8a3e <waves+0x63e>
    8698:	cf cd       	rjmp	.-1122   	; 0x8238 <steptable+0x30>
    869a:	cb c9       	rjmp	.-3178   	; 0x7a32 <PatchCommand08+0x1e>
    869c:	c7 c5       	rjmp	.+2958   	; 0x922c <WaitVsync+0x18>
    869e:	c3 c1       	rjmp	.+902    	; 0x8a26 <waves+0x626>
    86a0:	bf bd       	out	0x2f, r27	; 47
    86a2:	bb b9       	out	0x0b, r27	; 11
    86a4:	b7 b5       	in	r27, 0x27	; 39
    86a6:	b3 b1       	in	r27, 0x03	; 3
    86a8:	af ad       	ldd	r26, Y+63	; 0x3f
    86aa:	ab a9       	ldd	r26, Y+51	; 0x33
    86ac:	a7 a5       	ldd	r26, Z+47	; 0x2f
    86ae:	a3 a1       	ldd	r26, Z+35	; 0x23
    86b0:	9f 9d       	mul	r25, r15
    86b2:	9b 99       	sbic	0x13, 3	; 19
    86b4:	97 95       	ror	r25
    86b6:	93 91       	.word	0x9193	; ????
    86b8:	8f 8d       	ldd	r24, Y+31	; 0x1f
    86ba:	8b 89       	ldd	r24, Y+19	; 0x13
    86bc:	87 85       	ldd	r24, Z+15	; 0x0f
    86be:	83 81       	ldd	r24, Z+3	; 0x03
    86c0:	80 82       	st	Z, r8
    86c2:	84 86       	std	Z+12, r8	; 0x0c
    86c4:	88 8a       	std	Y+16, r8	; 0x10
    86c6:	8c 8e       	std	Y+28, r8	; 0x1c
    86c8:	90 92 94 96 	sts	0x9694, r9
    86cc:	98 9a       	sbi	0x13, 0	; 19
    86ce:	9c 9e       	mul	r9, r28
    86d0:	a0 a2       	std	Z+32, r10	; 0x20
    86d2:	a4 a6       	std	Z+44, r10	; 0x2c
    86d4:	a8 aa       	std	Y+48, r10	; 0x30
    86d6:	ac ae       	std	Y+60, r10	; 0x3c
    86d8:	b0 b2       	in	r11, 0x10	; 16
    86da:	b4 b6       	in	r11, 0x34	; 52
    86dc:	b8 ba       	out	0x18, r11	; 24
    86de:	bc be       	out	0x3c, r11	; 60
    86e0:	c0 c2       	rjmp	.+1408   	; 0x8c62 <waves+0x862>
    86e2:	c4 c6       	rjmp	.+3464   	; 0x946c <wifiGetPBT+0x4e>
    86e4:	c8 ca       	rjmp	.-2672   	; 0x7c76 <TriggerNote+0x10>
    86e6:	cc ce       	rjmp	.-616    	; 0x8480 <waves+0x80>
    86e8:	d0 d2       	rcall	.+1440   	; 0x8c8a <waves+0x88a>
    86ea:	d4 d6       	rcall	.+3496   	; 0x9494 <wifiRequestP+0x2>
    86ec:	d8 da       	rcall	.-2640   	; 0x7c9e <TriggerNote+0x38>
    86ee:	dc de       	rcall	.-584    	; 0x84a8 <waves+0xa8>
    86f0:	e0 e2       	ldi	r30, 0x20	; 32
    86f2:	e4 e6       	ldi	r30, 0x64	; 100
    86f4:	e8 ea       	ldi	r30, 0xA8	; 168
    86f6:	ec ee       	ldi	r30, 0xEC	; 236
    86f8:	f0 f2       	brcs	.-68     	; 0x86b6 <waves+0x2b6>
    86fa:	f4 f6       	brge	.-68     	; 0x86b8 <waves+0x2b8>
    86fc:	f8 fa       	.word	0xfaf8	; ????
    86fe:	fc fe       	.word	0xfefc	; ????
    8700:	7f 7f       	andi	r23, 0xFF	; 255
    8702:	7f 7f       	andi	r23, 0xFF	; 255
    8704:	7f 7f       	andi	r23, 0xFF	; 255
    8706:	7f 7f       	andi	r23, 0xFF	; 255
    8708:	7f 7f       	andi	r23, 0xFF	; 255
    870a:	7f 7f       	andi	r23, 0xFF	; 255
    870c:	7f 7f       	andi	r23, 0xFF	; 255
    870e:	7f 7f       	andi	r23, 0xFF	; 255
    8710:	7f 7f       	andi	r23, 0xFF	; 255
    8712:	7f 7f       	andi	r23, 0xFF	; 255
    8714:	7f 7f       	andi	r23, 0xFF	; 255
    8716:	7f 7f       	andi	r23, 0xFF	; 255
    8718:	7f 7f       	andi	r23, 0xFF	; 255
    871a:	7f 7f       	andi	r23, 0xFF	; 255
    871c:	7f 7f       	andi	r23, 0xFF	; 255
    871e:	7f 7f       	andi	r23, 0xFF	; 255
    8720:	7f 7f       	andi	r23, 0xFF	; 255
    8722:	7f 7f       	andi	r23, 0xFF	; 255
    8724:	7f 7f       	andi	r23, 0xFF	; 255
    8726:	7f 7f       	andi	r23, 0xFF	; 255
    8728:	7f 7f       	andi	r23, 0xFF	; 255
    872a:	7f 7f       	andi	r23, 0xFF	; 255
    872c:	7f 7f       	andi	r23, 0xFF	; 255
    872e:	7f 7f       	andi	r23, 0xFF	; 255
    8730:	7f 7f       	andi	r23, 0xFF	; 255
    8732:	7f 7f       	andi	r23, 0xFF	; 255
    8734:	7f 7f       	andi	r23, 0xFF	; 255
    8736:	7f 7f       	andi	r23, 0xFF	; 255
    8738:	7f 7f       	andi	r23, 0xFF	; 255
    873a:	7f 7f       	andi	r23, 0xFF	; 255
    873c:	7f 7f       	andi	r23, 0xFF	; 255
    873e:	7f 7f       	andi	r23, 0xFF	; 255
    8740:	80 80       	ld	r8, Z
    8742:	80 80       	ld	r8, Z
    8744:	80 80       	ld	r8, Z
    8746:	80 80       	ld	r8, Z
    8748:	80 80       	ld	r8, Z
    874a:	80 80       	ld	r8, Z
    874c:	80 80       	ld	r8, Z
    874e:	80 80       	ld	r8, Z
    8750:	80 80       	ld	r8, Z
    8752:	80 80       	ld	r8, Z
    8754:	80 80       	ld	r8, Z
    8756:	80 80       	ld	r8, Z
    8758:	80 80       	ld	r8, Z
    875a:	80 80       	ld	r8, Z
    875c:	80 80       	ld	r8, Z
    875e:	80 80       	ld	r8, Z
    8760:	80 80       	ld	r8, Z
    8762:	80 80       	ld	r8, Z
    8764:	80 80       	ld	r8, Z
    8766:	80 80       	ld	r8, Z
    8768:	80 80       	ld	r8, Z
    876a:	80 80       	ld	r8, Z
    876c:	80 80       	ld	r8, Z
    876e:	80 80       	ld	r8, Z
    8770:	80 80       	ld	r8, Z
    8772:	80 80       	ld	r8, Z
    8774:	80 80       	ld	r8, Z
    8776:	80 80       	ld	r8, Z
    8778:	80 80       	ld	r8, Z
    877a:	80 80       	ld	r8, Z
    877c:	80 80       	ld	r8, Z
    877e:	80 80       	ld	r8, Z
    8780:	80 80       	ld	r8, Z
    8782:	80 80       	ld	r8, Z
    8784:	80 80       	ld	r8, Z
    8786:	80 80       	ld	r8, Z
    8788:	80 80       	ld	r8, Z
    878a:	80 80       	ld	r8, Z
    878c:	80 80       	ld	r8, Z
    878e:	80 80       	ld	r8, Z
    8790:	80 80       	ld	r8, Z
    8792:	80 80       	ld	r8, Z
    8794:	80 80       	ld	r8, Z
    8796:	80 80       	ld	r8, Z
    8798:	80 80       	ld	r8, Z
    879a:	80 80       	ld	r8, Z
    879c:	80 80       	ld	r8, Z
    879e:	80 80       	ld	r8, Z
    87a0:	80 80       	ld	r8, Z
    87a2:	80 80       	ld	r8, Z
    87a4:	80 80       	ld	r8, Z
    87a6:	80 80       	ld	r8, Z
    87a8:	80 80       	ld	r8, Z
    87aa:	80 80       	ld	r8, Z
    87ac:	80 80       	ld	r8, Z
    87ae:	80 80       	ld	r8, Z
    87b0:	80 80       	ld	r8, Z
    87b2:	80 80       	ld	r8, Z
    87b4:	80 80       	ld	r8, Z
    87b6:	80 80       	ld	r8, Z
    87b8:	80 80       	ld	r8, Z
    87ba:	80 80       	ld	r8, Z
    87bc:	80 80       	ld	r8, Z
    87be:	80 80       	ld	r8, Z
    87c0:	80 80       	ld	r8, Z
    87c2:	80 80       	ld	r8, Z
    87c4:	80 80       	ld	r8, Z
    87c6:	80 80       	ld	r8, Z
    87c8:	80 80       	ld	r8, Z
    87ca:	80 80       	ld	r8, Z
    87cc:	80 80       	ld	r8, Z
    87ce:	80 80       	ld	r8, Z
    87d0:	80 80       	ld	r8, Z
    87d2:	80 80       	ld	r8, Z
    87d4:	80 80       	ld	r8, Z
    87d6:	80 80       	ld	r8, Z
    87d8:	80 80       	ld	r8, Z
    87da:	80 80       	ld	r8, Z
    87dc:	80 80       	ld	r8, Z
    87de:	80 80       	ld	r8, Z
    87e0:	80 80       	ld	r8, Z
    87e2:	80 80       	ld	r8, Z
    87e4:	80 80       	ld	r8, Z
    87e6:	80 80       	ld	r8, Z
    87e8:	80 80       	ld	r8, Z
    87ea:	80 80       	ld	r8, Z
    87ec:	80 80       	ld	r8, Z
    87ee:	80 80       	ld	r8, Z
    87f0:	80 80       	ld	r8, Z
    87f2:	80 80       	ld	r8, Z
    87f4:	80 80       	ld	r8, Z
    87f6:	80 80       	ld	r8, Z
    87f8:	80 80       	ld	r8, Z
    87fa:	80 80       	ld	r8, Z
    87fc:	80 80       	ld	r8, Z
    87fe:	80 80       	ld	r8, Z
    8800:	7f 7f       	andi	r23, 0xFF	; 255
    8802:	7f 7f       	andi	r23, 0xFF	; 255
    8804:	7f 7f       	andi	r23, 0xFF	; 255
    8806:	7f 7f       	andi	r23, 0xFF	; 255
    8808:	7f 7f       	andi	r23, 0xFF	; 255
    880a:	7f 7f       	andi	r23, 0xFF	; 255
    880c:	7f 7f       	andi	r23, 0xFF	; 255
    880e:	7f 7f       	andi	r23, 0xFF	; 255
    8810:	7f 7f       	andi	r23, 0xFF	; 255
    8812:	7f 7f       	andi	r23, 0xFF	; 255
    8814:	7f 7f       	andi	r23, 0xFF	; 255
    8816:	7f 7f       	andi	r23, 0xFF	; 255
    8818:	7f 7f       	andi	r23, 0xFF	; 255
    881a:	7f 7f       	andi	r23, 0xFF	; 255
    881c:	7f 7f       	andi	r23, 0xFF	; 255
    881e:	7f 7f       	andi	r23, 0xFF	; 255
    8820:	7f 7f       	andi	r23, 0xFF	; 255
    8822:	7f 7f       	andi	r23, 0xFF	; 255
    8824:	7f 7f       	andi	r23, 0xFF	; 255
    8826:	7f 7f       	andi	r23, 0xFF	; 255
    8828:	7f 7f       	andi	r23, 0xFF	; 255
    882a:	7f 7f       	andi	r23, 0xFF	; 255
    882c:	7f 7f       	andi	r23, 0xFF	; 255
    882e:	7f 7f       	andi	r23, 0xFF	; 255
    8830:	7f 7f       	andi	r23, 0xFF	; 255
    8832:	7f 7f       	andi	r23, 0xFF	; 255
    8834:	7f 7f       	andi	r23, 0xFF	; 255
    8836:	7f 7f       	andi	r23, 0xFF	; 255
    8838:	7f 7f       	andi	r23, 0xFF	; 255
    883a:	7f 7f       	andi	r23, 0xFF	; 255
    883c:	7f 7f       	andi	r23, 0xFF	; 255
    883e:	7f 7f       	andi	r23, 0xFF	; 255
    8840:	7f 7f       	andi	r23, 0xFF	; 255
    8842:	7f 7f       	andi	r23, 0xFF	; 255
    8844:	7f 7f       	andi	r23, 0xFF	; 255
    8846:	7f 7f       	andi	r23, 0xFF	; 255
    8848:	7f 7f       	andi	r23, 0xFF	; 255
    884a:	7f 7f       	andi	r23, 0xFF	; 255
    884c:	7f 7f       	andi	r23, 0xFF	; 255
    884e:	7f 7f       	andi	r23, 0xFF	; 255
    8850:	7f 7f       	andi	r23, 0xFF	; 255
    8852:	7f 7f       	andi	r23, 0xFF	; 255
    8854:	7f 7f       	andi	r23, 0xFF	; 255
    8856:	7f 7f       	andi	r23, 0xFF	; 255
    8858:	7f 7f       	andi	r23, 0xFF	; 255
    885a:	7f 7f       	andi	r23, 0xFF	; 255
    885c:	7f 7f       	andi	r23, 0xFF	; 255
    885e:	7f 7f       	andi	r23, 0xFF	; 255
    8860:	7f 7f       	andi	r23, 0xFF	; 255
    8862:	7f 7f       	andi	r23, 0xFF	; 255
    8864:	7f 7f       	andi	r23, 0xFF	; 255
    8866:	7f 7f       	andi	r23, 0xFF	; 255
    8868:	7f 7f       	andi	r23, 0xFF	; 255
    886a:	7f 7f       	andi	r23, 0xFF	; 255
    886c:	7f 7f       	andi	r23, 0xFF	; 255
    886e:	7f 7f       	andi	r23, 0xFF	; 255
    8870:	7f 7f       	andi	r23, 0xFF	; 255
    8872:	7f 7f       	andi	r23, 0xFF	; 255
    8874:	7f 7f       	andi	r23, 0xFF	; 255
    8876:	7f 7f       	andi	r23, 0xFF	; 255
    8878:	7f 7f       	andi	r23, 0xFF	; 255
    887a:	7f 7f       	andi	r23, 0xFF	; 255
    887c:	7f 7f       	andi	r23, 0xFF	; 255
    887e:	7f 7f       	andi	r23, 0xFF	; 255
    8880:	80 80       	ld	r8, Z
    8882:	80 80       	ld	r8, Z
    8884:	80 80       	ld	r8, Z
    8886:	80 80       	ld	r8, Z
    8888:	80 80       	ld	r8, Z
    888a:	80 80       	ld	r8, Z
    888c:	80 80       	ld	r8, Z
    888e:	80 80       	ld	r8, Z
    8890:	80 80       	ld	r8, Z
    8892:	80 80       	ld	r8, Z
    8894:	80 80       	ld	r8, Z
    8896:	80 80       	ld	r8, Z
    8898:	80 80       	ld	r8, Z
    889a:	80 80       	ld	r8, Z
    889c:	80 80       	ld	r8, Z
    889e:	80 80       	ld	r8, Z
    88a0:	80 80       	ld	r8, Z
    88a2:	80 80       	ld	r8, Z
    88a4:	80 80       	ld	r8, Z
    88a6:	80 80       	ld	r8, Z
    88a8:	80 80       	ld	r8, Z
    88aa:	80 80       	ld	r8, Z
    88ac:	80 80       	ld	r8, Z
    88ae:	80 80       	ld	r8, Z
    88b0:	80 80       	ld	r8, Z
    88b2:	80 80       	ld	r8, Z
    88b4:	80 80       	ld	r8, Z
    88b6:	80 80       	ld	r8, Z
    88b8:	80 80       	ld	r8, Z
    88ba:	80 80       	ld	r8, Z
    88bc:	80 80       	ld	r8, Z
    88be:	80 80       	ld	r8, Z
    88c0:	80 80       	ld	r8, Z
    88c2:	80 80       	ld	r8, Z
    88c4:	80 80       	ld	r8, Z
    88c6:	80 80       	ld	r8, Z
    88c8:	80 80       	ld	r8, Z
    88ca:	80 80       	ld	r8, Z
    88cc:	80 80       	ld	r8, Z
    88ce:	80 80       	ld	r8, Z
    88d0:	80 80       	ld	r8, Z
    88d2:	80 80       	ld	r8, Z
    88d4:	80 80       	ld	r8, Z
    88d6:	80 80       	ld	r8, Z
    88d8:	80 80       	ld	r8, Z
    88da:	80 80       	ld	r8, Z
    88dc:	80 80       	ld	r8, Z
    88de:	80 80       	ld	r8, Z
    88e0:	80 80       	ld	r8, Z
    88e2:	80 80       	ld	r8, Z
    88e4:	80 80       	ld	r8, Z
    88e6:	80 80       	ld	r8, Z
    88e8:	80 80       	ld	r8, Z
    88ea:	80 80       	ld	r8, Z
    88ec:	80 80       	ld	r8, Z
    88ee:	80 80       	ld	r8, Z
    88f0:	80 80       	ld	r8, Z
    88f2:	80 80       	ld	r8, Z
    88f4:	80 80       	ld	r8, Z
    88f6:	80 80       	ld	r8, Z
    88f8:	80 80       	ld	r8, Z
    88fa:	80 80       	ld	r8, Z
    88fc:	80 80       	ld	r8, Z
    88fe:	80 80       	ld	r8, Z
    8900:	7f 7f       	andi	r23, 0xFF	; 255
    8902:	7f 7f       	andi	r23, 0xFF	; 255
    8904:	7f 7f       	andi	r23, 0xFF	; 255
    8906:	7f 7f       	andi	r23, 0xFF	; 255
    8908:	7f 7f       	andi	r23, 0xFF	; 255
    890a:	7f 7f       	andi	r23, 0xFF	; 255
    890c:	7f 7f       	andi	r23, 0xFF	; 255
    890e:	7f 7f       	andi	r23, 0xFF	; 255
    8910:	7f 7f       	andi	r23, 0xFF	; 255
    8912:	7f 7f       	andi	r23, 0xFF	; 255
    8914:	7f 7f       	andi	r23, 0xFF	; 255
    8916:	7f 7f       	andi	r23, 0xFF	; 255
    8918:	7f 7f       	andi	r23, 0xFF	; 255
    891a:	7f 7f       	andi	r23, 0xFF	; 255
    891c:	7f 7f       	andi	r23, 0xFF	; 255
    891e:	7f 7f       	andi	r23, 0xFF	; 255
    8920:	7f 7f       	andi	r23, 0xFF	; 255
    8922:	7f 7f       	andi	r23, 0xFF	; 255
    8924:	7f 7f       	andi	r23, 0xFF	; 255
    8926:	7f 7f       	andi	r23, 0xFF	; 255
    8928:	7f 7f       	andi	r23, 0xFF	; 255
    892a:	7f 7f       	andi	r23, 0xFF	; 255
    892c:	7f 7f       	andi	r23, 0xFF	; 255
    892e:	7f 7f       	andi	r23, 0xFF	; 255
    8930:	7f 7f       	andi	r23, 0xFF	; 255
    8932:	7f 7f       	andi	r23, 0xFF	; 255
    8934:	7f 7f       	andi	r23, 0xFF	; 255
    8936:	7f 7f       	andi	r23, 0xFF	; 255
    8938:	7f 7f       	andi	r23, 0xFF	; 255
    893a:	7f 7f       	andi	r23, 0xFF	; 255
    893c:	7f 7f       	andi	r23, 0xFF	; 255
    893e:	7f 7f       	andi	r23, 0xFF	; 255
    8940:	7f 7f       	andi	r23, 0xFF	; 255
    8942:	7f 7f       	andi	r23, 0xFF	; 255
    8944:	7f 7f       	andi	r23, 0xFF	; 255
    8946:	7f 7f       	andi	r23, 0xFF	; 255
    8948:	7f 7f       	andi	r23, 0xFF	; 255
    894a:	7f 7f       	andi	r23, 0xFF	; 255
    894c:	7f 7f       	andi	r23, 0xFF	; 255
    894e:	7f 7f       	andi	r23, 0xFF	; 255
    8950:	7f 7f       	andi	r23, 0xFF	; 255
    8952:	7f 7f       	andi	r23, 0xFF	; 255
    8954:	7f 7f       	andi	r23, 0xFF	; 255
    8956:	7f 7f       	andi	r23, 0xFF	; 255
    8958:	7f 7f       	andi	r23, 0xFF	; 255
    895a:	7f 7f       	andi	r23, 0xFF	; 255
    895c:	7f 7f       	andi	r23, 0xFF	; 255
    895e:	7f 7f       	andi	r23, 0xFF	; 255
    8960:	7f 7f       	andi	r23, 0xFF	; 255
    8962:	7f 7f       	andi	r23, 0xFF	; 255
    8964:	7f 7f       	andi	r23, 0xFF	; 255
    8966:	7f 7f       	andi	r23, 0xFF	; 255
    8968:	7f 7f       	andi	r23, 0xFF	; 255
    896a:	7f 7f       	andi	r23, 0xFF	; 255
    896c:	7f 7f       	andi	r23, 0xFF	; 255
    896e:	7f 7f       	andi	r23, 0xFF	; 255
    8970:	7f 7f       	andi	r23, 0xFF	; 255
    8972:	7f 7f       	andi	r23, 0xFF	; 255
    8974:	7f 7f       	andi	r23, 0xFF	; 255
    8976:	7f 7f       	andi	r23, 0xFF	; 255
    8978:	7f 7f       	andi	r23, 0xFF	; 255
    897a:	7f 7f       	andi	r23, 0xFF	; 255
    897c:	7f 7f       	andi	r23, 0xFF	; 255
    897e:	7f 7f       	andi	r23, 0xFF	; 255
    8980:	7f 7f       	andi	r23, 0xFF	; 255
    8982:	7f 7f       	andi	r23, 0xFF	; 255
    8984:	7f 7f       	andi	r23, 0xFF	; 255
    8986:	7f 7f       	andi	r23, 0xFF	; 255
    8988:	7f 7f       	andi	r23, 0xFF	; 255
    898a:	7f 7f       	andi	r23, 0xFF	; 255
    898c:	7f 7f       	andi	r23, 0xFF	; 255
    898e:	7f 7f       	andi	r23, 0xFF	; 255
    8990:	7f 7f       	andi	r23, 0xFF	; 255
    8992:	7f 7f       	andi	r23, 0xFF	; 255
    8994:	7f 7f       	andi	r23, 0xFF	; 255
    8996:	7f 7f       	andi	r23, 0xFF	; 255
    8998:	7f 7f       	andi	r23, 0xFF	; 255
    899a:	7f 7f       	andi	r23, 0xFF	; 255
    899c:	7f 7f       	andi	r23, 0xFF	; 255
    899e:	7f 7f       	andi	r23, 0xFF	; 255
    89a0:	7f 7f       	andi	r23, 0xFF	; 255
    89a2:	7f 7f       	andi	r23, 0xFF	; 255
    89a4:	7f 7f       	andi	r23, 0xFF	; 255
    89a6:	7f 7f       	andi	r23, 0xFF	; 255
    89a8:	7f 7f       	andi	r23, 0xFF	; 255
    89aa:	7f 7f       	andi	r23, 0xFF	; 255
    89ac:	7f 7f       	andi	r23, 0xFF	; 255
    89ae:	7f 7f       	andi	r23, 0xFF	; 255
    89b0:	7f 7f       	andi	r23, 0xFF	; 255
    89b2:	7f 7f       	andi	r23, 0xFF	; 255
    89b4:	7f 7f       	andi	r23, 0xFF	; 255
    89b6:	7f 7f       	andi	r23, 0xFF	; 255
    89b8:	7f 7f       	andi	r23, 0xFF	; 255
    89ba:	7f 7f       	andi	r23, 0xFF	; 255
    89bc:	7f 7f       	andi	r23, 0xFF	; 255
    89be:	7f 7f       	andi	r23, 0xFF	; 255
    89c0:	80 80       	ld	r8, Z
    89c2:	80 80       	ld	r8, Z
    89c4:	80 80       	ld	r8, Z
    89c6:	80 80       	ld	r8, Z
    89c8:	80 80       	ld	r8, Z
    89ca:	80 80       	ld	r8, Z
    89cc:	80 80       	ld	r8, Z
    89ce:	80 80       	ld	r8, Z
    89d0:	80 80       	ld	r8, Z
    89d2:	80 80       	ld	r8, Z
    89d4:	80 80       	ld	r8, Z
    89d6:	80 80       	ld	r8, Z
    89d8:	80 80       	ld	r8, Z
    89da:	80 80       	ld	r8, Z
    89dc:	80 80       	ld	r8, Z
    89de:	80 80       	ld	r8, Z
    89e0:	80 80       	ld	r8, Z
    89e2:	80 80       	ld	r8, Z
    89e4:	80 80       	ld	r8, Z
    89e6:	80 80       	ld	r8, Z
    89e8:	80 80       	ld	r8, Z
    89ea:	80 80       	ld	r8, Z
    89ec:	80 80       	ld	r8, Z
    89ee:	80 80       	ld	r8, Z
    89f0:	80 80       	ld	r8, Z
    89f2:	80 80       	ld	r8, Z
    89f4:	80 80       	ld	r8, Z
    89f6:	80 80       	ld	r8, Z
    89f8:	80 80       	ld	r8, Z
    89fa:	80 80       	ld	r8, Z
    89fc:	80 80       	ld	r8, Z
    89fe:	80 80       	ld	r8, Z
    8a00:	03 09       	sbc	r16, r3
    8a02:	13 1e       	adc	r1, r19
    8a04:	28 31       	cpi	r18, 0x18	; 24
    8a06:	3a 40       	sbci	r19, 0x0A	; 10
    8a08:	46 4c       	sbci	r20, 0xC6	; 198
    8a0a:	50 54       	subi	r21, 0x40	; 64
    8a0c:	58 5b       	subi	r21, 0xB8	; 184
    8a0e:	5e 61       	ori	r21, 0x1E	; 30
    8a10:	63 65       	ori	r22, 0x53	; 83
    8a12:	67 69       	ori	r22, 0x97	; 151
    8a14:	6b 6c       	ori	r22, 0xCB	; 203
    8a16:	6e 6f       	ori	r22, 0xFE	; 254
    8a18:	70 71       	andi	r23, 0x10	; 16
    8a1a:	72 73       	andi	r23, 0x32	; 50
    8a1c:	74 75       	andi	r23, 0x54	; 84
    8a1e:	76 77       	andi	r23, 0x76	; 118
    8a20:	77 78       	andi	r23, 0x87	; 135
    8a22:	79 79       	andi	r23, 0x99	; 153
    8a24:	7a 7a       	andi	r23, 0xAA	; 170
    8a26:	7b 7b       	andi	r23, 0xBB	; 187
    8a28:	7c 7c       	andi	r23, 0xCC	; 204
    8a2a:	7c 7d       	andi	r23, 0xDC	; 220
    8a2c:	7d 7d       	andi	r23, 0xDD	; 221
    8a2e:	7e 7e       	andi	r23, 0xEE	; 238
    8a30:	7e 7e       	andi	r23, 0xEE	; 238
    8a32:	7f 7f       	andi	r23, 0xFF	; 255
    8a34:	7f 7f       	andi	r23, 0xFF	; 255
    8a36:	7f 7f       	andi	r23, 0xFF	; 255
    8a38:	7f 7f       	andi	r23, 0xFF	; 255
    8a3a:	7f 7f       	andi	r23, 0xFF	; 255
    8a3c:	7f 7f       	andi	r23, 0xFF	; 255
    8a3e:	7f 7f       	andi	r23, 0xFF	; 255
    8a40:	7f 7f       	andi	r23, 0xFF	; 255
    8a42:	7f 7f       	andi	r23, 0xFF	; 255
    8a44:	7f 7f       	andi	r23, 0xFF	; 255
    8a46:	7f 7f       	andi	r23, 0xFF	; 255
    8a48:	7f 7f       	andi	r23, 0xFF	; 255
    8a4a:	7f 7f       	andi	r23, 0xFF	; 255
    8a4c:	7f 7e       	andi	r23, 0xEF	; 239
    8a4e:	7e 7e       	andi	r23, 0xEE	; 238
    8a50:	7e 7d       	andi	r23, 0xDE	; 222
    8a52:	7d 7d       	andi	r23, 0xDD	; 221
    8a54:	7c 7c       	andi	r23, 0xCC	; 204
    8a56:	7c 7b       	andi	r23, 0xBC	; 188
    8a58:	7b 7a       	andi	r23, 0xAB	; 171
    8a5a:	7a 79       	andi	r23, 0x9A	; 154
    8a5c:	79 78       	andi	r23, 0x89	; 137
    8a5e:	77 77       	andi	r23, 0x77	; 119
    8a60:	76 75       	andi	r23, 0x56	; 86
    8a62:	74 73       	andi	r23, 0x34	; 52
    8a64:	72 71       	andi	r23, 0x12	; 18
    8a66:	70 6f       	ori	r23, 0xF0	; 240
    8a68:	6e 6c       	ori	r22, 0xCE	; 206
    8a6a:	6b 69       	ori	r22, 0x9B	; 155
    8a6c:	67 65       	ori	r22, 0x57	; 87
    8a6e:	63 61       	ori	r22, 0x13	; 19
    8a70:	5e 5b       	subi	r21, 0xBE	; 190
    8a72:	58 54       	subi	r21, 0x48	; 72
    8a74:	50 4c       	sbci	r21, 0xC0	; 192
    8a76:	46 40       	sbci	r20, 0x06	; 6
    8a78:	3a 31       	cpi	r19, 0x1A	; 26
    8a7a:	28 1e       	adc	r2, r24
    8a7c:	13 09       	sbc	r17, r3
    8a7e:	03 00       	.word	0x0003	; ????
    8a80:	c6 cc       	rjmp	.-1652   	; 0x840e <waves+0xe>
    8a82:	d5 db       	rcall	.-2134   	; 0x822e <steptable+0x26>
    8a84:	df e3       	ldi	r29, 0x3F	; 63
    8a86:	e5 e7       	ldi	r30, 0x75	; 117
    8a88:	e9 ea       	ldi	r30, 0xA9	; 169
    8a8a:	eb ec       	ldi	r30, 0xCB	; 203
    8a8c:	ed ee       	ldi	r30, 0xED	; 237
    8a8e:	ef ef       	ldi	r30, 0xFF	; 255
    8a90:	f0 f0       	brcs	.+60     	; 0x8ace <waves+0x6ce>
    8a92:	f0 f1       	brcs	.+124    	; 0x8b10 <waves+0x710>
    8a94:	f1 f1       	breq	.+124    	; 0x8b12 <waves+0x712>
    8a96:	f1 f2       	breq	.-68     	; 0x8a54 <waves+0x654>
    8a98:	f2 f2       	brmi	.-68     	; 0x8a56 <waves+0x656>
    8a9a:	f2 f2       	brmi	.-68     	; 0x8a58 <waves+0x658>
    8a9c:	f2 f2       	brmi	.-68     	; 0x8a5a <waves+0x65a>
    8a9e:	f2 f3       	brmi	.-4      	; 0x8a9c <waves+0x69c>
    8aa0:	f3 f3       	brvs	.-4      	; 0x8a9e <waves+0x69e>
    8aa2:	f3 f3       	brvs	.-4      	; 0x8aa0 <waves+0x6a0>
    8aa4:	f3 f3       	brvs	.-4      	; 0x8aa2 <waves+0x6a2>
    8aa6:	f3 f3       	brvs	.-4      	; 0x8aa4 <waves+0x6a4>
    8aa8:	f3 f3       	brvs	.-4      	; 0x8aa6 <waves+0x6a6>
    8aaa:	f3 f3       	brvs	.-4      	; 0x8aa8 <waves+0x6a8>
    8aac:	f3 f3       	brvs	.-4      	; 0x8aaa <waves+0x6aa>
    8aae:	f3 f3       	brvs	.-4      	; 0x8aac <waves+0x6ac>
    8ab0:	f3 f3       	brvs	.-4      	; 0x8aae <waves+0x6ae>
    8ab2:	f3 f3       	brvs	.-4      	; 0x8ab0 <waves+0x6b0>
    8ab4:	f3 f3       	brvs	.-4      	; 0x8ab2 <waves+0x6b2>
    8ab6:	f3 f3       	brvs	.-4      	; 0x8ab4 <waves+0x6b4>
    8ab8:	f3 f3       	brvs	.-4      	; 0x8ab6 <waves+0x6b6>
    8aba:	f3 f3       	brvs	.-4      	; 0x8ab8 <waves+0x6b8>
    8abc:	f3 f3       	brvs	.-4      	; 0x8aba <waves+0x6ba>
    8abe:	f3 f3       	brvs	.-4      	; 0x8abc <waves+0x6bc>
    8ac0:	f3 f3       	brvs	.-4      	; 0x8abe <waves+0x6be>
    8ac2:	f3 f3       	brvs	.-4      	; 0x8ac0 <waves+0x6c0>
    8ac4:	f3 f3       	brvs	.-4      	; 0x8ac2 <waves+0x6c2>
    8ac6:	f3 f3       	brvs	.-4      	; 0x8ac4 <waves+0x6c4>
    8ac8:	f3 f3       	brvs	.-4      	; 0x8ac6 <waves+0x6c6>
    8aca:	f3 f3       	brvs	.-4      	; 0x8ac8 <waves+0x6c8>
    8acc:	f3 f3       	brvs	.-4      	; 0x8aca <waves+0x6ca>
    8ace:	f3 f3       	brvs	.-4      	; 0x8acc <waves+0x6cc>
    8ad0:	f3 f3       	brvs	.-4      	; 0x8ace <waves+0x6ce>
    8ad2:	f3 f3       	brvs	.-4      	; 0x8ad0 <waves+0x6d0>
    8ad4:	f3 f3       	brvs	.-4      	; 0x8ad2 <waves+0x6d2>
    8ad6:	f3 f3       	brvs	.-4      	; 0x8ad4 <waves+0x6d4>
    8ad8:	f3 f3       	brvs	.-4      	; 0x8ad6 <waves+0x6d6>
    8ada:	f3 f3       	brvs	.-4      	; 0x8ad8 <waves+0x6d8>
    8adc:	f3 f3       	brvs	.-4      	; 0x8ada <waves+0x6da>
    8ade:	f3 f3       	brvs	.-4      	; 0x8adc <waves+0x6dc>
    8ae0:	f2 f2       	brmi	.-68     	; 0x8a9e <waves+0x69e>
    8ae2:	f2 f2       	brmi	.-68     	; 0x8aa0 <waves+0x6a0>
    8ae4:	f2 f2       	brmi	.-68     	; 0x8aa2 <waves+0x6a2>
    8ae6:	f2 f2       	brmi	.-68     	; 0x8aa4 <waves+0x6a4>
    8ae8:	f1 f1       	breq	.+124    	; 0x8b66 <waves+0x766>
    8aea:	f1 f1       	breq	.+124    	; 0x8b68 <waves+0x768>
    8aec:	f0 f0       	brcs	.+60     	; 0x8b2a <waves+0x72a>
    8aee:	f0 ef       	ldi	r31, 0xF0	; 240
    8af0:	ef ee       	ldi	r30, 0xEF	; 239
    8af2:	ed ec       	ldi	r30, 0xCD	; 205
    8af4:	eb ea       	ldi	r30, 0xAB	; 171
    8af6:	e9 e7       	ldi	r30, 0x79	; 121
    8af8:	e5 e3       	ldi	r30, 0x35	; 53
    8afa:	df db       	rcall	.-2114   	; 0x82ba <steptable+0xb2>
    8afc:	d5 cc       	rjmp	.-1622   	; 0x84a8 <waves+0xa8>
    8afe:	c6 00       	.word	0x00c6	; ????
    8b00:	00 28       	or	r0, r0
    8b02:	3d 42       	sbci	r19, 0x2D	; 45
    8b04:	30 2d       	mov	r19, r0
    8b06:	2c 2b       	or	r18, r28
    8b08:	2c 2d       	mov	r18, r12
    8b0a:	2e 2f       	mov	r18, r30
    8b0c:	30 32       	cpi	r19, 0x20	; 32
    8b0e:	33 35       	cpi	r19, 0x53	; 83
    8b10:	37 39       	cpi	r19, 0x97	; 151
    8b12:	3b 3d       	cpi	r19, 0xDB	; 219
    8b14:	3f 41       	sbci	r19, 0x1F	; 31
    8b16:	43 45       	sbci	r20, 0x53	; 83
    8b18:	48 4a       	sbci	r20, 0xA8	; 168
    8b1a:	4c 4e       	sbci	r20, 0xEC	; 236
    8b1c:	50 53       	subi	r21, 0x30	; 48
    8b1e:	55 57       	subi	r21, 0x75	; 117
    8b20:	59 5b       	subi	r21, 0xB9	; 185
    8b22:	5d 5f       	subi	r21, 0xFD	; 253
    8b24:	61 63       	ori	r22, 0x31	; 49
    8b26:	65 67       	ori	r22, 0x75	; 117
    8b28:	69 6b       	ori	r22, 0xB9	; 185
    8b2a:	6c 6e       	ori	r22, 0xEC	; 236
    8b2c:	70 71       	andi	r23, 0x10	; 16
    8b2e:	73 74       	andi	r23, 0x43	; 67
    8b30:	75 77       	andi	r23, 0x75	; 117
    8b32:	78 79       	andi	r23, 0x98	; 152
    8b34:	7a 7b       	andi	r23, 0xBA	; 186
    8b36:	7c 7d       	andi	r23, 0xDC	; 220
    8b38:	7d 7e       	andi	r23, 0xED	; 237
    8b3a:	7e 7f       	andi	r23, 0xFE	; 254
    8b3c:	7f 7f       	andi	r23, 0xFF	; 255
    8b3e:	7f 7f       	andi	r23, 0xFF	; 255
    8b40:	7f 7f       	andi	r23, 0xFF	; 255
    8b42:	7f 7f       	andi	r23, 0xFF	; 255
    8b44:	7f 7f       	andi	r23, 0xFF	; 255
    8b46:	7e 7e       	andi	r23, 0xEE	; 238
    8b48:	7d 7d       	andi	r23, 0xDD	; 221
    8b4a:	7c 7b       	andi	r23, 0xBC	; 188
    8b4c:	7a 79       	andi	r23, 0x9A	; 154
    8b4e:	78 77       	andi	r23, 0x78	; 120
    8b50:	75 74       	andi	r23, 0x45	; 69
    8b52:	73 71       	andi	r23, 0x13	; 19
    8b54:	70 6e       	ori	r23, 0xE0	; 224
    8b56:	6c 6b       	ori	r22, 0xBC	; 188
    8b58:	69 67       	ori	r22, 0x79	; 121
    8b5a:	65 63       	ori	r22, 0x35	; 53
    8b5c:	61 5f       	subi	r22, 0xF1	; 241
    8b5e:	5d 5b       	subi	r21, 0xBD	; 189
    8b60:	59 57       	subi	r21, 0x79	; 121
    8b62:	55 53       	subi	r21, 0x35	; 53
    8b64:	50 4e       	sbci	r21, 0xE0	; 224
    8b66:	4c 4a       	sbci	r20, 0xAC	; 172
    8b68:	48 45       	sbci	r20, 0x58	; 88
    8b6a:	43 41       	sbci	r20, 0x13	; 19
    8b6c:	3f 3d       	cpi	r19, 0xDF	; 223
    8b6e:	3b 39       	cpi	r19, 0x9B	; 155
    8b70:	37 35       	cpi	r19, 0x57	; 87
    8b72:	33 32       	cpi	r19, 0x23	; 35
    8b74:	30 2f       	mov	r19, r16
    8b76:	2e 2d       	mov	r18, r14
    8b78:	2c 2b       	or	r18, r28
    8b7a:	2c 2d       	mov	r18, r12
    8b7c:	30 42       	sbci	r19, 0x20	; 32
    8b7e:	3d 28       	or	r3, r13
    8b80:	00 e9       	ldi	r16, 0x90	; 144
    8b82:	e5 fe       	sbrs	r14, 5
    8b84:	d4 d7       	rcall	.+4008   	; 0x9b2e <LBLineIntersect+0xe0>
    8b86:	d7 d7       	rcall	.+4014   	; 0x9b36 <LBLineIntersect+0xe8>
    8b88:	d6 d4       	rcall	.+2476   	; 0x9536 <initWifi+0x1e>
    8b8a:	d2 d0       	rcall	.+420    	; 0x8d30 <waves+0x930>
    8b8c:	ce cc       	rjmp	.-1636   	; 0x852a <waves+0x12a>
    8b8e:	ca c8       	rjmp	.-3692   	; 0x7d24 <ProcessMusic+0x3e>
    8b90:	c6 c3       	rjmp	.+1932   	; 0x931e <wifiSend+0xe>
    8b92:	c1 bf       	out	0x31, r28	; 49
    8b94:	bd ba       	out	0x1d, r11	; 29
    8b96:	b8 b6       	in	r11, 0x38	; 56
    8b98:	b4 b1       	in	r27, 0x04	; 4
    8b9a:	af ad       	ldd	r26, Y+63	; 0x3f
    8b9c:	ab a9       	ldd	r26, Y+51	; 0x33
    8b9e:	a7 a5       	ldd	r26, Z+47	; 0x2f
    8ba0:	a3 a1       	ldd	r26, Z+35	; 0x23
    8ba2:	9f 9e       	mul	r9, r31
    8ba4:	9c 9a       	sbi	0x13, 4	; 19
    8ba6:	99 97       	sbiw	r26, 0x29	; 41
    8ba8:	95 94       	asr	r9
    8baa:	93 91       	.word	0x9193	; ????
    8bac:	90 8f       	std	Z+24, r25	; 0x18
    8bae:	8d 8c       	ldd	r8, Y+29	; 0x1d
    8bb0:	8b 8a       	std	Y+19, r8	; 0x13
    8bb2:	89 88       	ldd	r8, Y+17	; 0x11
    8bb4:	88 87       	std	Y+8, r24	; 0x08
    8bb6:	86 85       	ldd	r24, Z+14	; 0x0e
    8bb8:	85 84       	ldd	r8, Z+13	; 0x0d
    8bba:	84 84       	ldd	r8, Z+12	; 0x0c
    8bbc:	83 83       	std	Z+3, r24	; 0x03
    8bbe:	83 83       	std	Z+3, r24	; 0x03
    8bc0:	83 83       	std	Z+3, r24	; 0x03
    8bc2:	83 83       	std	Z+3, r24	; 0x03
    8bc4:	83 84       	ldd	r8, Z+11	; 0x0b
    8bc6:	84 84       	ldd	r8, Z+12	; 0x0c
    8bc8:	85 85       	ldd	r24, Z+13	; 0x0d
    8bca:	86 87       	std	Z+14, r24	; 0x0e
    8bcc:	88 88       	ldd	r8, Y+16	; 0x10
    8bce:	89 8a       	std	Y+17, r8	; 0x11
    8bd0:	8b 8c       	ldd	r8, Y+27	; 0x1b
    8bd2:	8d 8f       	std	Y+29, r24	; 0x1d
    8bd4:	90 91 93 94 	lds	r25, 0x9493
    8bd8:	95 97       	sbiw	r26, 0x25	; 37
    8bda:	99 9a       	sbi	0x13, 1	; 19
    8bdc:	9c 9e       	mul	r9, r28
    8bde:	9f a1       	ldd	r25, Y+39	; 0x27
    8be0:	a3 a5       	ldd	r26, Z+43	; 0x2b
    8be2:	a7 a9       	ldd	r26, Z+55	; 0x37
    8be4:	ab ad       	ldd	r26, Y+59	; 0x3b
    8be6:	af b1       	in	r26, 0x0f	; 15
    8be8:	b4 b6       	in	r11, 0x34	; 52
    8bea:	b8 ba       	out	0x18, r11	; 24
    8bec:	bd bf       	out	0x3d, r27	; 61
    8bee:	c1 c3       	rjmp	.+1922   	; 0x9372 <wifiGetIfAvailable+0xc>
    8bf0:	c6 c8       	rjmp	.-3700   	; 0x7d7e <ProcessMusic+0x98>
    8bf2:	ca cc       	rjmp	.-1644   	; 0x8588 <waves+0x188>
    8bf4:	ce d0       	rcall	.+412    	; 0x8d92 <waves+0x992>
    8bf6:	d2 d4       	rcall	.+2468   	; 0x959c <initWifi+0x84>
    8bf8:	d6 d7       	rcall	.+4012   	; 0x9ba6 <LBLineIntersect+0x158>
    8bfa:	d7 d7       	rcall	.+4014   	; 0x9baa <LBLineIntersect+0x15c>
    8bfc:	d4 fe       	sbrs	r13, 4
    8bfe:	e5 e9       	ldi	r30, 0x95	; 149
    8c00:	f9 f8       	.word	0xf8f9	; ????
    8c02:	f9 f5       	brne	.+126    	; 0x8c82 <waves+0x882>
    8c04:	eb e1       	ldi	r30, 0x1B	; 27
    8c06:	dd de       	rcall	.-582    	; 0x89c2 <waves+0x5c2>
    8c08:	e0 e2       	ldi	r30, 0x20	; 32
    8c0a:	e4 e5       	ldi	r30, 0x54	; 84
    8c0c:	e6 e5       	ldi	r30, 0x56	; 86
    8c0e:	e4 e2       	ldi	r30, 0x24	; 36
    8c10:	de d9       	rcall	.-3140   	; 0x7fce <ProcessMusic+0x2e8>
    8c12:	d2 ca       	rjmp	.-2652   	; 0x81b8 <esmw+0x2a>
    8c14:	c1 b7       	in	r28, 0x31	; 49
    8c16:	ac a2       	std	Y+36, r10	; 0x24
    8c18:	99 91       	ld	r25, Y+
    8c1a:	8a 86       	std	Y+10, r8	; 0x0a
    8c1c:	83 81       	ldd	r24, Z+3	; 0x03
    8c1e:	80 80       	ld	r8, Z
    8c20:	81 82       	std	Z+1, r8	; 0x01
    8c22:	83 85       	ldd	r24, Z+11	; 0x0b
    8c24:	86 88       	ldd	r8, Z+22	; 0x16
    8c26:	8a 8c       	ldd	r8, Y+26	; 0x1a
    8c28:	8d 8f       	std	Y+29, r24	; 0x1d
    8c2a:	90 92 93 95 	sts	0x9593, r9
    8c2e:	96 97       	sbiw	r26, 0x26	; 38
    8c30:	98 99       	sbic	0x13, 0	; 19
    8c32:	9a 9b       	sbis	0x13, 2	; 19
    8c34:	9b 9c       	mul	r9, r11
    8c36:	9d 9d       	mul	r25, r13
    8c38:	9d 9e       	mul	r9, r29
    8c3a:	9e 9e       	mul	r9, r30
    8c3c:	9f 9f       	mul	r25, r31
    8c3e:	9f 9f       	mul	r25, r31
    8c40:	9f 9f       	mul	r25, r31
    8c42:	9f 9e       	mul	r9, r31
    8c44:	9e 9e       	mul	r9, r30
    8c46:	9d 9d       	mul	r25, r13
    8c48:	9d 9c       	mul	r9, r13
    8c4a:	9b 9b       	sbis	0x13, 3	; 19
    8c4c:	9a 99       	sbic	0x13, 2	; 19
    8c4e:	98 97       	sbiw	r26, 0x28	; 40
    8c50:	96 95       	lsr	r25
    8c52:	93 92       	.word	0x9293	; ????
    8c54:	90 8f       	std	Z+24, r25	; 0x18
    8c56:	8d 8c       	ldd	r8, Y+29	; 0x1d
    8c58:	8a 88       	ldd	r8, Y+18	; 0x12
    8c5a:	86 85       	ldd	r24, Z+14	; 0x0e
    8c5c:	83 82       	std	Z+3, r8	; 0x03
    8c5e:	81 80       	ldd	r8, Z+1	; 0x01
    8c60:	80 81       	ld	r24, Z
    8c62:	83 86       	std	Z+11, r8	; 0x0b
    8c64:	8a 91       	ld	r24, -Y
    8c66:	99 a2       	std	Y+33, r9	; 0x21
    8c68:	ac b7       	in	r26, 0x3c	; 60
    8c6a:	c1 ca       	rjmp	.-2686   	; 0x81ee <esmw+0x60>
    8c6c:	d2 d9       	rcall	.-3164   	; 0x8012 <ProcessMusic+0x32c>
    8c6e:	de e2       	ldi	r29, 0x2E	; 46
    8c70:	e4 e5       	ldi	r30, 0x54	; 84
    8c72:	e6 e5       	ldi	r30, 0x56	; 86
    8c74:	e4 e2       	ldi	r30, 0x24	; 36
    8c76:	e0 de       	rcall	.-576    	; 0x8a38 <waves+0x638>
    8c78:	dd e1       	ldi	r29, 0x1D	; 29
    8c7a:	eb f5       	brvc	.+122    	; 0x8cf6 <waves+0x8f6>
    8c7c:	f9 f8       	.word	0xf8f9	; ????
    8c7e:	f9 00       	.word	0x00f9	; ????
    8c80:	07 08       	sbc	r0, r7
    8c82:	07 0b       	sbc	r16, r23
    8c84:	15 1f       	adc	r17, r21
    8c86:	23 22       	and	r2, r19
    8c88:	20 1e       	adc	r2, r16
    8c8a:	1c 1b       	sub	r17, r28
    8c8c:	1a 1b       	sub	r17, r26
    8c8e:	1c 1e       	adc	r1, r28
    8c90:	22 27       	eor	r18, r18
    8c92:	2e 36       	cpi	r18, 0x6E	; 110
    8c94:	3f 49       	sbci	r19, 0x9F	; 159
    8c96:	54 5e       	subi	r21, 0xE4	; 228
    8c98:	67 6f       	ori	r22, 0xF7	; 247
    8c9a:	76 7a       	andi	r23, 0xA6	; 166
    8c9c:	7e 7f       	andi	r23, 0xFE	; 254
    8c9e:	7f 7f       	andi	r23, 0xFF	; 255
    8ca0:	7f 7e       	andi	r23, 0xEF	; 239
    8ca2:	7d 7b       	andi	r23, 0xBD	; 189
    8ca4:	7a 78       	andi	r23, 0x8A	; 138
    8ca6:	76 74       	andi	r23, 0x46	; 70
    8ca8:	73 71       	andi	r23, 0x13	; 19
    8caa:	70 6e       	ori	r23, 0xE0	; 224
    8cac:	6d 6b       	ori	r22, 0xBD	; 189
    8cae:	6a 69       	ori	r22, 0x9A	; 154
    8cb0:	68 67       	ori	r22, 0x78	; 120
    8cb2:	66 65       	ori	r22, 0x56	; 86
    8cb4:	65 64       	ori	r22, 0x45	; 69
    8cb6:	64 63       	ori	r22, 0x34	; 52
    8cb8:	63 62       	ori	r22, 0x23	; 35
    8cba:	62 62       	ori	r22, 0x22	; 34
    8cbc:	61 61       	ori	r22, 0x11	; 17
    8cbe:	61 61       	ori	r22, 0x11	; 17
    8cc0:	61 61       	ori	r22, 0x11	; 17
    8cc2:	61 62       	ori	r22, 0x21	; 33
    8cc4:	62 62       	ori	r22, 0x22	; 34
    8cc6:	63 63       	ori	r22, 0x33	; 51
    8cc8:	63 64       	ori	r22, 0x43	; 67
    8cca:	65 65       	ori	r22, 0x55	; 85
    8ccc:	66 67       	ori	r22, 0x76	; 118
    8cce:	68 69       	ori	r22, 0x98	; 152
    8cd0:	6a 6b       	ori	r22, 0xBA	; 186
    8cd2:	6d 6e       	ori	r22, 0xED	; 237
    8cd4:	70 71       	andi	r23, 0x10	; 16
    8cd6:	73 74       	andi	r23, 0x43	; 67
    8cd8:	76 78       	andi	r23, 0x86	; 134
    8cda:	7a 7b       	andi	r23, 0xBA	; 186
    8cdc:	7d 7e       	andi	r23, 0xED	; 237
    8cde:	7f 7f       	andi	r23, 0xFF	; 255
    8ce0:	7f 7f       	andi	r23, 0xFF	; 255
    8ce2:	7e 7a       	andi	r23, 0xAE	; 174
    8ce4:	76 6f       	ori	r23, 0xF6	; 246
    8ce6:	67 5e       	subi	r22, 0xE7	; 231
    8ce8:	54 49       	sbci	r21, 0x94	; 148
    8cea:	3f 36       	cpi	r19, 0x6F	; 111
    8cec:	2e 27       	eor	r18, r30
    8cee:	22 1e       	adc	r2, r18
    8cf0:	1c 1b       	sub	r17, r28
    8cf2:	1a 1b       	sub	r17, r26
    8cf4:	1c 1e       	adc	r1, r28
    8cf6:	20 22       	and	r2, r16
    8cf8:	23 1f       	adc	r18, r19
    8cfa:	15 0b       	sbc	r17, r21
    8cfc:	07 08       	sbc	r0, r7
    8cfe:	07 00       	.word	0x0007	; ????
    8d00:	1f 31       	cpi	r17, 0x1F	; 31
    8d02:	3d 44       	sbci	r19, 0x4D	; 77
    8d04:	4e 53       	subi	r20, 0x3E	; 62
    8d06:	54 56       	subi	r21, 0x64	; 100
    8d08:	5a 5f       	subi	r21, 0xFA	; 250
    8d0a:	64 69       	ori	r22, 0x94	; 148
    8d0c:	6e 74       	andi	r22, 0x4E	; 78
    8d0e:	76 79       	andi	r23, 0x96	; 150
    8d10:	7c 7f       	andi	r23, 0xFC	; 252
    8d12:	7f 7f       	andi	r23, 0xFF	; 255
    8d14:	7f 7f       	andi	r23, 0xFF	; 255
    8d16:	7f 7f       	andi	r23, 0xFF	; 255
    8d18:	7f 7f       	andi	r23, 0xFF	; 255
    8d1a:	7f 7f       	andi	r23, 0xFF	; 255
    8d1c:	7f 7f       	andi	r23, 0xFF	; 255
    8d1e:	7f 7f       	andi	r23, 0xFF	; 255
    8d20:	7f 7f       	andi	r23, 0xFF	; 255
    8d22:	7f 7f       	andi	r23, 0xFF	; 255
    8d24:	7f 7f       	andi	r23, 0xFF	; 255
    8d26:	7f 7f       	andi	r23, 0xFF	; 255
    8d28:	7f 7f       	andi	r23, 0xFF	; 255
    8d2a:	7f 7f       	andi	r23, 0xFF	; 255
    8d2c:	7f 7f       	andi	r23, 0xFF	; 255
    8d2e:	7f 7f       	andi	r23, 0xFF	; 255
    8d30:	7f 7f       	andi	r23, 0xFF	; 255
    8d32:	7f 7f       	andi	r23, 0xFF	; 255
    8d34:	7f 7f       	andi	r23, 0xFF	; 255
    8d36:	7f 7f       	andi	r23, 0xFF	; 255
    8d38:	7f 7f       	andi	r23, 0xFF	; 255
    8d3a:	7f 7f       	andi	r23, 0xFF	; 255
    8d3c:	7f 7f       	andi	r23, 0xFF	; 255
    8d3e:	7f 7f       	andi	r23, 0xFF	; 255
    8d40:	7f 7f       	andi	r23, 0xFF	; 255
    8d42:	7f 7f       	andi	r23, 0xFF	; 255
    8d44:	7f 7f       	andi	r23, 0xFF	; 255
    8d46:	7f 7f       	andi	r23, 0xFF	; 255
    8d48:	7f 7f       	andi	r23, 0xFF	; 255
    8d4a:	7f 7f       	andi	r23, 0xFF	; 255
    8d4c:	7f 7f       	andi	r23, 0xFF	; 255
    8d4e:	7f 7f       	andi	r23, 0xFF	; 255
    8d50:	7f 7f       	andi	r23, 0xFF	; 255
    8d52:	7f 7f       	andi	r23, 0xFF	; 255
    8d54:	7f 7f       	andi	r23, 0xFF	; 255
    8d56:	7f 7f       	andi	r23, 0xFF	; 255
    8d58:	7f 7f       	andi	r23, 0xFF	; 255
    8d5a:	7f 7f       	andi	r23, 0xFF	; 255
    8d5c:	7f 7f       	andi	r23, 0xFF	; 255
    8d5e:	7f 7f       	andi	r23, 0xFF	; 255
    8d60:	7f 7f       	andi	r23, 0xFF	; 255
    8d62:	7f 7f       	andi	r23, 0xFF	; 255
    8d64:	7f 7f       	andi	r23, 0xFF	; 255
    8d66:	7f 7f       	andi	r23, 0xFF	; 255
    8d68:	7f 7f       	andi	r23, 0xFF	; 255
    8d6a:	7f 7f       	andi	r23, 0xFF	; 255
    8d6c:	7f 7f       	andi	r23, 0xFF	; 255
    8d6e:	7f 7f       	andi	r23, 0xFF	; 255
    8d70:	7f 7f       	andi	r23, 0xFF	; 255
    8d72:	7f 7f       	andi	r23, 0xFF	; 255
    8d74:	7f 7f       	andi	r23, 0xFF	; 255
    8d76:	7f 7f       	andi	r23, 0xFF	; 255
    8d78:	7f 7f       	andi	r23, 0xFF	; 255
    8d7a:	7f 7c       	andi	r23, 0xCF	; 207
    8d7c:	78 71       	andi	r23, 0x18	; 24
    8d7e:	68 4c       	sbci	r22, 0xC8	; 200
    8d80:	2c 1c       	adc	r2, r12
    8d82:	12 0c       	add	r1, r2
    8d84:	0a 0b       	sbc	r16, r26
    8d86:	0a 05       	cpc	r16, r10
    8d88:	fd f3       	brhs	.-2      	; 0x8d88 <waves+0x988>
    8d8a:	e9 df       	rcall	.-46     	; 0x8d5e <waves+0x95e>
    8d8c:	d4 ca       	rjmp	.-2648   	; 0x8336 <steptable+0x12e>
    8d8e:	c0 b7       	in	r28, 0x30	; 48
    8d90:	ae a6       	std	Y+46, r10	; 0x2e
    8d92:	9e 97       	sbiw	r26, 0x2e	; 46
    8d94:	91 8b       	std	Z+17, r25	; 0x11
    8d96:	86 85       	ldd	r24, Z+14	; 0x0e
    8d98:	82 80       	ldd	r8, Z+2	; 0x02
    8d9a:	80 80       	ld	r8, Z
    8d9c:	80 80       	ld	r8, Z
    8d9e:	80 80       	ld	r8, Z
    8da0:	80 80       	ld	r8, Z
    8da2:	80 80       	ld	r8, Z
    8da4:	80 80       	ld	r8, Z
    8da6:	80 80       	ld	r8, Z
    8da8:	80 80       	ld	r8, Z
    8daa:	80 80       	ld	r8, Z
    8dac:	80 80       	ld	r8, Z
    8dae:	80 80       	ld	r8, Z
    8db0:	80 80       	ld	r8, Z
    8db2:	80 80       	ld	r8, Z
    8db4:	80 80       	ld	r8, Z
    8db6:	80 80       	ld	r8, Z
    8db8:	80 80       	ld	r8, Z
    8dba:	80 80       	ld	r8, Z
    8dbc:	80 80       	ld	r8, Z
    8dbe:	80 80       	ld	r8, Z
    8dc0:	80 80       	ld	r8, Z
    8dc2:	80 80       	ld	r8, Z
    8dc4:	80 80       	ld	r8, Z
    8dc6:	80 80       	ld	r8, Z
    8dc8:	80 80       	ld	r8, Z
    8dca:	80 80       	ld	r8, Z
    8dcc:	80 80       	ld	r8, Z
    8dce:	80 80       	ld	r8, Z
    8dd0:	80 80       	ld	r8, Z
    8dd2:	80 80       	ld	r8, Z
    8dd4:	80 80       	ld	r8, Z
    8dd6:	80 80       	ld	r8, Z
    8dd8:	80 80       	ld	r8, Z
    8dda:	80 80       	ld	r8, Z
    8ddc:	80 80       	ld	r8, Z
    8dde:	80 80       	ld	r8, Z
    8de0:	80 80       	ld	r8, Z
    8de2:	80 80       	ld	r8, Z
    8de4:	80 80       	ld	r8, Z
    8de6:	80 80       	ld	r8, Z
    8de8:	80 80       	ld	r8, Z
    8dea:	80 80       	ld	r8, Z
    8dec:	80 80       	ld	r8, Z
    8dee:	80 80       	ld	r8, Z
    8df0:	80 80       	ld	r8, Z
    8df2:	80 80       	ld	r8, Z
    8df4:	80 87       	std	Z+8, r24	; 0x08
    8df6:	91 9d       	mul	r25, r1
    8df8:	ac c4       	rjmp	.+2392   	; 0x9752 <joinNetGame+0x1e>
    8dfa:	cb d4       	rcall	.+2454   	; 0x9792 <joinNetGame+0x5e>
    8dfc:	dd f2       	brhs	.-74     	; 0x8db4 <waves+0x9b4>
    8dfe:	fa fa       	.word	0xfafa	; ????

00008e00 <ProcessSprites>:
}



#if (SPRITES_AUTO_PROCESS != 0)
void ProcessSprites(){
    8e00:	2f 92       	push	r2
    8e02:	3f 92       	push	r3
    8e04:	4f 92       	push	r4
    8e06:	5f 92       	push	r5
    8e08:	6f 92       	push	r6
    8e0a:	7f 92       	push	r7
    8e0c:	8f 92       	push	r8
    8e0e:	9f 92       	push	r9
    8e10:	af 92       	push	r10
    8e12:	bf 92       	push	r11
    8e14:	cf 92       	push	r12
    8e16:	df 92       	push	r13
    8e18:	ef 92       	push	r14
    8e1a:	ff 92       	push	r15
    8e1c:	0f 93       	push	r16
    8e1e:	1f 93       	push	r17
    8e20:	cf 93       	push	r28
    8e22:	df 93       	push	r29
    8e24:	00 d0       	rcall	.+0      	; 0x8e26 <ProcessSprites+0x26>
    8e26:	00 d0       	rcall	.+0      	; 0x8e28 <ProcessSprites+0x28>
    8e28:	00 d0       	rcall	.+0      	; 0x8e2a <ProcessSprites+0x2a>
    8e2a:	cd b7       	in	r28, 0x3d	; 61
    8e2c:	de b7       	in	r29, 0x3e	; 62

	u8 i;

	if (!sprites_on){ return; }
    8e2e:	80 91 00 01 	lds	r24, 0x0100
    8e32:	88 23       	and	r24, r24
    8e34:	09 f4       	brne	.+2      	; 0x8e38 <ProcessSprites+0x38>
    8e36:	b1 c0       	rjmp	.+354    	; 0x8f9a <ProcessSprites+0x19a>

	user_ram_tiles_c = user_ram_tiles_c_tmp;
    8e38:	80 91 0e 0a 	lds	r24, 0x0A0E
    8e3c:	80 93 0d 0a 	sts	0x0A0D, r24
	free_tile_index = user_ram_tiles_c;
    8e40:	80 93 0c 0a 	sts	0x0A0C, r24
    8e44:	00 e0       	ldi	r16, 0x00	; 0
    8e46:	10 e0       	ldi	r17, 0x00	; 0
    8e48:	f8 01       	movw	r30, r16
    8e4a:	e8 55       	subi	r30, 0x58	; 88
    8e4c:	fb 4f       	sbci	r31, 0xFB	; 251

	for (i = 0U; i < MAX_SPRITES; i++){

		BlitSprite(sprites[i].flags,
    8e4e:	81 81       	ldd	r24, Z+1	; 0x01
    8e50:	90 81       	ld	r25, Z
    8e52:	32 81       	ldd	r19, Z+2	; 0x02
    8e54:	43 81       	ldd	r20, Z+3	; 0x03
	** or Y would clip on the left). In a scrolling config. only
	** TILE_WIDTH = 8 is really supported due to the "weird" VRAM
	** layout, VRAM_TILES_H is also fixed 32 this case. */

	#if (SCROLLING == 0)
	bx = (((ssx + TILE_WIDTH) & 0xFFU) / TILE_WIDTH) - 1U;
    8e56:	28 e0       	ldi	r18, 0x08	; 8
    8e58:	29 0f       	add	r18, r25
    8e5a:	26 95       	lsr	r18
    8e5c:	26 95       	lsr	r18
    8e5e:	26 95       	lsr	r18
    8e60:	33 24       	eor	r3, r3
    8e62:	3a 94       	dec	r3
    8e64:	32 0e       	add	r3, r18
	#else
	bx = ssx / TILE_WIDTH;
	#endif
	dx = ssx % TILE_WIDTH;
    8e66:	97 70       	andi	r25, 0x07	; 7
	if (dx != 0U){ tx++; }
    8e68:	19 f0       	breq	.+6      	; 0x8e70 <ProcessSprites+0x70>
    8e6a:	e2 e0       	ldi	r30, 0x02	; 2
    8e6c:	2e 2e       	mov	r2, r30
    8e6e:	02 c0       	rjmp	.+4      	; 0x8e74 <ProcessSprites+0x74>
	#else
	ssx = xpos;
	ssy = ypos;
	#endif

	tx = 1U;
    8e70:	22 24       	eor	r2, r2
    8e72:	23 94       	inc	r2
	#endif
	dx = ssx % TILE_WIDTH;
	if (dx != 0U){ tx++; }

	#if (SCROLLING == 0)
	by = (((ssy + TILE_HEIGHT) & 0xFFU) / TILE_HEIGHT) - 1U;
    8e74:	28 e0       	ldi	r18, 0x08	; 8
    8e76:	28 0f       	add	r18, r24
    8e78:	52 2e       	mov	r5, r18
    8e7a:	56 94       	lsr	r5
    8e7c:	56 94       	lsr	r5
    8e7e:	56 94       	lsr	r5
    8e80:	5a 94       	dec	r5
	#else
	by = ssy / TILE_HEIGHT;
	#endif
	dy = ssy % TILE_HEIGHT;
    8e82:	87 70       	andi	r24, 0x07	; 7
	if (dy != 0U){ ty++; }
    8e84:	19 f0       	breq	.+6      	; 0x8e8c <ProcessSprites+0x8c>
    8e86:	22 e0       	ldi	r18, 0x02	; 2
    8e88:	29 83       	std	Y+1, r18	; 0x01
    8e8a:	02 c0       	rjmp	.+4      	; 0x8e90 <ProcessSprites+0x90>
	ssx = xpos;
	ssy = ypos;
	#endif

	tx = 1U;
	ty = 1U;
    8e8c:	e1 e0       	ldi	r30, 0x01	; 1
    8e8e:	e9 83       	std	Y+1, r30	; 0x01
				if ( (bt < RAM_TILES_COUNT) &&
				     (bt >= user_ram_tiles_c) ){
					BlitSpritePart(bt,
					               ((u16)(flags) << 8) + sprindex,
					               ((u16)(y)     << 8) + x,
					               ((u16)(dy)    << 8) + dx);
    8e90:	68 2e       	mov	r6, r24
    8e92:	71 2c       	mov	r7, r1
    8e94:	76 2c       	mov	r7, r6
    8e96:	66 24       	eor	r6, r6

				}

				if ( (bt < RAM_TILES_COUNT) &&
				     (bt >= user_ram_tiles_c) ){
					BlitSpritePart(bt,
    8e98:	69 0e       	add	r6, r25
    8e9a:	71 1c       	adc	r7, r1
					               ((u16)(flags) << 8) + sprindex,
    8e9c:	50 e0       	ldi	r21, 0x00	; 0
    8e9e:	54 2f       	mov	r21, r20
    8ea0:	44 27       	eor	r20, r20

				}

				if ( (bt < RAM_TILES_COUNT) &&
				     (bt >= user_ram_tiles_c) ){
					BlitSpritePart(bt,
    8ea2:	ca 01       	movw	r24, r20
    8ea4:	83 0f       	add	r24, r19
    8ea6:	91 1d       	adc	r25, r1
    8ea8:	9b 83       	std	Y+3, r25	; 0x03
    8eaa:	8a 83       	std	Y+2, r24	; 0x02
    8eac:	e1 2c       	mov	r14, r1
    8eae:	f1 2c       	mov	r15, r1
			wx = wx % VRAM_TILES_H;
			{
			#endif

				#if (SCROLLING == 0)
				ramPtr = (wy * VRAM_TILES_H) +
    8eb0:	9e e1       	ldi	r25, 0x1E	; 30
    8eb2:	59 9e       	mul	r5, r25
    8eb4:	50 01       	movw	r10, r0
    8eb6:	11 24       	eor	r1, r1

				if ( (bt < RAM_TILES_COUNT) &&
				     (bt >= user_ram_tiles_c) ){
					BlitSpritePart(bt,
					               ((u16)(flags) << 8) + sprindex,
					               ((u16)(y)     << 8) + x,
    8eb8:	9e 2c       	mov	r9, r14
    8eba:	88 24       	eor	r8, r8
    8ebc:	43 2c       	mov	r4, r3
    8ebe:	c1 2c       	mov	r12, r1
    8ec0:	d1 2c       	mov	r13, r1
		for (x = 0U; x < tx; x++){

			wx = bx + x;

			#if (SCROLLING == 0)
			if ( (wx < VRAM_TILES_H) &&
    8ec2:	ed e1       	ldi	r30, 0x1D	; 29
    8ec4:	e4 15       	cp	r30, r4
    8ec6:	08 f4       	brcc	.+2      	; 0x8eca <ProcessSprites+0xca>
    8ec8:	53 c0       	rjmp	.+166    	; 0x8f70 <ProcessSprites+0x170>
    8eca:	fb e1       	ldi	r31, 0x1B	; 27
    8ecc:	f5 15       	cp	r31, r5
    8ece:	08 f4       	brcc	.+2      	; 0x8ed2 <ProcessSprites+0xd2>
    8ed0:	4f c0       	rjmp	.+158    	; 0x8f70 <ProcessSprites+0x170>
			wx = wx % VRAM_TILES_H;
			{
			#endif

				#if (SCROLLING == 0)
				ramPtr = (wy * VRAM_TILES_H) +
    8ed2:	c5 01       	movw	r24, r10
    8ed4:	84 0d       	add	r24, r4
    8ed6:	91 1d       	adc	r25, r1
				#else
				ramPtr = ((u16)(wy >> 3) * 256U) +
				         (wx * 8U) + (wy & 0x07U);
				#endif

				bt = vram[ramPtr];
    8ed8:	9c 01       	movw	r18, r24
    8eda:	20 5a       	subi	r18, 0xA0	; 160
    8edc:	3e 4f       	sbci	r19, 0xFE	; 254
    8ede:	3e 83       	std	Y+6, r19	; 0x06
    8ee0:	2d 83       	std	Y+5, r18	; 0x05
    8ee2:	f9 01       	movw	r30, r18
    8ee4:	90 81       	ld	r25, Z

				if ( ( (bt >= RAM_TILES_COUNT) |
    8ee6:	81 e0       	ldi	r24, 0x01	; 1
    8ee8:	94 31       	cpi	r25, 0x14	; 20
    8eea:	08 f4       	brcc	.+2      	; 0x8eee <ProcessSprites+0xee>
    8eec:	80 e0       	ldi	r24, 0x00	; 0
    8eee:	21 e0       	ldi	r18, 0x01	; 1
    8ef0:	30 91 0d 0a 	lds	r19, 0x0A0D
    8ef4:	93 17       	cp	r25, r19
    8ef6:	18 f0       	brcs	.+6      	; 0x8efe <ProcessSprites+0xfe>
    8ef8:	20 e0       	ldi	r18, 0x00	; 0
    8efa:	88 23       	and	r24, r24
    8efc:	61 f1       	breq	.+88     	; 0x8f56 <ProcessSprites+0x156>
				       (bt < user_ram_tiles_c)) &&
				     (free_tile_index < RAM_TILES_COUNT) ){ /* if no ram free ignore tile */
    8efe:	60 91 0c 0a 	lds	r22, 0x0A0C
				#endif

				bt = vram[ramPtr];

				if ( ( (bt >= RAM_TILES_COUNT) |
				       (bt < user_ram_tiles_c)) &&
    8f02:	64 31       	cpi	r22, 0x14	; 20
    8f04:	30 f5       	brcc	.+76     	; 0x8f52 <ProcessSprites+0x152>
				     (free_tile_index < RAM_TILES_COUNT) ){ /* if no ram free ignore tile */

					if (bt >= RAM_TILES_COUNT){
    8f06:	88 23       	and	r24, r24
    8f08:	31 f0       	breq	.+12     	; 0x8f16 <ProcessSprites+0x116>
						/* tile is mapped to flash. Copy it to next free RAM tile. */
						CopyFlashTile(bt - RAM_TILES_COUNT, free_tile_index);
    8f0a:	8c ee       	ldi	r24, 0xEC	; 236
    8f0c:	89 0f       	add	r24, r25
    8f0e:	9c 83       	std	Y+4, r25	; 0x04
    8f10:	0e 94 dd 36 	call	0x6dba	; 0x6dba <CopyFlashTile>
    8f14:	06 c0       	rjmp	.+12     	; 0x8f22 <ProcessSprites+0x122>
					}else if (bt < user_ram_tiles_c){
    8f16:	22 23       	and	r18, r18
    8f18:	29 f0       	breq	.+10     	; 0x8f24 <ProcessSprites+0x124>
						/* tile is a user ram tile. Copy it to next free RAM tile. */
						CopyRamTile(bt, free_tile_index);
    8f1a:	89 2f       	mov	r24, r25
    8f1c:	9c 83       	std	Y+4, r25	; 0x04
    8f1e:	0e 94 6c 37 	call	0x6ed8	; 0x6ed8 <CopyRamTile>
    8f22:	9c 81       	ldd	r25, Y+4	; 0x04
					}
					#if (RTLIST_ENABLE != 0)
					ram_tiles_restore[free_tile_index].addr = (&vram[ramPtr]);
    8f24:	80 91 0c 0a 	lds	r24, 0x0A0C
    8f28:	e8 2f       	mov	r30, r24
    8f2a:	f0 e0       	ldi	r31, 0x00	; 0
    8f2c:	9f 01       	movw	r18, r30
    8f2e:	22 0f       	add	r18, r18
    8f30:	33 1f       	adc	r19, r19
    8f32:	e2 0f       	add	r30, r18
    8f34:	f3 1f       	adc	r31, r19
    8f36:	e0 53       	subi	r30, 0x30	; 48
    8f38:	f6 4f       	sbci	r31, 0xF6	; 246
    8f3a:	2d 81       	ldd	r18, Y+5	; 0x05
    8f3c:	3e 81       	ldd	r19, Y+6	; 0x06
    8f3e:	31 83       	std	Z+1, r19	; 0x01
    8f40:	20 83       	st	Z, r18
					ram_tiles_restore[free_tile_index].tileIndex = bt;
    8f42:	92 83       	std	Z+2, r25	; 0x02
					#endif
					vram[ramPtr] = free_tile_index;
    8f44:	f9 01       	movw	r30, r18
    8f46:	80 83       	st	Z, r24
					bt = free_tile_index;
					free_tile_index++;
    8f48:	91 e0       	ldi	r25, 0x01	; 1
    8f4a:	98 0f       	add	r25, r24
    8f4c:	90 93 0c 0a 	sts	0x0A0C, r25
					#if (RTLIST_ENABLE != 0)
					ram_tiles_restore[free_tile_index].addr = (&vram[ramPtr]);
					ram_tiles_restore[free_tile_index].tileIndex = bt;
					#endif
					vram[ramPtr] = free_tile_index;
					bt = free_tile_index;
    8f50:	98 2f       	mov	r25, r24
					free_tile_index++;

				}

				if ( (bt < RAM_TILES_COUNT) &&
    8f52:	94 31       	cpi	r25, 0x14	; 20
    8f54:	68 f4       	brcc	.+26     	; 0x8f70 <ProcessSprites+0x170>
    8f56:	80 91 0d 0a 	lds	r24, 0x0A0D
    8f5a:	98 17       	cp	r25, r24
    8f5c:	48 f0       	brcs	.+18     	; 0x8f70 <ProcessSprites+0x170>
				     (bt >= user_ram_tiles_c) ){
					BlitSpritePart(bt,
    8f5e:	93 01       	movw	r18, r6
    8f60:	a6 01       	movw	r20, r12
    8f62:	48 0d       	add	r20, r8
    8f64:	59 1d       	adc	r21, r9
    8f66:	6a 81       	ldd	r22, Y+2	; 0x02
    8f68:	7b 81       	ldd	r23, Y+3	; 0x03
    8f6a:	89 2f       	mov	r24, r25
    8f6c:	0e 94 0c 38 	call	0x7018	; 0x7018 <BlitSpritePart>
    8f70:	ff ef       	ldi	r31, 0xFF	; 255
    8f72:	cf 1a       	sub	r12, r31
    8f74:	df 0a       	sbc	r13, r31
    8f76:	43 94       	inc	r4
				wy -= Screen.scrollHeight;
			}
		}
		#endif

		for (x = 0U; x < tx; x++){
    8f78:	c2 14       	cp	r12, r2
    8f7a:	08 f4       	brcc	.+2      	; 0x8f7e <ProcessSprites+0x17e>
    8f7c:	a2 cf       	rjmp	.-188    	; 0x8ec2 <ProcessSprites+0xc2>
    8f7e:	2f ef       	ldi	r18, 0xFF	; 255
    8f80:	e2 1a       	sub	r14, r18
    8f82:	f2 0a       	sbc	r15, r18
    8f84:	53 94       	inc	r5
	dy = ssy % TILE_HEIGHT;
	if (dy != 0U){ ty++; }

	/* Output sprite tiles */

	for (y = 0U; y < ty; y++){
    8f86:	99 81       	ldd	r25, Y+1	; 0x01
    8f88:	e9 16       	cp	r14, r25
    8f8a:	08 f4       	brcc	.+2      	; 0x8f8e <ProcessSprites+0x18e>
    8f8c:	91 cf       	rjmp	.-222    	; 0x8eb0 <ProcessSprites+0xb0>
    8f8e:	0c 5f       	subi	r16, 0xFC	; 252
    8f90:	1f 4f       	sbci	r17, 0xFF	; 255
	if (!sprites_on){ return; }

	user_ram_tiles_c = user_ram_tiles_c_tmp;
	free_tile_index = user_ram_tiles_c;

	for (i = 0U; i < MAX_SPRITES; i++){
    8f92:	08 32       	cpi	r16, 0x28	; 40
    8f94:	11 05       	cpc	r17, r1
    8f96:	09 f0       	breq	.+2      	; 0x8f9a <ProcessSprites+0x19a>
    8f98:	57 cf       	rjmp	.-338    	; 0x8e48 <ProcessSprites+0x48>

	#if (SPRITES_VSYNC_PROCESS != 0)
	RestoreBackground();
	#endif

}
    8f9a:	26 96       	adiw	r28, 0x06	; 6
    8f9c:	0f b6       	in	r0, 0x3f	; 63
    8f9e:	f8 94       	cli
    8fa0:	de bf       	out	0x3e, r29	; 62
    8fa2:	0f be       	out	0x3f, r0	; 63
    8fa4:	cd bf       	out	0x3d, r28	; 61
    8fa6:	df 91       	pop	r29
    8fa8:	cf 91       	pop	r28
    8faa:	1f 91       	pop	r17
    8fac:	0f 91       	pop	r16
    8fae:	ff 90       	pop	r15
    8fb0:	ef 90       	pop	r14
    8fb2:	df 90       	pop	r13
    8fb4:	cf 90       	pop	r12
    8fb6:	bf 90       	pop	r11
    8fb8:	af 90       	pop	r10
    8fba:	9f 90       	pop	r9
    8fbc:	8f 90       	pop	r8
    8fbe:	7f 90       	pop	r7
    8fc0:	6f 90       	pop	r6
    8fc2:	5f 90       	pop	r5
    8fc4:	4f 90       	pop	r4
    8fc6:	3f 90       	pop	r3
    8fc8:	2f 90       	pop	r2
    8fca:	08 95       	ret

00008fcc <MapSprite2>:
		}

	}


	void MapSprite2(unsigned char startSprite,const char *map,u8 spriteFlags){      
    8fcc:	df 92       	push	r13
    8fce:	ef 92       	push	r14
    8fd0:	ff 92       	push	r15
    8fd2:	0f 93       	push	r16
    8fd4:	1f 93       	push	r17
    8fd6:	cf 93       	push	r28
    8fd8:	df 93       	push	r29
    8fda:	db 01       	movw	r26, r22
    
		unsigned char mapWidth=pgm_read_byte(&(map[0]));
    8fdc:	fb 01       	movw	r30, r22
    8fde:	14 91       	lpm	r17, Z
		unsigned char mapHeight=pgm_read_byte(&(map[1]));
    8fe0:	31 96       	adiw	r30, 0x01	; 1
    8fe2:	64 91       	lpm	r22, Z
    8fe4:	5f ef       	ldi	r21, 0xFF	; 255
    8fe6:	51 0f       	add	r21, r17
		s8 x,y,dx,dy,t; 

		if(spriteFlags & SPRITE_FLIP_X){
    8fe8:	24 2f       	mov	r18, r20
    8fea:	21 70       	andi	r18, 0x01	; 1
    8fec:	40 ff       	sbrs	r20, 0
    8fee:	04 c0       	rjmp	.+8      	; 0x8ff8 <MapSprite2+0x2c>
			x=(mapWidth-1);
    8ff0:	95 2f       	mov	r25, r21
			dx=-1;
    8ff2:	ff 24       	eor	r15, r15
    8ff4:	fa 94       	dec	r15
    8ff6:	03 c0       	rjmp	.+6      	; 0x8ffe <MapSprite2+0x32>
		}else{
			x=0;
			dx=1;
    8ff8:	ff 24       	eor	r15, r15
    8ffa:	f3 94       	inc	r15

		if(spriteFlags & SPRITE_FLIP_X){
			x=(mapWidth-1);
			dx=-1;
		}else{
			x=0;
    8ffc:	90 e0       	ldi	r25, 0x00	; 0
			dx=1;
		}

		if(spriteFlags & SPRITE_FLIP_Y){
    8ffe:	41 ff       	sbrs	r20, 1
    9000:	05 c0       	rjmp	.+10     	; 0x900c <MapSprite2+0x40>
			y=(mapHeight-1);
    9002:	7f ef       	ldi	r23, 0xFF	; 255
    9004:	76 0f       	add	r23, r22
			dy=-1;
    9006:	ee 24       	eor	r14, r14
    9008:	ea 94       	dec	r14
    900a:	03 c0       	rjmp	.+6      	; 0x9012 <MapSprite2+0x46>
		}else{
			y=0;
			dy=1;
    900c:	ee 24       	eor	r14, r14
    900e:	e3 94       	inc	r14

		if(spriteFlags & SPRITE_FLIP_Y){
			y=(mapHeight-1);
			dy=-1;
		}else{
			y=0;
    9010:	70 e0       	ldi	r23, 0x00	; 0
    9012:	21 11       	cpse	r18, r1
    9014:	01 c0       	rjmp	.+2      	; 0x9018 <MapSprite2+0x4c>
    9016:	50 e0       	ldi	r21, 0x00	; 0
			dy=1;
		}

		for(u8 cy=0;cy<mapHeight;cy++){
    9018:	00 e0       	ldi	r16, 0x00	; 0
    901a:	06 17       	cp	r16, r22
    901c:	09 f1       	breq	.+66     	; 0x9060 <MapSprite2+0x94>
			for(u8 cx=0;cx<mapWidth;cx++){
				t=pgm_read_byte(&(map[(y*mapWidth)+x+2])); 
    901e:	71 03       	mulsu	r23, r17
    9020:	e0 01       	movw	r28, r0
    9022:	11 24       	eor	r1, r1
    9024:	d8 2e       	mov	r13, r24
    9026:	d1 0e       	add	r13, r17
			y=0;
			dy=1;
		}

		for(u8 cy=0;cy<mapHeight;cy++){
			for(u8 cx=0;cx<mapWidth;cx++){
    9028:	8d 15       	cp	r24, r13
    902a:	b1 f0       	breq	.+44     	; 0x9058 <MapSprite2+0x8c>
				t=pgm_read_byte(&(map[(y*mapWidth)+x+2])); 
    902c:	9e 01       	movw	r18, r28
    902e:	29 0f       	add	r18, r25
    9030:	31 1d       	adc	r19, r1
    9032:	97 fd       	sbrc	r25, 7
    9034:	3a 95       	dec	r19
    9036:	2e 5f       	subi	r18, 0xFE	; 254
    9038:	3f 4f       	sbci	r19, 0xFF	; 255
    903a:	fd 01       	movw	r30, r26
    903c:	e2 0f       	add	r30, r18
    903e:	f3 1f       	adc	r31, r19
    9040:	24 91       	lpm	r18, Z
				sprites[startSprite].tileIndex=t;
    9042:	34 e0       	ldi	r19, 0x04	; 4
    9044:	83 9f       	mul	r24, r19
    9046:	f0 01       	movw	r30, r0
    9048:	11 24       	eor	r1, r1
    904a:	e8 55       	subi	r30, 0x58	; 88
    904c:	fb 4f       	sbci	r31, 0xFB	; 251
    904e:	22 83       	std	Z+2, r18	; 0x02
				sprites[startSprite++].flags=spriteFlags;
    9050:	8f 5f       	subi	r24, 0xFF	; 255
    9052:	43 83       	std	Z+3, r20	; 0x03
    9054:	9f 0d       	add	r25, r15
    9056:	e8 cf       	rjmp	.-48     	; 0x9028 <MapSprite2+0x5c>
    9058:	7e 0d       	add	r23, r14
		}else{
			y=0;
			dy=1;
		}

		for(u8 cy=0;cy<mapHeight;cy++){
    905a:	0f 5f       	subi	r16, 0xFF	; 255
				sprites[startSprite].tileIndex=t;
				sprites[startSprite++].flags=spriteFlags;
				x+=dx;
			}
			y+=dy;
			x=(spriteFlags & SPRITE_FLIP_X)?(mapWidth-1):0;
    905c:	95 2f       	mov	r25, r21
    905e:	dd cf       	rjmp	.-70     	; 0x901a <MapSprite2+0x4e>
	    }
	}
    9060:	df 91       	pop	r29
    9062:	cf 91       	pop	r28
    9064:	1f 91       	pop	r17
    9066:	0f 91       	pop	r16
    9068:	ff 90       	pop	r15
    906a:	ef 90       	pop	r14
    906c:	df 90       	pop	r13
    906e:	08 95       	ret

00009070 <MoveSprite>:


	void MoveSprite(unsigned char startSprite,unsigned char x,unsigned char y,unsigned char width,unsigned char height){
    9070:	0f 93       	push	r16
    9072:	cf 93       	push	r28
    9074:	50 e0       	ldi	r21, 0x00	; 0

		for(unsigned char dy=0;dy<height;dy++){
    9076:	30 e0       	ldi	r19, 0x00	; 0
    9078:	30 17       	cp	r19, r16
    907a:	e1 f0       	breq	.+56     	; 0x90b4 <MoveSprite+0x44>
    907c:	b4 2f       	mov	r27, r20
    907e:	a0 e2       	ldi	r26, 0x20	; 32
    9080:	a4 0f       	add	r26, r20
    9082:	78 2f       	mov	r23, r24
    9084:	72 0f       	add	r23, r18
    9086:	96 2f       	mov	r25, r22
			for(unsigned char dx=0;dx<width;dx++){
    9088:	87 17       	cp	r24, r23
    908a:	81 f0       	breq	.+32     	; 0x90ac <MoveSprite+0x3c>
			
				sprites[startSprite].x=x+(TILE_WIDTH*dx);
    908c:	c4 e0       	ldi	r28, 0x04	; 4
    908e:	8c 9f       	mul	r24, r28
    9090:	f0 01       	movw	r30, r0
    9092:	11 24       	eor	r1, r1
    9094:	e8 55       	subi	r30, 0x58	; 88
    9096:	fb 4f       	sbci	r31, 0xFB	; 251
    9098:	90 83       	st	Z, r25
						sprites[startSprite].y=tmp;
					}else{
						sprites[startSprite].y=y+(TILE_HEIGHT*dy);
					}
				#else
					if((VRAM_TILES_V<32) && (y+(TILE_HEIGHT*dy))>(VRAM_TILES_V*TILE_HEIGHT)){
    909a:	41 3e       	cpi	r20, 0xE1	; 225
    909c:	51 05       	cpc	r21, r1
    909e:	14 f0       	brlt	.+4      	; 0x90a4 <MoveSprite+0x34>
						unsigned char tmp=(y+(TILE_HEIGHT*dy))-(VRAM_TILES_V*TILE_HEIGHT);
						sprites[startSprite].y=tmp;
    90a0:	a1 83       	std	Z+1, r26	; 0x01
    90a2:	01 c0       	rjmp	.+2      	; 0x90a6 <MoveSprite+0x36>
					}else{
						sprites[startSprite].y=y+(TILE_HEIGHT*dy);
    90a4:	b1 83       	std	Z+1, r27	; 0x01
					}
				#endif

				startSprite++;
    90a6:	8f 5f       	subi	r24, 0xFF	; 255
    90a8:	98 5f       	subi	r25, 0xF8	; 248
    90aa:	ee cf       	rjmp	.-36     	; 0x9088 <MoveSprite+0x18>
	}


	void MoveSprite(unsigned char startSprite,unsigned char x,unsigned char y,unsigned char width,unsigned char height){

		for(unsigned char dy=0;dy<height;dy++){
    90ac:	3f 5f       	subi	r19, 0xFF	; 255
    90ae:	48 5f       	subi	r20, 0xF8	; 248
    90b0:	5f 4f       	sbci	r21, 0xFF	; 255
    90b2:	e2 cf       	rjmp	.-60     	; 0x9078 <MoveSprite+0x8>

				startSprite++;
			}
		}	

	}
    90b4:	cf 91       	pop	r28
    90b6:	0f 91       	pop	r16
    90b8:	08 95       	ret

000090ba <DisplayLogo>:
#endif



	//Callback invoked by UzeboxCore.Initialize()
	void DisplayLogo(){
    90ba:	08 95       	ret

000090bc <InitializeVideoMode>:
		#endif	
	}


	//Callback invoked by UzeboxCore.Initialize()
	void InitializeVideoMode(){
    90bc:	e8 ea       	ldi	r30, 0xA8	; 168
    90be:	f4 e0       	ldi	r31, 0x04	; 4

		//disable sprites
		#if (SPRITES_AUTO_PROCESS != 0)
		for(int i=0;i<MAX_SPRITES;i++){
			sprites[i].x=(SCREEN_TILES_H*TILE_WIDTH);		
    90c0:	80 ef       	ldi	r24, 0xF0	; 240
    90c2:	80 83       	st	Z, r24
    90c4:	34 96       	adiw	r30, 0x04	; 4
	//Callback invoked by UzeboxCore.Initialize()
	void InitializeVideoMode(){

		//disable sprites
		#if (SPRITES_AUTO_PROCESS != 0)
		for(int i=0;i<MAX_SPRITES;i++){
    90c6:	94 e0       	ldi	r25, 0x04	; 4
    90c8:	e0 3d       	cpi	r30, 0xD0	; 208
    90ca:	f9 07       	cpc	r31, r25
    90cc:	d1 f7       	brne	.-12     	; 0x90c2 <InitializeVideoMode+0x6>
		//	}
			Screen.scrollHeight=VRAM_TILES_V;
			Screen.overlayHeight=0;
		#endif

		free_tile_index      = 0U;
    90ce:	10 92 0c 0a 	sts	0x0A0C, r1
		user_ram_tiles_c_tmp = 0U;
    90d2:	10 92 0e 0a 	sts	0x0A0E, r1
    90d6:	08 95       	ret

000090d8 <DrawMap>:



//Draws a map of tile at the specified position
#if VRAM_ADDR_SIZE == 1
	void DrawMap(unsigned char x,unsigned char y,const VRAM_PTR_TYPE *map) {
    90d8:	4f 92       	push	r4
    90da:	5f 92       	push	r5
    90dc:	6f 92       	push	r6
    90de:	7f 92       	push	r7
    90e0:	8f 92       	push	r8
    90e2:	9f 92       	push	r9
    90e4:	af 92       	push	r10
    90e6:	bf 92       	push	r11
    90e8:	cf 92       	push	r12
    90ea:	df 92       	push	r13
    90ec:	ef 92       	push	r14
    90ee:	ff 92       	push	r15
    90f0:	0f 93       	push	r16
    90f2:	1f 93       	push	r17
    90f4:	cf 93       	push	r28
    90f6:	df 93       	push	r29
    90f8:	68 2e       	mov	r6, r24
    90fa:	56 2e       	mov	r5, r22
    90fc:	7a 01       	movw	r14, r20
		//unsigned char i;
		u8 mapWidth=pgm_read_byte(&(map[0]));
    90fe:	fa 01       	movw	r30, r20
    9100:	74 90       	lpm	r7, Z
		u8 mapHeight=pgm_read_byte(&(map[1]));
    9102:	31 96       	adiw	r30, 0x01	; 1
    9104:	84 90       	lpm	r8, Z
    9106:	c7 2c       	mov	r12, r7
    9108:	d1 2c       	mov	r13, r1
		
		for(u8 dy=0;dy<mapHeight;dy++){
    910a:	00 e0       	ldi	r16, 0x00	; 0
    910c:	10 e0       	ldi	r17, 0x00	; 0
    910e:	91 2c       	mov	r9, r1
    9110:	98 14       	cp	r9, r8
    9112:	f1 f0       	breq	.+60     	; 0x9150 <DrawMap+0x78>
    9114:	c0 e0       	ldi	r28, 0x00	; 0
    9116:	d0 e0       	ldi	r29, 0x00	; 0
    9118:	58 01       	movw	r10, r16
    911a:	f2 e0       	ldi	r31, 0x02	; 2
    911c:	af 0e       	add	r10, r31
    911e:	b1 1c       	adc	r11, r1
    9120:	49 2c       	mov	r4, r9
    9122:	45 0c       	add	r4, r5
			for(u8 dx=0;dx<mapWidth;dx++){			
    9124:	c7 15       	cp	r28, r7
    9126:	80 f4       	brcc	.+32     	; 0x9148 <DrawMap+0x70>
    9128:	95 01       	movw	r18, r10
    912a:	2c 0f       	add	r18, r28
    912c:	3d 1f       	adc	r19, r29
    912e:	f7 01       	movw	r30, r14
    9130:	e2 0f       	add	r30, r18
    9132:	f3 1f       	adc	r31, r19
				SetTile(x+dx,y+dy,pgm_read_byte(&(map[(dy*mapWidth)+dx+2])));					
    9134:	24 91       	lpm	r18, Z
    9136:	42 2f       	mov	r20, r18
    9138:	50 e0       	ldi	r21, 0x00	; 0
    913a:	64 2d       	mov	r22, r4
    913c:	8c 2f       	mov	r24, r28
    913e:	86 0d       	add	r24, r6
    9140:	0e 94 37 3a 	call	0x746e	; 0x746e <SetTile>
    9144:	21 96       	adiw	r28, 0x01	; 1
    9146:	ee cf       	rjmp	.-36     	; 0x9124 <DrawMap+0x4c>
	void DrawMap(unsigned char x,unsigned char y,const VRAM_PTR_TYPE *map) {
		//unsigned char i;
		u8 mapWidth=pgm_read_byte(&(map[0]));
		u8 mapHeight=pgm_read_byte(&(map[1]));
		
		for(u8 dy=0;dy<mapHeight;dy++){
    9148:	93 94       	inc	r9
    914a:	0c 0d       	add	r16, r12
    914c:	1d 1d       	adc	r17, r13
    914e:	e0 cf       	rjmp	.-64     	; 0x9110 <DrawMap+0x38>
			for(u8 dx=0;dx<mapWidth;dx++){			
				SetTile(x+dx,y+dy,pgm_read_byte(&(map[(dy*mapWidth)+dx+2])));					
			}
		}

	}
    9150:	df 91       	pop	r29
    9152:	cf 91       	pop	r28
    9154:	1f 91       	pop	r17
    9156:	0f 91       	pop	r16
    9158:	ff 90       	pop	r15
    915a:	ef 90       	pop	r14
    915c:	df 90       	pop	r13
    915e:	cf 90       	pop	r12
    9160:	bf 90       	pop	r11
    9162:	af 90       	pop	r10
    9164:	9f 90       	pop	r9
    9166:	8f 90       	pop	r8
    9168:	7f 90       	pop	r7
    916a:	6f 90       	pop	r6
    916c:	5f 90       	pop	r5
    916e:	4f 90       	pop	r4
    9170:	08 95       	ret

00009172 <PrintByte>:
	}
		
}

//Print an unsigned byte in decimal
void PrintByte(int x,int y, unsigned char val,bool zeropad){
    9172:	df 92       	push	r13
    9174:	ef 92       	push	r14
    9176:	ff 92       	push	r15
    9178:	0f 93       	push	r16
    917a:	1f 93       	push	r17
    917c:	cf 93       	push	r28
    917e:	df 93       	push	r29
    9180:	f6 2e       	mov	r15, r22
    9182:	04 2f       	mov	r16, r20
    9184:	d2 2e       	mov	r13, r18
    9186:	ec 01       	movw	r28, r24
	unsigned char c,i;

	for(i=0;i<3;i++){
    9188:	10 e0       	ldi	r17, 0x00	; 0
		c=val%10;
    918a:	8a e0       	ldi	r24, 0x0A	; 10
    918c:	e8 2e       	mov	r14, r24
		if(val>0 || i==0){
    918e:	01 11       	cpse	r16, r1
    9190:	02 c0       	rjmp	.+4      	; 0x9196 <PrintByte+0x24>
    9192:	11 11       	cpse	r17, r1
    9194:	07 c0       	rjmp	.+14     	; 0x91a4 <PrintByte+0x32>
//Print an unsigned byte in decimal
void PrintByte(int x,int y, unsigned char val,bool zeropad){
	unsigned char c,i;

	for(i=0;i<3;i++){
		c=val%10;
    9196:	80 2f       	mov	r24, r16
    9198:	6e 2d       	mov	r22, r14
    919a:	0e 94 6c 72 	call	0xe4d8	; 0xe4d8 <__udivmodqi4>
		if(val>0 || i==0){
			SetFont(x--,y,c+CHAR_ZERO);
    919e:	40 e1       	ldi	r20, 0x10	; 16
    91a0:	49 0f       	add	r20, r25
    91a2:	05 c0       	rjmp	.+10     	; 0x91ae <PrintByte+0x3c>
		}else{
			if(zeropad){
    91a4:	dd 20       	and	r13, r13
    91a6:	11 f0       	breq	.+4      	; 0x91ac <PrintByte+0x3a>
				SetFont(x--,y,CHAR_ZERO);
    91a8:	40 e1       	ldi	r20, 0x10	; 16
    91aa:	01 c0       	rjmp	.+2      	; 0x91ae <PrintByte+0x3c>
			}else{
				SetFont(x--,y,0);
    91ac:	40 e0       	ldi	r20, 0x00	; 0
    91ae:	6f 2d       	mov	r22, r15
    91b0:	8c 2f       	mov	r24, r28
    91b2:	0e 94 33 3a 	call	0x7466	; 0x7466 <SetFont>
			}
		}
		val=val/10;
    91b6:	80 2f       	mov	r24, r16
    91b8:	6e 2d       	mov	r22, r14
    91ba:	0e 94 6c 72 	call	0xe4d8	; 0xe4d8 <__udivmodqi4>
    91be:	08 2f       	mov	r16, r24

//Print an unsigned byte in decimal
void PrintByte(int x,int y, unsigned char val,bool zeropad){
	unsigned char c,i;

	for(i=0;i<3;i++){
    91c0:	1f 5f       	subi	r17, 0xFF	; 255
    91c2:	21 97       	sbiw	r28, 0x01	; 1
    91c4:	13 30       	cpi	r17, 0x03	; 3
    91c6:	19 f7       	brne	.-58     	; 0x918e <PrintByte+0x1c>
			}
		}
		val=val/10;
	}
		
}
    91c8:	df 91       	pop	r29
    91ca:	cf 91       	pop	r28
    91cc:	1f 91       	pop	r17
    91ce:	0f 91       	pop	r16
    91d0:	ff 90       	pop	r15
    91d2:	ef 90       	pop	r14
    91d4:	df 90       	pop	r13
    91d6:	08 95       	ret

000091d8 <Print>:
	PrintHexByte(x+4,y, value>>8);
	PrintHexByte(x+6,y,value&0xff);
}

//Print a string from flash
void Print(int x,int y,const char *string){
    91d8:	0f 93       	push	r16
    91da:	1f 93       	push	r17
    91dc:	cf 93       	push	r28
    91de:	df 93       	push	r29
    91e0:	06 2f       	mov	r16, r22
    91e2:	c4 2f       	mov	r28, r20
    91e4:	d5 2f       	mov	r29, r21
    91e6:	18 2f       	mov	r17, r24
    91e8:	14 1b       	sub	r17, r20

	int i=0;
	char c;

	while(1){
		c=pgm_read_byte(&(string[i++]));		
    91ea:	fe 01       	movw	r30, r28
    91ec:	44 91       	lpm	r20, Z
		if(c!=0){
    91ee:	44 23       	and	r20, r20
    91f0:	49 f0       	breq	.+18     	; 0x9204 <Print+0x2c>
			c=((c&127)-32);			
    91f2:	4f 77       	andi	r20, 0x7F	; 127
    91f4:	40 52       	subi	r20, 0x20	; 32
			SetFont(x++,y,c);
    91f6:	60 2f       	mov	r22, r16
    91f8:	8c 2f       	mov	r24, r28
    91fa:	81 0f       	add	r24, r17
    91fc:	0e 94 33 3a 	call	0x7466	; 0x7466 <SetFont>
    9200:	21 96       	adiw	r28, 0x01	; 1
		}else{
			break;
		}
	}
    9202:	f3 cf       	rjmp	.-26     	; 0x91ea <Print+0x12>
	
}
    9204:	df 91       	pop	r29
    9206:	cf 91       	pop	r28
    9208:	1f 91       	pop	r17
    920a:	0f 91       	pop	r16
    920c:	08 95       	ret

0000920e <PrintChar>:
}

//Print a single character
void PrintChar(int x,int y,char c){

	SetFont(x,y,(c-32));
    920e:	40 52       	subi	r20, 0x20	; 32
    9210:	0c 94 33 3a 	jmp	0x7466	; 0x7466 <SetFont>

00009214 <WaitVsync>:
		}
	}
}

//Wait for the beginning of next frame (60hz)
void WaitVsync(int count){
    9214:	0f 93       	push	r16
    9216:	1f 93       	push	r17
    9218:	cf 93       	push	r28
    921a:	df 93       	push	r29
    921c:	8c 01       	movw	r16, r24
	int i;
	//ClearVsyncFlag();
	for(i=0;i<count;i++){
    921e:	c0 e0       	ldi	r28, 0x00	; 0
    9220:	d0 e0       	ldi	r29, 0x00	; 0
    9222:	c0 17       	cp	r28, r16
    9224:	d1 07       	cpc	r29, r17
    9226:	44 f4       	brge	.+16     	; 0x9238 <WaitVsync+0x24>
		while(!GetVsyncFlag());
    9228:	0e 94 4d 3a 	call	0x749a	; 0x749a <GetVsyncFlag>
    922c:	88 23       	and	r24, r24
    922e:	e1 f3       	breq	.-8      	; 0x9228 <WaitVsync+0x14>
		ClearVsyncFlag();		
    9230:	0e 94 51 3a 	call	0x74a2	; 0x74a2 <ClearVsyncFlag>

//Wait for the beginning of next frame (60hz)
void WaitVsync(int count){
	int i;
	//ClearVsyncFlag();
	for(i=0;i<count;i++){
    9234:	21 96       	adiw	r28, 0x01	; 1
    9236:	f5 cf       	rjmp	.-22     	; 0x9222 <WaitVsync+0xe>
		while(!GetVsyncFlag());
		ClearVsyncFlag();		
	}
}
    9238:	df 91       	pop	r29
    923a:	cf 91       	pop	r28
    923c:	1f 91       	pop	r17
    923e:	0f 91       	pop	r16
    9240:	08 95       	ret

00009242 <doFade>:
char fadeDir;
bool volatile fadeActive;


void doFade(unsigned char speed,bool blocking){
	fadeSpeed=speed;
    9242:	80 93 51 0b 	sts	0x0B51, r24
	currFadeFrame=0;
    9246:	10 92 54 0b 	sts	0x0B54, r1
	fadeActive=true;
    924a:	81 e0       	ldi	r24, 0x01	; 1
    924c:	80 93 53 0b 	sts	0x0B53, r24
		
	if(blocking){
    9250:	66 23       	and	r22, r22
    9252:	21 f0       	breq	.+8      	; 0x925c <doFade+0x1a>
		while(fadeActive==true);
    9254:	80 91 53 0b 	lds	r24, 0x0B53
    9258:	81 11       	cpse	r24, r1
    925a:	fc cf       	rjmp	.-8      	; 0x9254 <doFade+0x12>
    925c:	08 95       	ret

0000925e <FadeIn>:
	
	
}

void FadeIn(unsigned char speed,bool blocking){
	if(speed==0){
    925e:	81 11       	cpse	r24, r1
    9260:	03 c0       	rjmp	.+6      	; 0x9268 <FadeIn+0xa>
		DDRC=0xff;
    9262:	8f ef       	ldi	r24, 0xFF	; 255
    9264:	87 b9       	out	0x07, r24	; 7
		return;
    9266:	08 95       	ret
	}
	fadeStep=1;
    9268:	91 e0       	ldi	r25, 0x01	; 1
    926a:	90 93 55 0b 	sts	0x0B55, r25
	fadeDir=1;
    926e:	90 93 52 0b 	sts	0x0B52, r25
	doFade(speed,blocking);
    9272:	0c 94 21 49 	jmp	0x9242	; 0x9242 <doFade>

00009276 <FadeOut>:
}

void FadeOut(unsigned char speed,bool blocking){
	if(speed==0){
    9276:	81 11       	cpse	r24, r1
    9278:	02 c0       	rjmp	.+4      	; 0x927e <FadeOut+0x8>
		DDRC=0;
    927a:	17 b8       	out	0x07, r1	; 7
		return;
    927c:	08 95       	ret
	}
	
	fadeStep=FADER_STEPS;
    927e:	9c e0       	ldi	r25, 0x0C	; 12
    9280:	90 93 55 0b 	sts	0x0B55, r25
	fadeDir=-1;
    9284:	9f ef       	ldi	r25, 0xFF	; 255
    9286:	90 93 52 0b 	sts	0x0B52, r25
	doFade(speed,blocking);
    928a:	0c 94 21 49 	jmp	0x9242	; 0x9242 <doFade>

0000928e <ProcessFading>:
}


//called by the kernel at each field end
void ProcessFading(){
	if(fadeActive==true){
    928e:	80 91 53 0b 	lds	r24, 0x0B53
    9292:	88 23       	and	r24, r24
    9294:	01 f1       	breq	.+64     	; 0x92d6 <ProcessFading+0x48>
		if(currFadeFrame==0){
    9296:	80 91 54 0b 	lds	r24, 0x0B54
    929a:	81 11       	cpse	r24, r1
    929c:	19 c0       	rjmp	.+50     	; 0x92d0 <ProcessFading+0x42>
			currFadeFrame=fadeSpeed;
    929e:	80 91 51 0b 	lds	r24, 0x0B51
    92a2:	80 93 54 0b 	sts	0x0B54, r24
			DDRC = pgm_read_byte(&(fader[fadeStep-1]));
    92a6:	e0 91 55 0b 	lds	r30, 0x0B55
    92aa:	f0 e0       	ldi	r31, 0x00	; 0
    92ac:	e5 52       	subi	r30, 0x25	; 37
    92ae:	ff 4f       	sbci	r31, 0xFF	; 255
    92b0:	e4 91       	lpm	r30, Z
    92b2:	e7 b9       	out	0x07, r30	; 7
			fadeStep+=fadeDir;
    92b4:	90 91 52 0b 	lds	r25, 0x0B52
    92b8:	80 91 55 0b 	lds	r24, 0x0B55
    92bc:	89 0f       	add	r24, r25
    92be:	80 93 55 0b 	sts	0x0B55, r24
			if(fadeStep==0 || fadeStep==(FADER_STEPS+1)){
    92c2:	88 23       	and	r24, r24
    92c4:	11 f0       	breq	.+4      	; 0x92ca <ProcessFading+0x3c>
    92c6:	8d 30       	cpi	r24, 0x0D	; 13
    92c8:	31 f4       	brne	.+12     	; 0x92d6 <ProcessFading+0x48>
				fadeActive=false;
    92ca:	10 92 53 0b 	sts	0x0B53, r1
    92ce:	08 95       	ret
			}
		}else{
			currFadeFrame--;
    92d0:	81 50       	subi	r24, 0x01	; 1
    92d2:	80 93 54 0b 	sts	0x0B54, r24
    92d6:	08 95       	ret

000092d8 <VideoModeVsync>:
/*
** Callback invoked during hsync
*/
void VideoModeVsync(){

	ProcessFading();
    92d8:	0c 94 47 49 	jmp	0x928e	; 0x928e <ProcessFading>

000092dc <LBPlaySound.part.6>:
void LBPlaySound(u8 game_selection, u8 p1_flags, u8 p2_flags, u8 patch)
{
#if JAMMA
	if(no_demo_sound() && game_selection == CPUVCPU) {} else if (!((p1_flags & EXPLODING_FLAG) || (p2_flags & EXPLODING_FLAG))) TriggerFx(patch,0xff,true);
#else
	if (patch == PATCH_TANK_EXPLODE) TriggerFx(patch,0xff,true);
    92dc:	41 e0       	ldi	r20, 0x01	; 1
    92de:	6f ef       	ldi	r22, 0xFF	; 255
    92e0:	0c 94 eb 3d 	jmp	0x7bd6	; 0x7bd6 <TriggerFx>

000092e4 <wifiSendP>:
#define WIFI_TIMEOUT 1
#define WIFI_NODATA 2

#define TIMEOUT 10*60

u8 wifiSendP(const char* str){
    92e4:	1f 93       	push	r17
    92e6:	cf 93       	push	r28
    92e8:	df 93       	push	r29
    92ea:	ec 01       	movw	r28, r24

	char c;
	while(str!=NULL){
    92ec:	20 97       	sbiw	r28, 0x00	; 0
    92ee:	59 f0       	breq	.+22     	; 0x9306 <wifiSendP+0x22>
		c=pgm_read_byte(str);
    92f0:	fe 01       	movw	r30, r28
    92f2:	14 91       	lpm	r17, Z
		if(c==0)break;
    92f4:	11 23       	and	r17, r17
    92f6:	39 f0       	breq	.+14     	; 0x9306 <wifiSendP+0x22>
		while(UartSendChar(c)==-1); //block if buffer full
    92f8:	81 2f       	mov	r24, r17
    92fa:	0e 94 51 3c 	call	0x78a2	; 0x78a2 <UartSendChar>
    92fe:	8f 3f       	cpi	r24, 0xFF	; 255
    9300:	d9 f3       	breq	.-10     	; 0x92f8 <wifiSendP+0x14>
		str++;
    9302:	21 96       	adiw	r28, 0x01	; 1
    9304:	f3 cf       	rjmp	.-26     	; 0x92ec <wifiSendP+0x8>
	};

	return WIFI_OK;
}
    9306:	80 e0       	ldi	r24, 0x00	; 0
    9308:	df 91       	pop	r29
    930a:	cf 91       	pop	r28
    930c:	1f 91       	pop	r17
    930e:	08 95       	ret

00009310 <wifiSend>:

u8 wifiSend(char* str){
    9310:	1f 93       	push	r17
    9312:	cf 93       	push	r28
    9314:	df 93       	push	r29
    9316:	ec 01       	movw	r28, r24

	char c;
	while(str!=NULL){
    9318:	20 97       	sbiw	r28, 0x00	; 0
    931a:	49 f0       	breq	.+18     	; 0x932e <wifiSend+0x1e>
		c=*str;
    931c:	19 91       	ld	r17, Y+
		if(c==0)break;
    931e:	11 23       	and	r17, r17
    9320:	31 f0       	breq	.+12     	; 0x932e <wifiSend+0x1e>
		while(UartSendChar(c)==-1); //block if buffer full
    9322:	81 2f       	mov	r24, r17
    9324:	0e 94 51 3c 	call	0x78a2	; 0x78a2 <UartSendChar>
    9328:	8f 3f       	cpi	r24, 0xFF	; 255
    932a:	d9 f3       	breq	.-10     	; 0x9322 <wifiSend+0x12>
    932c:	f5 cf       	rjmp	.-22     	; 0x9318 <wifiSend+0x8>
		str++;
	};
	return WIFI_OK;
}
    932e:	80 e0       	ldi	r24, 0x00	; 0
    9330:	df 91       	pop	r29
    9332:	cf 91       	pop	r28
    9334:	1f 91       	pop	r17
    9336:	08 95       	ret

00009338 <wifiSendBinary>:

u8 wifiSendBinary(char* str, u8 sz){
    9338:	0f 93       	push	r16
    933a:	1f 93       	push	r17
    933c:	cf 93       	push	r28
    933e:	df 93       	push	r29

	char c;
	while(sz--){
    9340:	c8 2f       	mov	r28, r24
    9342:	d9 2f       	mov	r29, r25
    9344:	16 2f       	mov	r17, r22
    9346:	18 0f       	add	r17, r24
    9348:	1c 17       	cp	r17, r28
    934a:	39 f0       	breq	.+14     	; 0x935a <wifiSendBinary+0x22>
		c=*str;
    934c:	09 91       	ld	r16, Y+
		while(UartSendChar(c)==-1); //block if buffer full
    934e:	80 2f       	mov	r24, r16
    9350:	0e 94 51 3c 	call	0x78a2	; 0x78a2 <UartSendChar>
    9354:	8f 3f       	cpi	r24, 0xFF	; 255
    9356:	d9 f3       	breq	.-10     	; 0x934e <wifiSendBinary+0x16>
    9358:	f7 cf       	rjmp	.-18     	; 0x9348 <wifiSendBinary+0x10>
		str++;
	};
	return WIFI_OK;
}
    935a:	80 e0       	ldi	r24, 0x00	; 0
    935c:	df 91       	pop	r29
    935e:	cf 91       	pop	r28
    9360:	1f 91       	pop	r17
    9362:	0f 91       	pop	r16
    9364:	08 95       	ret

00009366 <wifiGetIfAvailable>:

u8 wifiGetIfAvailable(void* buffer, u8 expectedSize) {
    9366:	ef 92       	push	r14
    9368:	ff 92       	push	r15
    936a:	1f 93       	push	r17
    936c:	cf 93       	push	r28
    936e:	df 93       	push	r29
    9370:	00 d0       	rcall	.+0      	; 0x9372 <wifiGetIfAvailable+0xc>
    9372:	cd b7       	in	r28, 0x3d	; 61
    9374:	de b7       	in	r29, 0x3e	; 62
    9376:	18 2f       	mov	r17, r24
	if (UartUnreadCount() < expectedSize) {
    9378:	69 83       	std	Y+1, r22	; 0x01
    937a:	9a 83       	std	Y+2, r25	; 0x02
    937c:	0e 94 2f 3c 	call	0x785e	; 0x785e <UartUnreadCount>
    9380:	69 81       	ldd	r22, Y+1	; 0x01
    9382:	9a 81       	ldd	r25, Y+2	; 0x02
    9384:	86 17       	cp	r24, r22
    9386:	68 f0       	brcs	.+26     	; 0x93a2 <wifiGetIfAvailable+0x3c>
    9388:	e1 2e       	mov	r14, r17
    938a:	f9 2e       	mov	r15, r25
    938c:	16 0f       	add	r17, r22
		return WIFI_NODATA;
	}
	while (expectedSize--) {
    938e:	1e 15       	cp	r17, r14
    9390:	31 f0       	breq	.+12     	; 0x939e <wifiGetIfAvailable+0x38>
		*((char*)buffer) = UartReadChar() & 0xff;
    9392:	0e 94 35 3c 	call	0x786a	; 0x786a <UartReadChar>
    9396:	f7 01       	movw	r30, r14
    9398:	81 93       	st	Z+, r24
    939a:	7f 01       	movw	r14, r30
    939c:	f8 cf       	rjmp	.-16     	; 0x938e <wifiGetIfAvailable+0x28>

u8 wifiGetIfAvailable(void* buffer, u8 expectedSize) {
	if (UartUnreadCount() < expectedSize) {
		return WIFI_NODATA;
	}
	while (expectedSize--) {
    939e:	80 e0       	ldi	r24, 0x00	; 0
    93a0:	01 c0       	rjmp	.+2      	; 0x93a4 <wifiGetIfAvailable+0x3e>
	return WIFI_OK;
}

u8 wifiGetIfAvailable(void* buffer, u8 expectedSize) {
	if (UartUnreadCount() < expectedSize) {
		return WIFI_NODATA;
    93a2:	82 e0       	ldi	r24, 0x02	; 2
	while (expectedSize--) {
		*((char*)buffer) = UartReadChar() & 0xff;
		buffer++;
	}
	return WIFI_OK;
}
    93a4:	0f 90       	pop	r0
    93a6:	0f 90       	pop	r0
    93a8:	df 91       	pop	r29
    93aa:	cf 91       	pop	r28
    93ac:	1f 91       	pop	r17
    93ae:	ff 90       	pop	r15
    93b0:	ef 90       	pop	r14
    93b2:	08 95       	ret

000093b4 <wifiGetPB>:

u8 wifiGetPB(const char* str, char* rxbuf){
    93b4:	ef 92       	push	r14
    93b6:	ff 92       	push	r15
    93b8:	0f 93       	push	r16
    93ba:	1f 93       	push	r17
    93bc:	cf 93       	push	r28
    93be:	df 93       	push	r29
    93c0:	f8 2e       	mov	r15, r24
    93c2:	e9 2e       	mov	r14, r25
    93c4:	8b 01       	movw	r16, r22
	u8 c;
	s16 r;
	const char* p=str;
	char* buf=rxbuf;
	ClearVsyncCounter();
    93c6:	0e 94 5c 3a 	call	0x74b8	; 0x74b8 <ClearVsyncCounter>
}

u8 wifiGetPB(const char* str, char* rxbuf){
	u8 c;
	s16 r;
	const char* p=str;
    93ca:	cf 2d       	mov	r28, r15
    93cc:	de 2d       	mov	r29, r14
	char* buf=rxbuf;
	ClearVsyncCounter();

	while(1){

		r=UartReadChar();
    93ce:	0e 94 35 3c 	call	0x786a	; 0x786a <UartReadChar>
		if(r!=-1){
    93d2:	8f 3f       	cpi	r24, 0xFF	; 255
    93d4:	ef ef       	ldi	r30, 0xFF	; 255
    93d6:	9e 07       	cpc	r25, r30
    93d8:	99 f0       	breq	.+38     	; 0x9400 <wifiGetPB+0x4c>

			c=r&(0xff);
    93da:	28 2f       	mov	r18, r24

			if(buf!=NULL){
    93dc:	01 15       	cp	r16, r1
    93de:	11 05       	cpc	r17, r1
    93e0:	19 f0       	breq	.+6      	; 0x93e8 <wifiGetPB+0x34>
				*buf=c;
    93e2:	f8 01       	movw	r30, r16
    93e4:	81 93       	st	Z+, r24
    93e6:	8f 01       	movw	r16, r30
				buf++;
			}

			if(c==pgm_read_byte(p)){
    93e8:	fe 01       	movw	r30, r28
    93ea:	84 91       	lpm	r24, Z
    93ec:	28 13       	cpse	r18, r24
    93ee:	06 c0       	rjmp	.+12     	; 0x93fc <wifiGetPB+0x48>
				p++;
    93f0:	21 96       	adiw	r28, 0x01	; 1
				if(pgm_read_byte(p)==0){
    93f2:	fe 01       	movw	r30, r28
    93f4:	84 91       	lpm	r24, Z
    93f6:	81 11       	cpse	r24, r1
    93f8:	03 c0       	rjmp	.+6      	; 0x9400 <wifiGetPB+0x4c>
    93fa:	09 c0       	rjmp	.+18     	; 0x940e <wifiGetPB+0x5a>
					return WIFI_OK;
				}
			}else{
				//reset string compare
				p=str;
    93fc:	cf 2d       	mov	r28, r15
    93fe:	de 2d       	mov	r29, r14
			}
		}

		if(GetVsyncCounter()>TIMEOUT){
    9400:	0e 94 57 3a 	call	0x74ae	; 0x74ae <GetVsyncCounter>
    9404:	89 35       	cpi	r24, 0x59	; 89
    9406:	92 40       	sbci	r25, 0x02	; 2
    9408:	10 f3       	brcs	.-60     	; 0x93ce <wifiGetPB+0x1a>
			return WIFI_TIMEOUT;
    940a:	81 e0       	ldi	r24, 0x01	; 1
    940c:	01 c0       	rjmp	.+2      	; 0x9410 <wifiGetPB+0x5c>
			}

			if(c==pgm_read_byte(p)){
				p++;
				if(pgm_read_byte(p)==0){
					return WIFI_OK;
    940e:	80 e0       	ldi	r24, 0x00	; 0
		if(GetVsyncCounter()>TIMEOUT){
			return WIFI_TIMEOUT;
		}
	}

}
    9410:	df 91       	pop	r29
    9412:	cf 91       	pop	r28
    9414:	1f 91       	pop	r17
    9416:	0f 91       	pop	r16
    9418:	ff 90       	pop	r15
    941a:	ef 90       	pop	r14
    941c:	08 95       	ret

0000941e <wifiGetPBT>:

u8 wifiGetPBT(const char* str, char* rxbuf, u16 wifi_timeout){
    941e:	cf 92       	push	r12
    9420:	df 92       	push	r13
    9422:	ef 92       	push	r14
    9424:	ff 92       	push	r15
    9426:	0f 93       	push	r16
    9428:	1f 93       	push	r17
    942a:	cf 93       	push	r28
    942c:	df 93       	push	r29
    942e:	f8 2e       	mov	r15, r24
    9430:	e9 2e       	mov	r14, r25
    9432:	8b 01       	movw	r16, r22
    9434:	6a 01       	movw	r12, r20
    u8 c;
    s16 r;
    const char* p=str;
    char* buf=rxbuf;
    ClearVsyncCounter();
    9436:	0e 94 5c 3a 	call	0x74b8	; 0x74b8 <ClearVsyncCounter>
}

u8 wifiGetPBT(const char* str, char* rxbuf, u16 wifi_timeout){
    u8 c;
    s16 r;
    const char* p=str;
    943a:	cf 2d       	mov	r28, r15
    943c:	de 2d       	mov	r29, r14
    char* buf=rxbuf;
    ClearVsyncCounter();

    while(1){

        r=UartReadChar();
    943e:	0e 94 35 3c 	call	0x786a	; 0x786a <UartReadChar>
        if(r!=-1){
    9442:	8f 3f       	cpi	r24, 0xFF	; 255
    9444:	ef ef       	ldi	r30, 0xFF	; 255
    9446:	9e 07       	cpc	r25, r30
    9448:	99 f0       	breq	.+38     	; 0x9470 <wifiGetPBT+0x52>

            c=r&(0xff);
    944a:	28 2f       	mov	r18, r24

            if(buf!=NULL){
    944c:	01 15       	cp	r16, r1
    944e:	11 05       	cpc	r17, r1
    9450:	19 f0       	breq	.+6      	; 0x9458 <wifiGetPBT+0x3a>
                *buf=c;
    9452:	f8 01       	movw	r30, r16
    9454:	81 93       	st	Z+, r24
    9456:	8f 01       	movw	r16, r30
                buf++;
            }

            if(c==pgm_read_byte(p)){
    9458:	fe 01       	movw	r30, r28
    945a:	84 91       	lpm	r24, Z
    945c:	28 13       	cpse	r18, r24
    945e:	06 c0       	rjmp	.+12     	; 0x946c <wifiGetPBT+0x4e>
                p++;
    9460:	21 96       	adiw	r28, 0x01	; 1
                if(pgm_read_byte(p)==0){
    9462:	fe 01       	movw	r30, r28
    9464:	84 91       	lpm	r24, Z
    9466:	81 11       	cpse	r24, r1
    9468:	03 c0       	rjmp	.+6      	; 0x9470 <wifiGetPBT+0x52>
    946a:	09 c0       	rjmp	.+18     	; 0x947e <wifiGetPBT+0x60>
                    return WIFI_OK;
                }
            }else{
                //reset string compare
                p=str;
    946c:	cf 2d       	mov	r28, r15
    946e:	de 2d       	mov	r29, r14
            }
        }

        if(GetVsyncCounter()>wifi_timeout){
    9470:	0e 94 57 3a 	call	0x74ae	; 0x74ae <GetVsyncCounter>
    9474:	c8 16       	cp	r12, r24
    9476:	d9 06       	cpc	r13, r25
    9478:	10 f7       	brcc	.-60     	; 0x943e <wifiGetPBT+0x20>
            return WIFI_TIMEOUT;
    947a:	81 e0       	ldi	r24, 0x01	; 1
    947c:	01 c0       	rjmp	.+2      	; 0x9480 <wifiGetPBT+0x62>
            }

            if(c==pgm_read_byte(p)){
                p++;
                if(pgm_read_byte(p)==0){
                    return WIFI_OK;
    947e:	80 e0       	ldi	r24, 0x00	; 0
        if(GetVsyncCounter()>wifi_timeout){
            return WIFI_TIMEOUT;
        }
    }

}
    9480:	df 91       	pop	r29
    9482:	cf 91       	pop	r28
    9484:	1f 91       	pop	r17
    9486:	0f 91       	pop	r16
    9488:	ff 90       	pop	r15
    948a:	ef 90       	pop	r14
    948c:	df 90       	pop	r13
    948e:	cf 90       	pop	r12
    9490:	08 95       	ret

00009492 <wifiRequestP>:

	return WIFI_OK;
}


u8 wifiRequestP(const char* strToSend, const char* strToWait){
    9492:	cf 93       	push	r28
    9494:	df 93       	push	r29
    9496:	eb 01       	movw	r28, r22
	wifiSendP(strToSend);
    9498:	0e 94 72 49 	call	0x92e4	; 0x92e4 <wifiSendP>
	if(wifiGetPB(strToWait, NULL)==WIFI_TIMEOUT){
    949c:	60 e0       	ldi	r22, 0x00	; 0
    949e:	70 e0       	ldi	r23, 0x00	; 0
    94a0:	ce 01       	movw	r24, r28
    94a2:	0e 94 da 49 	call	0x93b4	; 0x93b4 <wifiGetPB>
    94a6:	91 e0       	ldi	r25, 0x01	; 1
    94a8:	81 30       	cpi	r24, 0x01	; 1
    94aa:	09 f0       	breq	.+2      	; 0x94ae <wifiRequestP+0x1c>
    94ac:	90 e0       	ldi	r25, 0x00	; 0
		return WIFI_TIMEOUT;
	}

	return WIFI_OK;
}
    94ae:	89 2f       	mov	r24, r25
    94b0:	df 91       	pop	r29
    94b2:	cf 91       	pop	r28
    94b4:	08 95       	ret

000094b6 <wifiRequest>:

u8 wifiRequest(char* strToSend, const char* strToWait){
    94b6:	cf 93       	push	r28
    94b8:	df 93       	push	r29
    94ba:	eb 01       	movw	r28, r22
	wifiSend(strToSend);
    94bc:	0e 94 88 49 	call	0x9310	; 0x9310 <wifiSend>
	if(wifiGetPB(strToWait, NULL)==WIFI_TIMEOUT){
    94c0:	60 e0       	ldi	r22, 0x00	; 0
    94c2:	70 e0       	ldi	r23, 0x00	; 0
    94c4:	ce 01       	movw	r24, r28
    94c6:	0e 94 da 49 	call	0x93b4	; 0x93b4 <wifiGetPB>
    94ca:	91 e0       	ldi	r25, 0x01	; 1
    94cc:	81 30       	cpi	r24, 0x01	; 1
    94ce:	09 f0       	breq	.+2      	; 0x94d2 <wifiRequest+0x1c>
    94d0:	90 e0       	ldi	r25, 0x00	; 0
		return WIFI_TIMEOUT;
	}

	return WIFI_OK;
}
    94d2:	89 2f       	mov	r24, r25
    94d4:	df 91       	pop	r29
    94d6:	cf 91       	pop	r28
    94d8:	08 95       	ret

000094da <wifiRequestPT>:

u8 wifiRequestPT(const char* strToSend, const char* strToWait, u16 wifi_timeout){
    94da:	0f 93       	push	r16
    94dc:	1f 93       	push	r17
    94de:	cf 93       	push	r28
    94e0:	df 93       	push	r29
    94e2:	00 d0       	rcall	.+0      	; 0x94e4 <wifiRequestPT+0xa>
    94e4:	cd b7       	in	r28, 0x3d	; 61
    94e6:	de b7       	in	r29, 0x3e	; 62
    94e8:	8b 01       	movw	r16, r22
    wifiSendP(strToSend);
    94ea:	49 83       	std	Y+1, r20	; 0x01
    94ec:	5a 83       	std	Y+2, r21	; 0x02
    94ee:	0e 94 72 49 	call	0x92e4	; 0x92e4 <wifiSendP>
    if(wifiGetPBT(strToWait, NULL, wifi_timeout)==WIFI_TIMEOUT){
    94f2:	49 81       	ldd	r20, Y+1	; 0x01
    94f4:	5a 81       	ldd	r21, Y+2	; 0x02
    94f6:	60 e0       	ldi	r22, 0x00	; 0
    94f8:	70 e0       	ldi	r23, 0x00	; 0
    94fa:	c8 01       	movw	r24, r16
    94fc:	0e 94 0f 4a 	call	0x941e	; 0x941e <wifiGetPBT>
    9500:	91 e0       	ldi	r25, 0x01	; 1
    9502:	81 30       	cpi	r24, 0x01	; 1
    9504:	09 f0       	breq	.+2      	; 0x9508 <wifiRequestPT+0x2e>
    9506:	90 e0       	ldi	r25, 0x00	; 0
        return WIFI_TIMEOUT;
    }

    return WIFI_OK;
}
    9508:	89 2f       	mov	r24, r25
    950a:	0f 90       	pop	r0
    950c:	0f 90       	pop	r0
    950e:	df 91       	pop	r29
    9510:	cf 91       	pop	r28
    9512:	1f 91       	pop	r17
    9514:	0f 91       	pop	r16
    9516:	08 95       	ret

00009518 <initWifi>:

const u16 bauds[] PROGMEM = {370,246,184,92,60,44,30};
u8 initWifi(){
    9518:	1f 93       	push	r17
    951a:	cf 93       	push	r28
    951c:	df 93       	push	r29
    s8 i = 0;
    u8 result;
    UCSR0A=(1<<U2X0); // double speed mode
    951e:	82 e0       	ldi	r24, 0x02	; 2
    9520:	80 93 c0 00 	sts	0x00C0, r24
    UCSR0C=(1<<UCSZ01)+(1<<UCSZ00)+(0<<USBS0); //8-bit frame, no parity, 1 stop bit
    9524:	86 e0       	ldi	r24, 0x06	; 6
    9526:	80 93 c2 00 	sts	0x00C2, r24
    UCSR0B=(1<<RXEN0)+(1<<TXEN0); //Enable UART TX & RX
    952a:	88 e1       	ldi	r24, 0x18	; 24
    952c:	80 93 c1 00 	sts	0x00C1, r24
    return WIFI_OK;
}

const u16 bauds[] PROGMEM = {370,246,184,92,60,44,30};
u8 initWifi(){
    s8 i = 0;
    9530:	d0 e0       	ldi	r29, 0x00	; 0
    u8 result;
    UCSR0A=(1<<U2X0); // double speed mode
    UCSR0C=(1<<UCSZ01)+(1<<UCSZ00)+(0<<USBS0); //8-bit frame, no parity, 1 stop bit
    UCSR0B=(1<<RXEN0)+(1<<TXEN0); //Enable UART TX & RX
    do {
        UBRR0L=pgm_read_byte(((u8*) &(bauds[i % 7])));
    9532:	17 e0       	ldi	r17, 0x07	; 7
    9534:	8d 2f       	mov	r24, r29
    9536:	61 2f       	mov	r22, r17
    9538:	0e 94 78 72 	call	0xe4f0	; 0xe4f0 <__divmodqi4>
    953c:	e9 2f       	mov	r30, r25
    953e:	ee 0f       	add	r30, r30
    9540:	ff 0b       	sbc	r31, r31
    9542:	e7 56       	subi	r30, 0x67	; 103
    9544:	fd 4f       	sbci	r31, 0xFD	; 253
    9546:	84 91       	lpm	r24, Z
    9548:	80 93 c4 00 	sts	0x00C4, r24
        UBRR0H=pgm_read_byte(((u8*) &(bauds[i % 7]))+1);
    954c:	31 96       	adiw	r30, 0x01	; 1
    954e:	e4 91       	lpm	r30, Z
    9550:	e0 93 c5 00 	sts	0x00C5, r30
        WaitVsync(1);
    9554:	81 e0       	ldi	r24, 0x01	; 1
    9556:	90 e0       	ldi	r25, 0x00	; 0
    9558:	0e 94 0a 49 	call	0x9214	; 0x9214 <WaitVsync>
        result = wifiRequestPT(PSTR("AT\r\n"),PSTR("OK\r\n"), 30); 
    955c:	4e e1       	ldi	r20, 0x1E	; 30
    955e:	50 e0       	ldi	r21, 0x00	; 0
    9560:	64 e9       	ldi	r22, 0x94	; 148
    9562:	72 e0       	ldi	r23, 0x02	; 2
    9564:	8f e8       	ldi	r24, 0x8F	; 143
    9566:	92 e0       	ldi	r25, 0x02	; 2
    9568:	0e 94 6d 4a 	call	0x94da	; 0x94da <wifiRequestPT>
    956c:	c8 2f       	mov	r28, r24
    956e:	df 5f       	subi	r29, 0xFF	; 255
        i++;
    } while ((result != WIFI_OK) && (i < 14));
    9570:	88 23       	and	r24, r24
    9572:	19 f0       	breq	.+6      	; 0x957a <initWifi+0x62>
    9574:	de 30       	cpi	r29, 0x0E	; 14
    9576:	f1 f6       	brne	.-68     	; 0x9534 <initWifi+0x1c>
    9578:	19 c0       	rjmp	.+50     	; 0x95ac <initWifi+0x94>
    if (result == WIFI_OK) {
        result = wifiRequestPT(PSTR("AT+UART_CUR=14400,8,1,0,0\r\n"),PSTR("OK\r\n"), 2*60); 
    957a:	48 e7       	ldi	r20, 0x78	; 120
    957c:	50 e0       	ldi	r21, 0x00	; 0
    957e:	6a e8       	ldi	r22, 0x8A	; 138
    9580:	72 e0       	ldi	r23, 0x02	; 2
    9582:	8e e6       	ldi	r24, 0x6E	; 110
    9584:	92 e0       	ldi	r25, 0x02	; 2
    9586:	0e 94 6d 4a 	call	0x94da	; 0x94da <wifiRequestPT>
    958a:	c8 2f       	mov	r28, r24
        if (result == WIFI_OK) {
    958c:	81 11       	cpse	r24, r1
    958e:	0e c0       	rjmp	.+28     	; 0x95ac <initWifi+0x94>
            UBRR0L=pgm_read_byte(((u8*) &(bauds[1])));
    9590:	eb e9       	ldi	r30, 0x9B	; 155
    9592:	f2 e0       	ldi	r31, 0x02	; 2
    9594:	e4 91       	lpm	r30, Z
    9596:	e0 93 c4 00 	sts	0x00C4, r30
            UBRR0H=pgm_read_byte(((u8*) &(bauds[1]))+1); 
    959a:	ec e9       	ldi	r30, 0x9C	; 156
    959c:	f2 e0       	ldi	r31, 0x02	; 2
    959e:	e4 91       	lpm	r30, Z
    95a0:	e0 93 c5 00 	sts	0x00C5, r30
            WaitVsync(1);
    95a4:	81 e0       	ldi	r24, 0x01	; 1
    95a6:	90 e0       	ldi	r25, 0x00	; 0
    95a8:	0e 94 0a 49 	call	0x9214	; 0x9214 <WaitVsync>
        }
    }
    return result;
}
    95ac:	8c 2f       	mov	r24, r28
    95ae:	df 91       	pop	r29
    95b0:	cf 91       	pop	r28
    95b2:	1f 91       	pop	r17
    95b4:	08 95       	ret

000095b6 <cleanupWifi>:
	float pos_x;
	float pos_y;
	u8 zero;
} NetMessage;

u8 cleanupWifi() {
    95b6:	cf 93       	push	r28
	u8 counter = 0;
	wifiSendP(PSTR("+++"));
    95b8:	8a e6       	ldi	r24, 0x6A	; 106
    95ba:	92 e0       	ldi	r25, 0x02	; 2
    95bc:	0e 94 72 49 	call	0x92e4	; 0x92e4 <wifiSendP>
	while(counter++ < 5) WaitUs(65535);
    95c0:	c6 e0       	ldi	r28, 0x06	; 6
    95c2:	c1 50       	subi	r28, 0x01	; 1
    95c4:	29 f0       	breq	.+10     	; 0x95d0 <cleanupWifi+0x1a>
    95c6:	8f ef       	ldi	r24, 0xFF	; 255
    95c8:	9f ef       	ldi	r25, 0xFF	; 255
    95ca:	0e 94 6d 3a 	call	0x74da	; 0x74da <WaitUs>
    95ce:	f9 cf       	rjmp	.-14     	; 0x95c2 <cleanupWifi+0xc>
	InitUartTxBuffer();
    95d0:	0e 94 65 3c 	call	0x78ca	; 0x78ca <InitUartTxBuffer>
	InitUartRxBuffer();
    95d4:	0e 94 4c 3c 	call	0x7898	; 0x7898 <InitUartRxBuffer>
	wifiRequestPT(PSTR("AT+CIPMODE=0\r\n"),PSTR("OK\r\n"), 1*60);
    95d8:	4c e3       	ldi	r20, 0x3C	; 60
    95da:	50 e0       	ldi	r21, 0x00	; 0
    95dc:	65 e6       	ldi	r22, 0x65	; 101
    95de:	72 e0       	ldi	r23, 0x02	; 2
    95e0:	86 e5       	ldi	r24, 0x56	; 86
    95e2:	92 e0       	ldi	r25, 0x02	; 2
    95e4:	0e 94 6d 4a 	call	0x94da	; 0x94da <wifiRequestPT>
	wifiRequestPT(PSTR("AT+CIPCLOSE\r\n"),PSTR("OK\r\n"), 1*60);
    95e8:	4c e3       	ldi	r20, 0x3C	; 60
    95ea:	50 e0       	ldi	r21, 0x00	; 0
    95ec:	61 e5       	ldi	r22, 0x51	; 81
    95ee:	72 e0       	ldi	r23, 0x02	; 2
    95f0:	83 e4       	ldi	r24, 0x43	; 67
    95f2:	92 e0       	ldi	r25, 0x02	; 2
    95f4:	0e 94 6d 4a 	call	0x94da	; 0x94da <wifiRequestPT>
	wifiRequestPT(PSTR("AT+CWQAP\r\n"),PSTR("OK\r\n"), 1*60);
    95f8:	4c e3       	ldi	r20, 0x3C	; 60
    95fa:	50 e0       	ldi	r21, 0x00	; 0
    95fc:	6e e3       	ldi	r22, 0x3E	; 62
    95fe:	72 e0       	ldi	r23, 0x02	; 2
    9600:	83 e3       	ldi	r24, 0x33	; 51
    9602:	92 e0       	ldi	r25, 0x02	; 2
    9604:	0e 94 6d 4a 	call	0x94da	; 0x94da <wifiRequestPT>
	InitUartTxBuffer();
    9608:	0e 94 65 3c 	call	0x78ca	; 0x78ca <InitUartTxBuffer>
	InitUartRxBuffer();
    960c:	0e 94 4c 3c 	call	0x7898	; 0x7898 <InitUartRxBuffer>
	return WIFI_OK;
}
    9610:	80 e0       	ldi	r24, 0x00	; 0
    9612:	cf 91       	pop	r28
    9614:	08 95       	ret

00009616 <activateNet>:

u8 activateNet() {
	cleanupWifi();
    9616:	0e 94 db 4a 	call	0x95b6	; 0x95b6 <cleanupWifi>
	return initWifi();
    961a:	0c 94 8c 4a 	jmp	0x9518	; 0x9518 <initWifi>

0000961e <sendNetMessage>:
}

u8 sendNetMessage(NetMessage* msg) {
	return wifiSendBinary((char *) msg, sizeof(*msg));
    961e:	6c e1       	ldi	r22, 0x1C	; 28
    9620:	0c 94 9c 49 	jmp	0x9338	; 0x9338 <wifiSendBinary>

00009624 <getNetMessage>:
}

u8 getNetMessage(NetMessage* msg) {
	return wifiGetIfAvailable(msg, sizeof(*msg));
    9624:	6c e1       	ldi	r22, 0x1C	; 28
    9626:	0c 94 b3 49 	jmp	0x9366	; 0x9366 <wifiGetIfAvailable>

0000962a <hostNetGame>:
}

u8 hostNetGame(char* ssid) {
    962a:	ef 92       	push	r14
    962c:	ff 92       	push	r15
    962e:	0f 93       	push	r16
    9630:	1f 93       	push	r17
    9632:	cf 93       	push	r28
    9634:	df 93       	push	r29
    9636:	cd b7       	in	r28, 0x3d	; 61
    9638:	de b7       	in	r29, 0x3e	; 62
    963a:	c0 54       	subi	r28, 0x40	; 64
    963c:	d1 09       	sbc	r29, r1
    963e:	0f b6       	in	r0, 0x3f	; 63
    9640:	f8 94       	cli
    9642:	de bf       	out	0x3e, r29	; 62
    9644:	0f be       	out	0x3f, r0	; 63
    9646:	cd bf       	out	0x3d, r28	; 61
    9648:	8c 01       	movw	r16, r24
	char buf[64];
	
	// Set SoftAP mode...
	if (wifiRequestP(PSTR("AT+CWMODE_CUR=2\r\n"),PSTR("OK\r\n")) != WIFI_OK) return WIFI_TIMEOUT;
    964a:	6e e2       	ldi	r22, 0x2E	; 46
    964c:	72 e0       	ldi	r23, 0x02	; 2
    964e:	8c e1       	ldi	r24, 0x1C	; 28
    9650:	92 e0       	ldi	r25, 0x02	; 2
    9652:	0e 94 49 4a 	call	0x9492	; 0x9492 <wifiRequestP>
    9656:	81 11       	cpse	r24, r1
    9658:	42 c0       	rjmp	.+132    	; 0x96de <hostNetGame+0xb4>
	// Set SopftAP IP address
	if (wifiRequestP(PSTR("AT+CIPAP_CUR=\"192.168.4.1\"\r\n"), PSTR("OK\r\n")) != WIFI_OK) return WIFI_TIMEOUT;
    965a:	67 e1       	ldi	r22, 0x17	; 23
    965c:	72 e0       	ldi	r23, 0x02	; 2
    965e:	8a ef       	ldi	r24, 0xFA	; 250
    9660:	91 e0       	ldi	r25, 0x01	; 1
    9662:	0e 94 49 4a 	call	0x9492	; 0x9492 <wifiRequestP>
    9666:	81 11       	cpse	r24, r1
    9668:	3a c0       	rjmp	.+116    	; 0x96de <hostNetGame+0xb4>
	// Get SoftAP MAC address...
	wifiSendP(PSTR("AT+CIPAPMAC_CUR?\r\n"));
    966a:	87 ee       	ldi	r24, 0xE7	; 231
    966c:	91 e0       	ldi	r25, 0x01	; 1
    966e:	0e 94 72 49 	call	0x92e4	; 0x92e4 <wifiSendP>
	if (wifiGetPB(PSTR("OK\r\n"), buf) != WIFI_TIMEOUT) {
    9672:	ce 01       	movw	r24, r28
    9674:	01 96       	adiw	r24, 0x01	; 1
    9676:	7c 01       	movw	r14, r24
    9678:	bc 01       	movw	r22, r24
    967a:	82 ee       	ldi	r24, 0xE2	; 226
    967c:	91 e0       	ldi	r25, 0x01	; 1
    967e:	0e 94 da 49 	call	0x93b4	; 0x93b4 <wifiGetPB>
    9682:	81 30       	cpi	r24, 0x01	; 1
    9684:	91 f0       	breq	.+36     	; 0x96aa <hostNetGame+0x80>
		ssid[0] = 'T';
    9686:	84 e5       	ldi	r24, 0x54	; 84
    9688:	f8 01       	movw	r30, r16
    968a:	80 83       	st	Z, r24
		ssid[1] = 'F';
    968c:	86 e4       	ldi	r24, 0x46	; 70
    968e:	81 83       	std	Z+1, r24	; 0x01
		u8 idx = 2;
		for (u8 i = 43; i <= 49; i += 3) {
		   ssid[idx++] = buf[i];
    9690:	8c a5       	ldd	r24, Y+44	; 0x2c
    9692:	82 83       	std	Z+2, r24	; 0x02
		   ssid[idx++] = buf[i+1];
    9694:	8d a5       	ldd	r24, Y+45	; 0x2d
    9696:	83 83       	std	Z+3, r24	; 0x03
	if (wifiGetPB(PSTR("OK\r\n"), buf) != WIFI_TIMEOUT) {
		ssid[0] = 'T';
		ssid[1] = 'F';
		u8 idx = 2;
		for (u8 i = 43; i <= 49; i += 3) {
		   ssid[idx++] = buf[i];
    9698:	8f a5       	ldd	r24, Y+47	; 0x2f
    969a:	84 83       	std	Z+4, r24	; 0x04
		   ssid[idx++] = buf[i+1];
    969c:	88 a9       	ldd	r24, Y+48	; 0x30
    969e:	85 83       	std	Z+5, r24	; 0x05
	if (wifiGetPB(PSTR("OK\r\n"), buf) != WIFI_TIMEOUT) {
		ssid[0] = 'T';
		ssid[1] = 'F';
		u8 idx = 2;
		for (u8 i = 43; i <= 49; i += 3) {
		   ssid[idx++] = buf[i];
    96a0:	8a a9       	ldd	r24, Y+50	; 0x32
    96a2:	86 83       	std	Z+6, r24	; 0x06
		   ssid[idx++] = buf[i+1];
    96a4:	8b a9       	ldd	r24, Y+51	; 0x33
    96a6:	87 83       	std	Z+7, r24	; 0x07
		}
		ssid[8] = 0;
    96a8:	10 86       	std	Z+8, r1	; 0x08
	}
	ssid = strupr(ssid);
    96aa:	c8 01       	movw	r24, r16
    96ac:	0e 94 dd 74 	call	0xe9ba	; 0xe9ba <strupr>
	sprintf(buf, "AT+CWSAP_CUR=\"%s\",\"T4nkFuN3t\",5,3,1\r\n", ssid);
    96b0:	9f 93       	push	r25
    96b2:	8f 93       	push	r24
    96b4:	8d e0       	ldi	r24, 0x0D	; 13
    96b6:	91 e0       	ldi	r25, 0x01	; 1
    96b8:	9f 93       	push	r25
    96ba:	8f 93       	push	r24
    96bc:	ff 92       	push	r15
    96be:	ef 92       	push	r14
    96c0:	0e 94 e7 74 	call	0xe9ce	; 0xe9ce <sprintf>
	
	// Setup local access point...
	if (wifiRequest(buf,PSTR("OK\r\n")) != WIFI_OK) return WIFI_TIMEOUT;
    96c4:	6d ed       	ldi	r22, 0xDD	; 221
    96c6:	71 e0       	ldi	r23, 0x01	; 1
    96c8:	c7 01       	movw	r24, r14
    96ca:	0e 94 5b 4a 	call	0x94b6	; 0x94b6 <wifiRequest>
    96ce:	0f 90       	pop	r0
    96d0:	0f 90       	pop	r0
    96d2:	0f 90       	pop	r0
    96d4:	0f 90       	pop	r0
    96d6:	0f 90       	pop	r0
    96d8:	0f 90       	pop	r0
    96da:	88 23       	and	r24, r24
    96dc:	11 f0       	breq	.+4      	; 0x96e2 <hostNetGame+0xb8>
    96de:	91 e0       	ldi	r25, 0x01	; 1
    96e0:	1a c0       	rjmp	.+52     	; 0x9716 <hostNetGame+0xec>
	// Activate UDP Passthrough mode
	if (wifiRequestP(PSTR("AT+CIPSTART=\"UDP\",\"192.168.4.2\",1001,2233,0\r\n"), PSTR("OK\r\n")) != WIFI_OK) return WIFI_TIMEOUT;
    96e2:	68 ed       	ldi	r22, 0xD8	; 216
    96e4:	71 e0       	ldi	r23, 0x01	; 1
    96e6:	8a ea       	ldi	r24, 0xAA	; 170
    96e8:	91 e0       	ldi	r25, 0x01	; 1
    96ea:	0e 94 49 4a 	call	0x9492	; 0x9492 <wifiRequestP>
    96ee:	81 11       	cpse	r24, r1
    96f0:	f6 cf       	rjmp	.-20     	; 0x96de <hostNetGame+0xb4>
	if (wifiRequestP(PSTR("AT+CIPMODE=1\r\n"),PSTR("OK\r\n")) != WIFI_OK) return WIFI_TIMEOUT;
    96f2:	65 ea       	ldi	r22, 0xA5	; 165
    96f4:	71 e0       	ldi	r23, 0x01	; 1
    96f6:	86 e9       	ldi	r24, 0x96	; 150
    96f8:	91 e0       	ldi	r25, 0x01	; 1
    96fa:	0e 94 49 4a 	call	0x9492	; 0x9492 <wifiRequestP>
    96fe:	81 11       	cpse	r24, r1
    9700:	ee cf       	rjmp	.-36     	; 0x96de <hostNetGame+0xb4>
	if (wifiRequestP(PSTR("AT+CIPSEND\r\n"),PSTR("OK\r\n\r\n>")) != WIFI_OK) return WIFI_TIMEOUT;
    9702:	6e e8       	ldi	r22, 0x8E	; 142
    9704:	71 e0       	ldi	r23, 0x01	; 1
    9706:	81 e8       	ldi	r24, 0x81	; 129
    9708:	91 e0       	ldi	r25, 0x01	; 1
    970a:	0e 94 49 4a 	call	0x9492	; 0x9492 <wifiRequestP>
    970e:	91 e0       	ldi	r25, 0x01	; 1
    9710:	81 11       	cpse	r24, r1
    9712:	01 c0       	rjmp	.+2      	; 0x9716 <hostNetGame+0xec>
    9714:	90 e0       	ldi	r25, 0x00	; 0
	return WIFI_OK;
}
    9716:	89 2f       	mov	r24, r25
    9718:	c0 5c       	subi	r28, 0xC0	; 192
    971a:	df 4f       	sbci	r29, 0xFF	; 255
    971c:	0f b6       	in	r0, 0x3f	; 63
    971e:	f8 94       	cli
    9720:	de bf       	out	0x3e, r29	; 62
    9722:	0f be       	out	0x3f, r0	; 63
    9724:	cd bf       	out	0x3d, r28	; 61
    9726:	df 91       	pop	r29
    9728:	cf 91       	pop	r28
    972a:	1f 91       	pop	r17
    972c:	0f 91       	pop	r16
    972e:	ff 90       	pop	r15
    9730:	ef 90       	pop	r14
    9732:	08 95       	ret

00009734 <joinNetGame>:

u8 joinNetGame(char* ssid) {
    9734:	0f 93       	push	r16
    9736:	1f 93       	push	r17
    9738:	cf 93       	push	r28
    973a:	df 93       	push	r29
    973c:	cd b7       	in	r28, 0x3d	; 61
    973e:	de b7       	in	r29, 0x3e	; 62
    9740:	c0 54       	subi	r28, 0x40	; 64
    9742:	d1 09       	sbc	r29, r1
    9744:	0f b6       	in	r0, 0x3f	; 63
    9746:	f8 94       	cli
    9748:	de bf       	out	0x3e, r29	; 62
    974a:	0f be       	out	0x3f, r0	; 63
    974c:	cd bf       	out	0x3d, r28	; 61
	char buf[64];
	
	sprintf(buf, "AT+CWJAP_CUR=\"%s\",\"T4nkFuN3t\"\r\n", ssid);
    974e:	9f 93       	push	r25
    9750:	8f 93       	push	r24
    9752:	83 e3       	ldi	r24, 0x33	; 51
    9754:	91 e0       	ldi	r25, 0x01	; 1
    9756:	9f 93       	push	r25
    9758:	8f 93       	push	r24
    975a:	8e 01       	movw	r16, r28
    975c:	0f 5f       	subi	r16, 0xFF	; 255
    975e:	1f 4f       	sbci	r17, 0xFF	; 255
    9760:	1f 93       	push	r17
    9762:	0f 93       	push	r16
    9764:	0e 94 e7 74 	call	0xe9ce	; 0xe9ce <sprintf>
	
	// Set Station mode...
	if (wifiRequestP(PSTR("AT+CWMODE_CUR=1\r\n"),PSTR("OK\r\n")) != WIFI_OK) return WIFI_TIMEOUT;
    9768:	6c e7       	ldi	r22, 0x7C	; 124
    976a:	71 e0       	ldi	r23, 0x01	; 1
    976c:	8a e6       	ldi	r24, 0x6A	; 106
    976e:	91 e0       	ldi	r25, 0x01	; 1
    9770:	0e 94 49 4a 	call	0x9492	; 0x9492 <wifiRequestP>
    9774:	0f 90       	pop	r0
    9776:	0f 90       	pop	r0
    9778:	0f 90       	pop	r0
    977a:	0f 90       	pop	r0
    977c:	0f 90       	pop	r0
    977e:	0f 90       	pop	r0
    9780:	88 23       	and	r24, r24
    9782:	11 f0       	breq	.+4      	; 0x9788 <joinNetGame+0x54>
    9784:	91 e0       	ldi	r25, 0x01	; 1
    9786:	29 c0       	rjmp	.+82     	; 0x97da <joinNetGame+0xa6>
	// Connect to access point...
	if (wifiRequest(buf,PSTR("OK\r\n")) != WIFI_OK) return WIFI_TIMEOUT;
    9788:	65 e6       	ldi	r22, 0x65	; 101
    978a:	71 e0       	ldi	r23, 0x01	; 1
    978c:	c8 01       	movw	r24, r16
    978e:	0e 94 5b 4a 	call	0x94b6	; 0x94b6 <wifiRequest>
    9792:	81 11       	cpse	r24, r1
    9794:	f7 cf       	rjmp	.-18     	; 0x9784 <joinNetGame+0x50>
	// Set station IP address
	if (wifiRequestP(PSTR("AT+CIPSTA_CUR=\"192.168.4.2\"\r\n"), PSTR("OK\r\n")) != WIFI_OK) return WIFI_TIMEOUT;
    9796:	60 e6       	ldi	r22, 0x60	; 96
    9798:	71 e0       	ldi	r23, 0x01	; 1
    979a:	82 e4       	ldi	r24, 0x42	; 66
    979c:	91 e0       	ldi	r25, 0x01	; 1
    979e:	0e 94 49 4a 	call	0x9492	; 0x9492 <wifiRequestP>
    97a2:	81 11       	cpse	r24, r1
    97a4:	ef cf       	rjmp	.-34     	; 0x9784 <joinNetGame+0x50>
	// Activate UDP Passthrough mode
	if (wifiRequestP(PSTR("AT+CIPSTART=\"UDP\",\"192.168.4.1\",2233,1001\r\n"),PSTR("OK\r\n")) != WIFI_OK) return WIFI_TIMEOUT;
    97a6:	6d e3       	ldi	r22, 0x3D	; 61
    97a8:	71 e0       	ldi	r23, 0x01	; 1
    97aa:	81 e1       	ldi	r24, 0x11	; 17
    97ac:	91 e0       	ldi	r25, 0x01	; 1
    97ae:	0e 94 49 4a 	call	0x9492	; 0x9492 <wifiRequestP>
    97b2:	81 11       	cpse	r24, r1
    97b4:	e7 cf       	rjmp	.-50     	; 0x9784 <joinNetGame+0x50>
	if (wifiRequestP(PSTR("AT+CIPMODE=1\r\n"),PSTR("OK\r\n")) != WIFI_OK) return WIFI_TIMEOUT;
    97b6:	6c e0       	ldi	r22, 0x0C	; 12
    97b8:	71 e0       	ldi	r23, 0x01	; 1
    97ba:	8d ef       	ldi	r24, 0xFD	; 253
    97bc:	90 e0       	ldi	r25, 0x00	; 0
    97be:	0e 94 49 4a 	call	0x9492	; 0x9492 <wifiRequestP>
    97c2:	81 11       	cpse	r24, r1
    97c4:	df cf       	rjmp	.-66     	; 0x9784 <joinNetGame+0x50>
	if (wifiRequestP(PSTR("AT+CIPSEND\r\n"),PSTR("OK\r\n\r\n>")) != WIFI_OK) return WIFI_TIMEOUT;
    97c6:	65 ef       	ldi	r22, 0xF5	; 245
    97c8:	70 e0       	ldi	r23, 0x00	; 0
    97ca:	88 ee       	ldi	r24, 0xE8	; 232
    97cc:	90 e0       	ldi	r25, 0x00	; 0
    97ce:	0e 94 49 4a 	call	0x9492	; 0x9492 <wifiRequestP>
    97d2:	91 e0       	ldi	r25, 0x01	; 1
    97d4:	81 11       	cpse	r24, r1
    97d6:	01 c0       	rjmp	.+2      	; 0x97da <joinNetGame+0xa6>
    97d8:	90 e0       	ldi	r25, 0x00	; 0
	return WIFI_OK;
}
    97da:	89 2f       	mov	r24, r25
    97dc:	c0 5c       	subi	r28, 0xC0	; 192
    97de:	df 4f       	sbci	r29, 0xFF	; 255
    97e0:	0f b6       	in	r0, 0x3f	; 63
    97e2:	f8 94       	cli
    97e4:	de bf       	out	0x3e, r29	; 62
    97e6:	0f be       	out	0x3f, r0	; 63
    97e8:	cd bf       	out	0x3d, r28	; 61
    97ea:	df 91       	pop	r29
    97ec:	cf 91       	pop	r28
    97ee:	1f 91       	pop	r17
    97f0:	0f 91       	pop	r16
    97f2:	08 95       	ret

000097f4 <LBGetNextFrame>:
	Animation anim;
	int tile_index;
} TileAnimation;

char* LBGetNextFrame(Animation* anim)
{
    97f4:	fc 01       	movw	r30, r24
	anim->looped = 0;
    97f6:	14 82       	std	Z+4, r1	; 0x04
	anim->frame_count += 1;
    97f8:	93 81       	ldd	r25, Z+3	; 0x03
    97fa:	9f 5f       	subi	r25, 0xFF	; 255
    97fc:	93 83       	std	Z+3, r25	; 0x03
	if (anim->frame_count < anim->frames_per_anim)
    97fe:	22 81       	ldd	r18, Z+2	; 0x02
    9800:	80 81       	ld	r24, Z
    9802:	92 17       	cp	r25, r18
    9804:	38 f4       	brcc	.+14     	; 0x9814 <LBGetNextFrame+0x20>
	{
		return anim->anims[anim->current_anim];
    9806:	e8 0f       	add	r30, r24
    9808:	f1 1d       	adc	r31, r1
    980a:	e8 0f       	add	r30, r24
    980c:	f1 1d       	adc	r31, r1
    980e:	86 81       	ldd	r24, Z+6	; 0x06
    9810:	97 81       	ldd	r25, Z+7	; 0x07
    9812:	08 95       	ret
	}
	anim->frame_count = 0;
    9814:	13 82       	std	Z+3, r1	; 0x03
	anim->current_anim = (anim->current_anim + 1) % anim->anim_count;
    9816:	90 e0       	ldi	r25, 0x00	; 0
    9818:	01 96       	adiw	r24, 0x01	; 1
    981a:	61 81       	ldd	r22, Z+1	; 0x01
    981c:	70 e0       	ldi	r23, 0x00	; 0
    981e:	0e 94 9a 72 	call	0xe534	; 0xe534 <__divmodhi4>
    9822:	80 83       	st	Z, r24
	if (anim->current_anim == 0) anim->looped = 1;
    9824:	81 11       	cpse	r24, r1
    9826:	02 c0       	rjmp	.+4      	; 0x982c <LBGetNextFrame+0x38>
    9828:	21 e0       	ldi	r18, 0x01	; 1
    982a:	24 83       	std	Z+4, r18	; 0x04
	return anim->anims[anim->current_anim];
    982c:	99 27       	eor	r25, r25
    982e:	03 96       	adiw	r24, 0x03	; 3
    9830:	88 0f       	add	r24, r24
    9832:	99 1f       	adc	r25, r25
    9834:	e8 0f       	add	r30, r24
    9836:	f9 1f       	adc	r31, r25
    9838:	80 81       	ld	r24, Z
    983a:	91 81       	ldd	r25, Z+1	; 0x01
}
    983c:	08 95       	ret

0000983e <LBGetNextFrameReverse>:

char* LBGetNextFrameReverse(Animation* anim)
{
    983e:	fc 01       	movw	r30, r24
	anim->looped = 0;
    9840:	14 82       	std	Z+4, r1	; 0x04
	anim->frame_count += 1;
    9842:	93 81       	ldd	r25, Z+3	; 0x03
    9844:	9f 5f       	subi	r25, 0xFF	; 255
    9846:	93 83       	std	Z+3, r25	; 0x03
	if (anim->frame_count < anim->frames_per_anim)
    9848:	22 81       	ldd	r18, Z+2	; 0x02
    984a:	80 81       	ld	r24, Z
    984c:	92 17       	cp	r25, r18
    984e:	e0 f0       	brcs	.+56     	; 0x9888 <LBGetNextFrameReverse+0x4a>
	{
		return anim->anims[anim->current_anim];
	}
	anim->frame_count = 0;
    9850:	13 82       	std	Z+3, r1	; 0x03
	if (anim->reversing)
    9852:	95 81       	ldd	r25, Z+5	; 0x05
    9854:	99 23       	and	r25, r25
    9856:	49 f0       	breq	.+18     	; 0x986a <LBGetNextFrameReverse+0x2c>
	{
		anim->current_anim = anim->current_anim - 1;
    9858:	81 50       	subi	r24, 0x01	; 1
    985a:	10 f0       	brcs	.+4      	; 0x9860 <LBGetNextFrameReverse+0x22>
    985c:	80 83       	st	Z, r24
    985e:	13 c0       	rjmp	.+38     	; 0x9886 <LBGetNextFrameReverse+0x48>
		if (anim->current_anim == 0xff)
		{
			anim->current_anim = 0;
    9860:	10 82       	st	Z, r1
			anim->looped = 1;
    9862:	81 e0       	ldi	r24, 0x01	; 1
    9864:	84 83       	std	Z+4, r24	; 0x04
			anim->reversing = 0;
    9866:	15 82       	std	Z+5, r1	; 0x05
    9868:	0e c0       	rjmp	.+28     	; 0x9886 <LBGetNextFrameReverse+0x48>
		}
	}
	else
	{
		anim->current_anim = (anim->current_anim + 1) % anim->anim_count;
    986a:	21 81       	ldd	r18, Z+1	; 0x01
    986c:	90 e0       	ldi	r25, 0x00	; 0
    986e:	01 96       	adiw	r24, 0x01	; 1
    9870:	62 2f       	mov	r22, r18
    9872:	70 e0       	ldi	r23, 0x00	; 0
    9874:	0e 94 9a 72 	call	0xe534	; 0xe534 <__divmodhi4>
    9878:	80 83       	st	Z, r24
		if (anim->current_anim == 0) 
    987a:	81 11       	cpse	r24, r1
    987c:	04 c0       	rjmp	.+8      	; 0x9886 <LBGetNextFrameReverse+0x48>
		{
			anim->reversing = 1;
    987e:	81 e0       	ldi	r24, 0x01	; 1
    9880:	85 83       	std	Z+5, r24	; 0x05
			anim->current_anim = anim->anim_count - 1;
    9882:	21 50       	subi	r18, 0x01	; 1
    9884:	20 83       	st	Z, r18
		}
	}
	return anim->anims[anim->current_anim];
    9886:	80 81       	ld	r24, Z
    9888:	e8 0f       	add	r30, r24
    988a:	f1 1d       	adc	r31, r1
    988c:	e8 0f       	add	r30, r24
    988e:	f1 1d       	adc	r31, r1
    9890:	86 81       	ldd	r24, Z+6	; 0x06
    9892:	97 81       	ldd	r25, Z+7	; 0x07
}
    9894:	08 95       	ret

00009896 <LBGetJoyPadState>:

void LBGetJoyPadState(JoyPadState* p, unsigned char index)
/*
 * Get the current joy pad button state for index controller
 */
{
    9896:	0f 93       	push	r16
    9898:	1f 93       	push	r17
    989a:	cf 93       	push	r28
    989c:	df 93       	push	r29
    989e:	1f 92       	push	r1
    98a0:	cd b7       	in	r28, 0x3d	; 61
    98a2:	de b7       	in	r29, 0x3e	; 62
    98a4:	8c 01       	movw	r16, r24
	p->held = ReadJoypad(index);
    98a6:	86 2f       	mov	r24, r22
    98a8:	69 83       	std	Y+1, r22	; 0x01
    98aa:	0e 94 61 3a 	call	0x74c2	; 0x74c2 <ReadJoypad>
    98ae:	d8 01       	movw	r26, r16
    98b0:	15 96       	adiw	r26, 0x05	; 5
    98b2:	9c 93       	st	X, r25
    98b4:	8e 93       	st	-X, r24
    98b6:	14 97       	sbiw	r26, 0x04	; 4
    98b8:	69 81       	ldd	r22, Y+1	; 0x01
    98ba:	e6 2f       	mov	r30, r22
    98bc:	f0 e0       	ldi	r31, 0x00	; 0

	// Count held cycles
	if (p->held == 0 || p->held != p_prev[index])
    98be:	00 97       	sbiw	r24, 0x00	; 0
    98c0:	51 f0       	breq	.+20     	; 0x98d6 <LBGetJoyPadState+0x40>
    98c2:	df 01       	movw	r26, r30
    98c4:	aa 0f       	add	r26, r26
    98c6:	bb 1f       	adc	r27, r27
    98c8:	a4 5a       	subi	r26, 0xA4	; 164
    98ca:	b5 4f       	sbci	r27, 0xF5	; 245
    98cc:	2d 91       	ld	r18, X+
    98ce:	3c 91       	ld	r19, X
    98d0:	82 17       	cp	r24, r18
    98d2:	93 07       	cpc	r25, r19
    98d4:	21 f0       	breq	.+8      	; 0x98de <LBGetJoyPadState+0x48>
	    p->held_cycles = 0;
    98d6:	d8 01       	movw	r26, r16
    98d8:	16 96       	adiw	r26, 0x06	; 6
    98da:	1c 92       	st	X, r1
    98dc:	07 c0       	rjmp	.+14     	; 0x98ec <LBGetJoyPadState+0x56>
	else
	    p->held_cycles += 1;
    98de:	d8 01       	movw	r26, r16
    98e0:	16 96       	adiw	r26, 0x06	; 6
    98e2:	2c 91       	ld	r18, X
    98e4:	16 97       	sbiw	r26, 0x06	; 6
    98e6:	2f 5f       	subi	r18, 0xFF	; 255
    98e8:	16 96       	adiw	r26, 0x06	; 6
    98ea:	2c 93       	st	X, r18

	p->pressed = p->held & (p->held ^ p_prev[index]);
    98ec:	ee 0f       	add	r30, r30
    98ee:	ff 1f       	adc	r31, r31
    98f0:	e4 5a       	subi	r30, 0xA4	; 164
    98f2:	f5 4f       	sbci	r31, 0xF5	; 245
    98f4:	20 81       	ld	r18, Z
    98f6:	31 81       	ldd	r19, Z+1	; 0x01
    98f8:	a9 01       	movw	r20, r18
    98fa:	40 95       	com	r20
    98fc:	50 95       	com	r21
    98fe:	48 23       	and	r20, r24
    9900:	59 23       	and	r21, r25
    9902:	d8 01       	movw	r26, r16
    9904:	11 96       	adiw	r26, 0x01	; 1
    9906:	5c 93       	st	X, r21
    9908:	4e 93       	st	-X, r20
	p->released = p_prev[index] & (p->held ^ p_prev[index]);
    990a:	ac 01       	movw	r20, r24
    990c:	40 95       	com	r20
    990e:	50 95       	com	r21
    9910:	24 23       	and	r18, r20
    9912:	35 23       	and	r19, r21
    9914:	13 96       	adiw	r26, 0x03	; 3
    9916:	3c 93       	st	X, r19
    9918:	2e 93       	st	-X, r18
    991a:	12 97       	sbiw	r26, 0x02	; 2
	p_prev[index] = p->held;
    991c:	91 83       	std	Z+1, r25	; 0x01
    991e:	80 83       	st	Z, r24
}
    9920:	0f 90       	pop	r0
    9922:	df 91       	pop	r29
    9924:	cf 91       	pop	r28
    9926:	1f 91       	pop	r17
    9928:	0f 91       	pop	r16
    992a:	08 95       	ret

0000992c <LBPrintStr>:
	}
}
*/

void LBPrintStr(u8 x, u8 y, u8* txt, u8 count)
{
    992c:	af 92       	push	r10
    992e:	bf 92       	push	r11
    9930:	cf 92       	push	r12
    9932:	df 92       	push	r13
    9934:	ef 92       	push	r14
    9936:	ff 92       	push	r15
    9938:	0f 93       	push	r16
    993a:	1f 93       	push	r17
    993c:	cf 93       	push	r28
    993e:	df 93       	push	r29
    9940:	1f 92       	push	r1
    9942:	cd b7       	in	r28, 0x3d	; 61
    9944:	de b7       	in	r29, 0x3e	; 62
    9946:	7a 01       	movw	r14, r20
	for (u8 i = 0; i < count; i++)
    9948:	8a 01       	movw	r16, r20
	{
		PrintChar(x+i, y, txt[i]);
    994a:	c6 2e       	mov	r12, r22
    994c:	d1 2c       	mov	r13, r1
    994e:	90 e0       	ldi	r25, 0x00	; 0
    9950:	5c 01       	movw	r10, r24
    9952:	a4 1a       	sub	r10, r20
    9954:	b5 0a       	sbc	r11, r21
    9956:	80 2f       	mov	r24, r16
    9958:	8e 19       	sub	r24, r14
}
*/

void LBPrintStr(u8 x, u8 y, u8* txt, u8 count)
{
	for (u8 i = 0; i < count; i++)
    995a:	82 17       	cp	r24, r18
    995c:	60 f4       	brcc	.+24     	; 0x9976 <LBPrintStr+0x4a>
    995e:	c5 01       	movw	r24, r10
    9960:	80 0f       	add	r24, r16
    9962:	91 1f       	adc	r25, r17
	{
		PrintChar(x+i, y, txt[i]);
    9964:	f8 01       	movw	r30, r16
    9966:	41 91       	ld	r20, Z+
    9968:	8f 01       	movw	r16, r30
    996a:	b6 01       	movw	r22, r12
    996c:	29 83       	std	Y+1, r18	; 0x01
    996e:	0e 94 07 49 	call	0x920e	; 0x920e <PrintChar>
    9972:	29 81       	ldd	r18, Y+1	; 0x01
    9974:	f0 cf       	rjmp	.-32     	; 0x9956 <LBPrintStr+0x2a>
	}
}
    9976:	0f 90       	pop	r0
    9978:	df 91       	pop	r29
    997a:	cf 91       	pop	r28
    997c:	1f 91       	pop	r17
    997e:	0f 91       	pop	r16
    9980:	ff 90       	pop	r15
    9982:	ef 90       	pop	r14
    9984:	df 90       	pop	r13
    9986:	cf 90       	pop	r12
    9988:	bf 90       	pop	r11
    998a:	af 90       	pop	r10
    998c:	08 95       	ret

0000998e <LBPrintByte>:

void LBPrintByte(u8 x, u8 y, u8 value, char pad)
{
    998e:	cf 92       	push	r12
    9990:	df 92       	push	r13
    9992:	ef 92       	push	r14
    9994:	ff 92       	push	r15
    9996:	0f 93       	push	r16
    9998:	1f 93       	push	r17
    999a:	cf 93       	push	r28
    999c:	df 93       	push	r29
    999e:	1f 92       	push	r1
    99a0:	cd b7       	in	r28, 0x3d	; 61
    99a2:	de b7       	in	r29, 0x3e	; 62
    99a4:	38 2f       	mov	r19, r24
    99a6:	e6 2e       	mov	r14, r22
    99a8:	84 2f       	mov	r24, r20
    99aa:	d2 2e       	mov	r13, r18
    99ac:	0d ef       	ldi	r16, 0xFD	; 253
    99ae:	03 0f       	add	r16, r19
	u8 tmp = 0;
	for (u8 i = 0; i < 3; i++)
	{
		tmp = value % 10 + 48;
    99b0:	9a e0       	ldi	r25, 0x0A	; 10
    99b2:	c9 2e       	mov	r12, r25
    99b4:	6c 2d       	mov	r22, r12
    99b6:	0e 94 6c 72 	call	0xe4d8	; 0xe4d8 <__udivmodqi4>
    99ba:	18 2f       	mov	r17, r24
    99bc:	90 5d       	subi	r25, 0xD0	; 208
    99be:	99 83       	std	Y+1, r25	; 0x01
		LBPrintStr(x--, y, &tmp, 1);
    99c0:	ff 24       	eor	r15, r15
    99c2:	fa 94       	dec	r15
    99c4:	f3 0e       	add	r15, r19
    99c6:	21 e0       	ldi	r18, 0x01	; 1
    99c8:	ae 01       	movw	r20, r28
    99ca:	4f 5f       	subi	r20, 0xFF	; 255
    99cc:	5f 4f       	sbci	r21, 0xFF	; 255
    99ce:	6e 2d       	mov	r22, r14
    99d0:	83 2f       	mov	r24, r19
    99d2:	0e 94 96 4c 	call	0x992c	; 0x992c <LBPrintStr>
		value /= 10;
    99d6:	81 2f       	mov	r24, r17
		if (!pad && value == 0) break;
    99d8:	d1 10       	cpse	r13, r1
    99da:	02 c0       	rjmp	.+4      	; 0x99e0 <LBPrintByte+0x52>
    99dc:	11 23       	and	r17, r17
    99de:	19 f0       	breq	.+6      	; 0x99e6 <LBPrintByte+0x58>
    99e0:	3f 2d       	mov	r19, r15
}

void LBPrintByte(u8 x, u8 y, u8 value, char pad)
{
	u8 tmp = 0;
	for (u8 i = 0; i < 3; i++)
    99e2:	f0 12       	cpse	r15, r16
    99e4:	e7 cf       	rjmp	.-50     	; 0x99b4 <LBPrintByte+0x26>
		tmp = value % 10 + 48;
		LBPrintStr(x--, y, &tmp, 1);
		value /= 10;
		if (!pad && value == 0) break;
	}
}
    99e6:	0f 90       	pop	r0
    99e8:	df 91       	pop	r29
    99ea:	cf 91       	pop	r28
    99ec:	1f 91       	pop	r17
    99ee:	0f 91       	pop	r16
    99f0:	ff 90       	pop	r15
    99f2:	ef 90       	pop	r14
    99f4:	df 90       	pop	r13
    99f6:	cf 90       	pop	r12
    99f8:	08 95       	ret

000099fa <LBCollides>:

u8 LBCollides(u8 x1, u8 y1, u8 width1, u8 height1,
						 u8 x2, u8 y2, u8 width2, u8 height2)
{
    99fa:	af 92       	push	r10
    99fc:	cf 92       	push	r12
    99fe:	ef 92       	push	r14
    9a00:	ff 92       	push	r15
    9a02:	0f 93       	push	r16
    9a04:	1f 93       	push	r17
	if (y1 + height1 <= y2) return 0;
    9a06:	70 e0       	ldi	r23, 0x00	; 0
    9a08:	f1 2c       	mov	r15, r1
    9a0a:	fb 01       	movw	r30, r22
    9a0c:	e2 0f       	add	r30, r18
    9a0e:	f1 1d       	adc	r31, r1
    9a10:	ee 16       	cp	r14, r30
    9a12:	ff 06       	cpc	r15, r31
    9a14:	a4 f4       	brge	.+40     	; 0x9a3e <LBCollides+0x44>
	if (y1 >= y2 + height2) return 0;
    9a16:	ea 0c       	add	r14, r10
    9a18:	f1 1c       	adc	r15, r1
    9a1a:	6e 15       	cp	r22, r14
    9a1c:	7f 05       	cpc	r23, r15
    9a1e:	7c f4       	brge	.+30     	; 0x9a3e <LBCollides+0x44>
	if (x1 + width1 <= x2) return 0;
    9a20:	28 2f       	mov	r18, r24
    9a22:	30 e0       	ldi	r19, 0x00	; 0
    9a24:	10 e0       	ldi	r17, 0x00	; 0
    9a26:	c9 01       	movw	r24, r18
    9a28:	84 0f       	add	r24, r20
    9a2a:	91 1d       	adc	r25, r1
    9a2c:	08 17       	cp	r16, r24
    9a2e:	19 07       	cpc	r17, r25
    9a30:	34 f4       	brge	.+12     	; 0x9a3e <LBCollides+0x44>
	if (x1 >= x2 + width2) return 0;
    9a32:	0c 0d       	add	r16, r12
    9a34:	11 1d       	adc	r17, r1
    9a36:	81 e0       	ldi	r24, 0x01	; 1
    9a38:	20 17       	cp	r18, r16
    9a3a:	31 07       	cpc	r19, r17
    9a3c:	0c f0       	brlt	.+2      	; 0x9a40 <LBCollides+0x46>
}

u8 LBCollides(u8 x1, u8 y1, u8 width1, u8 height1,
						 u8 x2, u8 y2, u8 width2, u8 height2)
{
	if (y1 + height1 <= y2) return 0;
    9a3e:	80 e0       	ldi	r24, 0x00	; 0
	if (y1 >= y2 + height2) return 0;
	if (x1 + width1 <= x2) return 0;
	if (x1 >= x2 + width2) return 0;
	return 1;
}
    9a40:	1f 91       	pop	r17
    9a42:	0f 91       	pop	r16
    9a44:	ff 90       	pop	r15
    9a46:	ef 90       	pop	r14
    9a48:	cf 90       	pop	r12
    9a4a:	af 90       	pop	r10
    9a4c:	08 95       	ret

00009a4e <LBLineIntersect>:

u8 LBLineIntersect(u8 line1x1, u8 line1y1, u8 line1x2, u8 line1y2,
							  u8 line2x1, u8 line2y1, u8 line2x2, u8 line2y2)
{
    9a4e:	2f 92       	push	r2
    9a50:	3f 92       	push	r3
    9a52:	4f 92       	push	r4
    9a54:	5f 92       	push	r5
    9a56:	6f 92       	push	r6
    9a58:	7f 92       	push	r7
    9a5a:	8f 92       	push	r8
    9a5c:	9f 92       	push	r9
    9a5e:	af 92       	push	r10
    9a60:	bf 92       	push	r11
    9a62:	cf 92       	push	r12
    9a64:	df 92       	push	r13
    9a66:	ef 92       	push	r14
    9a68:	ff 92       	push	r15
    9a6a:	0f 93       	push	r16
    9a6c:	1f 93       	push	r17
    9a6e:	cf 93       	push	r28
    9a70:	df 93       	push	r29
    9a72:	00 d0       	rcall	.+0      	; 0x9a74 <LBLineIntersect+0x26>
    9a74:	00 d0       	rcall	.+0      	; 0x9a76 <LBLineIntersect+0x28>
    9a76:	cd b7       	in	r28, 0x3d	; 61
    9a78:	de b7       	in	r29, 0x3e	; 62
	float ua, ub;
	float denom;

	denom = ((line2y2 - line2y1) * (line1x2 - line1x1)) -
    9a7a:	f1 2c       	mov	r15, r1
    9a7c:	8a 2c       	mov	r8, r10
    9a7e:	91 2c       	mov	r9, r1
    9a80:	8e 18       	sub	r8, r14
    9a82:	9f 08       	sbc	r9, r15
    9a84:	a8 2e       	mov	r10, r24
    9a86:	b1 2c       	mov	r11, r1
    9a88:	24 2e       	mov	r2, r20
    9a8a:	31 2c       	mov	r3, r1
    9a8c:	2a 18       	sub	r2, r10
    9a8e:	3b 08       	sbc	r3, r11
			 ((line2x2 - line2x1) * (line1y2 - line1y1));
    9a90:	10 e0       	ldi	r17, 0x00	; 0
    9a92:	d1 2c       	mov	r13, r1
    9a94:	c0 1a       	sub	r12, r16
    9a96:	d1 0a       	sbc	r13, r17
    9a98:	46 2f       	mov	r20, r22
    9a9a:	50 e0       	ldi	r21, 0x00	; 0
    9a9c:	5c 83       	std	Y+4, r21	; 0x04
    9a9e:	4b 83       	std	Y+3, r20	; 0x03
    9aa0:	82 2f       	mov	r24, r18
    9aa2:	90 e0       	ldi	r25, 0x00	; 0
    9aa4:	9a 83       	std	Y+2, r25	; 0x02
    9aa6:	89 83       	std	Y+1, r24	; 0x01
							  u8 line2x1, u8 line2y1, u8 line2x2, u8 line2y2)
{
	float ua, ub;
	float denom;

	denom = ((line2y2 - line2y1) * (line1x2 - line1x1)) -
    9aa8:	82 9c       	mul	r8, r2
    9aaa:	90 01       	movw	r18, r0
    9aac:	83 9c       	mul	r8, r3
    9aae:	30 0d       	add	r19, r0
    9ab0:	92 9c       	mul	r9, r2
    9ab2:	30 0d       	add	r19, r0
    9ab4:	11 24       	eor	r1, r1
			 ((line2x2 - line2x1) * (line1y2 - line1y1));
    9ab6:	ca 01       	movw	r24, r20
    9ab8:	e9 81       	ldd	r30, Y+1	; 0x01
    9aba:	fa 81       	ldd	r31, Y+2	; 0x02
    9abc:	8e 1b       	sub	r24, r30
    9abe:	9f 0b       	sbc	r25, r31
    9ac0:	c8 9e       	mul	r12, r24
    9ac2:	b0 01       	movw	r22, r0
    9ac4:	c9 9e       	mul	r12, r25
    9ac6:	70 0d       	add	r23, r0
    9ac8:	d8 9e       	mul	r13, r24
    9aca:	70 0d       	add	r23, r0
    9acc:	11 24       	eor	r1, r1
							  u8 line2x1, u8 line2y1, u8 line2x2, u8 line2y2)
{
	float ua, ub;
	float denom;

	denom = ((line2y2 - line2y1) * (line1x2 - line1x1)) -
    9ace:	62 0f       	add	r22, r18
    9ad0:	73 1f       	adc	r23, r19
    9ad2:	88 27       	eor	r24, r24
    9ad4:	77 fd       	sbrc	r23, 7
    9ad6:	80 95       	com	r24
    9ad8:	98 2f       	mov	r25, r24
    9ada:	0e 94 b2 73 	call	0xe764	; 0xe764 <__floatsisf>
    9ade:	2b 01       	movw	r4, r22
    9ae0:	3c 01       	movw	r6, r24
			 ((line2x2 - line2x1) * (line1y2 - line1y1));
	if (denom == 0) return 0;
    9ae2:	20 e0       	ldi	r18, 0x00	; 0
    9ae4:	30 e0       	ldi	r19, 0x00	; 0
    9ae6:	a9 01       	movw	r20, r18
    9ae8:	0e 94 13 73 	call	0xe626	; 0xe626 <__cmpsf2>
    9aec:	88 23       	and	r24, r24
    9aee:	09 f4       	brne	.+2      	; 0x9af2 <LBLineIntersect+0xa4>
    9af0:	6c c0       	rjmp	.+216    	; 0x9bca <LBLineIntersect+0x17c>

	ua = (((line2x2 - line2x1) * (line1y1 - line2y1)) -
    9af2:	4b 81       	ldd	r20, Y+3	; 0x03
    9af4:	5c 81       	ldd	r21, Y+4	; 0x04
    9af6:	4e 19       	sub	r20, r14
    9af8:	5f 09       	sbc	r21, r15
    9afa:	7a 01       	movw	r14, r20
		 ((line2y2 - line2y1) * (line1x1 - line2x1))) / denom;
    9afc:	0a 19       	sub	r16, r10
    9afe:	1b 09       	sbc	r17, r11

	denom = ((line2y2 - line2y1) * (line1x2 - line1x1)) -
			 ((line2x2 - line2x1) * (line1y2 - line1y1));
	if (denom == 0) return 0;

	ua = (((line2x2 - line2x1) * (line1y1 - line2y1)) -
    9b00:	c4 9e       	mul	r12, r20
    9b02:	c0 01       	movw	r24, r0
    9b04:	c5 9e       	mul	r12, r21
    9b06:	90 0d       	add	r25, r0
    9b08:	d4 9e       	mul	r13, r20
    9b0a:	90 0d       	add	r25, r0
    9b0c:	11 24       	eor	r1, r1
		 ((line2y2 - line2y1) * (line1x1 - line2x1))) / denom;
    9b0e:	80 9e       	mul	r8, r16
    9b10:	b0 01       	movw	r22, r0
    9b12:	81 9e       	mul	r8, r17
    9b14:	70 0d       	add	r23, r0
    9b16:	90 9e       	mul	r9, r16
    9b18:	70 0d       	add	r23, r0
    9b1a:	11 24       	eor	r1, r1

	denom = ((line2y2 - line2y1) * (line1x2 - line1x1)) -
			 ((line2x2 - line2x1) * (line1y2 - line1y1));
	if (denom == 0) return 0;

	ua = (((line2x2 - line2x1) * (line1y1 - line2y1)) -
    9b1c:	68 0f       	add	r22, r24
    9b1e:	79 1f       	adc	r23, r25
		 ((line2y2 - line2y1) * (line1x1 - line2x1))) / denom;
    9b20:	88 27       	eor	r24, r24
    9b22:	77 fd       	sbrc	r23, 7
    9b24:	80 95       	com	r24
    9b26:	98 2f       	mov	r25, r24
    9b28:	0e 94 b2 73 	call	0xe764	; 0xe764 <__floatsisf>

	denom = ((line2y2 - line2y1) * (line1x2 - line1x1)) -
			 ((line2x2 - line2x1) * (line1y2 - line1y1));
	if (denom == 0) return 0;

	ua = (((line2x2 - line2x1) * (line1y1 - line2y1)) -
    9b2c:	a3 01       	movw	r20, r6
    9b2e:	92 01       	movw	r18, r4
    9b30:	0e 94 17 73 	call	0xe62e	; 0xe62e <__divsf3>
    9b34:	4b 01       	movw	r8, r22
    9b36:	5c 01       	movw	r10, r24
		 ((line2y2 - line2y1) * (line1x1 - line2x1))) / denom;
	ub = (((line1x2 - line1x1) * (line1y1 - line2y1)) -
		 ((line1y2 - line1y1) * (line1x1 - line2x1))) / denom;
	if ((ua < 0) || (ua > 1) || (ub < 0) || (ub > 1)) return 0;
    9b38:	20 e0       	ldi	r18, 0x00	; 0
    9b3a:	30 e0       	ldi	r19, 0x00	; 0
    9b3c:	a9 01       	movw	r20, r18
    9b3e:	0e 94 13 73 	call	0xe626	; 0xe626 <__cmpsf2>
    9b42:	87 fd       	sbrc	r24, 7
    9b44:	42 c0       	rjmp	.+132    	; 0x9bca <LBLineIntersect+0x17c>
    9b46:	20 e0       	ldi	r18, 0x00	; 0
    9b48:	30 e0       	ldi	r19, 0x00	; 0
    9b4a:	40 e8       	ldi	r20, 0x80	; 128
    9b4c:	5f e3       	ldi	r21, 0x3F	; 63
    9b4e:	c5 01       	movw	r24, r10
    9b50:	b4 01       	movw	r22, r8
    9b52:	0e 94 62 74 	call	0xe8c4	; 0xe8c4 <__gesf2>
    9b56:	18 16       	cp	r1, r24
    9b58:	c4 f1       	brlt	.+112    	; 0x9bca <LBLineIntersect+0x17c>
			 ((line2x2 - line2x1) * (line1y2 - line1y1));
	if (denom == 0) return 0;

	ua = (((line2x2 - line2x1) * (line1y1 - line2y1)) -
		 ((line2y2 - line2y1) * (line1x1 - line2x1))) / denom;
	ub = (((line1x2 - line1x1) * (line1y1 - line2y1)) -
    9b5a:	2e 9c       	mul	r2, r14
    9b5c:	b0 01       	movw	r22, r0
    9b5e:	2f 9c       	mul	r2, r15
    9b60:	70 0d       	add	r23, r0
    9b62:	3e 9c       	mul	r3, r14
    9b64:	70 0d       	add	r23, r0
    9b66:	11 24       	eor	r1, r1
		 ((line1y2 - line1y1) * (line1x1 - line2x1))) / denom;
    9b68:	29 81       	ldd	r18, Y+1	; 0x01
    9b6a:	3a 81       	ldd	r19, Y+2	; 0x02
    9b6c:	8b 81       	ldd	r24, Y+3	; 0x03
    9b6e:	9c 81       	ldd	r25, Y+4	; 0x04
    9b70:	28 1b       	sub	r18, r24
    9b72:	39 0b       	sbc	r19, r25
    9b74:	20 9f       	mul	r18, r16
    9b76:	c0 01       	movw	r24, r0
    9b78:	21 9f       	mul	r18, r17
    9b7a:	90 0d       	add	r25, r0
    9b7c:	30 9f       	mul	r19, r16
    9b7e:	90 0d       	add	r25, r0
    9b80:	11 24       	eor	r1, r1
			 ((line2x2 - line2x1) * (line1y2 - line1y1));
	if (denom == 0) return 0;

	ua = (((line2x2 - line2x1) * (line1y1 - line2y1)) -
		 ((line2y2 - line2y1) * (line1x1 - line2x1))) / denom;
	ub = (((line1x2 - line1x1) * (line1y1 - line2y1)) -
    9b82:	68 0f       	add	r22, r24
    9b84:	79 1f       	adc	r23, r25
		 ((line1y2 - line1y1) * (line1x1 - line2x1))) / denom;
    9b86:	88 27       	eor	r24, r24
    9b88:	77 fd       	sbrc	r23, 7
    9b8a:	80 95       	com	r24
    9b8c:	98 2f       	mov	r25, r24
    9b8e:	0e 94 b2 73 	call	0xe764	; 0xe764 <__floatsisf>
			 ((line2x2 - line2x1) * (line1y2 - line1y1));
	if (denom == 0) return 0;

	ua = (((line2x2 - line2x1) * (line1y1 - line2y1)) -
		 ((line2y2 - line2y1) * (line1x1 - line2x1))) / denom;
	ub = (((line1x2 - line1x1) * (line1y1 - line2y1)) -
    9b92:	a3 01       	movw	r20, r6
    9b94:	92 01       	movw	r18, r4
    9b96:	0e 94 17 73 	call	0xe62e	; 0xe62e <__divsf3>
    9b9a:	6b 01       	movw	r12, r22
    9b9c:	7c 01       	movw	r14, r24
		 ((line1y2 - line1y1) * (line1x1 - line2x1))) / denom;
	if ((ua < 0) || (ua > 1) || (ub < 0) || (ub > 1)) return 0;
    9b9e:	20 e0       	ldi	r18, 0x00	; 0
    9ba0:	30 e0       	ldi	r19, 0x00	; 0
    9ba2:	a9 01       	movw	r20, r18
    9ba4:	0e 94 13 73 	call	0xe626	; 0xe626 <__cmpsf2>
    9ba8:	87 fd       	sbrc	r24, 7
    9baa:	0f c0       	rjmp	.+30     	; 0x9bca <LBLineIntersect+0x17c>
    9bac:	11 e0       	ldi	r17, 0x01	; 1
    9bae:	20 e0       	ldi	r18, 0x00	; 0
    9bb0:	30 e0       	ldi	r19, 0x00	; 0
    9bb2:	40 e8       	ldi	r20, 0x80	; 128
    9bb4:	5f e3       	ldi	r21, 0x3F	; 63
    9bb6:	c7 01       	movw	r24, r14
    9bb8:	b6 01       	movw	r22, r12
    9bba:	0e 94 62 74 	call	0xe8c4	; 0xe8c4 <__gesf2>
    9bbe:	18 16       	cp	r1, r24
    9bc0:	0c f0       	brlt	.+2      	; 0x9bc4 <LBLineIntersect+0x176>
    9bc2:	10 e0       	ldi	r17, 0x00	; 0
    9bc4:	81 e0       	ldi	r24, 0x01	; 1
    9bc6:	81 27       	eor	r24, r17
    9bc8:	01 c0       	rjmp	.+2      	; 0x9bcc <LBLineIntersect+0x17e>
	float ua, ub;
	float denom;

	denom = ((line2y2 - line2y1) * (line1x2 - line1x1)) -
			 ((line2x2 - line2x1) * (line1y2 - line1y1));
	if (denom == 0) return 0;
    9bca:	80 e0       	ldi	r24, 0x00	; 0
	ub = (((line1x2 - line1x1) * (line1y1 - line2y1)) -
		 ((line1y2 - line1y1) * (line1x1 - line2x1))) / denom;
	if ((ua < 0) || (ua > 1) || (ub < 0) || (ub > 1)) return 0;

	return 1;
}
    9bcc:	0f 90       	pop	r0
    9bce:	0f 90       	pop	r0
    9bd0:	0f 90       	pop	r0
    9bd2:	0f 90       	pop	r0
    9bd4:	df 91       	pop	r29
    9bd6:	cf 91       	pop	r28
    9bd8:	1f 91       	pop	r17
    9bda:	0f 91       	pop	r16
    9bdc:	ff 90       	pop	r15
    9bde:	ef 90       	pop	r14
    9be0:	df 90       	pop	r13
    9be2:	cf 90       	pop	r12
    9be4:	bf 90       	pop	r11
    9be6:	af 90       	pop	r10
    9be8:	9f 90       	pop	r9
    9bea:	8f 90       	pop	r8
    9bec:	7f 90       	pop	r7
    9bee:	6f 90       	pop	r6
    9bf0:	5f 90       	pop	r5
    9bf2:	4f 90       	pop	r4
    9bf4:	3f 90       	pop	r3
    9bf6:	2f 90       	pop	r2
    9bf8:	08 95       	ret

00009bfa <LBRandom>:

u8 LBRandom(u8 from, u8 to)
/*
 * Return a random number between 'from' and 'to'.
 */
{
    9bfa:	1f 93       	push	r17
    9bfc:	cf 93       	push	r28
    9bfe:	df 93       	push	r29
    9c00:	1f 92       	push	r1
    9c02:	cd b7       	in	r28, 0x3d	; 61
    9c04:	de b7       	in	r29, 0x3e	; 62
    9c06:	18 2f       	mov	r17, r24
    u8 tmp = GetPrngNumber(0) % 256;
    9c08:	80 e0       	ldi	r24, 0x00	; 0
    9c0a:	90 e0       	ldi	r25, 0x00	; 0
    9c0c:	69 83       	std	Y+1, r22	; 0x01
    9c0e:	0e 94 6a 3c 	call	0x78d4	; 0x78d4 <GetPrngNumber>
    9c12:	99 27       	eor	r25, r25
    return ((tmp) % (to - from + 1)) + from;
    9c14:	69 81       	ldd	r22, Y+1	; 0x01
    9c16:	70 e0       	ldi	r23, 0x00	; 0
    9c18:	61 1b       	sub	r22, r17
    9c1a:	71 09       	sbc	r23, r1
    9c1c:	6f 5f       	subi	r22, 0xFF	; 255
    9c1e:	7f 4f       	sbci	r23, 0xFF	; 255
    9c20:	0e 94 9a 72 	call	0xe534	; 0xe534 <__divmodhi4>
}
    9c24:	81 0f       	add	r24, r17
    9c26:	0f 90       	pop	r0
    9c28:	df 91       	pop	r29
    9c2a:	cf 91       	pop	r28
    9c2c:	1f 91       	pop	r17
    9c2e:	08 95       	ret

00009c30 <LBWaitSeconds>:
	WaitUs(micro_seconds);
#endif
}

void LBWaitSeconds(u8 seconds)
{
    9c30:	cf 93       	push	r28
    9c32:	df 93       	push	r29
    9c34:	d8 2f       	mov	r29, r24
	for(u8 i = 0; i < seconds; i++)
    9c36:	c0 e0       	ldi	r28, 0x00	; 0
    9c38:	cd 17       	cp	r28, r29
    9c3a:	31 f0       	breq	.+12     	; 0x9c48 <LBWaitSeconds+0x18>
	for (;micro_seconds > 0; micro_seconds--) {
		WaitVsync(1);
		handle_coin_insert();
	}
#else
	WaitUs(micro_seconds);
    9c3c:	8f ef       	ldi	r24, 0xFF	; 255
    9c3e:	9f ef       	ldi	r25, 0xFF	; 255
    9c40:	0e 94 6d 3a 	call	0x74da	; 0x74da <WaitUs>
#endif
}

void LBWaitSeconds(u8 seconds)
{
	for(u8 i = 0; i < seconds; i++)
    9c44:	cf 5f       	subi	r28, 0xFF	; 255
    9c46:	f8 cf       	rjmp	.-16     	; 0x9c38 <LBWaitSeconds+0x8>
	{
		LBWaitUs(65535);
	}
}
    9c48:	df 91       	pop	r29
    9c4a:	cf 91       	pop	r28
    9c4c:	08 95       	ret

00009c4e <LBHideAllSprites>:

void LBHideAllSprites()
{
    9c4e:	e8 ea       	ldi	r30, 0xA8	; 168
    9c50:	f4 e0       	ldi	r31, 0x04	; 4
	for(int i = 0; i < MAX_SPRITES; i++)
	{
		sprites[i].x = (SCREEN_TILES_H*TILE_WIDTH);
    9c52:	80 ef       	ldi	r24, 0xF0	; 240
    9c54:	80 83       	st	Z, r24
    9c56:	34 96       	adiw	r30, 0x04	; 4
	}
}

void LBHideAllSprites()
{
	for(int i = 0; i < MAX_SPRITES; i++)
    9c58:	94 e0       	ldi	r25, 0x04	; 4
    9c5a:	e0 3d       	cpi	r30, 0xD0	; 208
    9c5c:	f9 07       	cpc	r31, r25
    9c5e:	d1 f7       	brne	.-12     	; 0x9c54 <LBHideAllSprites+0x6>
	{
		sprites[i].x = (SCREEN_TILES_H*TILE_WIDTH);
	}
}
    9c60:	08 95       	ret

00009c62 <LBPlaySound>:


void LBPlaySound(u8 game_selection, u8 p1_flags, u8 p2_flags, u8 patch)
{
    9c62:	82 2f       	mov	r24, r18
#if JAMMA
	if(no_demo_sound() && game_selection == CPUVCPU) {} else if (!((p1_flags & EXPLODING_FLAG) || (p2_flags & EXPLODING_FLAG))) TriggerFx(patch,0xff,true);
#else
	if (patch == PATCH_TANK_EXPLODE) TriggerFx(patch,0xff,true);
    9c64:	26 30       	cpi	r18, 0x06	; 6
    9c66:	11 f4       	brne	.+4      	; 0x9c6c <LBPlaySound+0xa>
    9c68:	0c 94 6e 49 	jmp	0x92dc	; 0x92dc <LBPlaySound.part.6>
    9c6c:	46 2b       	or	r20, r22
	else if (!((p1_flags & EXPLODING_FLAG) || (p2_flags & EXPLODING_FLAG))) TriggerFx(patch,0xff,true);
    9c6e:	40 fd       	sbrc	r20, 0
    9c70:	04 c0       	rjmp	.+8      	; 0x9c7a <LBPlaySound+0x18>
    9c72:	41 e0       	ldi	r20, 0x01	; 1
    9c74:	6f ef       	ldi	r22, 0xFF	; 255
    9c76:	0c 94 eb 3d 	jmp	0x7bd6	; 0x7bd6 <TriggerFx>
    9c7a:	08 95       	ret

00009c7c <init_scores>:
HandleSelectState p2s;

/* Initializers */
void init_scores(struct EepromBlockStruct* e)
{
    e->id = EEPROM_TANK_RANK_ID;
    9c7c:	2b e8       	ldi	r18, 0x8B	; 139
    9c7e:	30 e0       	ldi	r19, 0x00	; 0
    9c80:	fc 01       	movw	r30, r24
    9c82:	21 93       	st	Z+, r18
    9c84:	31 93       	st	Z+, r19
    9c86:	cf 01       	movw	r24, r30
    memcpy_P(e->data, default_scores, 30);
    9c88:	4e e1       	ldi	r20, 0x1E	; 30
    9c8a:	50 e0       	ldi	r21, 0x00	; 0
    9c8c:	6c e0       	ldi	r22, 0x0C	; 12
    9c8e:	73 e0       	ldi	r23, 0x03	; 3
    9c90:	0c 94 c9 74 	jmp	0xe992	; 0xe992 <memcpy_P>

00009c94 <init_handles>:
}

void init_handles(struct EepromBlockStruct* e)
{
    e->id = EEPROM_HANDLES_ID;
    9c94:	2a e8       	ldi	r18, 0x8A	; 138
    9c96:	30 e0       	ldi	r19, 0x00	; 0
    9c98:	fc 01       	movw	r30, r24
    9c9a:	21 93       	st	Z+, r18
    9c9c:	31 93       	st	Z+, r19
    9c9e:	cf 01       	movw	r24, r30
    memcpy_P(e->data, default_handles, 30);
    9ca0:	4e e1       	ldi	r20, 0x1E	; 30
    9ca2:	50 e0       	ldi	r21, 0x00	; 0
    9ca4:	6a e2       	ldi	r22, 0x2A	; 42
    9ca6:	73 e0       	ldi	r23, 0x03	; 3
    9ca8:	0c 94 c9 74 	jmp	0xe992	; 0xe992 <memcpy_P>

00009cac <init_tile_animations>:
}

void init_tile_animations(TileAnimations* ta)
{
    9cac:	fc 01       	movw	r30, r24
	ta->next_available = 0;
    9cae:	10 82       	st	Z, r1
	for (u8 i = 0; i < TILE_ANIMATIONS_LENGTH; i++)
	{
		ta->anims[i].tile_index = 0;
    9cb0:	16 86       	std	Z+14, r1	; 0x0e
    9cb2:	15 86       	std	Z+13, r1	; 0x0d
		ta->anims[i].anim.current_anim = 0;
    9cb4:	11 82       	std	Z+1, r1	; 0x01
		ta->anims[i].anim.anim_count = 3;
    9cb6:	73 e0       	ldi	r23, 0x03	; 3
    9cb8:	72 83       	std	Z+2, r23	; 0x02
		ta->anims[i].anim.frames_per_anim = FRAMES_PER_ANIM;
    9cba:	65 e0       	ldi	r22, 0x05	; 5
    9cbc:	63 83       	std	Z+3, r22	; 0x03
		ta->anims[i].anim.frame_count = 0;
    9cbe:	14 82       	std	Z+4, r1	; 0x04
		ta->anims[i].anim.looped = 0;
    9cc0:	15 82       	std	Z+5, r1	; 0x05
		ta->anims[i].anim.reversing = 0;
    9cc2:	16 82       	std	Z+6, r1	; 0x06
		ta->anims[i].anim.anims[0] = (char*)map_tile_exp_0;
    9cc4:	46 ec       	ldi	r20, 0xC6	; 198
    9cc6:	5a e6       	ldi	r21, 0x6A	; 106
    9cc8:	50 87       	std	Z+8, r21	; 0x08
    9cca:	47 83       	std	Z+7, r20	; 0x07
		ta->anims[i].anim.anims[1] = (char*)map_tile_exp_1;
    9ccc:	23 ec       	ldi	r18, 0xC3	; 195
    9cce:	3a e6       	ldi	r19, 0x6A	; 106
    9cd0:	32 87       	std	Z+10, r19	; 0x0a
    9cd2:	21 87       	std	Z+9, r18	; 0x09
		ta->anims[i].anim.anims[2] = (char*)map_tile_exp_2;
    9cd4:	80 ec       	ldi	r24, 0xC0	; 192
    9cd6:	9a e6       	ldi	r25, 0x6A	; 106
    9cd8:	94 87       	std	Z+12, r25	; 0x0c
    9cda:	83 87       	std	Z+11, r24	; 0x0b
void init_tile_animations(TileAnimations* ta)
{
	ta->next_available = 0;
	for (u8 i = 0; i < TILE_ANIMATIONS_LENGTH; i++)
	{
		ta->anims[i].tile_index = 0;
    9cdc:	14 8e       	std	Z+28, r1	; 0x1c
    9cde:	13 8e       	std	Z+27, r1	; 0x1b
		ta->anims[i].anim.current_anim = 0;
    9ce0:	17 86       	std	Z+15, r1	; 0x0f
		ta->anims[i].anim.anim_count = 3;
    9ce2:	70 8b       	std	Z+16, r23	; 0x10
		ta->anims[i].anim.frames_per_anim = FRAMES_PER_ANIM;
    9ce4:	61 8b       	std	Z+17, r22	; 0x11
		ta->anims[i].anim.frame_count = 0;
    9ce6:	12 8a       	std	Z+18, r1	; 0x12
		ta->anims[i].anim.looped = 0;
    9ce8:	13 8a       	std	Z+19, r1	; 0x13
		ta->anims[i].anim.reversing = 0;
    9cea:	14 8a       	std	Z+20, r1	; 0x14
		ta->anims[i].anim.anims[0] = (char*)map_tile_exp_0;
    9cec:	56 8b       	std	Z+22, r21	; 0x16
    9cee:	45 8b       	std	Z+21, r20	; 0x15
		ta->anims[i].anim.anims[1] = (char*)map_tile_exp_1;
    9cf0:	30 8f       	std	Z+24, r19	; 0x18
    9cf2:	27 8b       	std	Z+23, r18	; 0x17
		ta->anims[i].anim.anims[2] = (char*)map_tile_exp_2;
    9cf4:	92 8f       	std	Z+26, r25	; 0x1a
    9cf6:	81 8f       	std	Z+25, r24	; 0x19
    9cf8:	08 95       	ret

00009cfa <init_scope_animation>:
	}
}

void init_scope_animation(TileAnimation* ta)
{
    9cfa:	fc 01       	movw	r30, r24
	ta->tile_index = 0;
    9cfc:	15 86       	std	Z+13, r1	; 0x0d
    9cfe:	14 86       	std	Z+12, r1	; 0x0c
	ta->anim.current_anim = 0;
    9d00:	10 82       	st	Z, r1
	ta->anim.anim_count = 3;
    9d02:	83 e0       	ldi	r24, 0x03	; 3
    9d04:	81 83       	std	Z+1, r24	; 0x01
	ta->anim.frames_per_anim = FRAMES_PER_SCOPE;
    9d06:	8e e1       	ldi	r24, 0x1E	; 30
    9d08:	82 83       	std	Z+2, r24	; 0x02
	ta->anim.frame_count = 0;
    9d0a:	13 82       	std	Z+3, r1	; 0x03
	ta->anim.looped = 0;
    9d0c:	14 82       	std	Z+4, r1	; 0x04
	ta->anim.reversing = 0;
    9d0e:	15 82       	std	Z+5, r1	; 0x05
	ta->anim.anims[0] = (char*)map_scope_0;
    9d10:	8c e9       	ldi	r24, 0x9C	; 156
    9d12:	9a e6       	ldi	r25, 0x6A	; 106
    9d14:	97 83       	std	Z+7, r25	; 0x07
    9d16:	86 83       	std	Z+6, r24	; 0x06
	ta->anim.anims[1] = (char*)map_scope_1;
    9d18:	89 e9       	ldi	r24, 0x99	; 153
    9d1a:	9a e6       	ldi	r25, 0x6A	; 106
    9d1c:	91 87       	std	Z+9, r25	; 0x09
    9d1e:	80 87       	std	Z+8, r24	; 0x08
	ta->anim.anims[2] = (char*)map_scope_2;
    9d20:	86 e9       	ldi	r24, 0x96	; 150
    9d22:	9a e6       	ldi	r25, 0x6A	; 106
    9d24:	93 87       	std	Z+11, r25	; 0x0b
    9d26:	82 87       	std	Z+10, r24	; 0x0a
    9d28:	08 95       	ret

00009d2a <init_sub_animation>:
}

void init_sub_animation(TileAnimation* ta)
{
    9d2a:	fc 01       	movw	r30, r24
	ta->tile_index = 0;
    9d2c:	15 86       	std	Z+13, r1	; 0x0d
    9d2e:	14 86       	std	Z+12, r1	; 0x0c
	ta->anim.current_anim = 0;
    9d30:	10 82       	st	Z, r1
	ta->anim.anim_count = 2;
    9d32:	82 e0       	ldi	r24, 0x02	; 2
    9d34:	81 83       	std	Z+1, r24	; 0x01
	ta->anim.frames_per_anim = FRAMES_PER_SUB;
    9d36:	8c e3       	ldi	r24, 0x3C	; 60
    9d38:	82 83       	std	Z+2, r24	; 0x02
	ta->anim.frame_count = 0;
    9d3a:	13 82       	std	Z+3, r1	; 0x03
	ta->anim.looped = 0;
    9d3c:	14 82       	std	Z+4, r1	; 0x04
	ta->anim.reversing = 0;
    9d3e:	15 82       	std	Z+5, r1	; 0x05
	ta->anim.anims[0] = (char*)map_sub_emerging;
    9d40:	8a e2       	ldi	r24, 0x2A	; 42
    9d42:	98 e6       	ldi	r25, 0x68	; 104
    9d44:	97 83       	std	Z+7, r25	; 0x07
    9d46:	86 83       	std	Z+6, r24	; 0x06
	ta->anim.anims[1] = (char*)map_sub;
    9d48:	80 e6       	ldi	r24, 0x60	; 96
    9d4a:	99 e6       	ldi	r25, 0x69	; 105
    9d4c:	91 87       	std	Z+9, r25	; 0x09
    9d4e:	80 87       	std	Z+8, r24	; 0x08
    9d50:	08 95       	ret

00009d52 <init_shot_state>:
}

void init_shot_state(Shot* s, u8 shot_type)
{
    9d52:	fc 01       	movw	r30, r24
	s->shared.speed = SHOT_SPEED;
    9d54:	88 e7       	ldi	r24, 0x78	; 120
    9d56:	81 83       	std	Z+1, r24	; 0x01
	s->shared.direction = D_UP;
    9d58:	10 82       	st	Z, r1
	s->shared.recoiled = 0;
    9d5a:	12 82       	std	Z+2, r1	; 0x02
	s->active = 0;
    9d5c:	16 86       	std	Z+14, r1	; 0x0e
	s->distance = 0;
    9d5e:	17 86       	std	Z+15, r1	; 0x0f
	s->shot_type = shot_type;
    9d60:	63 87       	std	Z+11, r22	; 0x0b
	s->rebounds = SHOT_REBOUNDS;
    9d62:	84 e0       	ldi	r24, 0x04	; 4
    9d64:	85 87       	std	Z+13, r24	; 0x0d
	s->hit_count = (shot_type == BASIC_SHOT) ? BASIC_SHOT_HIT_COUNT : ROCKET_SHOT_HIT_COUNT;
    9d66:	66 23       	and	r22, r22
    9d68:	11 f0       	breq	.+4      	; 0x9d6e <init_shot_state+0x1c>
    9d6a:	85 e0       	ldi	r24, 0x05	; 5
    9d6c:	01 c0       	rjmp	.+2      	; 0x9d70 <init_shot_state+0x1e>
    9d6e:	81 e0       	ldi	r24, 0x01	; 1
    9d70:	84 87       	std	Z+12, r24	; 0x0c
	s->shared.x = OFF_SCREEN;
    9d72:	80 e0       	ldi	r24, 0x00	; 0
    9d74:	90 e0       	ldi	r25, 0x00	; 0
    9d76:	a0 e7       	ldi	r26, 0x70	; 112
    9d78:	b3 e4       	ldi	r27, 0x43	; 67
    9d7a:	83 83       	std	Z+3, r24	; 0x03
    9d7c:	94 83       	std	Z+4, r25	; 0x04
    9d7e:	a5 83       	std	Z+5, r26	; 0x05
    9d80:	b6 83       	std	Z+6, r27	; 0x06
	s->shared.y = 0;
    9d82:	17 82       	std	Z+7, r1	; 0x07
    9d84:	10 86       	std	Z+8, r1	; 0x08
    9d86:	11 86       	std	Z+9, r1	; 0x09
    9d88:	12 86       	std	Z+10, r1	; 0x0a
    9d8a:	08 95       	ret

00009d8c <set_shot_animations>:
}

void set_shot_animations(Shot* s, u8 shot_type)
{
    9d8c:	fc 01       	movw	r30, r24
	s->up_anim.current_anim = 0;
    9d8e:	10 8a       	std	Z+16, r1	; 0x10
	s->up_anim.anim_count = 2;
    9d90:	82 e0       	ldi	r24, 0x02	; 2
    9d92:	81 8b       	std	Z+17, r24	; 0x11
	s->up_anim.frames_per_anim = FRAMES_PER_ANIM;
    9d94:	85 e0       	ldi	r24, 0x05	; 5
    9d96:	82 8b       	std	Z+18, r24	; 0x12
	s->up_anim.frame_count = 0;
    9d98:	13 8a       	std	Z+19, r1	; 0x13
	s->up_anim.looped = 0;
    9d9a:	14 8a       	std	Z+20, r1	; 0x14
	s->up_anim.reversing = 0;
    9d9c:	15 8a       	std	Z+21, r1	; 0x15
	if (shot_type == BASIC_SHOT)
    9d9e:	61 11       	cpse	r22, r1
    9da0:	03 c0       	rjmp	.+6      	; 0x9da8 <set_shot_animations+0x1c>
	{
		s->up_anim.anims[0] = (char*) map_ball;
    9da2:	84 e3       	ldi	r24, 0x34	; 52
    9da4:	91 e3       	ldi	r25, 0x31	; 49
    9da6:	13 c0       	rjmp	.+38     	; 0x9dce <set_shot_animations+0x42>
		s->up_anim.anims[1] = (char*) map_ball;
		s->right_anim.anims[0] = (char*) map_ball;
		s->right_anim.anims[1] = (char*) map_ball;
	}
	else if (shot_type == ROCKET_SHOT)
    9da8:	61 30       	cpi	r22, 0x01	; 1
    9daa:	79 f4       	brne	.+30     	; 0x9dca <set_shot_animations+0x3e>
	{
		s->up_anim.anims[0] = (char*) map_rocket_up_0;
    9dac:	81 e3       	ldi	r24, 0x31	; 49
    9dae:	91 e3       	ldi	r25, 0x31	; 49
    9db0:	97 8b       	std	Z+23, r25	; 0x17
    9db2:	86 8b       	std	Z+22, r24	; 0x16
		s->up_anim.anims[1] = (char*) map_rocket_up_1;
    9db4:	8e e2       	ldi	r24, 0x2E	; 46
    9db6:	91 e3       	ldi	r25, 0x31	; 49
    9db8:	91 8f       	std	Z+25, r25	; 0x19
    9dba:	80 8f       	std	Z+24, r24	; 0x18
		s->right_anim.anims[0] = (char*) map_rocket_right_0;
    9dbc:	8b e2       	ldi	r24, 0x2B	; 43
    9dbe:	91 e3       	ldi	r25, 0x31	; 49
    9dc0:	93 a3       	std	Z+35, r25	; 0x23
    9dc2:	82 a3       	std	Z+34, r24	; 0x22
		s->right_anim.anims[1] = (char*) map_rocket_right_1;
    9dc4:	88 e2       	ldi	r24, 0x28	; 40
    9dc6:	91 e3       	ldi	r25, 0x31	; 49
    9dc8:	08 c0       	rjmp	.+16     	; 0x9dda <set_shot_animations+0x4e>
	}
	else
	{
		s->up_anim.anims[0] = (char*) map_sub_shot;
    9dca:	8c e1       	ldi	r24, 0x1C	; 28
    9dcc:	91 e3       	ldi	r25, 0x31	; 49
    9dce:	97 8b       	std	Z+23, r25	; 0x17
    9dd0:	86 8b       	std	Z+22, r24	; 0x16
		s->up_anim.anims[1] = (char*) map_sub_shot;
    9dd2:	91 8f       	std	Z+25, r25	; 0x19
    9dd4:	80 8f       	std	Z+24, r24	; 0x18
		s->right_anim.anims[0] = (char*) map_sub_shot;
    9dd6:	93 a3       	std	Z+35, r25	; 0x23
    9dd8:	82 a3       	std	Z+34, r24	; 0x22
		s->right_anim.anims[1] = (char*) map_sub_shot;
    9dda:	95 a3       	std	Z+37, r25	; 0x25
    9ddc:	84 a3       	std	Z+36, r24	; 0x24
	}
	s->up_anim.current_anim = 0;
    9dde:	10 8a       	std	Z+16, r1	; 0x10
	s->right_anim.anim_count = 2;
    9de0:	82 e0       	ldi	r24, 0x02	; 2
    9de2:	85 8f       	std	Z+29, r24	; 0x1d
	s->right_anim.frames_per_anim = FRAMES_PER_ANIM;
    9de4:	85 e0       	ldi	r24, 0x05	; 5
    9de6:	86 8f       	std	Z+30, r24	; 0x1e
	s->right_anim.frame_count = 0;
    9de8:	17 8e       	std	Z+31, r1	; 0x1f
	s->right_anim.looped = 0;
    9dea:	10 a2       	std	Z+32, r1	; 0x20
	s->right_anim.reversing = 0;
    9dec:	11 a2       	std	Z+33, r1	; 0x21
    9dee:	08 95       	ret

00009df0 <init_turret>:
}

void init_turret(Turret* t, float x, float y)
{
    9df0:	0f 93       	push	r16
    9df2:	1f 93       	push	r17
    9df4:	fc 01       	movw	r30, r24
	t->lives = BOSS_TURRET_LIVES;
    9df6:	85 e0       	ldi	r24, 0x05	; 5
    9df8:	83 87       	std	Z+11, r24	; 0x0b
	t->shared.direction = D_LEFT;
    9dfa:	83 e0       	ldi	r24, 0x03	; 3
    9dfc:	80 83       	st	Z, r24
	t->shared.recoiled = 0;
    9dfe:	12 82       	std	Z+2, r1	; 0x02
	t->shared.speed = BOSS_TURRET_SPEED;
    9e00:	8a e5       	ldi	r24, 0x5A	; 90
    9e02:	81 83       	std	Z+1, r24	; 0x01
	t->shared.x = x;
    9e04:	43 83       	std	Z+3, r20	; 0x03
    9e06:	54 83       	std	Z+4, r21	; 0x04
    9e08:	65 83       	std	Z+5, r22	; 0x05
    9e0a:	76 83       	std	Z+6, r23	; 0x06
	t->shared.y = y;
    9e0c:	07 83       	std	Z+7, r16	; 0x07
    9e0e:	10 87       	std	Z+8, r17	; 0x08
    9e10:	21 87       	std	Z+9, r18	; 0x09
    9e12:	32 87       	std	Z+10, r19	; 0x0a
	
	for (u8 i = 0; i < MAX_SHOTS; i++)
	{
		t->shot[i].shared.speed = BOSS_TURRET_SHOT_SPEED;
    9e14:	8a ef       	ldi	r24, 0xFA	; 250
    9e16:	85 87       	std	Z+13, r24	; 0x0d
		t->shot[i].shared.direction = D_DOWN;
    9e18:	82 e0       	ldi	r24, 0x02	; 2
    9e1a:	84 87       	std	Z+12, r24	; 0x0c
		t->shot[i].shared.recoiled = 0;
    9e1c:	16 86       	std	Z+14, r1	; 0x0e
		t->shot[i].shared.x = OFF_SCREEN;
    9e1e:	40 e0       	ldi	r20, 0x00	; 0
    9e20:	50 e0       	ldi	r21, 0x00	; 0
    9e22:	60 e7       	ldi	r22, 0x70	; 112
    9e24:	73 e4       	ldi	r23, 0x43	; 67
    9e26:	47 87       	std	Z+15, r20	; 0x0f
    9e28:	50 8b       	std	Z+16, r21	; 0x10
    9e2a:	61 8b       	std	Z+17, r22	; 0x11
    9e2c:	72 8b       	std	Z+18, r23	; 0x12
		t->shot[i].shared.y = 0;
    9e2e:	13 8a       	std	Z+19, r1	; 0x13
    9e30:	14 8a       	std	Z+20, r1	; 0x14
    9e32:	15 8a       	std	Z+21, r1	; 0x15
    9e34:	16 8a       	std	Z+22, r1	; 0x16
		t->shot[i].active = 0;
    9e36:	12 8e       	std	Z+26, r1	; 0x1a
		t->shot[i].distance = 100;
    9e38:	94 e6       	ldi	r25, 0x64	; 100
    9e3a:	93 8f       	std	Z+27, r25	; 0x1b
		t->shot[i].shot_type = BOSS_TURRET_SHOT;
    9e3c:	87 8b       	std	Z+23, r24	; 0x17
		t->shot[i].rebounds = SHOT_REBOUNDS;
    9e3e:	84 e0       	ldi	r24, 0x04	; 4
    9e40:	81 8f       	std	Z+25, r24	; 0x19
		t->shot[i].hit_count = BOSS_TURRET_SHOT_HIT_COUNT;
    9e42:	81 e0       	ldi	r24, 0x01	; 1
    9e44:	80 8f       	std	Z+24, r24	; 0x18
		set_shot_animations(&t->shot[i], BOSS_TURRET_SHOT);
    9e46:	62 e0       	ldi	r22, 0x02	; 2
    9e48:	cf 01       	movw	r24, r30
    9e4a:	0c 96       	adiw	r24, 0x0c	; 12
	}
}
    9e4c:	1f 91       	pop	r17
    9e4e:	0f 91       	pop	r16
		t->shot[i].active = 0;
		t->shot[i].distance = 100;
		t->shot[i].shot_type = BOSS_TURRET_SHOT;
		t->shot[i].rebounds = SHOT_REBOUNDS;
		t->shot[i].hit_count = BOSS_TURRET_SHOT_HIT_COUNT;
		set_shot_animations(&t->shot[i], BOSS_TURRET_SHOT);
    9e50:	0c 94 c6 4e 	jmp	0x9d8c	; 0x9d8c <set_shot_animations>

00009e54 <init_player>:
	}
}

void init_player(Player* p, const char* map_tank_up_0, const char* map_tank_right_0)
{
    9e54:	0f 93       	push	r16
    9e56:	1f 93       	push	r17
    9e58:	cf 93       	push	r28
    9e5a:	df 93       	push	r29
    9e5c:	ec 01       	movw	r28, r24
	p->grace_frame = FRAMES_PER_GRACE;
    9e5e:	88 e7       	ldi	r24, 0x78	; 120
    9e60:	8e 8b       	std	Y+22, r24	; 0x16
	p->score = 0;
    9e62:	1f 86       	std	Y+15, r1	; 0x0f
	p->level_score = 0;
    9e64:	18 8a       	std	Y+16, r1	; 0x10
	p->shared.direction = D_UP;
    9e66:	18 82       	st	Y, r1
	p->shared.speed = 0;
    9e68:	19 82       	std	Y+1, r1	; 0x01
	p->shared.recoiled = 0;
    9e6a:	1a 82       	std	Y+2, r1	; 0x02
	p->max_speed = MAX_SPEED;
    9e6c:	82 e3       	ldi	r24, 0x32	; 50
    9e6e:	8f 8b       	std	Y+23, r24	; 0x17
	p->has_over_speed = false;
    9e70:	19 8e       	std	Y+25, r1	; 0x19
	p->has_rocket = false;
    9e72:	18 8e       	std	Y+24, r1	; 0x18
	p->flags = 0;
    9e74:	1d 8a       	std	Y+21, r1	; 0x15

	/* Tracks animation (Up) */
	p->up_anim.current_anim = 0;
    9e76:	fe 01       	movw	r30, r28
    9e78:	e8 5a       	subi	r30, 0xA8	; 168
    9e7a:	ff 4f       	sbci	r31, 0xFF	; 255
    9e7c:	10 82       	st	Z, r1
	p->up_anim.anim_count = 1;
    9e7e:	31 96       	adiw	r30, 0x01	; 1
    9e80:	91 e0       	ldi	r25, 0x01	; 1
    9e82:	90 83       	st	Z, r25
	p->up_anim.frames_per_anim = FRAMES_PER_ANIM;
    9e84:	31 96       	adiw	r30, 0x01	; 1
    9e86:	85 e0       	ldi	r24, 0x05	; 5
    9e88:	80 83       	st	Z, r24
	p->up_anim.frame_count = 0;
    9e8a:	31 96       	adiw	r30, 0x01	; 1
    9e8c:	10 82       	st	Z, r1
	p->up_anim.looped = 0;
    9e8e:	31 96       	adiw	r30, 0x01	; 1
    9e90:	10 82       	st	Z, r1
	p->up_anim.reversing = 0;
    9e92:	31 96       	adiw	r30, 0x01	; 1
    9e94:	10 82       	st	Z, r1
	p->up_anim.anims[0] = (char*)map_tank_up_0;
    9e96:	31 96       	adiw	r30, 0x01	; 1
    9e98:	71 83       	std	Z+1, r23	; 0x01
    9e9a:	60 83       	st	Z, r22

	/* Tracks animation (Down) */
	p->right_anim.current_anim = 0;
    9e9c:	36 96       	adiw	r30, 0x06	; 6
    9e9e:	10 82       	st	Z, r1
	p->right_anim.anim_count = 1;
    9ea0:	31 96       	adiw	r30, 0x01	; 1
    9ea2:	90 83       	st	Z, r25
	p->right_anim.frames_per_anim = FRAMES_PER_ANIM;
    9ea4:	31 96       	adiw	r30, 0x01	; 1
    9ea6:	80 83       	st	Z, r24
	p->right_anim.frame_count = 0;
    9ea8:	31 96       	adiw	r30, 0x01	; 1
    9eaa:	10 82       	st	Z, r1
	p->right_anim.looped = 0;
    9eac:	31 96       	adiw	r30, 0x01	; 1
    9eae:	10 82       	st	Z, r1
	p->right_anim.reversing = 0;
    9eb0:	31 96       	adiw	r30, 0x01	; 1
    9eb2:	10 82       	st	Z, r1
	p->right_anim.anims[0] = (char*)map_tank_right_0;
    9eb4:	31 96       	adiw	r30, 0x01	; 1
    9eb6:	51 83       	std	Z+1, r21	; 0x01
    9eb8:	40 83       	st	Z, r20

	/* Explosion Animation */
	p->exp_anim.current_anim = 0;
    9eba:	36 96       	adiw	r30, 0x06	; 6
    9ebc:	10 82       	st	Z, r1
	p->exp_anim.anim_count = 3;
    9ebe:	31 96       	adiw	r30, 0x01	; 1
    9ec0:	93 e0       	ldi	r25, 0x03	; 3
    9ec2:	90 83       	st	Z, r25
	p->exp_anim.frames_per_anim = FRAMES_PER_ANIM;
    9ec4:	31 96       	adiw	r30, 0x01	; 1
    9ec6:	80 83       	st	Z, r24
	p->exp_anim.frame_count = 0;
    9ec8:	31 96       	adiw	r30, 0x01	; 1
    9eca:	10 82       	st	Z, r1
	p->exp_anim.looped = 0;
    9ecc:	31 96       	adiw	r30, 0x01	; 1
    9ece:	10 82       	st	Z, r1
	p->exp_anim.reversing = 0;
    9ed0:	31 96       	adiw	r30, 0x01	; 1
    9ed2:	10 82       	st	Z, r1
	p->exp_anim.anims[0] = (char*)map_explosion_0;
    9ed4:	31 96       	adiw	r30, 0x01	; 1
    9ed6:	83 e4       	ldi	r24, 0x43	; 67
    9ed8:	91 e3       	ldi	r25, 0x31	; 49
    9eda:	91 83       	std	Z+1, r25	; 0x01
    9edc:	80 83       	st	Z, r24
	p->exp_anim.anims[1] = (char*)map_explosion_1;
    9ede:	32 96       	adiw	r30, 0x02	; 2
    9ee0:	8d e3       	ldi	r24, 0x3D	; 61
    9ee2:	91 e3       	ldi	r25, 0x31	; 49
    9ee4:	91 83       	std	Z+1, r25	; 0x01
    9ee6:	80 83       	st	Z, r24
	p->exp_anim.anims[2] = (char*)map_explosion_2;
    9ee8:	32 96       	adiw	r30, 0x02	; 2
    9eea:	87 e3       	ldi	r24, 0x37	; 55
    9eec:	91 e3       	ldi	r25, 0x31	; 49
    9eee:	91 83       	std	Z+1, r25	; 0x01
    9ef0:	80 83       	st	Z, r24

	/* Shot */
	p->active_shots = 0;
    9ef2:	19 8a       	std	Y+17, r1	; 0x11
	p->old_active_shots = 0;
    9ef4:	1a 8a       	std	Y+18, r1	; 0x12
	for (u8 i = 0; i < MAX_SHOTS; i++)
	{
		init_shot_state(&p->shot[i], BASIC_SHOT);
    9ef6:	8e 01       	movw	r16, r28
    9ef8:	00 5d       	subi	r16, 0xD0	; 208
    9efa:	1f 4f       	sbci	r17, 0xFF	; 255
    9efc:	60 e0       	ldi	r22, 0x00	; 0
    9efe:	c8 01       	movw	r24, r16
    9f00:	0e 94 a9 4e 	call	0x9d52	; 0x9d52 <init_shot_state>
		set_shot_animations(&p->shot[i], BASIC_SHOT);
    9f04:	60 e0       	ldi	r22, 0x00	; 0
    9f06:	c8 01       	movw	r24, r16
    9f08:	0e 94 c6 4e 	call	0x9d8c	; 0x9d8c <set_shot_animations>
	}
	
	/* pathfinding variables */
	p->feeling_my_way = 0;
    9f0c:	1a 8e       	std	Y+26, r1	; 0x1a
	p->goal_direction = 0;
    9f0e:	1e 8e       	std	Y+30, r1	; 0x1e
    9f10:	1d 8e       	std	Y+29, r1	; 0x1d
	p->goal = 0;
    9f12:	1b a2       	std	Y+35, r1	; 0x23
	p->goal_reached = 0;
    9f14:	1c a2       	std	Y+36, r1	; 0x24
	p->old_x = 0;
    9f16:	18 a6       	std	Y+40, r1	; 0x28
    9f18:	19 a6       	std	Y+41, r1	; 0x29
    9f1a:	1a a6       	std	Y+42, r1	; 0x2a
    9f1c:	1b a6       	std	Y+43, r1	; 0x2b
	p->old_y = 0;
    9f1e:	1c a6       	std	Y+44, r1	; 0x2c
    9f20:	1d a6       	std	Y+45, r1	; 0x2d
    9f22:	1e a6       	std	Y+46, r1	; 0x2e
    9f24:	1f a6       	std	Y+47, r1	; 0x2f
	p->deadlock_count_x = 0;
    9f26:	18 a2       	std	Y+32, r1	; 0x20
    9f28:	1f 8e       	std	Y+31, r1	; 0x1f
	p->deadlock_count_y = 0;
    9f2a:	1a a2       	std	Y+34, r1	; 0x22
    9f2c:	19 a2       	std	Y+33, r1	; 0x21
}
    9f2e:	df 91       	pop	r29
    9f30:	cf 91       	pop	r28
    9f32:	1f 91       	pop	r17
    9f34:	0f 91       	pop	r16
    9f36:	08 95       	ret

00009f38 <player_init_shot_state>:

void player_init_shot_state(Player* player)
{
	player->active_shots = 0;
    9f38:	fc 01       	movw	r30, r24
    9f3a:	11 8a       	std	Z+17, r1	; 0x11
	player->old_active_shots = 0;
    9f3c:	12 8a       	std	Z+18, r1	; 0x12
	for (u8 i = 0; i < MAX_SHOTS; i++)
	{
		init_shot_state(&player->shot[i], BASIC_SHOT);
    9f3e:	60 e0       	ldi	r22, 0x00	; 0
    9f40:	c0 96       	adiw	r24, 0x30	; 48
    9f42:	0c 94 a9 4e 	jmp	0x9d52	; 0x9d52 <init_shot_state>

00009f46 <init_game_state>:
	}
}

void init_game_state()
{
	game.current_level = 0;
    9f46:	e3 ea       	ldi	r30, 0xA3	; 163
    9f48:	fb e0       	ldi	r31, 0x0B	; 11
    9f4a:	11 82       	std	Z+1, r1	; 0x01
	game.selection = PVCPU;
    9f4c:	13 8a       	std	Z+19, r1	; 0x13
	game.paused = 0;
    9f4e:	12 82       	std	Z+2, r1	; 0x02
	game.scope_counter = 0;
    9f50:	14 86       	std	Z+12, r1	; 0x0c
    9f52:	13 86       	std	Z+11, r1	; 0x0b
	game.boss_fight_status = 0;
    9f54:	13 82       	std	Z+3, r1	; 0x03
	game.boss_fight_player = 0;
    9f56:	10 8a       	std	Z+16, r1	; 0x10
    9f58:	17 86       	std	Z+15, r1	; 0x0f
	game.boss_fight_joypad = 0;
    9f5a:	12 8a       	std	Z+18, r1	; 0x12
    9f5c:	11 8a       	std	Z+17, r1	; 0x11
	game.boss_fight_player_lives = BOSS_FIGHT_PLAYER_LIVES;
    9f5e:	82 e0       	ldi	r24, 0x02	; 2
    9f60:	85 83       	std	Z+5, r24	; 0x05
	game.boss_fight_player_hud = 0;
    9f62:	14 82       	std	Z+4, r1	; 0x04
	game.toggle_counter = FRAMES_PER_BLANK;
    9f64:	84 e1       	ldi	r24, 0x14	; 20
    9f66:	86 83       	std	Z+6, r24	; 0x06
	game.toggle_blank = 0;
    9f68:	17 82       	std	Z+7, r1	; 0x07
	game.demo_counter = 0;
    9f6a:	12 86       	std	Z+10, r1	; 0x0a
    9f6c:	11 86       	std	Z+9, r1	; 0x09
	game.demo_choice = 0;
    9f6e:	10 86       	std	Z+8, r1	; 0x08
	game.tank_rank_counter = 0;
    9f70:	16 86       	std	Z+14, r1	; 0x0e
    9f72:	15 86       	std	Z+13, r1	; 0x0d
	init_player(&player1, map_tank1_up_0, map_tank1_right_0);
    9f74:	45 e5       	ldi	r20, 0x55	; 85
    9f76:	51 e3       	ldi	r21, 0x31	; 49
    9f78:	6b e5       	ldi	r22, 0x5B	; 91
    9f7a:	71 e3       	ldi	r23, 0x31	; 49
    9f7c:	85 ed       	ldi	r24, 0xD5	; 213
    9f7e:	9b e0       	ldi	r25, 0x0B	; 11
    9f80:	0e 94 2a 4f 	call	0x9e54	; 0x9e54 <init_player>
	init_player(&player2, map_tank2_up_0, map_tank2_right_0);
    9f84:	49 e4       	ldi	r20, 0x49	; 73
    9f86:	51 e3       	ldi	r21, 0x31	; 49
    9f88:	6f e4       	ldi	r22, 0x4F	; 79
    9f8a:	71 e3       	ldi	r23, 0x31	; 49
    9f8c:	87 e4       	ldi	r24, 0x47	; 71
    9f8e:	9f e0       	ldi	r25, 0x0F	; 15
    9f90:	0c 94 2a 4f 	jmp	0x9e54	; 0x9e54 <init_player>

00009f94 <player_spawn>:
}

/* Utilities */
void player_spawn(Player* player)
{
    9f94:	cf 93       	push	r28
    9f96:	df 93       	push	r29
    9f98:	ec 01       	movw	r28, r24
	player->grace_frame = 0;
    9f9a:	1e 8a       	std	Y+22, r1	; 0x16
	player->shared.x = player->spawn_x;
    9f9c:	6b 89       	ldd	r22, Y+19	; 0x13
    9f9e:	70 e0       	ldi	r23, 0x00	; 0
    9fa0:	80 e0       	ldi	r24, 0x00	; 0
    9fa2:	90 e0       	ldi	r25, 0x00	; 0
    9fa4:	0e 94 b0 73 	call	0xe760	; 0xe760 <__floatunsisf>
    9fa8:	6b 83       	std	Y+3, r22	; 0x03
    9faa:	7c 83       	std	Y+4, r23	; 0x04
    9fac:	8d 83       	std	Y+5, r24	; 0x05
    9fae:	9e 83       	std	Y+6, r25	; 0x06
	player->shared.y = player->spawn_y;
    9fb0:	6c 89       	ldd	r22, Y+20	; 0x14
    9fb2:	70 e0       	ldi	r23, 0x00	; 0
    9fb4:	80 e0       	ldi	r24, 0x00	; 0
    9fb6:	90 e0       	ldi	r25, 0x00	; 0
    9fb8:	0e 94 b0 73 	call	0xe760	; 0xe760 <__floatunsisf>
    9fbc:	6f 83       	std	Y+7, r22	; 0x07
    9fbe:	78 87       	std	Y+8, r23	; 0x08
    9fc0:	89 87       	std	Y+9, r24	; 0x09
    9fc2:	9a 87       	std	Y+10, r25	; 0x0a
	player->shared.direction = D_UP;
    9fc4:	18 82       	st	Y, r1
	player->shared.speed = 0;
    9fc6:	19 82       	std	Y+1, r1	; 0x01
	player->shared.recoiled = 0;
    9fc8:	1a 82       	std	Y+2, r1	; 0x02
	player->tank_tactic = LBRandom(0, 2);
    9fca:	62 e0       	ldi	r22, 0x02	; 2
    9fcc:	80 e0       	ldi	r24, 0x00	; 0
    9fce:	0e 94 fd 4d 	call	0x9bfa	; 0x9bfa <LBRandom>
    9fd2:	8b 8f       	std	Y+27, r24	; 0x1b
	player->shot_tactic = LBRandom(0, 2);
    9fd4:	62 e0       	ldi	r22, 0x02	; 2
    9fd6:	80 e0       	ldi	r24, 0x00	; 0
    9fd8:	0e 94 fd 4d 	call	0x9bfa	; 0x9bfa <LBRandom>
    9fdc:	8c 8f       	std	Y+28, r24	; 0x1c
	
}
    9fde:	df 91       	pop	r29
    9fe0:	cf 91       	pop	r28
    9fe2:	08 95       	ret

00009fe4 <waitForVSync>:

void waitForVSync()
{
    ProcessSprites();
    9fe4:	0e 94 00 47 	call	0x8e00	; 0x8e00 <ProcessSprites>
    WaitVsync(1);
    9fe8:	81 e0       	ldi	r24, 0x01	; 1
    9fea:	90 e0       	ldi	r25, 0x00	; 0
    9fec:	0e 94 0a 49 	call	0x9214	; 0x9214 <WaitVsync>
    RestoreBackground();
    9ff0:	0c 94 f9 37 	jmp	0x6ff2	; 0x6ff2 <RestoreBackground>

00009ff4 <load_eeprom>:
 *  0x01 = EEPROM_ERROR_INVALID_BLOCK
 *  0x02 = EEPROM_ERROR_FULL
 *  0x03 = EEPROM_ERROR_BLOCK_NOT_FOUND
 *  0x04 = EEPROM_ERROR_NOT_FORMATTED
 */
{
    9ff4:	cf 93       	push	r28
    9ff6:	df 93       	push	r29
    9ff8:	ec 01       	movw	r28, r24
	u8 status = 0;
	status = EepromReadBlock(block->id, block);
    9ffa:	bc 01       	movw	r22, r24
    9ffc:	88 81       	ld	r24, Y
    9ffe:	99 81       	ldd	r25, Y+1	; 0x01
    a000:	0e 94 fc 3b 	call	0x77f8	; 0x77f8 <EepromReadBlock>
	if (status == 0x03)
    a004:	83 30       	cpi	r24, 0x03	; 3
    a006:	29 f4       	brne	.+10     	; 0xa012 <load_eeprom+0x1e>
	{
		status = EepromWriteBlock(block);
    a008:	ce 01       	movw	r24, r28
	}
}
    a00a:	df 91       	pop	r29
    a00c:	cf 91       	pop	r28
{
	u8 status = 0;
	status = EepromReadBlock(block->id, block);
	if (status == 0x03)
	{
		status = EepromWriteBlock(block);
    a00e:	0c 94 b2 3b 	jmp	0x7764	; 0x7764 <EepromWriteBlock>
	}
}
    a012:	df 91       	pop	r29
    a014:	cf 91       	pop	r28
    a016:	08 95       	ret

0000a018 <fade_through>:

void fade_through()
{
	FadeOut(FRAMES_PER_FADE, true);
    a018:	61 e0       	ldi	r22, 0x01	; 1
    a01a:	83 e0       	ldi	r24, 0x03	; 3
    a01c:	0e 94 3b 49 	call	0x9276	; 0x9276 <FadeOut>
	ClearVram();
    a020:	0e 94 29 3a 	call	0x7452	; 0x7452 <ClearVram>
	FadeIn(FRAMES_PER_FADE, false);
    a024:	60 e0       	ldi	r22, 0x00	; 0
    a026:	83 e0       	ldi	r24, 0x03	; 3
    a028:	0c 94 2f 49 	jmp	0x925e	; 0x925e <FadeIn>

0000a02c <clear_sprites>:
	FadeIn(FRAMES_PER_FADE, false);
	load_level(index);
}

void clear_sprites()
{
    a02c:	cf 93       	push	r28
	for(char i = 0; i < MAX_SPRITES; i++)
    a02e:	c0 e0       	ldi	r28, 0x00	; 0
	{
		MapSprite2(i, map_none, 0);
    a030:	40 e0       	ldi	r20, 0x00	; 0
    a032:	67 e6       	ldi	r22, 0x67	; 103
    a034:	71 e3       	ldi	r23, 0x31	; 49
    a036:	8c 2f       	mov	r24, r28
    a038:	0e 94 e6 47 	call	0x8fcc	; 0x8fcc <MapSprite2>
    a03c:	cf 5f       	subi	r28, 0xFF	; 255
	load_level(index);
}

void clear_sprites()
{
	for(char i = 0; i < MAX_SPRITES; i++)
    a03e:	ca 30       	cpi	r28, 0x0A	; 10
    a040:	b9 f7       	brne	.-18     	; 0xa030 <clear_sprites+0x4>
	{
		MapSprite2(i, map_none, 0);
	}
}
    a042:	cf 91       	pop	r28
    a044:	08 95       	ret

0000a046 <save_score>:
{
	EepromWriteBlock(block);
}

void save_score()
{
    a046:	8f 92       	push	r8
    a048:	9f 92       	push	r9
    a04a:	bf 92       	push	r11
    a04c:	cf 92       	push	r12
    a04e:	df 92       	push	r13
    a050:	ef 92       	push	r14
    a052:	ff 92       	push	r15
    a054:	0f 93       	push	r16
    a056:	1f 93       	push	r17
    a058:	cf 93       	push	r28
    a05a:	df 93       	push	r29
	u8 save_delta = 0;
	u8 saved = 0;
	Player* p_win = &player1;
	Player* p_lose = &player2;

	if (player1.score < player2.score)
    a05c:	90 91 e4 0b 	lds	r25, 0x0BE4
    a060:	80 91 56 0f 	lds	r24, 0x0F56
    a064:	98 17       	cp	r25, r24
    a066:	28 f4       	brcc	.+10     	; 0xa072 <save_score+0x2c>
	{
		p_win = &player2;
		p_lose = &player1;
    a068:	e5 ed       	ldi	r30, 0xD5	; 213
    a06a:	fb e0       	ldi	r31, 0x0B	; 11
	Player* p_win = &player1;
	Player* p_lose = &player2;

	if (player1.score < player2.score)
	{
		p_win = &player2;
    a06c:	a7 e4       	ldi	r26, 0x47	; 71
    a06e:	bf e0       	ldi	r27, 0x0F	; 15
    a070:	04 c0       	rjmp	.+8      	; 0xa07a <save_score+0x34>
	u8 tmp_score[5];
	u8 save_score[5];
	u8 save_delta = 0;
	u8 saved = 0;
	Player* p_win = &player1;
	Player* p_lose = &player2;
    a072:	e7 e4       	ldi	r30, 0x47	; 71
    a074:	ff e0       	ldi	r31, 0x0F	; 15
	u8 cur_delta = 0;
	u8 tmp_score[5];
	u8 save_score[5];
	u8 save_delta = 0;
	u8 saved = 0;
	Player* p_win = &player1;
    a076:	a5 ed       	ldi	r26, 0xD5	; 213
    a078:	bb e0       	ldi	r27, 0x0B	; 11
	if (player1.score < player2.score)
	{
		p_win = &player2;
		p_lose = &player1;
	}
	save_score[0] = p_win->handle_id;
    a07a:	1b 96       	adiw	r26, 0x0b	; 11
    a07c:	1c 91       	ld	r17, X
    a07e:	1b 97       	sbiw	r26, 0x0b	; 11
	save_score[1] = p_lose->handle_id;
    a080:	73 85       	ldd	r23, Z+11	; 0x0b
	save_score[2] = p_win->score;
    a082:	1f 96       	adiw	r26, 0x0f	; 15
    a084:	6c 91       	ld	r22, X
	save_score[3] = p_lose->score;
    a086:	57 85       	ldd	r21, Z+15	; 0x0f
	save_score[4] = (game.boss_fight_status == BOSS_FIGHT_WON) ? 1 : 0;
    a088:	41 e0       	ldi	r20, 0x01	; 1
    a08a:	80 91 a6 0b 	lds	r24, 0x0BA6
    a08e:	88 30       	cpi	r24, 0x08	; 8
    a090:	09 f0       	breq	.+2      	; 0xa094 <save_score+0x4e>
    a092:	40 e0       	ldi	r20, 0x00	; 0
	save_delta = p_win->score - p_lose->score;
    a094:	d6 2e       	mov	r13, r22
    a096:	d5 1a       	sub	r13, r21
    a098:	28 e5       	ldi	r18, 0x58	; 88
    a09a:	3b e0       	ldi	r19, 0x0B	; 11
    a09c:	89 e5       	ldi	r24, 0x59	; 89
    a09e:	9b e0       	ldi	r25, 0x0B	; 11
    a0a0:	ea e5       	ldi	r30, 0x5A	; 90
    a0a2:	fb e0       	ldi	r31, 0x0B	; 11
    a0a4:	cb e5       	ldi	r28, 0x5B	; 91
    a0a6:	db e0       	ldi	r29, 0x0B	; 11
    a0a8:	ac e5       	ldi	r26, 0x5C	; 92
    a0aa:	8a 2e       	mov	r8, r26
    a0ac:	ab e0       	ldi	r26, 0x0B	; 11
    a0ae:	9a 2e       	mov	r9, r26
{
	u8 cur_delta = 0;
	u8 tmp_score[5];
	u8 save_score[5];
	u8 save_delta = 0;
	u8 saved = 0;
    a0b0:	00 e0       	ldi	r16, 0x00	; 0
	save_score[4] = (game.boss_fight_status == BOSS_FIGHT_WON) ? 1 : 0;
	save_delta = p_win->score - p_lose->score;

	for (u8 i = 0; i < 28; i += 5)
	{
		if (saved)
    a0b2:	00 23       	and	r16, r16
    a0b4:	a1 f0       	breq	.+40     	; 0xa0de <save_score+0x98>
		{
			memcpy(tmp_score, &scores.data[i], 5);
    a0b6:	d9 01       	movw	r26, r18
    a0b8:	0c 91       	ld	r16, X
    a0ba:	dc 01       	movw	r26, r24
    a0bc:	fc 90       	ld	r15, X
    a0be:	e0 80       	ld	r14, Z
    a0c0:	c8 80       	ld	r12, Y
    a0c2:	d4 01       	movw	r26, r8
    a0c4:	bc 90       	ld	r11, X
			memcpy(&scores.data[i], save_score, 5);
    a0c6:	d9 01       	movw	r26, r18
    a0c8:	1c 93       	st	X, r17
    a0ca:	dc 01       	movw	r26, r24
    a0cc:	7c 93       	st	X, r23
    a0ce:	60 83       	st	Z, r22
    a0d0:	58 83       	st	Y, r21
    a0d2:	d4 01       	movw	r26, r8
    a0d4:	4c 93       	st	X, r20
			memcpy(save_score, tmp_score, 5);
    a0d6:	4b 2d       	mov	r20, r11
    a0d8:	5c 2d       	mov	r21, r12
    a0da:	b7 01       	movw	r22, r14
    a0dc:	18 c0       	rjmp	.+48     	; 0xa10e <save_score+0xc8>
		}
		else
		{
			cur_delta = scores.data[i+2] - scores.data[i+3];
    a0de:	f0 80       	ld	r15, Z
    a0e0:	e8 80       	ld	r14, Y
    a0e2:	cf 2c       	mov	r12, r15
    a0e4:	ce 18       	sub	r12, r14
			if (save_delta > cur_delta)
    a0e6:	cd 14       	cp	r12, r13
    a0e8:	a0 f4       	brcc	.+40     	; 0xa112 <save_score+0xcc>
			{
				memcpy(tmp_score, &scores.data[i], 5);
    a0ea:	d9 01       	movw	r26, r18
    a0ec:	0c 91       	ld	r16, X
    a0ee:	dc 01       	movw	r26, r24
    a0f0:	cc 90       	ld	r12, X
    a0f2:	d4 01       	movw	r26, r8
    a0f4:	bc 90       	ld	r11, X
				memcpy(&scores.data[i], save_score, 5);
    a0f6:	d9 01       	movw	r26, r18
    a0f8:	1c 93       	st	X, r17
    a0fa:	dc 01       	movw	r26, r24
    a0fc:	7c 93       	st	X, r23
    a0fe:	60 83       	st	Z, r22
    a100:	58 83       	st	Y, r21
    a102:	d4 01       	movw	r26, r8
    a104:	4c 93       	st	X, r20
				memcpy(save_score, tmp_score, 5);
    a106:	4b 2d       	mov	r20, r11
    a108:	5e 2d       	mov	r21, r14
    a10a:	6f 2d       	mov	r22, r15
    a10c:	7c 2d       	mov	r23, r12
    a10e:	10 2f       	mov	r17, r16
				saved = 1;
    a110:	01 e0       	ldi	r16, 0x01	; 1
    a112:	2b 5f       	subi	r18, 0xFB	; 251
    a114:	3f 4f       	sbci	r19, 0xFF	; 255
    a116:	05 96       	adiw	r24, 0x05	; 5
    a118:	35 96       	adiw	r30, 0x05	; 5
    a11a:	25 96       	adiw	r28, 0x05	; 5
    a11c:	b5 e0       	ldi	r27, 0x05	; 5
    a11e:	8b 0e       	add	r8, r27
    a120:	91 1c       	adc	r9, r1
	save_score[2] = p_win->score;
	save_score[3] = p_lose->score;
	save_score[4] = (game.boss_fight_status == BOSS_FIGHT_WON) ? 1 : 0;
	save_delta = p_win->score - p_lose->score;

	for (u8 i = 0; i < 28; i += 5)
    a122:	ab e0       	ldi	r26, 0x0B	; 11
    a124:	e8 37       	cpi	r30, 0x78	; 120
    a126:	fa 07       	cpc	r31, r26
    a128:	21 f6       	brne	.-120    	; 0xa0b2 <save_score+0x6c>
void save_eeprom(struct EepromBlockStruct* block)
/*
 * Save to EEPROM
 */
{
	EepromWriteBlock(block);
    a12a:	86 e5       	ldi	r24, 0x56	; 86
    a12c:	9b e0       	ldi	r25, 0x0B	; 11
				saved = 1;
			}
		}
	}
	save_eeprom(&scores);
}
    a12e:	df 91       	pop	r29
    a130:	cf 91       	pop	r28
    a132:	1f 91       	pop	r17
    a134:	0f 91       	pop	r16
    a136:	ff 90       	pop	r15
    a138:	ef 90       	pop	r14
    a13a:	df 90       	pop	r13
    a13c:	cf 90       	pop	r12
    a13e:	bf 90       	pop	r11
    a140:	9f 90       	pop	r9
    a142:	8f 90       	pop	r8
void save_eeprom(struct EepromBlockStruct* block)
/*
 * Save to EEPROM
 */
{
	EepromWriteBlock(block);
    a144:	0c 94 b2 3b 	jmp	0x7764	; 0x7764 <EepromWriteBlock>

0000a148 <position_shot>:
	init_game_state();
	load_tank_rank();
}

void position_shot(Player* player, Shot* shot)
{
    a148:	0f 93       	push	r16
    a14a:	1f 93       	push	r17
    a14c:	cf 93       	push	r28
    a14e:	df 93       	push	r29
    a150:	8c 01       	movw	r16, r24
    a152:	eb 01       	movw	r28, r22
	switch (shot->shared.direction)
    a154:	88 81       	ld	r24, Y
    a156:	81 30       	cpi	r24, 0x01	; 1
    a158:	69 f1       	breq	.+90     	; 0xa1b4 <position_shot+0x6c>
    a15a:	98 f0       	brcs	.+38     	; 0xa182 <position_shot+0x3a>
    a15c:	82 30       	cpi	r24, 0x02	; 2
    a15e:	f1 f1       	breq	.+124    	; 0xa1dc <position_shot+0x94>
    a160:	83 30       	cpi	r24, 0x03	; 3
    a162:	09 f0       	breq	.+2      	; 0xa166 <position_shot+0x1e>
    a164:	59 c0       	rjmp	.+178    	; 0xa218 <position_shot+0xd0>
		case D_DOWN:
			shot->shared.x = player->shared.x + 4;
			shot->shared.y = player->shared.y + 8;
			break;
		case D_LEFT:
			shot->shared.x = player->shared.x;
    a166:	f8 01       	movw	r30, r16
    a168:	83 81       	ldd	r24, Z+3	; 0x03
    a16a:	94 81       	ldd	r25, Z+4	; 0x04
    a16c:	a5 81       	ldd	r26, Z+5	; 0x05
    a16e:	b6 81       	ldd	r27, Z+6	; 0x06
    a170:	8b 83       	std	Y+3, r24	; 0x03
    a172:	9c 83       	std	Y+4, r25	; 0x04
    a174:	ad 83       	std	Y+5, r26	; 0x05
    a176:	be 83       	std	Y+6, r27	; 0x06
			shot->shared.y = player->shared.y + 4;
    a178:	20 e0       	ldi	r18, 0x00	; 0
    a17a:	30 e0       	ldi	r19, 0x00	; 0
    a17c:	40 e8       	ldi	r20, 0x80	; 128
    a17e:	50 e4       	ldi	r21, 0x40	; 64
    a180:	41 c0       	rjmp	.+130    	; 0xa204 <position_shot+0xbc>
void position_shot(Player* player, Shot* shot)
{
	switch (shot->shared.direction)
	{
		case D_UP:
			shot->shared.x = player->shared.x + 4;
    a182:	20 e0       	ldi	r18, 0x00	; 0
    a184:	30 e0       	ldi	r19, 0x00	; 0
    a186:	40 e8       	ldi	r20, 0x80	; 128
    a188:	50 e4       	ldi	r21, 0x40	; 64
    a18a:	f8 01       	movw	r30, r16
    a18c:	63 81       	ldd	r22, Z+3	; 0x03
    a18e:	74 81       	ldd	r23, Z+4	; 0x04
    a190:	85 81       	ldd	r24, Z+5	; 0x05
    a192:	96 81       	ldd	r25, Z+6	; 0x06
    a194:	0e 94 af 72 	call	0xe55e	; 0xe55e <__addsf3>
    a198:	6b 83       	std	Y+3, r22	; 0x03
    a19a:	7c 83       	std	Y+4, r23	; 0x04
    a19c:	8d 83       	std	Y+5, r24	; 0x05
    a19e:	9e 83       	std	Y+6, r25	; 0x06
			shot->shared.y = player->shared.y;
    a1a0:	f8 01       	movw	r30, r16
    a1a2:	87 81       	ldd	r24, Z+7	; 0x07
    a1a4:	90 85       	ldd	r25, Z+8	; 0x08
    a1a6:	a1 85       	ldd	r26, Z+9	; 0x09
    a1a8:	b2 85       	ldd	r27, Z+10	; 0x0a
    a1aa:	8f 83       	std	Y+7, r24	; 0x07
    a1ac:	98 87       	std	Y+8, r25	; 0x08
    a1ae:	a9 87       	std	Y+9, r26	; 0x09
    a1b0:	ba 87       	std	Y+10, r27	; 0x0a
			break;
    a1b2:	32 c0       	rjmp	.+100    	; 0xa218 <position_shot+0xd0>
		case D_RIGHT:
			shot->shared.x = player->shared.x + 8;
    a1b4:	20 e0       	ldi	r18, 0x00	; 0
    a1b6:	30 e0       	ldi	r19, 0x00	; 0
    a1b8:	40 e0       	ldi	r20, 0x00	; 0
    a1ba:	51 e4       	ldi	r21, 0x41	; 65
    a1bc:	f8 01       	movw	r30, r16
    a1be:	63 81       	ldd	r22, Z+3	; 0x03
    a1c0:	74 81       	ldd	r23, Z+4	; 0x04
    a1c2:	85 81       	ldd	r24, Z+5	; 0x05
    a1c4:	96 81       	ldd	r25, Z+6	; 0x06
    a1c6:	0e 94 af 72 	call	0xe55e	; 0xe55e <__addsf3>
    a1ca:	6b 83       	std	Y+3, r22	; 0x03
    a1cc:	7c 83       	std	Y+4, r23	; 0x04
    a1ce:	8d 83       	std	Y+5, r24	; 0x05
    a1d0:	9e 83       	std	Y+6, r25	; 0x06
			shot->shared.y = player->shared.y + 4;
    a1d2:	20 e0       	ldi	r18, 0x00	; 0
    a1d4:	30 e0       	ldi	r19, 0x00	; 0
    a1d6:	40 e8       	ldi	r20, 0x80	; 128
    a1d8:	50 e4       	ldi	r21, 0x40	; 64
    a1da:	13 c0       	rjmp	.+38     	; 0xa202 <position_shot+0xba>
			break;
		case D_DOWN:
			shot->shared.x = player->shared.x + 4;
    a1dc:	20 e0       	ldi	r18, 0x00	; 0
    a1de:	30 e0       	ldi	r19, 0x00	; 0
    a1e0:	40 e8       	ldi	r20, 0x80	; 128
    a1e2:	50 e4       	ldi	r21, 0x40	; 64
    a1e4:	f8 01       	movw	r30, r16
    a1e6:	63 81       	ldd	r22, Z+3	; 0x03
    a1e8:	74 81       	ldd	r23, Z+4	; 0x04
    a1ea:	85 81       	ldd	r24, Z+5	; 0x05
    a1ec:	96 81       	ldd	r25, Z+6	; 0x06
    a1ee:	0e 94 af 72 	call	0xe55e	; 0xe55e <__addsf3>
    a1f2:	6b 83       	std	Y+3, r22	; 0x03
    a1f4:	7c 83       	std	Y+4, r23	; 0x04
    a1f6:	8d 83       	std	Y+5, r24	; 0x05
    a1f8:	9e 83       	std	Y+6, r25	; 0x06
			shot->shared.y = player->shared.y + 8;
    a1fa:	20 e0       	ldi	r18, 0x00	; 0
    a1fc:	30 e0       	ldi	r19, 0x00	; 0
    a1fe:	40 e0       	ldi	r20, 0x00	; 0
    a200:	51 e4       	ldi	r21, 0x41	; 65
    a202:	f8 01       	movw	r30, r16
			break;
		case D_LEFT:
			shot->shared.x = player->shared.x;
			shot->shared.y = player->shared.y + 4;
    a204:	67 81       	ldd	r22, Z+7	; 0x07
    a206:	70 85       	ldd	r23, Z+8	; 0x08
    a208:	81 85       	ldd	r24, Z+9	; 0x09
    a20a:	92 85       	ldd	r25, Z+10	; 0x0a
    a20c:	0e 94 af 72 	call	0xe55e	; 0xe55e <__addsf3>
    a210:	6f 83       	std	Y+7, r22	; 0x07
    a212:	78 87       	std	Y+8, r23	; 0x08
    a214:	89 87       	std	Y+9, r24	; 0x09
    a216:	9a 87       	std	Y+10, r25	; 0x0a
			break;
	}
}
    a218:	df 91       	pop	r29
    a21a:	cf 91       	pop	r28
    a21c:	1f 91       	pop	r17
    a21e:	0f 91       	pop	r16
    a220:	08 95       	ret

0000a222 <print_level_score>:

void print_level_score(Player* winner, Player* loser)
{
    a222:	0f 93       	push	r16
    a224:	1f 93       	push	r17
    a226:	cf 93       	push	r28
    a228:	df 93       	push	r29
    a22a:	8c 01       	movw	r16, r24
    a22c:	eb 01       	movw	r28, r22
	LBPrintStr(4, 14, &winner->handle[0], 3);
    a22e:	ac 01       	movw	r20, r24
    a230:	44 5f       	subi	r20, 0xF4	; 244
    a232:	5f 4f       	sbci	r21, 0xFF	; 255
    a234:	23 e0       	ldi	r18, 0x03	; 3
    a236:	6e e0       	ldi	r22, 0x0E	; 14
    a238:	84 e0       	ldi	r24, 0x04	; 4
    a23a:	0e 94 96 4c 	call	0x992c	; 0x992c <LBPrintStr>
	Print(8, 14, (char*) strOwns);
    a23e:	45 e2       	ldi	r20, 0x25	; 37
    a240:	54 e0       	ldi	r21, 0x04	; 4
    a242:	6e e0       	ldi	r22, 0x0E	; 14
    a244:	70 e0       	ldi	r23, 0x00	; 0
    a246:	88 e0       	ldi	r24, 0x08	; 8
    a248:	90 e0       	ldi	r25, 0x00	; 0
    a24a:	0e 94 ec 48 	call	0x91d8	; 0x91d8 <Print>
	LBPrintStr(13, 14, &loser->handle[0], 3);
    a24e:	ae 01       	movw	r20, r28
    a250:	44 5f       	subi	r20, 0xF4	; 244
    a252:	5f 4f       	sbci	r21, 0xFF	; 255
    a254:	23 e0       	ldi	r18, 0x03	; 3
    a256:	6e e0       	ldi	r22, 0x0E	; 14
    a258:	8d e0       	ldi	r24, 0x0D	; 13
    a25a:	0e 94 96 4c 	call	0x992c	; 0x992c <LBPrintStr>
	Print(17, 14, (char*) strBy);
    a25e:	42 e2       	ldi	r20, 0x22	; 34
    a260:	54 e0       	ldi	r21, 0x04	; 4
    a262:	6e e0       	ldi	r22, 0x0E	; 14
    a264:	70 e0       	ldi	r23, 0x00	; 0
    a266:	81 e1       	ldi	r24, 0x11	; 17
    a268:	90 e0       	ldi	r25, 0x00	; 0
    a26a:	0e 94 ec 48 	call	0x91d8	; 0x91d8 <Print>
	PrintByte(22, 14, winner->level_score ,true);
    a26e:	21 e0       	ldi	r18, 0x01	; 1
    a270:	f8 01       	movw	r30, r16
    a272:	40 89       	ldd	r20, Z+16	; 0x10
    a274:	6e e0       	ldi	r22, 0x0E	; 14
    a276:	70 e0       	ldi	r23, 0x00	; 0
    a278:	86 e1       	ldi	r24, 0x16	; 22
    a27a:	90 e0       	ldi	r25, 0x00	; 0
    a27c:	0e 94 b9 48 	call	0x9172	; 0x9172 <PrintByte>
	PrintChar(23, 14, '-');
    a280:	4d e2       	ldi	r20, 0x2D	; 45
    a282:	6e e0       	ldi	r22, 0x0E	; 14
    a284:	70 e0       	ldi	r23, 0x00	; 0
    a286:	87 e1       	ldi	r24, 0x17	; 23
    a288:	90 e0       	ldi	r25, 0x00	; 0
    a28a:	0e 94 07 49 	call	0x920e	; 0x920e <PrintChar>
	PrintByte(26, 14, loser->level_score ,true);
    a28e:	21 e0       	ldi	r18, 0x01	; 1
    a290:	48 89       	ldd	r20, Y+16	; 0x10
    a292:	6e e0       	ldi	r22, 0x0E	; 14
    a294:	70 e0       	ldi	r23, 0x00	; 0
    a296:	8a e1       	ldi	r24, 0x1A	; 26
    a298:	90 e0       	ldi	r25, 0x00	; 0
}
    a29a:	df 91       	pop	r29
    a29c:	cf 91       	pop	r28
    a29e:	1f 91       	pop	r17
    a2a0:	0f 91       	pop	r16
	Print(8, 14, (char*) strOwns);
	LBPrintStr(13, 14, &loser->handle[0], 3);
	Print(17, 14, (char*) strBy);
	PrintByte(22, 14, winner->level_score ,true);
	PrintChar(23, 14, '-');
	PrintByte(26, 14, loser->level_score ,true);
    a2a2:	0c 94 b9 48 	jmp	0x9172	; 0x9172 <PrintByte>

0000a2a6 <print_final_score>:
}

void print_final_score(Player* winner, Player* loser)
{
    a2a6:	0f 93       	push	r16
    a2a8:	1f 93       	push	r17
    a2aa:	cf 93       	push	r28
    a2ac:	df 93       	push	r29
    a2ae:	8c 01       	movw	r16, r24
    a2b0:	eb 01       	movw	r28, r22
    Print(9, 12, (char*) strFinalScore);
    a2b2:	46 e1       	ldi	r20, 0x16	; 22
    a2b4:	54 e0       	ldi	r21, 0x04	; 4
    a2b6:	6c e0       	ldi	r22, 0x0C	; 12
    a2b8:	70 e0       	ldi	r23, 0x00	; 0
    a2ba:	89 e0       	ldi	r24, 0x09	; 9
    a2bc:	90 e0       	ldi	r25, 0x00	; 0
    a2be:	0e 94 ec 48 	call	0x91d8	; 0x91d8 <Print>
    LBPrintStr(4, 14, &winner->handle[0], 3);
    a2c2:	a8 01       	movw	r20, r16
    a2c4:	44 5f       	subi	r20, 0xF4	; 244
    a2c6:	5f 4f       	sbci	r21, 0xFF	; 255
    a2c8:	23 e0       	ldi	r18, 0x03	; 3
    a2ca:	6e e0       	ldi	r22, 0x0E	; 14
    a2cc:	84 e0       	ldi	r24, 0x04	; 4
    a2ce:	0e 94 96 4c 	call	0x992c	; 0x992c <LBPrintStr>
    Print(8, 14, (char*) strOwns);
    a2d2:	45 e2       	ldi	r20, 0x25	; 37
    a2d4:	54 e0       	ldi	r21, 0x04	; 4
    a2d6:	6e e0       	ldi	r22, 0x0E	; 14
    a2d8:	70 e0       	ldi	r23, 0x00	; 0
    a2da:	88 e0       	ldi	r24, 0x08	; 8
    a2dc:	90 e0       	ldi	r25, 0x00	; 0
    a2de:	0e 94 ec 48 	call	0x91d8	; 0x91d8 <Print>
    LBPrintStr(13, 14, &loser->handle[0], 3);
    a2e2:	ae 01       	movw	r20, r28
    a2e4:	44 5f       	subi	r20, 0xF4	; 244
    a2e6:	5f 4f       	sbci	r21, 0xFF	; 255
    a2e8:	23 e0       	ldi	r18, 0x03	; 3
    a2ea:	6e e0       	ldi	r22, 0x0E	; 14
    a2ec:	8d e0       	ldi	r24, 0x0D	; 13
    a2ee:	0e 94 96 4c 	call	0x992c	; 0x992c <LBPrintStr>
    Print(17, 14, (char*) strBy);
    a2f2:	42 e2       	ldi	r20, 0x22	; 34
    a2f4:	54 e0       	ldi	r21, 0x04	; 4
    a2f6:	6e e0       	ldi	r22, 0x0E	; 14
    a2f8:	70 e0       	ldi	r23, 0x00	; 0
    a2fa:	81 e1       	ldi	r24, 0x11	; 17
    a2fc:	90 e0       	ldi	r25, 0x00	; 0
    a2fe:	0e 94 ec 48 	call	0x91d8	; 0x91d8 <Print>
    PrintByte(22, 14, winner->score ,true);
    a302:	21 e0       	ldi	r18, 0x01	; 1
    a304:	f8 01       	movw	r30, r16
    a306:	47 85       	ldd	r20, Z+15	; 0x0f
    a308:	6e e0       	ldi	r22, 0x0E	; 14
    a30a:	70 e0       	ldi	r23, 0x00	; 0
    a30c:	86 e1       	ldi	r24, 0x16	; 22
    a30e:	90 e0       	ldi	r25, 0x00	; 0
    a310:	0e 94 b9 48 	call	0x9172	; 0x9172 <PrintByte>
    PrintChar(23, 14, '-');
    a314:	4d e2       	ldi	r20, 0x2D	; 45
    a316:	6e e0       	ldi	r22, 0x0E	; 14
    a318:	70 e0       	ldi	r23, 0x00	; 0
    a31a:	87 e1       	ldi	r24, 0x17	; 23
    a31c:	90 e0       	ldi	r25, 0x00	; 0
    a31e:	0e 94 07 49 	call	0x920e	; 0x920e <PrintChar>
    PrintByte(26, 14, loser->score ,true);
    a322:	21 e0       	ldi	r18, 0x01	; 1
    a324:	4f 85       	ldd	r20, Y+15	; 0x0f
    a326:	6e e0       	ldi	r22, 0x0E	; 14
    a328:	70 e0       	ldi	r23, 0x00	; 0
    a32a:	8a e1       	ldi	r24, 0x1A	; 26
    a32c:	90 e0       	ldi	r25, 0x00	; 0
    a32e:	0e 94 b9 48 	call	0x9172	; 0x9172 <PrintByte>
	if (game.boss_fight_status == BOSS_FIGHT_WON)
    a332:	80 91 a6 0b 	lds	r24, 0x0BA6
    a336:	88 30       	cpi	r24, 0x08	; 8
    a338:	59 f4       	brne	.+22     	; 0xa350 <print_final_score+0xaa>
	{
		PrintChar(28, 14, '*');
    a33a:	4a e2       	ldi	r20, 0x2A	; 42
    a33c:	6e e0       	ldi	r22, 0x0E	; 14
    a33e:	70 e0       	ldi	r23, 0x00	; 0
    a340:	8c e1       	ldi	r24, 0x1C	; 28
    a342:	90 e0       	ldi	r25, 0x00	; 0
	}
}
    a344:	df 91       	pop	r29
    a346:	cf 91       	pop	r28
    a348:	1f 91       	pop	r17
    a34a:	0f 91       	pop	r16
    PrintByte(22, 14, winner->score ,true);
    PrintChar(23, 14, '-');
    PrintByte(26, 14, loser->score ,true);
	if (game.boss_fight_status == BOSS_FIGHT_WON)
	{
		PrintChar(28, 14, '*');
    a34c:	0c 94 07 49 	jmp	0x920e	; 0x920e <PrintChar>
	}
}
    a350:	df 91       	pop	r29
    a352:	cf 91       	pop	r28
    a354:	1f 91       	pop	r17
    a356:	0f 91       	pop	r16
    a358:	08 95       	ret

0000a35a <shoot_pressed>:

char shoot_pressed(JoyPadState* p)
{
    a35a:	fc 01       	movw	r30, r24
    a35c:	20 81       	ld	r18, Z
    a35e:	31 81       	ldd	r19, Z+1	; 0x01
    a360:	21 70       	andi	r18, 0x01	; 1
    a362:	31 70       	andi	r19, 0x01	; 1
	return (p->pressed & BTN_A) || (p->pressed & BTN_B);
    a364:	81 e0       	ldi	r24, 0x01	; 1
    a366:	23 2b       	or	r18, r19
    a368:	09 f4       	brne	.+2      	; 0xa36c <shoot_pressed+0x12>
    a36a:	80 e0       	ldi	r24, 0x00	; 0
}
    a36c:	08 95       	ret

0000a36e <get_delta>:

float get_delta(Player* p, SpriteShared* s)
{
	if (p->goal == 0)
    a36e:	fc 01       	movw	r30, r24
    a370:	83 a1       	ldd	r24, Z+35	; 0x23
    a372:	fb 01       	movw	r30, r22
    a374:	61 81       	ldd	r22, Z+1	; 0x01
		return FRAME_TIME * s->speed;
    a376:	70 e0       	ldi	r23, 0x00	; 0
	return (p->pressed & BTN_A) || (p->pressed & BTN_B);
}

float get_delta(Player* p, SpriteShared* s)
{
	if (p->goal == 0)
    a378:	81 11       	cpse	r24, r1
    a37a:	09 c0       	rjmp	.+18     	; 0xa38e <get_delta+0x20>
		return FRAME_TIME * s->speed;
    a37c:	80 e0       	ldi	r24, 0x00	; 0
    a37e:	90 e0       	ldi	r25, 0x00	; 0
    a380:	0e 94 b2 73 	call	0xe764	; 0xe764 <__floatsisf>
    a384:	25 e6       	ldi	r18, 0x65	; 101
    a386:	38 e8       	ldi	r19, 0x88	; 136
    a388:	48 e8       	ldi	r20, 0x88	; 136
    a38a:	5c e3       	ldi	r21, 0x3C	; 60
    a38c:	0e c0       	rjmp	.+28     	; 0xa3aa <get_delta+0x3c>
	return FRAME_TIME * s->speed * AI_SPEED_FACTOR;
    a38e:	80 e0       	ldi	r24, 0x00	; 0
    a390:	90 e0       	ldi	r25, 0x00	; 0
    a392:	0e 94 b2 73 	call	0xe764	; 0xe764 <__floatsisf>
    a396:	25 e6       	ldi	r18, 0x65	; 101
    a398:	38 e8       	ldi	r19, 0x88	; 136
    a39a:	48 e8       	ldi	r20, 0x88	; 136
    a39c:	5c e3       	ldi	r21, 0x3C	; 60
    a39e:	0e 94 66 74 	call	0xe8cc	; 0xe8cc <__mulsf3>
    a3a2:	23 e3       	ldi	r18, 0x33	; 51
    a3a4:	33 e3       	ldi	r19, 0x33	; 51
    a3a6:	43 eb       	ldi	r20, 0xB3	; 179
    a3a8:	5f e3       	ldi	r21, 0x3F	; 63
    a3aa:	0e 94 66 74 	call	0xe8cc	; 0xe8cc <__mulsf3>
}
    a3ae:	08 95       	ret

0000a3b0 <render_hud>:
		}
	}
}

void render_hud(Player* player, u8 x)
{	
    a3b0:	cf 93       	push	r28
    a3b2:	df 93       	push	r29
    a3b4:	c6 2f       	mov	r28, r22
	LBPrintStr(x+10, 0, player->handle, 3);
    a3b6:	ac 01       	movw	r20, r24
    a3b8:	44 5f       	subi	r20, 0xF4	; 244
    a3ba:	5f 4f       	sbci	r21, 0xFF	; 255
    a3bc:	23 e0       	ldi	r18, 0x03	; 3
    a3be:	60 e0       	ldi	r22, 0x00	; 0
    a3c0:	8a e0       	ldi	r24, 0x0A	; 10
    a3c2:	8c 0f       	add	r24, r28
    a3c4:	0e 94 96 4c 	call	0x992c	; 0x992c <LBPrintStr>
	Print(x, 0, (char*) strScore);
    a3c8:	d0 e0       	ldi	r29, 0x00	; 0
    a3ca:	4f e0       	ldi	r20, 0x0F	; 15
    a3cc:	54 e0       	ldi	r21, 0x04	; 4
    a3ce:	60 e0       	ldi	r22, 0x00	; 0
    a3d0:	70 e0       	ldi	r23, 0x00	; 0
    a3d2:	ce 01       	movw	r24, r28
    a3d4:	0e 94 ec 48 	call	0x91d8	; 0x91d8 <Print>
	Print(x, 1, (char*) strTotal);
    a3d8:	48 e0       	ldi	r20, 0x08	; 8
    a3da:	54 e0       	ldi	r21, 0x04	; 4
    a3dc:	61 e0       	ldi	r22, 0x01	; 1
    a3de:	70 e0       	ldi	r23, 0x00	; 0
    a3e0:	ce 01       	movw	r24, r28
	
}
    a3e2:	df 91       	pop	r29
    a3e4:	cf 91       	pop	r28

void render_hud(Player* player, u8 x)
{	
	LBPrintStr(x+10, 0, player->handle, 3);
	Print(x, 0, (char*) strScore);
	Print(x, 1, (char*) strTotal);
    a3e6:	0c 94 ec 48 	jmp	0x91d8	; 0x91d8 <Print>

0000a3ea <render_score>:
	
}

void render_score(Player* player, u8 x)
{
    a3ea:	0f 93       	push	r16
    a3ec:	1f 93       	push	r17
    a3ee:	cf 93       	push	r28
    a3f0:	df 93       	push	r29
    a3f2:	8c 01       	movw	r16, r24
	PrintByte(x+8, 0, player->level_score, false);
    a3f4:	c6 2f       	mov	r28, r22
    a3f6:	d0 e0       	ldi	r29, 0x00	; 0
    a3f8:	28 96       	adiw	r28, 0x08	; 8
    a3fa:	20 e0       	ldi	r18, 0x00	; 0
    a3fc:	fc 01       	movw	r30, r24
    a3fe:	40 89       	ldd	r20, Z+16	; 0x10
    a400:	60 e0       	ldi	r22, 0x00	; 0
    a402:	70 e0       	ldi	r23, 0x00	; 0
    a404:	ce 01       	movw	r24, r28
    a406:	0e 94 b9 48 	call	0x9172	; 0x9172 <PrintByte>
	PrintByte(x+8, 1, player->score, false);
    a40a:	20 e0       	ldi	r18, 0x00	; 0
    a40c:	f8 01       	movw	r30, r16
    a40e:	47 85       	ldd	r20, Z+15	; 0x0f
    a410:	61 e0       	ldi	r22, 0x01	; 1
    a412:	70 e0       	ldi	r23, 0x00	; 0
    a414:	ce 01       	movw	r24, r28
}
    a416:	df 91       	pop	r29
    a418:	cf 91       	pop	r28
    a41a:	1f 91       	pop	r17
    a41c:	0f 91       	pop	r16
}

void render_score(Player* player, u8 x)
{
	PrintByte(x+8, 0, player->level_score, false);
	PrintByte(x+8, 1, player->score, false);
    a41e:	0c 94 b9 48 	jmp	0x9172	; 0x9172 <PrintByte>

0000a422 <render_player>:
}

void render_player(Player* player, u8 sprite_index)
{
    a422:	ef 92       	push	r14
    a424:	ff 92       	push	r15
    a426:	0f 93       	push	r16
    a428:	1f 93       	push	r17
    a42a:	cf 93       	push	r28
    a42c:	df 93       	push	r29
    a42e:	1f 92       	push	r1
    a430:	cd b7       	in	r28, 0x3d	; 61
    a432:	de b7       	in	r29, 0x3e	; 62
    a434:	7c 01       	movw	r14, r24
    a436:	16 2f       	mov	r17, r22
	MoveSprite(sprite_index, player->shared.x, player->shared.y, 2, 2);
    a438:	fc 01       	movw	r30, r24
    a43a:	67 81       	ldd	r22, Z+7	; 0x07
    a43c:	70 85       	ldd	r23, Z+8	; 0x08
    a43e:	81 85       	ldd	r24, Z+9	; 0x09
    a440:	92 85       	ldd	r25, Z+10	; 0x0a
    a442:	0e 94 84 73 	call	0xe708	; 0xe708 <__fixunssfsi>
    a446:	46 2f       	mov	r20, r22
    a448:	f7 01       	movw	r30, r14
    a44a:	63 81       	ldd	r22, Z+3	; 0x03
    a44c:	74 81       	ldd	r23, Z+4	; 0x04
    a44e:	85 81       	ldd	r24, Z+5	; 0x05
    a450:	96 81       	ldd	r25, Z+6	; 0x06
    a452:	49 83       	std	Y+1, r20	; 0x01
    a454:	0e 94 84 73 	call	0xe708	; 0xe708 <__fixunssfsi>
    a458:	02 e0       	ldi	r16, 0x02	; 2
    a45a:	22 e0       	ldi	r18, 0x02	; 2
    a45c:	49 81       	ldd	r20, Y+1	; 0x01
    a45e:	81 2f       	mov	r24, r17
    a460:	0e 94 38 48 	call	0x9070	; 0x9070 <MoveSprite>
}
    a464:	0f 90       	pop	r0
    a466:	df 91       	pop	r29
    a468:	cf 91       	pop	r28
    a46a:	1f 91       	pop	r17
    a46c:	0f 91       	pop	r16
    a46e:	ff 90       	pop	r15
    a470:	ef 90       	pop	r14
    a472:	08 95       	ret

0000a474 <render_shot>:

void render_shot(Player* player, u8 sprite_index)
{
    a474:	ef 92       	push	r14
    a476:	ff 92       	push	r15
    a478:	0f 93       	push	r16
    a47a:	1f 93       	push	r17
    a47c:	cf 93       	push	r28
    a47e:	df 93       	push	r29
    a480:	1f 92       	push	r1
    a482:	cd b7       	in	r28, 0x3d	; 61
    a484:	de b7       	in	r29, 0x3e	; 62
    a486:	fc 01       	movw	r30, r24
	if (player->active_shots > 0)
    a488:	81 89       	ldd	r24, Z+17	; 0x11
    a48a:	88 23       	and	r24, r24
    a48c:	b9 f0       	breq	.+46     	; 0xa4bc <render_shot+0x48>
    a48e:	16 2f       	mov	r17, r22
    a490:	7f 01       	movw	r14, r30
	{
		for (u8 i = 0; i < MAX_SHOTS; i++)
		{
			MoveSprite(sprite_index, player->shot[i].shared.x, player->shot[i].shared.y, 1, 1);
    a492:	67 a9       	ldd	r22, Z+55	; 0x37
    a494:	70 ad       	ldd	r23, Z+56	; 0x38
    a496:	81 ad       	ldd	r24, Z+57	; 0x39
    a498:	92 ad       	ldd	r25, Z+58	; 0x3a
    a49a:	0e 94 84 73 	call	0xe708	; 0xe708 <__fixunssfsi>
    a49e:	46 2f       	mov	r20, r22
    a4a0:	f7 01       	movw	r30, r14
    a4a2:	63 a9       	ldd	r22, Z+51	; 0x33
    a4a4:	74 a9       	ldd	r23, Z+52	; 0x34
    a4a6:	85 a9       	ldd	r24, Z+53	; 0x35
    a4a8:	96 a9       	ldd	r25, Z+54	; 0x36
    a4aa:	49 83       	std	Y+1, r20	; 0x01
    a4ac:	0e 94 84 73 	call	0xe708	; 0xe708 <__fixunssfsi>
    a4b0:	01 e0       	ldi	r16, 0x01	; 1
    a4b2:	21 e0       	ldi	r18, 0x01	; 1
    a4b4:	49 81       	ldd	r20, Y+1	; 0x01
    a4b6:	81 2f       	mov	r24, r17
    a4b8:	0e 94 38 48 	call	0x9070	; 0x9070 <MoveSprite>
			sprite_index++;
		}
	}
}
    a4bc:	0f 90       	pop	r0
    a4be:	df 91       	pop	r29
    a4c0:	cf 91       	pop	r28
    a4c2:	1f 91       	pop	r17
    a4c4:	0f 91       	pop	r16
    a4c6:	ff 90       	pop	r15
    a4c8:	ef 90       	pop	r14
    a4ca:	08 95       	ret

0000a4cc <render_tile_explosions>:

void render_tile_explosions(TileAnimations* ta)
{	
    a4cc:	ef 92       	push	r14
    a4ce:	ff 92       	push	r15
    a4d0:	0f 93       	push	r16
    a4d2:	1f 93       	push	r17
    a4d4:	cf 93       	push	r28
    a4d6:	df 93       	push	r29
    a4d8:	ec 01       	movw	r28, r24
    a4da:	25 96       	adiw	r28, 0x05	; 5
    a4dc:	8c 01       	movw	r16, r24
    a4de:	0f 5d       	subi	r16, 0xDF	; 223
    a4e0:	1f 4f       	sbci	r17, 0xFF	; 255
				ta->anims[i].tile_index = 0;
			}
			else
			{
				DrawMap2(ta->anims[i].tile_index % 30,
						3 + ta->anims[i].tile_index / 30, 
    a4e2:	8e e1       	ldi	r24, 0x1E	; 30
    a4e4:	e8 2e       	mov	r14, r24
    a4e6:	f1 2c       	mov	r15, r1
{	
	char* map;
	
	for (u8 i = 0; i < TILE_ANIMATIONS_LENGTH; i++)
	{
		if (ta->anims[i].tile_index != 0)
    a4e8:	88 85       	ldd	r24, Y+8	; 0x08
    a4ea:	99 85       	ldd	r25, Y+9	; 0x09
    a4ec:	89 2b       	or	r24, r25
    a4ee:	c1 f0       	breq	.+48     	; 0xa520 <render_tile_explosions+0x54>
		{
			map = LBGetNextFrame(&ta->anims[i].anim);
    a4f0:	ce 01       	movw	r24, r28
    a4f2:	04 97       	sbiw	r24, 0x04	; 4
    a4f4:	0e 94 fa 4b 	call	0x97f4	; 0x97f4 <LBGetNextFrame>
    a4f8:	9c 01       	movw	r18, r24
			if (ta->anims[i].anim.looped)
    a4fa:	48 81       	ld	r20, Y
    a4fc:	88 85       	ldd	r24, Y+8	; 0x08
    a4fe:	99 85       	ldd	r25, Y+9	; 0x09
			{
				SetTile(ta->anims[i].tile_index % 30, 3 + ta->anims[i].tile_index / 30, 0);
    a500:	b7 01       	movw	r22, r14
    a502:	0e 94 9a 72 	call	0xe534	; 0xe534 <__divmodhi4>
    a506:	6d 5f       	subi	r22, 0xFD	; 253
	for (u8 i = 0; i < TILE_ANIMATIONS_LENGTH; i++)
	{
		if (ta->anims[i].tile_index != 0)
		{
			map = LBGetNextFrame(&ta->anims[i].anim);
			if (ta->anims[i].anim.looped)
    a508:	44 23       	and	r20, r20
    a50a:	39 f0       	breq	.+14     	; 0xa51a <render_tile_explosions+0x4e>
			{
				SetTile(ta->anims[i].tile_index % 30, 3 + ta->anims[i].tile_index / 30, 0);
    a50c:	40 e0       	ldi	r20, 0x00	; 0
    a50e:	50 e0       	ldi	r21, 0x00	; 0
    a510:	0e 94 37 3a 	call	0x746e	; 0x746e <SetTile>
				ta->anims[i].tile_index = 0;
    a514:	19 86       	std	Y+9, r1	; 0x09
    a516:	18 86       	std	Y+8, r1	; 0x08
    a518:	03 c0       	rjmp	.+6      	; 0xa520 <render_tile_explosions+0x54>
			}
			else
			{
				DrawMap2(ta->anims[i].tile_index % 30,
    a51a:	a9 01       	movw	r20, r18
    a51c:	0e 94 6c 48 	call	0x90d8	; 0x90d8 <DrawMap>
    a520:	2e 96       	adiw	r28, 0x0e	; 14

void render_tile_explosions(TileAnimations* ta)
{	
	char* map;
	
	for (u8 i = 0; i < TILE_ANIMATIONS_LENGTH; i++)
    a522:	c0 17       	cp	r28, r16
    a524:	d1 07       	cpc	r29, r17
    a526:	01 f7       	brne	.-64     	; 0xa4e8 <render_tile_explosions+0x1c>
						(const char*) map
				);
			}
		}
	}
}
    a528:	df 91       	pop	r29
    a52a:	cf 91       	pop	r28
    a52c:	1f 91       	pop	r17
    a52e:	0f 91       	pop	r16
    a530:	ff 90       	pop	r15
    a532:	ef 90       	pop	r14
    a534:	08 95       	ret

0000a536 <render_scope>:

u8 render_scope(TileAnimation* ta)
{
    a536:	cf 93       	push	r28
    a538:	df 93       	push	r29
    a53a:	ec 01       	movw	r28, r24
	char *map;
	
	map = LBGetNextFrameReverse(&ta->anim);
    a53c:	0e 94 1f 4c 	call	0x983e	; 0x983e <LBGetNextFrameReverse>
    a540:	9c 01       	movw	r18, r24
	if (ta->anim.looped)
    a542:	4c 81       	ldd	r20, Y+4	; 0x04
    a544:	8c 85       	ldd	r24, Y+12	; 0x0c
    a546:	9d 85       	ldd	r25, Y+13	; 0x0d
	{
		DrawMap2(ta->tile_index % 30, 3 + ta->tile_index / 30, map_water);
    a548:	6e e1       	ldi	r22, 0x1E	; 30
    a54a:	70 e0       	ldi	r23, 0x00	; 0
    a54c:	0e 94 9a 72 	call	0xe534	; 0xe534 <__divmodhi4>
    a550:	6d 5f       	subi	r22, 0xFD	; 253
u8 render_scope(TileAnimation* ta)
{
	char *map;
	
	map = LBGetNextFrameReverse(&ta->anim);
	if (ta->anim.looped)
    a552:	44 23       	and	r20, r20
    a554:	19 f0       	breq	.+6      	; 0xa55c <render_scope+0x26>
	{
		DrawMap2(ta->tile_index % 30, 3 + ta->tile_index / 30, map_water);
    a556:	41 eb       	ldi	r20, 0xB1	; 177
    a558:	5a e6       	ldi	r21, 0x6A	; 106
    a55a:	01 c0       	rjmp	.+2      	; 0xa55e <render_scope+0x28>
	}
	else
	{
		DrawMap2(ta->tile_index % 30, 3 + ta->tile_index / 30, (const char*) map);
    a55c:	a9 01       	movw	r20, r18
    a55e:	0e 94 6c 48 	call	0x90d8	; 0x90d8 <DrawMap>
	}
	return ta->anim.looped;
}
    a562:	8c 81       	ldd	r24, Y+4	; 0x04
    a564:	df 91       	pop	r29
    a566:	cf 91       	pop	r28
    a568:	08 95       	ret

0000a56a <tank_map>:

char tank_map(Player* player, char sprite_index)
{
    a56a:	1f 93       	push	r17
    a56c:	cf 93       	push	r28
    a56e:	df 93       	push	r29
    a570:	ec 01       	movw	r28, r24
    a572:	16 2f       	mov	r17, r22
	char* t_map = 0;
	u8 t_flags = 0;

	if (player->flags & EXPLODING_FLAG)
    a574:	8d 89       	ldd	r24, Y+21	; 0x15
    a576:	80 ff       	sbrs	r24, 0
    a578:	17 c0       	rjmp	.+46     	; 0xa5a8 <tank_map+0x3e>
	{
		t_map = LBGetNextFrame(&player->exp_anim);
    a57a:	ce 01       	movw	r24, r28
    a57c:	80 59       	subi	r24, 0x90	; 144
    a57e:	9f 4f       	sbci	r25, 0xFF	; 255
    a580:	0e 94 fa 4b 	call	0x97f4	; 0x97f4 <LBGetNextFrame>
		t_flags = 0;
		if (player->exp_anim.looped)
    a584:	fe 01       	movw	r30, r28
    a586:	ec 58       	subi	r30, 0x8C	; 140
    a588:	ff 4f       	sbci	r31, 0xFF	; 255
    a58a:	20 81       	ld	r18, Z
    a58c:	22 23       	and	r18, r18
    a58e:	09 f4       	brne	.+2      	; 0xa592 <tank_map+0x28>
    a590:	4a c0       	rjmp	.+148    	; 0xa626 <tank_map+0xbc>
		{
			player->flags = player->flags ^ EXPLODING_FLAG;
    a592:	8d 89       	ldd	r24, Y+21	; 0x15
    a594:	91 e0       	ldi	r25, 0x01	; 1
    a596:	98 27       	eor	r25, r24
    a598:	9d 8b       	std	Y+21, r25	; 0x15
			t_map = (char*) map_tank_blank;
			player_spawn(player);
    a59a:	ce 01       	movw	r24, r28
    a59c:	0e 94 ca 4f 	call	0x9f94	; 0x9f94 <player_spawn>
	u8 t_flags = 0;

	if (player->flags & EXPLODING_FLAG)
	{
		t_map = LBGetNextFrame(&player->exp_anim);
		t_flags = 0;
    a5a0:	40 e0       	ldi	r20, 0x00	; 0
		if (player->exp_anim.looped)
		{
			player->flags = player->flags ^ EXPLODING_FLAG;
			t_map = (char*) map_tank_blank;
    a5a2:	81 e6       	ldi	r24, 0x61	; 97
    a5a4:	91 e3       	ldi	r25, 0x31	; 49
    a5a6:	40 c0       	rjmp	.+128    	; 0xa628 <tank_map+0xbe>
			player_spawn(player);
		}
	}
	else
	{
		if (player->grace_frame != FRAMES_PER_GRACE)
    a5a8:	9e 89       	ldd	r25, Y+22	; 0x16
    a5aa:	98 37       	cpi	r25, 0x78	; 120
    a5ac:	11 f0       	breq	.+4      	; 0xa5b2 <tank_map+0x48>
		{
			player->grace_frame++;
    a5ae:	9f 5f       	subi	r25, 0xFF	; 255
    a5b0:	9e 8b       	std	Y+22, r25	; 0x16
		}
		switch (player->shared.direction)
    a5b2:	98 81       	ld	r25, Y
    a5b4:	91 30       	cpi	r25, 0x01	; 1
    a5b6:	61 f0       	breq	.+24     	; 0xa5d0 <tank_map+0x66>
    a5b8:	b0 f0       	brcs	.+44     	; 0xa5e6 <tank_map+0x7c>
    a5ba:	92 30       	cpi	r25, 0x02	; 2
    a5bc:	69 f0       	breq	.+26     	; 0xa5d8 <tank_map+0x6e>
    a5be:	93 30       	cpi	r25, 0x03	; 3
    a5c0:	91 f4       	brne	.+36     	; 0xa5e6 <tank_map+0x7c>
		{
			case D_UP: t_map = LBGetNextFrame(&player->up_anim); t_flags = 0; break;
			case D_RIGHT: t_map = LBGetNextFrame(&player->right_anim); t_flags = 0; break;
			case D_DOWN: t_map = LBGetNextFrame(&player->up_anim); t_flags = SPRITE_FLIP_Y; break;
			case D_LEFT: t_map = LBGetNextFrame(&player->right_anim); t_flags = SPRITE_FLIP_X; break;
    a5c2:	ce 01       	movw	r24, r28
    a5c4:	8c 59       	subi	r24, 0x9C	; 156
    a5c6:	9f 4f       	sbci	r25, 0xFF	; 255
    a5c8:	0e 94 fa 4b 	call	0x97f4	; 0x97f4 <LBGetNextFrame>
    a5cc:	41 e0       	ldi	r20, 0x01	; 1
    a5ce:	11 c0       	rjmp	.+34     	; 0xa5f2 <tank_map+0x88>
			player->grace_frame++;
		}
		switch (player->shared.direction)
		{
			case D_UP: t_map = LBGetNextFrame(&player->up_anim); t_flags = 0; break;
			case D_RIGHT: t_map = LBGetNextFrame(&player->right_anim); t_flags = 0; break;
    a5d0:	ce 01       	movw	r24, r28
    a5d2:	8c 59       	subi	r24, 0x9C	; 156
    a5d4:	9f 4f       	sbci	r25, 0xFF	; 255
    a5d6:	0a c0       	rjmp	.+20     	; 0xa5ec <tank_map+0x82>
			case D_DOWN: t_map = LBGetNextFrame(&player->up_anim); t_flags = SPRITE_FLIP_Y; break;
    a5d8:	ce 01       	movw	r24, r28
    a5da:	88 5a       	subi	r24, 0xA8	; 168
    a5dc:	9f 4f       	sbci	r25, 0xFF	; 255
    a5de:	0e 94 fa 4b 	call	0x97f4	; 0x97f4 <LBGetNextFrame>
    a5e2:	42 e0       	ldi	r20, 0x02	; 2
    a5e4:	06 c0       	rjmp	.+12     	; 0xa5f2 <tank_map+0x88>
			case D_LEFT: t_map = LBGetNextFrame(&player->right_anim); t_flags = SPRITE_FLIP_X; break;
			default: t_map = LBGetNextFrame(&player->up_anim); t_flags = 0; break;
    a5e6:	ce 01       	movw	r24, r28
    a5e8:	88 5a       	subi	r24, 0xA8	; 168
    a5ea:	9f 4f       	sbci	r25, 0xFF	; 255
    a5ec:	0e 94 fa 4b 	call	0x97f4	; 0x97f4 <LBGetNextFrame>
    a5f0:	40 e0       	ldi	r20, 0x00	; 0
		}
		if ((player->grace_frame != FRAMES_PER_GRACE) && (game.toggle_blank))
    a5f2:	2e 89       	ldd	r18, Y+22	; 0x16
    a5f4:	28 37       	cpi	r18, 0x78	; 120
    a5f6:	31 f0       	breq	.+12     	; 0xa604 <tank_map+0x9a>
    a5f8:	20 91 aa 0b 	lds	r18, 0x0BAA
    a5fc:	22 23       	and	r18, r18
    a5fe:	11 f0       	breq	.+4      	; 0xa604 <tank_map+0x9a>
		{
			t_map = (char*) map_tank_blank;
    a600:	81 e6       	ldi	r24, 0x61	; 97
    a602:	91 e3       	ldi	r25, 0x31	; 49
		}
		game.toggle_counter--;
    a604:	20 91 a9 0b 	lds	r18, 0x0BA9
    a608:	21 50       	subi	r18, 0x01	; 1
		if (game.toggle_counter == 0)
    a60a:	19 f0       	breq	.+6      	; 0xa612 <tank_map+0xa8>
		}
		if ((player->grace_frame != FRAMES_PER_GRACE) && (game.toggle_blank))
		{
			t_map = (char*) map_tank_blank;
		}
		game.toggle_counter--;
    a60c:	20 93 a9 0b 	sts	0x0BA9, r18
    a610:	0b c0       	rjmp	.+22     	; 0xa628 <tank_map+0xbe>
		if (game.toggle_counter == 0)
		{
			game.toggle_counter = FRAMES_PER_BLANK;
    a612:	24 e1       	ldi	r18, 0x14	; 20
    a614:	20 93 a9 0b 	sts	0x0BA9, r18
			game.toggle_blank = game.toggle_blank ^ 1;
    a618:	30 91 aa 0b 	lds	r19, 0x0BAA
    a61c:	21 e0       	ldi	r18, 0x01	; 1
    a61e:	23 27       	eor	r18, r19
    a620:	20 93 aa 0b 	sts	0x0BAA, r18
    a624:	01 c0       	rjmp	.+2      	; 0xa628 <tank_map+0xbe>
	u8 t_flags = 0;

	if (player->flags & EXPLODING_FLAG)
	{
		t_map = LBGetNextFrame(&player->exp_anim);
		t_flags = 0;
    a626:	40 e0       	ldi	r20, 0x00	; 0
		{
			game.toggle_counter = FRAMES_PER_BLANK;
			game.toggle_blank = game.toggle_blank ^ 1;
		}
	}
	MapSprite2(sprite_index, (const char*) t_map, t_flags);
    a628:	bc 01       	movw	r22, r24
    a62a:	81 2f       	mov	r24, r17
    a62c:	0e 94 e6 47 	call	0x8fcc	; 0x8fcc <MapSprite2>
	sprite_index += 4;
	return sprite_index;
}
    a630:	84 e0       	ldi	r24, 0x04	; 4
    a632:	81 0f       	add	r24, r17
    a634:	df 91       	pop	r29
    a636:	cf 91       	pop	r28
    a638:	1f 91       	pop	r17
    a63a:	08 95       	ret

0000a63c <shot_map>:

char shot_map(Player* player, char sprite_index)
{
    a63c:	cf 93       	push	r28
    a63e:	fc 01       	movw	r30, r24
    a640:	c6 2f       	mov	r28, r22
	Shot* shot;

	for (u8 i = 0; i < MAX_SHOTS; i++)
	{
		shot = &player->shot[i];
		if (shot->active)
    a642:	86 ad       	ldd	r24, Z+62	; 0x3e
    a644:	88 23       	and	r24, r24
    a646:	09 f1       	breq	.+66     	; 0xa68a <shot_map+0x4e>
		{
			switch (shot->shared.direction)
    a648:	90 a9       	ldd	r25, Z+48	; 0x30
    a64a:	91 30       	cpi	r25, 0x01	; 1
    a64c:	61 f0       	breq	.+24     	; 0xa666 <shot_map+0x2a>
    a64e:	c8 f0       	brcs	.+50     	; 0xa682 <shot_map+0x46>
    a650:	92 30       	cpi	r25, 0x02	; 2
    a652:	81 f0       	breq	.+32     	; 0xa674 <shot_map+0x38>
    a654:	93 30       	cpi	r25, 0x03	; 3
    a656:	a9 f4       	brne	.+42     	; 0xa682 <shot_map+0x46>
			{
				case D_UP: s_map = LBGetNextFrame(&player->shot[i].up_anim); s_flags = 0; break;
				case D_RIGHT: s_map = LBGetNextFrame(&player->shot[i].right_anim); s_flags = 0; break;
				case D_DOWN: s_map = LBGetNextFrame(&player->shot[i].up_anim); s_flags = SPRITE_FLIP_Y; break;
				case D_LEFT: s_map = LBGetNextFrame(&player->shot[i].right_anim); s_flags = SPRITE_FLIP_X; break;
    a658:	cf 01       	movw	r24, r30
    a65a:	84 5b       	subi	r24, 0xB4	; 180
    a65c:	9f 4f       	sbci	r25, 0xFF	; 255
    a65e:	0e 94 fa 4b 	call	0x97f4	; 0x97f4 <LBGetNextFrame>
    a662:	41 e0       	ldi	r20, 0x01	; 1
    a664:	15 c0       	rjmp	.+42     	; 0xa690 <shot_map+0x54>
		if (shot->active)
		{
			switch (shot->shared.direction)
			{
				case D_UP: s_map = LBGetNextFrame(&player->shot[i].up_anim); s_flags = 0; break;
				case D_RIGHT: s_map = LBGetNextFrame(&player->shot[i].right_anim); s_flags = 0; break;
    a666:	cf 01       	movw	r24, r30
    a668:	84 5b       	subi	r24, 0xB4	; 180
    a66a:	9f 4f       	sbci	r25, 0xFF	; 255
    a66c:	0e 94 fa 4b 	call	0x97f4	; 0x97f4 <LBGetNextFrame>
    a670:	40 e0       	ldi	r20, 0x00	; 0
    a672:	0e c0       	rjmp	.+28     	; 0xa690 <shot_map+0x54>
				case D_DOWN: s_map = LBGetNextFrame(&player->shot[i].up_anim); s_flags = SPRITE_FLIP_Y; break;
    a674:	cf 01       	movw	r24, r30
    a676:	80 5c       	subi	r24, 0xC0	; 192
    a678:	9f 4f       	sbci	r25, 0xFF	; 255
    a67a:	0e 94 fa 4b 	call	0x97f4	; 0x97f4 <LBGetNextFrame>
    a67e:	42 e0       	ldi	r20, 0x02	; 2
    a680:	07 c0       	rjmp	.+14     	; 0xa690 <shot_map+0x54>
				case D_LEFT: s_map = LBGetNextFrame(&player->shot[i].right_anim); s_flags = SPRITE_FLIP_X; break;
				default: s_map = LBGetNextFrame(&player->shot[i].up_anim); s_flags = 0; break;
    a682:	cf 01       	movw	r24, r30
    a684:	80 5c       	subi	r24, 0xC0	; 192
    a686:	9f 4f       	sbci	r25, 0xFF	; 255
    a688:	f1 cf       	rjmp	.-30     	; 0xa66c <shot_map+0x30>
    a68a:	40 e0       	ldi	r20, 0x00	; 0
			}
		}
		else
		{
			s_map = (char*) map_tank_blank;
    a68c:	81 e6       	ldi	r24, 0x61	; 97
    a68e:	91 e3       	ldi	r25, 0x31	; 49
		}
		MapSprite2(sprite_index, (const char*) s_map, s_flags);
    a690:	bc 01       	movw	r22, r24
    a692:	8c 2f       	mov	r24, r28
    a694:	0e 94 e6 47 	call	0x8fcc	; 0x8fcc <MapSprite2>
		sprite_index++;
	}
	return sprite_index;
}
    a698:	81 e0       	ldi	r24, 0x01	; 1
    a69a:	8c 0f       	add	r24, r28
    a69c:	cf 91       	pop	r28
    a69e:	08 95       	ret

0000a6a0 <recoil_sprite>:

/* Collision Detection */
void recoil_sprite(SpriteShared* sprite)
{
    a6a0:	cf 93       	push	r28
    a6a2:	df 93       	push	r29
    a6a4:	ec 01       	movw	r28, r24
	u8 tile;
	
	if (sprite->direction == D_UP)
    a6a6:	88 81       	ld	r24, Y
    a6a8:	81 11       	cpse	r24, r1
    a6aa:	0b c0       	rjmp	.+22     	; 0xa6c2 <recoil_sprite+0x22>
	{
		tile = ((u8) sprite->y / 8) + 1;
    a6ac:	6f 81       	ldd	r22, Y+7	; 0x07
    a6ae:	78 85       	ldd	r23, Y+8	; 0x08
    a6b0:	89 85       	ldd	r24, Y+9	; 0x09
    a6b2:	9a 85       	ldd	r25, Y+10	; 0x0a
    a6b4:	0e 94 84 73 	call	0xe708	; 0xe708 <__fixunssfsi>
    a6b8:	66 95       	lsr	r22
    a6ba:	66 95       	lsr	r22
    a6bc:	66 95       	lsr	r22
    a6be:	6f 5f       	subi	r22, 0xFF	; 255
    a6c0:	1d c0       	rjmp	.+58     	; 0xa6fc <recoil_sprite+0x5c>
		sprite->y = tile * 8;
	}
	else if (sprite->direction == D_RIGHT)
    a6c2:	81 30       	cpi	r24, 0x01	; 1
    a6c4:	69 f4       	brne	.+26     	; 0xa6e0 <recoil_sprite+0x40>
	{
		tile = sprite->x / 8;
    a6c6:	20 e0       	ldi	r18, 0x00	; 0
    a6c8:	30 e0       	ldi	r19, 0x00	; 0
    a6ca:	40 e0       	ldi	r20, 0x00	; 0
    a6cc:	5e e3       	ldi	r21, 0x3E	; 62
    a6ce:	6b 81       	ldd	r22, Y+3	; 0x03
    a6d0:	7c 81       	ldd	r23, Y+4	; 0x04
    a6d2:	8d 81       	ldd	r24, Y+5	; 0x05
    a6d4:	9e 81       	ldd	r25, Y+6	; 0x06
    a6d6:	0e 94 66 74 	call	0xe8cc	; 0xe8cc <__mulsf3>
    a6da:	0e 94 84 73 	call	0xe708	; 0xe708 <__fixunssfsi>
    a6de:	27 c0       	rjmp	.+78     	; 0xa72e <recoil_sprite+0x8e>
		sprite->x = tile * 8;
	}
	else if (sprite->direction == D_DOWN)
    a6e0:	82 30       	cpi	r24, 0x02	; 2
    a6e2:	d9 f4       	brne	.+54     	; 0xa71a <recoil_sprite+0x7a>
	{
		tile = sprite->y / 8;
    a6e4:	20 e0       	ldi	r18, 0x00	; 0
    a6e6:	30 e0       	ldi	r19, 0x00	; 0
    a6e8:	40 e0       	ldi	r20, 0x00	; 0
    a6ea:	5e e3       	ldi	r21, 0x3E	; 62
    a6ec:	6f 81       	ldd	r22, Y+7	; 0x07
    a6ee:	78 85       	ldd	r23, Y+8	; 0x08
    a6f0:	89 85       	ldd	r24, Y+9	; 0x09
    a6f2:	9a 85       	ldd	r25, Y+10	; 0x0a
    a6f4:	0e 94 66 74 	call	0xe8cc	; 0xe8cc <__mulsf3>
    a6f8:	0e 94 84 73 	call	0xe708	; 0xe708 <__fixunssfsi>
		sprite->y = tile * 8;
    a6fc:	88 e0       	ldi	r24, 0x08	; 8
    a6fe:	68 9f       	mul	r22, r24
    a700:	b0 01       	movw	r22, r0
    a702:	11 24       	eor	r1, r1
    a704:	88 27       	eor	r24, r24
    a706:	77 fd       	sbrc	r23, 7
    a708:	80 95       	com	r24
    a70a:	98 2f       	mov	r25, r24
    a70c:	0e 94 b2 73 	call	0xe764	; 0xe764 <__floatsisf>
    a710:	6f 83       	std	Y+7, r22	; 0x07
    a712:	78 87       	std	Y+8, r23	; 0x08
    a714:	89 87       	std	Y+9, r24	; 0x09
    a716:	9a 87       	std	Y+10, r25	; 0x0a
    a718:	18 c0       	rjmp	.+48     	; 0xa74a <recoil_sprite+0xaa>
	}
	else
	{
		tile = ((u8) sprite->x / 8) + 1;
    a71a:	6b 81       	ldd	r22, Y+3	; 0x03
    a71c:	7c 81       	ldd	r23, Y+4	; 0x04
    a71e:	8d 81       	ldd	r24, Y+5	; 0x05
    a720:	9e 81       	ldd	r25, Y+6	; 0x06
    a722:	0e 94 84 73 	call	0xe708	; 0xe708 <__fixunssfsi>
    a726:	66 95       	lsr	r22
    a728:	66 95       	lsr	r22
    a72a:	66 95       	lsr	r22
    a72c:	6f 5f       	subi	r22, 0xFF	; 255
		sprite->x = tile * 8;
    a72e:	88 e0       	ldi	r24, 0x08	; 8
    a730:	68 9f       	mul	r22, r24
    a732:	b0 01       	movw	r22, r0
    a734:	11 24       	eor	r1, r1
    a736:	88 27       	eor	r24, r24
    a738:	77 fd       	sbrc	r23, 7
    a73a:	80 95       	com	r24
    a73c:	98 2f       	mov	r25, r24
    a73e:	0e 94 b2 73 	call	0xe764	; 0xe764 <__floatsisf>
    a742:	6b 83       	std	Y+3, r22	; 0x03
    a744:	7c 83       	std	Y+4, r23	; 0x04
    a746:	8d 83       	std	Y+5, r24	; 0x05
    a748:	9e 83       	std	Y+6, r25	; 0x06
	}
	sprite->recoiled = 1;
    a74a:	81 e0       	ldi	r24, 0x01	; 1
    a74c:	8a 83       	std	Y+2, r24	; 0x02
}
    a74e:	df 91       	pop	r29
    a750:	cf 91       	pop	r28
    a752:	08 95       	ret

0000a754 <recoil_sprite_fine>:

void recoil_sprite_fine(Player* p, SpriteShared* sprite)
{	
    a754:	cf 93       	push	r28
    a756:	df 93       	push	r29
    a758:	eb 01       	movw	r28, r22
	float speed = get_delta(p, sprite);
    a75a:	0e 94 b7 51 	call	0xa36e	; 0xa36e <get_delta>
    a75e:	9b 01       	movw	r18, r22
    a760:	ac 01       	movw	r20, r24
	
	if (sprite->direction == D_UP)
    a762:	88 81       	ld	r24, Y
    a764:	81 11       	cpse	r24, r1
    a766:	07 c0       	rjmp	.+14     	; 0xa776 <recoil_sprite_fine+0x22>
	{
		sprite->y += speed;
    a768:	6f 81       	ldd	r22, Y+7	; 0x07
    a76a:	78 85       	ldd	r23, Y+8	; 0x08
    a76c:	89 85       	ldd	r24, Y+9	; 0x09
    a76e:	9a 85       	ldd	r25, Y+10	; 0x0a
    a770:	0e 94 af 72 	call	0xe55e	; 0xe55e <__addsf3>
    a774:	11 c0       	rjmp	.+34     	; 0xa798 <recoil_sprite_fine+0x44>
	}
	else if (sprite->direction == D_RIGHT)
    a776:	81 30       	cpi	r24, 0x01	; 1
    a778:	39 f4       	brne	.+14     	; 0xa788 <recoil_sprite_fine+0x34>
	{
		sprite->x -= speed;
    a77a:	6b 81       	ldd	r22, Y+3	; 0x03
    a77c:	7c 81       	ldd	r23, Y+4	; 0x04
    a77e:	8d 81       	ldd	r24, Y+5	; 0x05
    a780:	9e 81       	ldd	r25, Y+6	; 0x06
    a782:	0e 94 ae 72 	call	0xe55c	; 0xe55c <__subsf3>
    a786:	13 c0       	rjmp	.+38     	; 0xa7ae <recoil_sprite_fine+0x5a>
	}
	else if (sprite->direction == D_DOWN)
    a788:	82 30       	cpi	r24, 0x02	; 2
    a78a:	59 f4       	brne	.+22     	; 0xa7a2 <recoil_sprite_fine+0x4e>
	{
		sprite->y -= speed;
    a78c:	6f 81       	ldd	r22, Y+7	; 0x07
    a78e:	78 85       	ldd	r23, Y+8	; 0x08
    a790:	89 85       	ldd	r24, Y+9	; 0x09
    a792:	9a 85       	ldd	r25, Y+10	; 0x0a
    a794:	0e 94 ae 72 	call	0xe55c	; 0xe55c <__subsf3>
    a798:	6f 83       	std	Y+7, r22	; 0x07
    a79a:	78 87       	std	Y+8, r23	; 0x08
    a79c:	89 87       	std	Y+9, r24	; 0x09
    a79e:	9a 87       	std	Y+10, r25	; 0x0a
    a7a0:	0a c0       	rjmp	.+20     	; 0xa7b6 <recoil_sprite_fine+0x62>
	}
	else
	{
		sprite->x += speed;
    a7a2:	6b 81       	ldd	r22, Y+3	; 0x03
    a7a4:	7c 81       	ldd	r23, Y+4	; 0x04
    a7a6:	8d 81       	ldd	r24, Y+5	; 0x05
    a7a8:	9e 81       	ldd	r25, Y+6	; 0x06
    a7aa:	0e 94 af 72 	call	0xe55e	; 0xe55e <__addsf3>
    a7ae:	6b 83       	std	Y+3, r22	; 0x03
    a7b0:	7c 83       	std	Y+4, r23	; 0x04
    a7b2:	8d 83       	std	Y+5, r24	; 0x05
    a7b4:	9e 83       	std	Y+6, r25	; 0x06
	}
	sprite->recoiled = 1;
    a7b6:	81 e0       	ldi	r24, 0x01	; 1
    a7b8:	8a 83       	std	Y+2, r24	; 0x02
}
    a7ba:	df 91       	pop	r29
    a7bc:	cf 91       	pop	r28
    a7be:	08 95       	ret

0000a7c0 <solid_square_tile>:

u8 solid_square_tile(int tile_index)
{
	u8 tile = level.level_map[tile_index];
    a7c0:	88 5a       	subi	r24, 0xA8	; 168
    a7c2:	93 4f       	sbci	r25, 0xF3	; 243
    a7c4:	fc 01       	movw	r30, r24
    a7c6:	81 81       	ldd	r24, Z+1	; 0x01
	
	if (tile == L_BRICK) return tile;
    a7c8:	81 30       	cpi	r24, 0x01	; 1
    a7ca:	31 f0       	breq	.+12     	; 0xa7d8 <solid_square_tile+0x18>
	if (tile == L_METAL) return tile;
    a7cc:	82 30       	cpi	r24, 0x02	; 2
    a7ce:	31 f0       	breq	.+12     	; 0xa7dc <solid_square_tile+0x1c>
	if (tile == L_FENCE) return tile;
    a7d0:	87 33       	cpi	r24, 0x37	; 55
    a7d2:	31 f0       	breq	.+12     	; 0xa7e0 <solid_square_tile+0x20>

	return 0;
    a7d4:	80 e0       	ldi	r24, 0x00	; 0
    a7d6:	08 95       	ret
    a7d8:	81 e0       	ldi	r24, 0x01	; 1
    a7da:	08 95       	ret
    a7dc:	82 e0       	ldi	r24, 0x02	; 2
    a7de:	08 95       	ret
    a7e0:	87 e3       	ldi	r24, 0x37	; 55
}
    a7e2:	08 95       	ret

0000a7e4 <solid_directional_tile>:

u8 solid_directional_tile(int tile_index)
{
	u8 tile = level.level_map[tile_index];
    a7e4:	88 5a       	subi	r24, 0xA8	; 168
    a7e6:	93 4f       	sbci	r25, 0xF3	; 243
    a7e8:	fc 01       	movw	r30, r24
    a7ea:	81 81       	ldd	r24, Z+1	; 0x01

	if (tile == L_TL) return tile;
    a7ec:	83 30       	cpi	r24, 0x03	; 3
    a7ee:	41 f0       	breq	.+16     	; 0xa800 <solid_directional_tile+0x1c>
	if (tile == L_BR) return tile;
    a7f0:	86 30       	cpi	r24, 0x06	; 6
    a7f2:	41 f0       	breq	.+16     	; 0xa804 <solid_directional_tile+0x20>
	if (tile == L_TR) return tile;
    a7f4:	84 30       	cpi	r24, 0x04	; 4
    a7f6:	41 f0       	breq	.+16     	; 0xa808 <solid_directional_tile+0x24>
	if (tile == L_BL) return tile;
    a7f8:	85 30       	cpi	r24, 0x05	; 5
    a7fa:	41 f0       	breq	.+16     	; 0xa80c <solid_directional_tile+0x28>
	
	return 0;
    a7fc:	80 e0       	ldi	r24, 0x00	; 0
    a7fe:	08 95       	ret
    a800:	83 e0       	ldi	r24, 0x03	; 3
    a802:	08 95       	ret
    a804:	86 e0       	ldi	r24, 0x06	; 6
    a806:	08 95       	ret
    a808:	84 e0       	ldi	r24, 0x04	; 4
    a80a:	08 95       	ret
    a80c:	85 e0       	ldi	r24, 0x05	; 5
}
    a80e:	08 95       	ret

0000a810 <solid_tile>:

u8 solid_tile(int tile_index)
{
    a810:	9c 01       	movw	r18, r24
	u8 tile = level.level_map[tile_index];
    a812:	fc 01       	movw	r30, r24
    a814:	e8 5a       	subi	r30, 0xA8	; 168
    a816:	f3 4f       	sbci	r31, 0xF3	; 243
    a818:	91 81       	ldd	r25, Z+1	; 0x01
	
	if (tile == L_BRICK) return tile;
    a81a:	91 30       	cpi	r25, 0x01	; 1
    a81c:	39 f0       	breq	.+14     	; 0xa82c <solid_tile+0x1c>
	if (tile == L_METAL) return tile;
    a81e:	92 30       	cpi	r25, 0x02	; 2
    a820:	39 f0       	breq	.+14     	; 0xa830 <solid_tile+0x20>
	if (tile == L_FENCE) return tile;
    a822:	97 33       	cpi	r25, 0x37	; 55
    a824:	39 f0       	breq	.+14     	; 0xa834 <solid_tile+0x24>
	return solid_directional_tile(tile_index);
    a826:	c9 01       	movw	r24, r18
    a828:	0c 94 f2 53 	jmp	0xa7e4	; 0xa7e4 <solid_directional_tile>
    a82c:	81 e0       	ldi	r24, 0x01	; 1
    a82e:	08 95       	ret
    a830:	82 e0       	ldi	r24, 0x02	; 2
    a832:	08 95       	ret
    a834:	87 e3       	ldi	r24, 0x37	; 55
}
    a836:	08 95       	ret

0000a838 <collides_directional_tile>:

u8 collides_directional_tile(int tile_index, u8 x, u8 y, u8 width, u8 height)
{
    a838:	7f 92       	push	r7
    a83a:	8f 92       	push	r8
    a83c:	9f 92       	push	r9
    a83e:	af 92       	push	r10
    a840:	bf 92       	push	r11
    a842:	cf 92       	push	r12
    a844:	df 92       	push	r13
    a846:	ef 92       	push	r14
    a848:	ff 92       	push	r15
    a84a:	0f 93       	push	r16
    a84c:	1f 93       	push	r17
    a84e:	cf 93       	push	r28
    a850:	df 93       	push	r29
    a852:	b6 2e       	mov	r11, r22
    a854:	94 2e       	mov	r9, r20
    a856:	d2 2f       	mov	r29, r18
	u8 tile = level.level_map[tile_index];
    a858:	fc 01       	movw	r30, r24
    a85a:	e8 5a       	subi	r30, 0xA8	; 168
    a85c:	f3 4f       	sbci	r31, 0xF3	; 243
    a85e:	d1 80       	ldd	r13, Z+1	; 0x01
	u8 tile_x = (tile_index % 30) * 8;
    a860:	6e e1       	ldi	r22, 0x1E	; 30
    a862:	70 e0       	ldi	r23, 0x00	; 0
    a864:	0e 94 9a 72 	call	0xe534	; 0xe534 <__divmodhi4>
    a868:	f8 2e       	mov	r15, r24
    a86a:	ff 0c       	add	r15, r15
    a86c:	ff 0c       	add	r15, r15
    a86e:	ff 0c       	add	r15, r15
	u8 tile_y = (tile_index / 30 + 3) * 8;
    a870:	6d 5f       	subi	r22, 0xFD	; 253
    a872:	7f 4f       	sbci	r23, 0xFF	; 255
    a874:	16 2f       	mov	r17, r22
    a876:	11 0f       	add	r17, r17
    a878:	11 0f       	add	r17, r17
    a87a:	11 0f       	add	r17, r17

	if ((tile == L_TL) || (tile == L_BR))
    a87c:	83 e0       	ldi	r24, 0x03	; 3
    a87e:	d8 16       	cp	r13, r24
    a880:	19 f0       	breq	.+6      	; 0xa888 <collides_directional_tile+0x50>
    a882:	86 e0       	ldi	r24, 0x06	; 6
    a884:	d8 12       	cpse	r13, r24
    a886:	31 c0       	rjmp	.+98     	; 0xa8ea <collides_directional_tile+0xb2>
    a888:	cf ef       	ldi	r28, 0xFF	; 255
    a88a:	c0 0f       	add	r28, r16
	{
		if (LBLineIntersect(tile_x, tile_y+7, tile_x+7, tile_y, x, y, x, y+height-1)) return tile;
    a88c:	c9 0d       	add	r28, r9
    a88e:	27 e0       	ldi	r18, 0x07	; 7
    a890:	72 2e       	mov	r7, r18
    a892:	7f 0c       	add	r7, r15
    a894:	37 e0       	ldi	r19, 0x07	; 7
    a896:	83 2e       	mov	r8, r19
    a898:	81 0e       	add	r8, r17
    a89a:	ac 2e       	mov	r10, r28
    a89c:	cb 2c       	mov	r12, r11
    a89e:	e9 2c       	mov	r14, r9
    a8a0:	0b 2d       	mov	r16, r11
    a8a2:	21 2f       	mov	r18, r17
    a8a4:	47 2d       	mov	r20, r7
    a8a6:	68 2d       	mov	r22, r8
    a8a8:	8f 2d       	mov	r24, r15
    a8aa:	0e 94 27 4d 	call	0x9a4e	; 0x9a4e <LBLineIntersect>
    a8ae:	81 11       	cpse	r24, r1
    a8b0:	58 c0       	rjmp	.+176    	; 0xa962 <collides_directional_tile+0x12a>
    a8b2:	d1 50       	subi	r29, 0x01	; 1
		if (LBLineIntersect(tile_x, tile_y+7, tile_x+7, tile_y, x, y, x+width-1, y)) return tile;
    a8b4:	db 0d       	add	r29, r11
    a8b6:	a9 2c       	mov	r10, r9
    a8b8:	cd 2e       	mov	r12, r29
    a8ba:	21 2f       	mov	r18, r17
    a8bc:	47 2d       	mov	r20, r7
    a8be:	68 2d       	mov	r22, r8
    a8c0:	8f 2d       	mov	r24, r15
    a8c2:	0e 94 27 4d 	call	0x9a4e	; 0x9a4e <LBLineIntersect>
    a8c6:	81 11       	cpse	r24, r1
    a8c8:	4c c0       	rjmp	.+152    	; 0xa962 <collides_directional_tile+0x12a>
		if (LBLineIntersect(tile_x, tile_y+7, tile_x+7, tile_y, x+width-1, y, x+width-1, y+height-1)) return tile;
    a8ca:	ac 2e       	mov	r10, r28
    a8cc:	0d 2f       	mov	r16, r29
    a8ce:	21 2f       	mov	r18, r17
    a8d0:	47 2d       	mov	r20, r7
    a8d2:	68 2d       	mov	r22, r8
    a8d4:	8f 2d       	mov	r24, r15
    a8d6:	0e 94 27 4d 	call	0x9a4e	; 0x9a4e <LBLineIntersect>
    a8da:	81 11       	cpse	r24, r1
    a8dc:	42 c0       	rjmp	.+132    	; 0xa962 <collides_directional_tile+0x12a>
		if (LBLineIntersect(tile_x, tile_y+7, tile_x+7, tile_y, x, y+height-1, x+width-1, y+height-1)) return tile;
    a8de:	ec 2e       	mov	r14, r28
    a8e0:	0b 2d       	mov	r16, r11
    a8e2:	21 2f       	mov	r18, r17
    a8e4:	47 2d       	mov	r20, r7
    a8e6:	68 2d       	mov	r22, r8
    a8e8:	34 c0       	rjmp	.+104    	; 0xa952 <collides_directional_tile+0x11a>
	}
	else if ((tile == L_TR) || (tile == L_BL))
    a8ea:	8c ef       	ldi	r24, 0xFC	; 252
    a8ec:	8d 0d       	add	r24, r13
    a8ee:	82 30       	cpi	r24, 0x02	; 2
    a8f0:	b0 f5       	brcc	.+108    	; 0xa95e <collides_directional_tile+0x126>
    a8f2:	cf ef       	ldi	r28, 0xFF	; 255
    a8f4:	c0 0f       	add	r28, r16
	{
		if (LBLineIntersect(tile_x, tile_y, tile_x+7, tile_y+7, x, y, x, y+height-1)) return tile;
    a8f6:	c4 0f       	add	r28, r20
    a8f8:	87 e0       	ldi	r24, 0x07	; 7
    a8fa:	78 2e       	mov	r7, r24
    a8fc:	71 0e       	add	r7, r17
    a8fe:	97 e0       	ldi	r25, 0x07	; 7
    a900:	89 2e       	mov	r8, r25
    a902:	8f 0c       	add	r8, r15
    a904:	ac 2e       	mov	r10, r28
    a906:	cb 2c       	mov	r12, r11
    a908:	e4 2e       	mov	r14, r20
    a90a:	0b 2d       	mov	r16, r11
    a90c:	27 2d       	mov	r18, r7
    a90e:	48 2d       	mov	r20, r8
    a910:	61 2f       	mov	r22, r17
    a912:	8f 2d       	mov	r24, r15
    a914:	0e 94 27 4d 	call	0x9a4e	; 0x9a4e <LBLineIntersect>
    a918:	81 11       	cpse	r24, r1
    a91a:	23 c0       	rjmp	.+70     	; 0xa962 <collides_directional_tile+0x12a>
    a91c:	d1 50       	subi	r29, 0x01	; 1
		if (LBLineIntersect(tile_x, tile_y, tile_x+7, tile_y+7, x, y, x+width-1, y)) return tile;
    a91e:	db 0d       	add	r29, r11
    a920:	a9 2c       	mov	r10, r9
    a922:	cd 2e       	mov	r12, r29
    a924:	27 2d       	mov	r18, r7
    a926:	48 2d       	mov	r20, r8
    a928:	61 2f       	mov	r22, r17
    a92a:	8f 2d       	mov	r24, r15
    a92c:	0e 94 27 4d 	call	0x9a4e	; 0x9a4e <LBLineIntersect>
    a930:	81 11       	cpse	r24, r1
    a932:	17 c0       	rjmp	.+46     	; 0xa962 <collides_directional_tile+0x12a>
		if (LBLineIntersect(tile_x, tile_y, tile_x+7, tile_y+7, x+width-1, y, x+width-1, y+height-1)) return tile;
    a934:	ac 2e       	mov	r10, r28
    a936:	0d 2f       	mov	r16, r29
    a938:	27 2d       	mov	r18, r7
    a93a:	48 2d       	mov	r20, r8
    a93c:	61 2f       	mov	r22, r17
    a93e:	8f 2d       	mov	r24, r15
    a940:	0e 94 27 4d 	call	0x9a4e	; 0x9a4e <LBLineIntersect>
    a944:	81 11       	cpse	r24, r1
    a946:	0d c0       	rjmp	.+26     	; 0xa962 <collides_directional_tile+0x12a>
		if (LBLineIntersect(tile_x, tile_y, tile_x+7, tile_y+7, x, y+height-1, x+width-1, y+height-1)) return tile;
    a948:	ec 2e       	mov	r14, r28
    a94a:	0b 2d       	mov	r16, r11
    a94c:	27 2d       	mov	r18, r7
    a94e:	48 2d       	mov	r20, r8
    a950:	61 2f       	mov	r22, r17
    a952:	8f 2d       	mov	r24, r15
    a954:	0e 94 27 4d 	call	0x9a4e	; 0x9a4e <LBLineIntersect>
    a958:	81 11       	cpse	r24, r1
    a95a:	03 c0       	rjmp	.+6      	; 0xa962 <collides_directional_tile+0x12a>
    a95c:	03 c0       	rjmp	.+6      	; 0xa964 <collides_directional_tile+0x12c>
	}
	
	return 0;
    a95e:	80 e0       	ldi	r24, 0x00	; 0
    a960:	01 c0       	rjmp	.+2      	; 0xa964 <collides_directional_tile+0x12c>
    a962:	8d 2d       	mov	r24, r13
}
    a964:	df 91       	pop	r29
    a966:	cf 91       	pop	r28
    a968:	1f 91       	pop	r17
    a96a:	0f 91       	pop	r16
    a96c:	ff 90       	pop	r15
    a96e:	ef 90       	pop	r14
    a970:	df 90       	pop	r13
    a972:	cf 90       	pop	r12
    a974:	bf 90       	pop	r11
    a976:	af 90       	pop	r10
    a978:	9f 90       	pop	r9
    a97a:	8f 90       	pop	r8
    a97c:	7f 90       	pop	r7
    a97e:	08 95       	ret

0000a980 <player_shot>:

u8 player_shot(Player* p, Shot* shot)
{
    a980:	8f 92       	push	r8
    a982:	9f 92       	push	r9
    a984:	af 92       	push	r10
    a986:	cf 92       	push	r12
    a988:	ef 92       	push	r14
    a98a:	0f 93       	push	r16
    a98c:	1f 93       	push	r17
    a98e:	cf 93       	push	r28
    a990:	df 93       	push	r29
    a992:	4c 01       	movw	r8, r24
    a994:	eb 01       	movw	r28, r22
	return LBCollides(p->shared.x+1,p->shared.y+1,14,14,shot->shared.x+2,shot->shared.y+2,4,4) &&
    a996:	20 e0       	ldi	r18, 0x00	; 0
    a998:	30 e0       	ldi	r19, 0x00	; 0
    a99a:	40 e0       	ldi	r20, 0x00	; 0
    a99c:	50 e4       	ldi	r21, 0x40	; 64
    a99e:	6f 81       	ldd	r22, Y+7	; 0x07
    a9a0:	78 85       	ldd	r23, Y+8	; 0x08
    a9a2:	89 85       	ldd	r24, Y+9	; 0x09
    a9a4:	9a 85       	ldd	r25, Y+10	; 0x0a
    a9a6:	0e 94 af 72 	call	0xe55e	; 0xe55e <__addsf3>
    a9aa:	0e 94 84 73 	call	0xe708	; 0xe708 <__fixunssfsi>
    a9ae:	e6 2e       	mov	r14, r22
    a9b0:	20 e0       	ldi	r18, 0x00	; 0
    a9b2:	30 e0       	ldi	r19, 0x00	; 0
    a9b4:	40 e0       	ldi	r20, 0x00	; 0
    a9b6:	50 e4       	ldi	r21, 0x40	; 64
    a9b8:	6b 81       	ldd	r22, Y+3	; 0x03
    a9ba:	7c 81       	ldd	r23, Y+4	; 0x04
    a9bc:	8d 81       	ldd	r24, Y+5	; 0x05
    a9be:	9e 81       	ldd	r25, Y+6	; 0x06
    a9c0:	0e 94 af 72 	call	0xe55e	; 0xe55e <__addsf3>
    a9c4:	0e 94 84 73 	call	0xe708	; 0xe708 <__fixunssfsi>
    a9c8:	06 2f       	mov	r16, r22
    a9ca:	20 e0       	ldi	r18, 0x00	; 0
    a9cc:	30 e0       	ldi	r19, 0x00	; 0
    a9ce:	40 e8       	ldi	r20, 0x80	; 128
    a9d0:	5f e3       	ldi	r21, 0x3F	; 63
    a9d2:	f4 01       	movw	r30, r8
    a9d4:	67 81       	ldd	r22, Z+7	; 0x07
    a9d6:	70 85       	ldd	r23, Z+8	; 0x08
    a9d8:	81 85       	ldd	r24, Z+9	; 0x09
    a9da:	92 85       	ldd	r25, Z+10	; 0x0a
    a9dc:	0e 94 af 72 	call	0xe55e	; 0xe55e <__addsf3>
    a9e0:	0e 94 84 73 	call	0xe708	; 0xe708 <__fixunssfsi>
    a9e4:	16 2f       	mov	r17, r22
    a9e6:	20 e0       	ldi	r18, 0x00	; 0
    a9e8:	30 e0       	ldi	r19, 0x00	; 0
    a9ea:	40 e8       	ldi	r20, 0x80	; 128
    a9ec:	5f e3       	ldi	r21, 0x3F	; 63
    a9ee:	f4 01       	movw	r30, r8
    a9f0:	63 81       	ldd	r22, Z+3	; 0x03
    a9f2:	74 81       	ldd	r23, Z+4	; 0x04
    a9f4:	85 81       	ldd	r24, Z+5	; 0x05
    a9f6:	96 81       	ldd	r25, Z+6	; 0x06
    a9f8:	0e 94 af 72 	call	0xe55e	; 0xe55e <__addsf3>
    a9fc:	0e 94 84 73 	call	0xe708	; 0xe708 <__fixunssfsi>
    aa00:	86 2f       	mov	r24, r22
    aa02:	94 e0       	ldi	r25, 0x04	; 4
    aa04:	a9 2e       	mov	r10, r25
    aa06:	24 e0       	ldi	r18, 0x04	; 4
    aa08:	c2 2e       	mov	r12, r18
    aa0a:	2e e0       	ldi	r18, 0x0E	; 14
    aa0c:	4e e0       	ldi	r20, 0x0E	; 14
    aa0e:	61 2f       	mov	r22, r17
    aa10:	0e 94 fd 4c 	call	0x99fa	; 0x99fa <LBCollides>
		   p->grace_frame == FRAMES_PER_GRACE &&
    aa14:	88 23       	and	r24, r24
    aa16:	41 f0       	breq	.+16     	; 0xaa28 <player_shot+0xa8>
	return 0;
}

u8 player_shot(Player* p, Shot* shot)
{
	return LBCollides(p->shared.x+1,p->shared.y+1,14,14,shot->shared.x+2,shot->shared.y+2,4,4) &&
    aa18:	f4 01       	movw	r30, r8
    aa1a:	86 89       	ldd	r24, Z+22	; 0x16
    aa1c:	88 37       	cpi	r24, 0x78	; 120
    aa1e:	21 f4       	brne	.+8      	; 0xaa28 <player_shot+0xa8>
		   p->grace_frame == FRAMES_PER_GRACE &&
    aa20:	81 e0       	ldi	r24, 0x01	; 1
    aa22:	9f 85       	ldd	r25, Y+15	; 0x0f
    aa24:	99 30       	cpi	r25, 0x09	; 9
    aa26:	08 f4       	brcc	.+2      	; 0xaa2a <player_shot+0xaa>
    aa28:	80 e0       	ldi	r24, 0x00	; 0
		   shot->distance > DISTANCE_TO_ARM;
}
    aa2a:	df 91       	pop	r29
    aa2c:	cf 91       	pop	r28
    aa2e:	1f 91       	pop	r17
    aa30:	0f 91       	pop	r16
    aa32:	ef 90       	pop	r14
    aa34:	cf 90       	pop	r12
    aa36:	af 90       	pop	r10
    aa38:	9f 90       	pop	r9
    aa3a:	8f 90       	pop	r8
    aa3c:	08 95       	ret

0000aa3e <turret_shot>:

u8 turret_shot(Turret* t, Shot* shot)
{
    aa3e:	af 92       	push	r10
    aa40:	cf 92       	push	r12
    aa42:	ef 92       	push	r14
    aa44:	0f 93       	push	r16
    aa46:	1f 93       	push	r17
    aa48:	cf 93       	push	r28
    aa4a:	df 93       	push	r29
    aa4c:	ec 01       	movw	r28, r24
    aa4e:	8b 01       	movw	r16, r22
	return LBCollides(t->shared.x,t->shared.y,8,8,shot->shared.x+2,shot->shared.y+2,4,4) && t->lives > 0;
    aa50:	20 e0       	ldi	r18, 0x00	; 0
    aa52:	30 e0       	ldi	r19, 0x00	; 0
    aa54:	40 e0       	ldi	r20, 0x00	; 0
    aa56:	50 e4       	ldi	r21, 0x40	; 64
    aa58:	fb 01       	movw	r30, r22
    aa5a:	67 81       	ldd	r22, Z+7	; 0x07
    aa5c:	70 85       	ldd	r23, Z+8	; 0x08
    aa5e:	81 85       	ldd	r24, Z+9	; 0x09
    aa60:	92 85       	ldd	r25, Z+10	; 0x0a
    aa62:	0e 94 af 72 	call	0xe55e	; 0xe55e <__addsf3>
    aa66:	0e 94 84 73 	call	0xe708	; 0xe708 <__fixunssfsi>
    aa6a:	e6 2e       	mov	r14, r22
    aa6c:	20 e0       	ldi	r18, 0x00	; 0
    aa6e:	30 e0       	ldi	r19, 0x00	; 0
    aa70:	40 e0       	ldi	r20, 0x00	; 0
    aa72:	50 e4       	ldi	r21, 0x40	; 64
    aa74:	f8 01       	movw	r30, r16
    aa76:	63 81       	ldd	r22, Z+3	; 0x03
    aa78:	74 81       	ldd	r23, Z+4	; 0x04
    aa7a:	85 81       	ldd	r24, Z+5	; 0x05
    aa7c:	96 81       	ldd	r25, Z+6	; 0x06
    aa7e:	0e 94 af 72 	call	0xe55e	; 0xe55e <__addsf3>
    aa82:	0e 94 84 73 	call	0xe708	; 0xe708 <__fixunssfsi>
    aa86:	06 2f       	mov	r16, r22
    aa88:	6f 81       	ldd	r22, Y+7	; 0x07
    aa8a:	78 85       	ldd	r23, Y+8	; 0x08
    aa8c:	89 85       	ldd	r24, Y+9	; 0x09
    aa8e:	9a 85       	ldd	r25, Y+10	; 0x0a
    aa90:	0e 94 84 73 	call	0xe708	; 0xe708 <__fixunssfsi>
    aa94:	16 2f       	mov	r17, r22
    aa96:	6b 81       	ldd	r22, Y+3	; 0x03
    aa98:	7c 81       	ldd	r23, Y+4	; 0x04
    aa9a:	8d 81       	ldd	r24, Y+5	; 0x05
    aa9c:	9e 81       	ldd	r25, Y+6	; 0x06
    aa9e:	0e 94 84 73 	call	0xe708	; 0xe708 <__fixunssfsi>
    aaa2:	86 2f       	mov	r24, r22
    aaa4:	94 e0       	ldi	r25, 0x04	; 4
    aaa6:	a9 2e       	mov	r10, r25
    aaa8:	24 e0       	ldi	r18, 0x04	; 4
    aaaa:	c2 2e       	mov	r12, r18
    aaac:	28 e0       	ldi	r18, 0x08	; 8
    aaae:	48 e0       	ldi	r20, 0x08	; 8
    aab0:	61 2f       	mov	r22, r17
    aab2:	0e 94 fd 4c 	call	0x99fa	; 0x99fa <LBCollides>
    aab6:	88 23       	and	r24, r24
    aab8:	39 f0       	breq	.+14     	; 0xaac8 <turret_shot+0x8a>
    aaba:	91 e0       	ldi	r25, 0x01	; 1
    aabc:	8b 85       	ldd	r24, Y+11	; 0x0b
    aabe:	81 11       	cpse	r24, r1
    aac0:	01 c0       	rjmp	.+2      	; 0xaac4 <turret_shot+0x86>
    aac2:	90 e0       	ldi	r25, 0x00	; 0
    aac4:	89 2f       	mov	r24, r25
    aac6:	01 c0       	rjmp	.+2      	; 0xaaca <turret_shot+0x8c>
    aac8:	80 e0       	ldi	r24, 0x00	; 0
}
    aaca:	df 91       	pop	r29
    aacc:	cf 91       	pop	r28
    aace:	1f 91       	pop	r17
    aad0:	0f 91       	pop	r16
    aad2:	ef 90       	pop	r14
    aad4:	cf 90       	pop	r12
    aad6:	af 90       	pop	r10
    aad8:	08 95       	ret

0000aada <collision_detect_boundries>:

u8 collision_detect_boundries(SpriteShared* sprite)
{
    aada:	cf 92       	push	r12
    aadc:	df 92       	push	r13
    aade:	ef 92       	push	r14
    aae0:	ff 92       	push	r15
    aae2:	cf 93       	push	r28
    aae4:	df 93       	push	r29
    aae6:	ec 01       	movw	r28, r24
	if (sprite->x < 0  || sprite->x + 8 > 240 ||
    aae8:	cb 80       	ldd	r12, Y+3	; 0x03
    aaea:	dc 80       	ldd	r13, Y+4	; 0x04
    aaec:	ed 80       	ldd	r14, Y+5	; 0x05
    aaee:	fe 80       	ldd	r15, Y+6	; 0x06
    aaf0:	20 e0       	ldi	r18, 0x00	; 0
    aaf2:	30 e0       	ldi	r19, 0x00	; 0
    aaf4:	a9 01       	movw	r20, r18
    aaf6:	c7 01       	movw	r24, r14
    aaf8:	b6 01       	movw	r22, r12
    aafa:	0e 94 13 73 	call	0xe626	; 0xe626 <__cmpsf2>
    aafe:	87 fd       	sbrc	r24, 7
    ab00:	31 c0       	rjmp	.+98     	; 0xab64 <collision_detect_boundries+0x8a>
    ab02:	20 e0       	ldi	r18, 0x00	; 0
    ab04:	30 e0       	ldi	r19, 0x00	; 0
    ab06:	40 e0       	ldi	r20, 0x00	; 0
    ab08:	51 e4       	ldi	r21, 0x41	; 65
    ab0a:	c7 01       	movw	r24, r14
    ab0c:	b6 01       	movw	r22, r12
    ab0e:	0e 94 af 72 	call	0xe55e	; 0xe55e <__addsf3>
    ab12:	20 e0       	ldi	r18, 0x00	; 0
    ab14:	30 e0       	ldi	r19, 0x00	; 0
    ab16:	40 e7       	ldi	r20, 0x70	; 112
    ab18:	53 e4       	ldi	r21, 0x43	; 67
    ab1a:	0e 94 62 74 	call	0xe8c4	; 0xe8c4 <__gesf2>
    ab1e:	18 16       	cp	r1, r24
    ab20:	0c f1       	brlt	.+66     	; 0xab64 <collision_detect_boundries+0x8a>
	    sprite->y < 24 || sprite->y + 8 > 224)
    ab22:	cf 80       	ldd	r12, Y+7	; 0x07
    ab24:	d8 84       	ldd	r13, Y+8	; 0x08
    ab26:	e9 84       	ldd	r14, Y+9	; 0x09
    ab28:	fa 84       	ldd	r15, Y+10	; 0x0a
	return LBCollides(t->shared.x,t->shared.y,8,8,shot->shared.x+2,shot->shared.y+2,4,4) && t->lives > 0;
}

u8 collision_detect_boundries(SpriteShared* sprite)
{
	if (sprite->x < 0  || sprite->x + 8 > 240 ||
    ab2a:	20 e0       	ldi	r18, 0x00	; 0
    ab2c:	30 e0       	ldi	r19, 0x00	; 0
    ab2e:	40 ec       	ldi	r20, 0xC0	; 192
    ab30:	51 e4       	ldi	r21, 0x41	; 65
    ab32:	c7 01       	movw	r24, r14
    ab34:	b6 01       	movw	r22, r12
    ab36:	0e 94 13 73 	call	0xe626	; 0xe626 <__cmpsf2>
    ab3a:	87 fd       	sbrc	r24, 7
    ab3c:	13 c0       	rjmp	.+38     	; 0xab64 <collision_detect_boundries+0x8a>
	    sprite->y < 24 || sprite->y + 8 > 224)
    ab3e:	20 e0       	ldi	r18, 0x00	; 0
    ab40:	30 e0       	ldi	r19, 0x00	; 0
    ab42:	40 e0       	ldi	r20, 0x00	; 0
    ab44:	51 e4       	ldi	r21, 0x41	; 65
    ab46:	c7 01       	movw	r24, r14
    ab48:	b6 01       	movw	r22, r12
    ab4a:	0e 94 af 72 	call	0xe55e	; 0xe55e <__addsf3>
    ab4e:	c1 e0       	ldi	r28, 0x01	; 1
    ab50:	20 e0       	ldi	r18, 0x00	; 0
    ab52:	30 e0       	ldi	r19, 0x00	; 0
    ab54:	40 e6       	ldi	r20, 0x60	; 96
    ab56:	53 e4       	ldi	r21, 0x43	; 67
    ab58:	0e 94 62 74 	call	0xe8c4	; 0xe8c4 <__gesf2>
    ab5c:	18 16       	cp	r1, r24
    ab5e:	1c f0       	brlt	.+6      	; 0xab66 <collision_detect_boundries+0x8c>
    ab60:	c0 e0       	ldi	r28, 0x00	; 0
    ab62:	01 c0       	rjmp	.+2      	; 0xab66 <collision_detect_boundries+0x8c>
	{
		return 1;
    ab64:	c1 e0       	ldi	r28, 0x01	; 1
	}
	return 0;
}
    ab66:	8c 2f       	mov	r24, r28
    ab68:	df 91       	pop	r29
    ab6a:	cf 91       	pop	r28
    ab6c:	ff 90       	pop	r15
    ab6e:	ef 90       	pop	r14
    ab70:	df 90       	pop	r13
    ab72:	cf 90       	pop	r12
    ab74:	08 95       	ret

0000ab76 <drop_item>:

void drop_item(int tile_index, const char* map, u8 item_type)
{
    ab76:	1f 93       	push	r17
    ab78:	cf 93       	push	r28
    ab7a:	df 93       	push	r29
    ab7c:	9c 01       	movw	r18, r24
    ab7e:	fb 01       	movw	r30, r22
    ab80:	14 2f       	mov	r17, r20
	u8 x = tile_index % 30;
    ab82:	6e e1       	ldi	r22, 0x1E	; 30
    ab84:	70 e0       	ldi	r23, 0x00	; 0
    ab86:	0e 94 9a 72 	call	0xe534	; 0xe534 <__divmodhi4>
    ab8a:	96 2f       	mov	r25, r22
	u8 y = 3 + tile_index / 30;
    ab8c:	63 e0       	ldi	r22, 0x03	; 3
    ab8e:	69 0f       	add	r22, r25
	
	if (level.level_map[tile_index] == L_EMPTY)
    ab90:	e9 01       	movw	r28, r18
    ab92:	c8 5a       	subi	r28, 0xA8	; 168
    ab94:	d3 4f       	sbci	r29, 0xF3	; 243
    ab96:	49 81       	ldd	r20, Y+1	; 0x01
    ab98:	44 23       	and	r20, r20
    ab9a:	71 f0       	breq	.+28     	; 0xabb8 <drop_item+0x42>
	{
		DrawMap2(x, y, map);
		level.level_map[tile_index] = item_type;
	}
	else if (level.level_map[tile_index+1] == L_EMPTY)
    ab9c:	e9 01       	movw	r28, r18
    ab9e:	c7 5a       	subi	r28, 0xA7	; 167
    aba0:	d3 4f       	sbci	r29, 0xF3	; 243
    aba2:	49 81       	ldd	r20, Y+1	; 0x01
    aba4:	44 23       	and	r20, r20
    aba6:	91 f0       	breq	.+36     	; 0xabcc <drop_item+0x56>
	{
		DrawMap2(x+1, y, map);
		level.level_map[tile_index+1] = item_type;
	}
	else if (level.level_map[tile_index+30] == L_EMPTY)
    aba8:	e9 01       	movw	r28, r18
    abaa:	ca 58       	subi	r28, 0x8A	; 138
    abac:	d3 4f       	sbci	r29, 0xF3	; 243
    abae:	49 81       	ldd	r20, Y+1	; 0x01
    abb0:	41 11       	cpse	r20, r1
    abb2:	04 c0       	rjmp	.+8      	; 0xabbc <drop_item+0x46>
	{
		DrawMap2(x, y+1, map);
    abb4:	64 e0       	ldi	r22, 0x04	; 4
    abb6:	69 0f       	add	r22, r25
    abb8:	af 01       	movw	r20, r30
    abba:	0a c0       	rjmp	.+20     	; 0xabd0 <drop_item+0x5a>
		level.level_map[tile_index+30] = item_type;
	}
	else if (level.level_map[tile_index+31] == L_EMPTY)
    abbc:	e9 01       	movw	r28, r18
    abbe:	c9 58       	subi	r28, 0x89	; 137
    abc0:	d3 4f       	sbci	r29, 0xF3	; 243
    abc2:	29 81       	ldd	r18, Y+1	; 0x01
    abc4:	21 11       	cpse	r18, r1
    abc6:	07 c0       	rjmp	.+14     	; 0xabd6 <drop_item+0x60>
	{
		DrawMap2(x+1, y+1, map);
    abc8:	64 e0       	ldi	r22, 0x04	; 4
    abca:	69 0f       	add	r22, r25
    abcc:	af 01       	movw	r20, r30
    abce:	8f 5f       	subi	r24, 0xFF	; 255
    abd0:	0e 94 6c 48 	call	0x90d8	; 0x90d8 <DrawMap>
		level.level_map[tile_index+31] = item_type;
    abd4:	19 83       	std	Y+1, r17	; 0x01
	}
}
    abd6:	df 91       	pop	r29
    abd8:	cf 91       	pop	r28
    abda:	1f 91       	pop	r17
    abdc:	08 95       	ret

0000abde <kill_player>:

void kill_player(Player* player, u8 hud_x)
{
    abde:	ff 92       	push	r15
    abe0:	0f 93       	push	r16
    abe2:	1f 93       	push	r17
    abe4:	cf 93       	push	r28
    abe6:	df 93       	push	r29
    abe8:	ec 01       	movw	r28, r24
    abea:	f6 2e       	mov	r15, r22
	u8 x = player->shared.x / 8;
	u8 y = player->shared.y / 8 - 3;
    abec:	20 e0       	ldi	r18, 0x00	; 0
    abee:	30 e0       	ldi	r19, 0x00	; 0
    abf0:	40 e0       	ldi	r20, 0x00	; 0
    abf2:	5e e3       	ldi	r21, 0x3E	; 62
    abf4:	6f 81       	ldd	r22, Y+7	; 0x07
    abf6:	78 85       	ldd	r23, Y+8	; 0x08
    abf8:	89 85       	ldd	r24, Y+9	; 0x09
    abfa:	9a 85       	ldd	r25, Y+10	; 0x0a
    abfc:	0e 94 66 74 	call	0xe8cc	; 0xe8cc <__mulsf3>
    ac00:	20 e0       	ldi	r18, 0x00	; 0
    ac02:	30 e0       	ldi	r19, 0x00	; 0
    ac04:	40 e4       	ldi	r20, 0x40	; 64
    ac06:	50 e4       	ldi	r21, 0x40	; 64
    ac08:	0e 94 ae 72 	call	0xe55c	; 0xe55c <__subsf3>
    ac0c:	0e 94 84 73 	call	0xe708	; 0xe708 <__fixunssfsi>
	int tile_index = (y * 30) + x;
    ac10:	8e e1       	ldi	r24, 0x1E	; 30
    ac12:	68 9f       	mul	r22, r24
    ac14:	80 01       	movw	r16, r0
    ac16:	11 24       	eor	r1, r1
	}
}

void kill_player(Player* player, u8 hud_x)
{
	u8 x = player->shared.x / 8;
    ac18:	20 e0       	ldi	r18, 0x00	; 0
    ac1a:	30 e0       	ldi	r19, 0x00	; 0
    ac1c:	40 e0       	ldi	r20, 0x00	; 0
    ac1e:	5e e3       	ldi	r21, 0x3E	; 62
    ac20:	6b 81       	ldd	r22, Y+3	; 0x03
    ac22:	7c 81       	ldd	r23, Y+4	; 0x04
    ac24:	8d 81       	ldd	r24, Y+5	; 0x05
    ac26:	9e 81       	ldd	r25, Y+6	; 0x06
    ac28:	0e 94 66 74 	call	0xe8cc	; 0xe8cc <__mulsf3>
    ac2c:	0e 94 84 73 	call	0xe708	; 0xe708 <__fixunssfsi>
	u8 y = player->shared.y / 8 - 3;
	int tile_index = (y * 30) + x;
    ac30:	06 0f       	add	r16, r22
    ac32:	11 1d       	adc	r17, r1

	if (player->has_over_speed)
    ac34:	89 8d       	ldd	r24, Y+25	; 0x19
    ac36:	88 23       	and	r24, r24
    ac38:	79 f0       	breq	.+30     	; 0xac58 <kill_player+0x7a>
	{
		SetTile(hud_x+10, 1, 0);
    ac3a:	40 e0       	ldi	r20, 0x00	; 0
    ac3c:	50 e0       	ldi	r21, 0x00	; 0
    ac3e:	61 e0       	ldi	r22, 0x01	; 1
    ac40:	8a e0       	ldi	r24, 0x0A	; 10
    ac42:	8f 0d       	add	r24, r15
    ac44:	0e 94 37 3a 	call	0x746e	; 0x746e <SetTile>
		drop_item(tile_index, map_speed_itm, L_SPEED);
    ac48:	47 e0       	ldi	r20, 0x07	; 7
    ac4a:	6f ec       	ldi	r22, 0xCF	; 207
    ac4c:	7a e6       	ldi	r23, 0x6A	; 106
    ac4e:	c8 01       	movw	r24, r16
    ac50:	0e 94 bb 55 	call	0xab76	; 0xab76 <drop_item>
		player->max_speed = MAX_SPEED;
    ac54:	82 e3       	ldi	r24, 0x32	; 50
    ac56:	8f 8b       	std	Y+23, r24	; 0x17
	}
	if (player->has_rocket)
    ac58:	88 8d       	ldd	r24, Y+24	; 0x18
    ac5a:	88 23       	and	r24, r24
    ac5c:	69 f0       	breq	.+26     	; 0xac78 <kill_player+0x9a>
	{
		SetTile(hud_x+11, 1, 0);
    ac5e:	40 e0       	ldi	r20, 0x00	; 0
    ac60:	50 e0       	ldi	r21, 0x00	; 0
    ac62:	61 e0       	ldi	r22, 0x01	; 1
    ac64:	8b e0       	ldi	r24, 0x0B	; 11
    ac66:	8f 0d       	add	r24, r15
    ac68:	0e 94 37 3a 	call	0x746e	; 0x746e <SetTile>
		drop_item(tile_index, map_rocket_itm, L_ROCKET);
    ac6c:	49 e0       	ldi	r20, 0x09	; 9
    ac6e:	69 ec       	ldi	r22, 0xC9	; 201
    ac70:	7a e6       	ldi	r23, 0x6A	; 106
    ac72:	c8 01       	movw	r24, r16
    ac74:	0e 94 bb 55 	call	0xab76	; 0xab76 <drop_item>
	}
	player->has_over_speed = false;
    ac78:	19 8e       	std	Y+25, r1	; 0x19
	player->has_rocket = false;
    ac7a:	18 8e       	std	Y+24, r1	; 0x18
	player->flags = player->flags | EXPLODING_FLAG;
    ac7c:	8d 89       	ldd	r24, Y+21	; 0x15
    ac7e:	81 60       	ori	r24, 0x01	; 1
    ac80:	8d 8b       	std	Y+21, r24	; 0x15
}
    ac82:	df 91       	pop	r29
    ac84:	cf 91       	pop	r28
    ac86:	1f 91       	pop	r17
    ac88:	0f 91       	pop	r16
    ac8a:	ff 90       	pop	r15
    ac8c:	08 95       	ret

0000ac8e <get_interesting_tile_indexes_shot>:

void get_interesting_tile_indexes_shot(int* tiles, u8 x, u8 y, u8 direction)
{
    ac8e:	fc 01       	movw	r30, r24
	int tile_root = (y * 30) + x;
    ac90:	70 e0       	ldi	r23, 0x00	; 0
    ac92:	8e e1       	ldi	r24, 0x1E	; 30
    ac94:	48 9f       	mul	r20, r24
    ac96:	60 0d       	add	r22, r0
    ac98:	71 1d       	adc	r23, r1
    ac9a:	11 24       	eor	r1, r1
	if (direction == D_UP)
    ac9c:	21 11       	cpse	r18, r1
    ac9e:	05 c0       	rjmp	.+10     	; 0xacaa <get_interesting_tile_indexes_shot+0x1c>
	{
		tiles[0] = tile_root;
    aca0:	71 83       	std	Z+1, r23	; 0x01
    aca2:	60 83       	st	Z, r22
		tiles[1] = tiles[0]+1;
    aca4:	6f 5f       	subi	r22, 0xFF	; 255
    aca6:	7f 4f       	sbci	r23, 0xFF	; 255
    aca8:	0c c0       	rjmp	.+24     	; 0xacc2 <get_interesting_tile_indexes_shot+0x34>
	}
	else if (direction == D_RIGHT)
	{
		tiles[0] = tile_root + 1;
    acaa:	cb 01       	movw	r24, r22
	if (direction == D_UP)
	{
		tiles[0] = tile_root;
		tiles[1] = tiles[0]+1;
	}
	else if (direction == D_RIGHT)
    acac:	21 30       	cpi	r18, 0x01	; 1
    acae:	11 f4       	brne	.+4      	; 0xacb4 <get_interesting_tile_indexes_shot+0x26>
	{
		tiles[0] = tile_root + 1;
    acb0:	01 96       	adiw	r24, 0x01	; 1
    acb2:	03 c0       	rjmp	.+6      	; 0xacba <get_interesting_tile_indexes_shot+0x2c>
    acb4:	4e 96       	adiw	r24, 0x1e	; 30
		tiles[1] = tiles[0]+30;
	}
	else if (direction == D_DOWN)
    acb6:	22 30       	cpi	r18, 0x02	; 2
    acb8:	39 f4       	brne	.+14     	; 0xacc8 <get_interesting_tile_indexes_shot+0x3a>
	{
		tiles[0] = tile_root + 30;
    acba:	91 83       	std	Z+1, r25	; 0x01
    acbc:	80 83       	st	Z, r24
		tiles[1] = tiles[0]+1;
    acbe:	61 5e       	subi	r22, 0xE1	; 225
    acc0:	7f 4f       	sbci	r23, 0xFF	; 255
    acc2:	73 83       	std	Z+3, r23	; 0x03
    acc4:	62 83       	std	Z+2, r22	; 0x02
    acc6:	08 95       	ret
	}
	else
	{
		tiles[0] = tile_root;
    acc8:	71 83       	std	Z+1, r23	; 0x01
    acca:	60 83       	st	Z, r22
		tiles[1] = tiles[0]+30;
    accc:	93 83       	std	Z+3, r25	; 0x03
    acce:	82 83       	std	Z+2, r24	; 0x02
    acd0:	08 95       	ret

0000acd2 <explode_tile>:
	}
}

void explode_tile(TileAnimations* ta, int tile_index)
{
    acd2:	ef 92       	push	r14
    acd4:	ff 92       	push	r15
    acd6:	0f 93       	push	r16
    acd8:	1f 93       	push	r17
    acda:	cf 93       	push	r28
    acdc:	df 93       	push	r29
    acde:	ec 01       	movw	r28, r24
    ace0:	8b 01       	movw	r16, r22
	SetTile(tile_index % 30, 3 + tile_index / 30, 0);
    ace2:	8e e1       	ldi	r24, 0x1E	; 30
    ace4:	e8 2e       	mov	r14, r24
    ace6:	f1 2c       	mov	r15, r1
    ace8:	cb 01       	movw	r24, r22
    acea:	b7 01       	movw	r22, r14
    acec:	0e 94 9a 72 	call	0xe534	; 0xe534 <__divmodhi4>
    acf0:	6d 5f       	subi	r22, 0xFD	; 253
    acf2:	40 e0       	ldi	r20, 0x00	; 0
    acf4:	50 e0       	ldi	r21, 0x00	; 0
    acf6:	0e 94 37 3a 	call	0x746e	; 0x746e <SetTile>
	if (ta->anims[ta->next_available].tile_index != 0)
    acfa:	88 81       	ld	r24, Y
    acfc:	fe 01       	movw	r30, r28
    acfe:	9e e0       	ldi	r25, 0x0E	; 14
    ad00:	89 9f       	mul	r24, r25
    ad02:	e0 0d       	add	r30, r0
    ad04:	f1 1d       	adc	r31, r1
    ad06:	11 24       	eor	r1, r1
    ad08:	85 85       	ldd	r24, Z+13	; 0x0d
    ad0a:	96 85       	ldd	r25, Z+14	; 0x0e
    ad0c:	00 97       	sbiw	r24, 0x00	; 0
    ad0e:	41 f0       	breq	.+16     	; 0xad20 <explode_tile+0x4e>
	{
		SetTile(ta->anims[ta->next_available].tile_index % 30, 3 + ta->anims[ta->next_available].tile_index / 30, 0);
    ad10:	b7 01       	movw	r22, r14
    ad12:	0e 94 9a 72 	call	0xe534	; 0xe534 <__divmodhi4>
    ad16:	6d 5f       	subi	r22, 0xFD	; 253
    ad18:	40 e0       	ldi	r20, 0x00	; 0
    ad1a:	50 e0       	ldi	r21, 0x00	; 0
    ad1c:	0e 94 37 3a 	call	0x746e	; 0x746e <SetTile>
	}
	ta->anims[ta->next_available].tile_index = tile_index;
    ad20:	88 81       	ld	r24, Y
    ad22:	fe 01       	movw	r30, r28
    ad24:	9e e0       	ldi	r25, 0x0E	; 14
    ad26:	89 9f       	mul	r24, r25
    ad28:	e0 0d       	add	r30, r0
    ad2a:	f1 1d       	adc	r31, r1
    ad2c:	11 24       	eor	r1, r1
    ad2e:	16 87       	std	Z+14, r17	; 0x0e
    ad30:	05 87       	std	Z+13, r16	; 0x0d
	ta->anims[ta->next_available].anim.current_anim = 0;
    ad32:	11 82       	std	Z+1, r1	; 0x01
	ta->next_available++;
    ad34:	8f 5f       	subi	r24, 0xFF	; 255
	if (ta->next_available == TILE_ANIMATIONS_LENGTH)
    ad36:	82 30       	cpi	r24, 0x02	; 2
    ad38:	11 f0       	breq	.+4      	; 0xad3e <explode_tile+0x6c>
	{
		SetTile(ta->anims[ta->next_available].tile_index % 30, 3 + ta->anims[ta->next_available].tile_index / 30, 0);
	}
	ta->anims[ta->next_available].tile_index = tile_index;
	ta->anims[ta->next_available].anim.current_anim = 0;
	ta->next_available++;
    ad3a:	88 83       	st	Y, r24
    ad3c:	01 c0       	rjmp	.+2      	; 0xad40 <explode_tile+0x6e>
	if (ta->next_available == TILE_ANIMATIONS_LENGTH)
	{
		ta->next_available = 0;
    ad3e:	18 82       	st	Y, r1
	}
}
    ad40:	df 91       	pop	r29
    ad42:	cf 91       	pop	r28
    ad44:	1f 91       	pop	r17
    ad46:	0f 91       	pop	r16
    ad48:	ff 90       	pop	r15
    ad4a:	ef 90       	pop	r14
    ad4c:	08 95       	ret

0000ad4e <richochet>:

void richochet(u8 tile_type, SpriteShared* sprite)
{	
    ad4e:	fb 01       	movw	r30, r22
	switch (tile_type)
    ad50:	84 30       	cpi	r24, 0x04	; 4
    ad52:	71 f0       	breq	.+28     	; 0xad70 <richochet+0x22>
    ad54:	18 f4       	brcc	.+6      	; 0xad5c <richochet+0xe>
    ad56:	83 30       	cpi	r24, 0x03	; 3
    ad58:	31 f0       	breq	.+12     	; 0xad66 <richochet+0x18>
    ad5a:	08 95       	ret
    ad5c:	85 30       	cpi	r24, 0x05	; 5
    ad5e:	99 f0       	breq	.+38     	; 0xad86 <richochet+0x38>
    ad60:	86 30       	cpi	r24, 0x06	; 6
    ad62:	59 f0       	breq	.+22     	; 0xad7a <richochet+0x2c>
    ad64:	08 95       	ret
	{
		case L_TL:
			if (sprite->direction == D_UP || sprite->direction == D_DOWN)
    ad66:	80 81       	ld	r24, Z
    ad68:	8d 7f       	andi	r24, 0xFD	; 253
    ad6a:	29 f4       	brne	.+10     	; 0xad76 <richochet+0x28>
				sprite->direction = D_RIGHT;
    ad6c:	81 e0       	ldi	r24, 0x01	; 1
    ad6e:	09 c0       	rjmp	.+18     	; 0xad82 <richochet+0x34>
			else
				sprite->direction = D_DOWN;
			break;
		case L_TR:
			if (sprite->direction == D_UP || sprite->direction == D_DOWN)
    ad70:	80 81       	ld	r24, Z
    ad72:	8d 7f       	andi	r24, 0xFD	; 253
    ad74:	29 f0       	breq	.+10     	; 0xad80 <richochet+0x32>
	{
		case L_TL:
			if (sprite->direction == D_UP || sprite->direction == D_DOWN)
				sprite->direction = D_RIGHT;
			else
				sprite->direction = D_DOWN;
    ad76:	82 e0       	ldi	r24, 0x02	; 2
    ad78:	04 c0       	rjmp	.+8      	; 0xad82 <richochet+0x34>
				sprite->direction = D_RIGHT;
			else
				sprite->direction = D_UP;
			break;
		case L_BR:
			if (sprite->direction == D_DOWN || sprite->direction == D_UP)
    ad7a:	80 81       	ld	r24, Z
    ad7c:	8d 7f       	andi	r24, 0xFD	; 253
    ad7e:	31 f4       	brne	.+12     	; 0xad8c <richochet+0x3e>
			else
				sprite->direction = D_DOWN;
			break;
		case L_TR:
			if (sprite->direction == D_UP || sprite->direction == D_DOWN)
				sprite->direction = D_LEFT;
    ad80:	83 e0       	ldi	r24, 0x03	; 3
    ad82:	80 83       	st	Z, r24
    ad84:	08 95       	ret
			else
				sprite->direction = D_DOWN;
			break;
		case L_BL:
			if (sprite->direction == D_DOWN || sprite->direction == D_UP)
    ad86:	80 81       	ld	r24, Z
    ad88:	8d 7f       	andi	r24, 0xFD	; 253
    ad8a:	81 f3       	breq	.-32     	; 0xad6c <richochet+0x1e>
				sprite->direction = D_RIGHT;
			else
				sprite->direction = D_UP;
    ad8c:	10 82       	st	Z, r1
    ad8e:	08 95       	ret

0000ad90 <get_interesting_tile_indexes>:
        LBPlaySound(game.selection, player1.flags, player2.flags, PATCH_METAL);
	}
}

void get_interesting_tile_indexes(int* tiles, u8 x, u8 y, u8 direction)
{
    ad90:	fc 01       	movw	r30, r24
	u16 tile_root = (y * 30) + x;
    ad92:	70 e0       	ldi	r23, 0x00	; 0
    ad94:	8e e1       	ldi	r24, 0x1E	; 30
    ad96:	48 9f       	mul	r20, r24
    ad98:	60 0d       	add	r22, r0
    ad9a:	71 1d       	adc	r23, r1
    ad9c:	11 24       	eor	r1, r1
	if (direction == D_UP)
    ad9e:	21 11       	cpse	r18, r1
    ada0:	09 c0       	rjmp	.+18     	; 0xadb4 <get_interesting_tile_indexes+0x24>
	{
		tiles[0] = tile_root;
    ada2:	71 83       	std	Z+1, r23	; 0x01
    ada4:	60 83       	st	Z, r22
		tiles[1] = tiles[0]+1;
    ada6:	cb 01       	movw	r24, r22
    ada8:	01 96       	adiw	r24, 0x01	; 1
    adaa:	93 83       	std	Z+3, r25	; 0x03
    adac:	82 83       	std	Z+2, r24	; 0x02
		tiles[2] = tiles[0]+2;
    adae:	6e 5f       	subi	r22, 0xFE	; 254
    adb0:	7f 4f       	sbci	r23, 0xFF	; 255
    adb2:	12 c0       	rjmp	.+36     	; 0xadd8 <get_interesting_tile_indexes+0x48>
	}
	else if (direction == D_RIGHT)
	{
		tiles[0] = tile_root + 2;
    adb4:	cb 01       	movw	r24, r22
	{
		tiles[0] = tile_root;
		tiles[1] = tiles[0]+1;
		tiles[2] = tiles[0]+2;
	}
	else if (direction == D_RIGHT)
    adb6:	21 30       	cpi	r18, 0x01	; 1
    adb8:	29 f4       	brne	.+10     	; 0xadc4 <get_interesting_tile_indexes+0x34>
	{
		tiles[0] = tile_root + 2;
    adba:	02 96       	adiw	r24, 0x02	; 2
    adbc:	91 83       	std	Z+1, r25	; 0x01
    adbe:	80 83       	st	Z, r24
		tiles[1] = tiles[0]+30;
    adc0:	4e 96       	adiw	r24, 0x1e	; 30
    adc2:	06 c0       	rjmp	.+12     	; 0xadd0 <get_interesting_tile_indexes+0x40>
    adc4:	cc 96       	adiw	r24, 0x3c	; 60
		tiles[2] = tiles[0]+60;
	}
	else if (direction == D_DOWN)
    adc6:	22 30       	cpi	r18, 0x02	; 2
    adc8:	51 f4       	brne	.+20     	; 0xadde <get_interesting_tile_indexes+0x4e>
	{
		tiles[0] = tile_root + 60;
    adca:	91 83       	std	Z+1, r25	; 0x01
    adcc:	80 83       	st	Z, r24
		tiles[1] = tiles[0]+1;
    adce:	01 96       	adiw	r24, 0x01	; 1
    add0:	93 83       	std	Z+3, r25	; 0x03
    add2:	82 83       	std	Z+2, r24	; 0x02
		tiles[2] = tiles[0]+2;
    add4:	62 5c       	subi	r22, 0xC2	; 194
    add6:	7f 4f       	sbci	r23, 0xFF	; 255
    add8:	75 83       	std	Z+5, r23	; 0x05
    adda:	64 83       	std	Z+4, r22	; 0x04
    addc:	08 95       	ret
	}
	else
	{
		tiles[0] = tile_root;
    adde:	71 83       	std	Z+1, r23	; 0x01
    ade0:	60 83       	st	Z, r22
		tiles[1] = tiles[0]+30;
    ade2:	62 5e       	subi	r22, 0xE2	; 226
    ade4:	7f 4f       	sbci	r23, 0xFF	; 255
    ade6:	73 83       	std	Z+3, r23	; 0x03
    ade8:	62 83       	std	Z+2, r22	; 0x02
		tiles[2] = tiles[0]+60;
    adea:	95 83       	std	Z+5, r25	; 0x05
    adec:	84 83       	std	Z+4, r24	; 0x04
    adee:	08 95       	ret

0000adf0 <explode_player>:
	}
}

void explode_player(Player* player, Player* other_player, u8 hud_x, u8 other_player_hud_x)
{
    adf0:	1f 93       	push	r17
    adf2:	cf 93       	push	r28
    adf4:	df 93       	push	r29
    adf6:	fc 01       	movw	r30, r24
    adf8:	db 01       	movw	r26, r22
	if (!(other_player->flags & EXPLODING_FLAG))
    adfa:	55 96       	adiw	r26, 0x15	; 21
    adfc:	8c 91       	ld	r24, X
    adfe:	55 97       	sbiw	r26, 0x15	; 21
    ae00:	80 fd       	sbrc	r24, 0
    ae02:	13 c0       	rjmp	.+38     	; 0xae2a <explode_player+0x3a>
    ae04:	12 2f       	mov	r17, r18
    ae06:	64 2f       	mov	r22, r20
    ae08:	ed 01       	movw	r28, r26
	{
		player->level_score++;
    ae0a:	80 89       	ldd	r24, Z+16	; 0x10
    ae0c:	8f 5f       	subi	r24, 0xFF	; 255
    ae0e:	80 8b       	std	Z+16, r24	; 0x10
		player->score++;
    ae10:	87 85       	ldd	r24, Z+15	; 0x0f
    ae12:	8f 5f       	subi	r24, 0xFF	; 255
    ae14:	87 87       	std	Z+15, r24	; 0x0f
		render_score(player, hud_x);
    ae16:	cf 01       	movw	r24, r30
    ae18:	0e 94 f5 51 	call	0xa3ea	; 0xa3ea <render_score>
		kill_player(other_player, other_player_hud_x);
    ae1c:	61 2f       	mov	r22, r17
    ae1e:	ce 01       	movw	r24, r28
	}
}
    ae20:	df 91       	pop	r29
    ae22:	cf 91       	pop	r28
    ae24:	1f 91       	pop	r17
	if (!(other_player->flags & EXPLODING_FLAG))
	{
		player->level_score++;
		player->score++;
		render_score(player, hud_x);
		kill_player(other_player, other_player_hud_x);
    ae26:	0c 94 ef 55 	jmp	0xabde	; 0xabde <kill_player>
	}
}
    ae2a:	df 91       	pop	r29
    ae2c:	cf 91       	pop	r28
    ae2e:	1f 91       	pop	r17
    ae30:	08 95       	ret

0000ae32 <slide>:

void slide(Player* player, u8 collision_tile, int tile)
{
    ae32:	cf 92       	push	r12
    ae34:	df 92       	push	r13
    ae36:	ef 92       	push	r14
    ae38:	ff 92       	push	r15
    ae3a:	cf 93       	push	r28
    ae3c:	df 93       	push	r29
    ae3e:	ec 01       	movw	r28, r24
    ae40:	26 2f       	mov	r18, r22
	u8 tile_x = (tile % 30 * 8);
	u8 tile_y = (tile / 30 + 3) * 8;
	if (player->shared.direction == D_UP || player->shared.direction == D_DOWN)
    ae42:	98 81       	ld	r25, Y
    ae44:	9d 7f       	andi	r25, 0xFD	; 253
    ae46:	09 f0       	breq	.+2      	; 0xae4a <slide+0x18>
    ae48:	54 c0       	rjmp	.+168    	; 0xaef2 <slide+0xc0>
	}
}

void slide(Player* player, u8 collision_tile, int tile)
{
	u8 tile_x = (tile % 30 * 8);
    ae4a:	ca 01       	movw	r24, r20
    ae4c:	6e e1       	ldi	r22, 0x1E	; 30
    ae4e:	70 e0       	ldi	r23, 0x00	; 0
    ae50:	0e 94 9a 72 	call	0xe534	; 0xe534 <__divmodhi4>
    ae54:	88 0f       	add	r24, r24
    ae56:	88 0f       	add	r24, r24
    ae58:	88 0f       	add	r24, r24
	u8 tile_y = (tile / 30 + 3) * 8;
	if (player->shared.direction == D_UP || player->shared.direction == D_DOWN)
	{
		if (collision_tile == 0 && ((player->shared.x - tile_x) > 4))
    ae5a:	21 11       	cpse	r18, r1
    ae5c:	22 c0       	rjmp	.+68     	; 0xaea2 <slide+0x70>
    ae5e:	cb 80       	ldd	r12, Y+3	; 0x03
    ae60:	dc 80       	ldd	r13, Y+4	; 0x04
    ae62:	ed 80       	ldd	r14, Y+5	; 0x05
    ae64:	fe 80       	ldd	r15, Y+6	; 0x06
    ae66:	68 2f       	mov	r22, r24
    ae68:	70 e0       	ldi	r23, 0x00	; 0
    ae6a:	80 e0       	ldi	r24, 0x00	; 0
    ae6c:	90 e0       	ldi	r25, 0x00	; 0
    ae6e:	0e 94 b2 73 	call	0xe764	; 0xe764 <__floatsisf>
    ae72:	9b 01       	movw	r18, r22
    ae74:	ac 01       	movw	r20, r24
    ae76:	c7 01       	movw	r24, r14
    ae78:	b6 01       	movw	r22, r12
    ae7a:	0e 94 ae 72 	call	0xe55c	; 0xe55c <__subsf3>
    ae7e:	20 e0       	ldi	r18, 0x00	; 0
    ae80:	30 e0       	ldi	r19, 0x00	; 0
    ae82:	40 e8       	ldi	r20, 0x80	; 128
    ae84:	50 e4       	ldi	r21, 0x40	; 64
    ae86:	0e 94 62 74 	call	0xe8c4	; 0xe8c4 <__gesf2>
    ae8a:	18 16       	cp	r1, r24
    ae8c:	0c f0       	brlt	.+2      	; 0xae90 <slide+0x5e>
    ae8e:	85 c0       	rjmp	.+266    	; 0xaf9a <slide+0x168>
			player->shared.x++; 
    ae90:	20 e0       	ldi	r18, 0x00	; 0
    ae92:	30 e0       	ldi	r19, 0x00	; 0
    ae94:	40 e8       	ldi	r20, 0x80	; 128
    ae96:	5f e3       	ldi	r21, 0x3F	; 63
    ae98:	c7 01       	movw	r24, r14
    ae9a:	b6 01       	movw	r22, r12
    ae9c:	0e 94 af 72 	call	0xe55e	; 0xe55e <__addsf3>
    aea0:	23 c0       	rjmp	.+70     	; 0xaee8 <slide+0xb6>
		else if (collision_tile == 2 && ((player->shared.x - tile_x) < -12))
    aea2:	22 30       	cpi	r18, 0x02	; 2
    aea4:	09 f0       	breq	.+2      	; 0xaea8 <slide+0x76>
    aea6:	79 c0       	rjmp	.+242    	; 0xaf9a <slide+0x168>
    aea8:	cb 80       	ldd	r12, Y+3	; 0x03
    aeaa:	dc 80       	ldd	r13, Y+4	; 0x04
    aeac:	ed 80       	ldd	r14, Y+5	; 0x05
    aeae:	fe 80       	ldd	r15, Y+6	; 0x06
    aeb0:	68 2f       	mov	r22, r24
    aeb2:	70 e0       	ldi	r23, 0x00	; 0
    aeb4:	80 e0       	ldi	r24, 0x00	; 0
    aeb6:	90 e0       	ldi	r25, 0x00	; 0
    aeb8:	0e 94 b2 73 	call	0xe764	; 0xe764 <__floatsisf>
    aebc:	9b 01       	movw	r18, r22
    aebe:	ac 01       	movw	r20, r24
    aec0:	c7 01       	movw	r24, r14
    aec2:	b6 01       	movw	r22, r12
    aec4:	0e 94 ae 72 	call	0xe55c	; 0xe55c <__subsf3>
    aec8:	20 e0       	ldi	r18, 0x00	; 0
    aeca:	30 e0       	ldi	r19, 0x00	; 0
    aecc:	40 e4       	ldi	r20, 0x40	; 64
    aece:	51 ec       	ldi	r21, 0xC1	; 193
    aed0:	0e 94 13 73 	call	0xe626	; 0xe626 <__cmpsf2>
    aed4:	87 ff       	sbrs	r24, 7
    aed6:	61 c0       	rjmp	.+194    	; 0xaf9a <slide+0x168>
			player->shared.x--;
    aed8:	20 e0       	ldi	r18, 0x00	; 0
    aeda:	30 e0       	ldi	r19, 0x00	; 0
    aedc:	40 e8       	ldi	r20, 0x80	; 128
    aede:	5f e3       	ldi	r21, 0x3F	; 63
    aee0:	c7 01       	movw	r24, r14
    aee2:	b6 01       	movw	r22, r12
    aee4:	0e 94 ae 72 	call	0xe55c	; 0xe55c <__subsf3>
    aee8:	6b 83       	std	Y+3, r22	; 0x03
    aeea:	7c 83       	std	Y+4, r23	; 0x04
    aeec:	8d 83       	std	Y+5, r24	; 0x05
    aeee:	9e 83       	std	Y+6, r25	; 0x06
    aef0:	54 c0       	rjmp	.+168    	; 0xaf9a <slide+0x168>
}

void slide(Player* player, u8 collision_tile, int tile)
{
	u8 tile_x = (tile % 30 * 8);
	u8 tile_y = (tile / 30 + 3) * 8;
    aef2:	ca 01       	movw	r24, r20
    aef4:	6e e1       	ldi	r22, 0x1E	; 30
    aef6:	70 e0       	ldi	r23, 0x00	; 0
    aef8:	0e 94 9a 72 	call	0xe534	; 0xe534 <__divmodhi4>
    aefc:	ab 01       	movw	r20, r22
    aefe:	4d 5f       	subi	r20, 0xFD	; 253
    af00:	5f 4f       	sbci	r21, 0xFF	; 255
    af02:	44 0f       	add	r20, r20
    af04:	44 0f       	add	r20, r20
    af06:	44 0f       	add	r20, r20
		else if (collision_tile == 2 && ((player->shared.x - tile_x) < -12))
			player->shared.x--;
	}
	else
	{
		if (collision_tile == 0 && ((player->shared.y - tile_y) > 4))
    af08:	21 11       	cpse	r18, r1
    af0a:	21 c0       	rjmp	.+66     	; 0xaf4e <slide+0x11c>
    af0c:	cf 80       	ldd	r12, Y+7	; 0x07
    af0e:	d8 84       	ldd	r13, Y+8	; 0x08
    af10:	e9 84       	ldd	r14, Y+9	; 0x09
    af12:	fa 84       	ldd	r15, Y+10	; 0x0a
    af14:	64 2f       	mov	r22, r20
    af16:	70 e0       	ldi	r23, 0x00	; 0
    af18:	80 e0       	ldi	r24, 0x00	; 0
    af1a:	90 e0       	ldi	r25, 0x00	; 0
    af1c:	0e 94 b2 73 	call	0xe764	; 0xe764 <__floatsisf>
    af20:	9b 01       	movw	r18, r22
    af22:	ac 01       	movw	r20, r24
    af24:	c7 01       	movw	r24, r14
    af26:	b6 01       	movw	r22, r12
    af28:	0e 94 ae 72 	call	0xe55c	; 0xe55c <__subsf3>
    af2c:	20 e0       	ldi	r18, 0x00	; 0
    af2e:	30 e0       	ldi	r19, 0x00	; 0
    af30:	40 e8       	ldi	r20, 0x80	; 128
    af32:	50 e4       	ldi	r21, 0x40	; 64
    af34:	0e 94 62 74 	call	0xe8c4	; 0xe8c4 <__gesf2>
    af38:	18 16       	cp	r1, r24
    af3a:	7c f5       	brge	.+94     	; 0xaf9a <slide+0x168>
			player->shared.y++;
    af3c:	20 e0       	ldi	r18, 0x00	; 0
    af3e:	30 e0       	ldi	r19, 0x00	; 0
    af40:	40 e8       	ldi	r20, 0x80	; 128
    af42:	5f e3       	ldi	r21, 0x3F	; 63
    af44:	c7 01       	movw	r24, r14
    af46:	b6 01       	movw	r22, r12
    af48:	0e 94 af 72 	call	0xe55e	; 0xe55e <__addsf3>
    af4c:	22 c0       	rjmp	.+68     	; 0xaf92 <slide+0x160>
		else if (collision_tile == 2 && ((player->shared.y - tile_y) < -12))
    af4e:	22 30       	cpi	r18, 0x02	; 2
    af50:	21 f5       	brne	.+72     	; 0xaf9a <slide+0x168>
    af52:	cf 80       	ldd	r12, Y+7	; 0x07
    af54:	d8 84       	ldd	r13, Y+8	; 0x08
    af56:	e9 84       	ldd	r14, Y+9	; 0x09
    af58:	fa 84       	ldd	r15, Y+10	; 0x0a
    af5a:	64 2f       	mov	r22, r20
    af5c:	70 e0       	ldi	r23, 0x00	; 0
    af5e:	80 e0       	ldi	r24, 0x00	; 0
    af60:	90 e0       	ldi	r25, 0x00	; 0
    af62:	0e 94 b2 73 	call	0xe764	; 0xe764 <__floatsisf>
    af66:	9b 01       	movw	r18, r22
    af68:	ac 01       	movw	r20, r24
    af6a:	c7 01       	movw	r24, r14
    af6c:	b6 01       	movw	r22, r12
    af6e:	0e 94 ae 72 	call	0xe55c	; 0xe55c <__subsf3>
    af72:	20 e0       	ldi	r18, 0x00	; 0
    af74:	30 e0       	ldi	r19, 0x00	; 0
    af76:	40 e4       	ldi	r20, 0x40	; 64
    af78:	51 ec       	ldi	r21, 0xC1	; 193
    af7a:	0e 94 13 73 	call	0xe626	; 0xe626 <__cmpsf2>
    af7e:	87 ff       	sbrs	r24, 7
    af80:	0c c0       	rjmp	.+24     	; 0xaf9a <slide+0x168>
			player->shared.y--;
    af82:	20 e0       	ldi	r18, 0x00	; 0
    af84:	30 e0       	ldi	r19, 0x00	; 0
    af86:	40 e8       	ldi	r20, 0x80	; 128
    af88:	5f e3       	ldi	r21, 0x3F	; 63
    af8a:	c7 01       	movw	r24, r14
    af8c:	b6 01       	movw	r22, r12
    af8e:	0e 94 ae 72 	call	0xe55c	; 0xe55c <__subsf3>
    af92:	6f 83       	std	Y+7, r22	; 0x07
    af94:	78 87       	std	Y+8, r23	; 0x08
    af96:	89 87       	std	Y+9, r24	; 0x09
    af98:	9a 87       	std	Y+10, r25	; 0x0a
	}
}
    af9a:	df 91       	pop	r29
    af9c:	cf 91       	pop	r28
    af9e:	ff 90       	pop	r15
    afa0:	ef 90       	pop	r14
    afa2:	df 90       	pop	r13
    afa4:	cf 90       	pop	r12
    afa6:	08 95       	ret

0000afa8 <load_level_tiles>:
	}
	return explode;
}

void load_level_tiles(u8 blank)
{
    afa8:	ef 92       	push	r14
    afaa:	ff 92       	push	r15
    afac:	1f 93       	push	r17
    afae:	cf 93       	push	r28
    afb0:	df 93       	push	r29
    afb2:	18 2f       	mov	r17, r24
	u8 x;
	u8 y;
	
	for (int i = 0; i < 30*25; i++)
    afb4:	c0 e0       	ldi	r28, 0x00	; 0
    afb6:	d0 e0       	ldi	r29, 0x00	; 0
	{
		x = i % 30;
    afb8:	8e e1       	ldi	r24, 0x1E	; 30
    afba:	e8 2e       	mov	r14, r24
    afbc:	f1 2c       	mov	r15, r1
    afbe:	ce 01       	movw	r24, r28
    afc0:	b7 01       	movw	r22, r14
    afc2:	0e 94 9a 72 	call	0xe534	; 0xe534 <__divmodhi4>
		y = 3 + i / 30;
    afc6:	6d 5f       	subi	r22, 0xFD	; 253
		if (blank)
    afc8:	11 23       	and	r17, r17
    afca:	19 f0       	breq	.+6      	; 0xafd2 <load_level_tiles+0x2a>
		{
			DrawMap2(x, y, map_tile_none);
    afcc:	4c e6       	ldi	r20, 0x6C	; 108
    afce:	5b e6       	ldi	r21, 0x6B	; 107
    afd0:	2d c0       	rjmp	.+90     	; 0xb02c <load_level_tiles+0x84>
    afd2:	fe 01       	movw	r30, r28
    afd4:	e8 5a       	subi	r30, 0xA8	; 168
    afd6:	f3 4f       	sbci	r31, 0xF3	; 243
		}
		else
		{
			switch (level.level_map[i])
    afd8:	91 81       	ldd	r25, Z+1	; 0x01
    afda:	97 30       	cpi	r25, 0x07	; 7
    afdc:	99 f1       	breq	.+102    	; 0xb044 <load_level_tiles+0x9c>
    afde:	88 f4       	brcc	.+34     	; 0xb002 <load_level_tiles+0x5a>
    afe0:	93 30       	cpi	r25, 0x03	; 3
    afe2:	39 f1       	breq	.+78     	; 0xb032 <load_level_tiles+0x8a>
    afe4:	40 f4       	brcc	.+16     	; 0xaff6 <load_level_tiles+0x4e>
    afe6:	91 30       	cpi	r25, 0x01	; 1
    afe8:	f9 f0       	breq	.+62     	; 0xb028 <load_level_tiles+0x80>
    afea:	92 30       	cpi	r25, 0x02	; 2
    afec:	09 f0       	breq	.+2      	; 0xaff0 <load_level_tiles+0x48>
    afee:	3f c0       	rjmp	.+126    	; 0xb06e <load_level_tiles+0xc6>
			{
				case L_BRICK: DrawMap2(x, y, map_brick); break;
				case L_METAL: DrawMap2(x, y, map_metal); break;
    aff0:	42 ed       	ldi	r20, 0xD2	; 210
    aff2:	5a e6       	ldi	r21, 0x6A	; 106
    aff4:	1b c0       	rjmp	.+54     	; 0xb02c <load_level_tiles+0x84>
		{
			DrawMap2(x, y, map_tile_none);
		}
		else
		{
			switch (level.level_map[i])
    aff6:	95 30       	cpi	r25, 0x05	; 5
    aff8:	f9 f0       	breq	.+62     	; 0xb038 <load_level_tiles+0x90>
    affa:	08 f5       	brcc	.+66     	; 0xb03e <load_level_tiles+0x96>
			{
				case L_BRICK: DrawMap2(x, y, map_brick); break;
				case L_METAL: DrawMap2(x, y, map_metal); break;
				case L_TL: DrawMap2(x, y, map_metal_tl); break;
				case L_TR: DrawMap2(x, y, map_metal_tr); break;
    affc:	47 eb       	ldi	r20, 0xB7	; 183
    affe:	5a e6       	ldi	r21, 0x6A	; 106
    b000:	15 c0       	rjmp	.+42     	; 0xb02c <load_level_tiles+0x84>
		{
			DrawMap2(x, y, map_tile_none);
		}
		else
		{
			switch (level.level_map[i])
    b002:	9c 32       	cpi	r25, 0x2C	; 44
    b004:	59 f1       	breq	.+86     	; 0xb05c <load_level_tiles+0xb4>
    b006:	38 f4       	brcc	.+14     	; 0xb016 <load_level_tiles+0x6e>
    b008:	98 30       	cpi	r25, 0x08	; 8
    b00a:	f9 f0       	breq	.+62     	; 0xb04a <load_level_tiles+0xa2>
    b00c:	99 30       	cpi	r25, 0x09	; 9
    b00e:	79 f5       	brne	.+94     	; 0xb06e <load_level_tiles+0xc6>
				case L_TR: DrawMap2(x, y, map_metal_tr); break;
				case L_BL: DrawMap2(x, y, map_metal_bl); break;
				case L_BR: DrawMap2(x, y, map_metal_br); break;
				case L_SPEED: DrawMap2(x, y, map_speed_itm); break;
				case L_EXPLODE: DrawMap2(x, y, map_explode_itm); break;
				case L_ROCKET: DrawMap2(x, y, map_rocket_itm); break;
    b010:	49 ec       	ldi	r20, 0xC9	; 201
    b012:	5a e6       	ldi	r21, 0x6A	; 106
    b014:	0b c0       	rjmp	.+22     	; 0xb02c <load_level_tiles+0x84>
		{
			DrawMap2(x, y, map_tile_none);
		}
		else
		{
			switch (level.level_map[i])
    b016:	92 34       	cpi	r25, 0x42	; 66
    b018:	d9 f0       	breq	.+54     	; 0xb050 <load_level_tiles+0xa8>
    b01a:	9d 34       	cpi	r25, 0x4D	; 77
    b01c:	e1 f0       	breq	.+56     	; 0xb056 <load_level_tiles+0xae>
    b01e:	97 33       	cpi	r25, 0x37	; 55
    b020:	31 f5       	brne	.+76     	; 0xb06e <load_level_tiles+0xc6>
				case L_EXPLODE: DrawMap2(x, y, map_explode_itm); break;
				case L_ROCKET: DrawMap2(x, y, map_rocket_itm); break;
				case L_TURF: DrawMap2(x, y, map_turf); break;
				case L_WATER: DrawMap2(x, y, map_water); break;
				case L_SCOPE: DrawMap2(x, y, map_water); scope_animation.tile_index = i; break;
				case L_FENCE: DrawMap2(x, y, map_fence); break;
    b022:	4b ea       	ldi	r20, 0xAB	; 171
    b024:	5a e6       	ldi	r21, 0x6A	; 106
    b026:	02 c0       	rjmp	.+4      	; 0xb02c <load_level_tiles+0x84>
		}
		else
		{
			switch (level.level_map[i])
			{
				case L_BRICK: DrawMap2(x, y, map_brick); break;
    b028:	45 ed       	ldi	r20, 0xD5	; 213
    b02a:	5a e6       	ldi	r21, 0x6A	; 106
    b02c:	0e 94 6c 48 	call	0x90d8	; 0x90d8 <DrawMap>
    b030:	22 c0       	rjmp	.+68     	; 0xb076 <load_level_tiles+0xce>
				case L_METAL: DrawMap2(x, y, map_metal); break;
				case L_TL: DrawMap2(x, y, map_metal_tl); break;
    b032:	4d eb       	ldi	r20, 0xBD	; 189
    b034:	5a e6       	ldi	r21, 0x6A	; 106
    b036:	fa cf       	rjmp	.-12     	; 0xb02c <load_level_tiles+0x84>
				case L_TR: DrawMap2(x, y, map_metal_tr); break;
				case L_BL: DrawMap2(x, y, map_metal_bl); break;
    b038:	44 eb       	ldi	r20, 0xB4	; 180
    b03a:	5a e6       	ldi	r21, 0x6A	; 106
    b03c:	f7 cf       	rjmp	.-18     	; 0xb02c <load_level_tiles+0x84>
				case L_BR: DrawMap2(x, y, map_metal_br); break;
    b03e:	4a eb       	ldi	r20, 0xBA	; 186
    b040:	5a e6       	ldi	r21, 0x6A	; 106
    b042:	f4 cf       	rjmp	.-24     	; 0xb02c <load_level_tiles+0x84>
				case L_SPEED: DrawMap2(x, y, map_speed_itm); break;
    b044:	4f ec       	ldi	r20, 0xCF	; 207
    b046:	5a e6       	ldi	r21, 0x6A	; 106
    b048:	f1 cf       	rjmp	.-30     	; 0xb02c <load_level_tiles+0x84>
				case L_EXPLODE: DrawMap2(x, y, map_explode_itm); break;
    b04a:	4c ec       	ldi	r20, 0xCC	; 204
    b04c:	5a e6       	ldi	r21, 0x6A	; 106
    b04e:	ee cf       	rjmp	.-36     	; 0xb02c <load_level_tiles+0x84>
				case L_ROCKET: DrawMap2(x, y, map_rocket_itm); break;
				case L_TURF: DrawMap2(x, y, map_turf); break;
    b050:	4e ea       	ldi	r20, 0xAE	; 174
    b052:	5a e6       	ldi	r21, 0x6A	; 106
    b054:	eb cf       	rjmp	.-42     	; 0xb02c <load_level_tiles+0x84>
				case L_WATER: DrawMap2(x, y, map_water); break;
    b056:	41 eb       	ldi	r20, 0xB1	; 177
    b058:	5a e6       	ldi	r21, 0x6A	; 106
    b05a:	e8 cf       	rjmp	.-48     	; 0xb02c <load_level_tiles+0x84>
				case L_SCOPE: DrawMap2(x, y, map_water); scope_animation.tile_index = i; break;
    b05c:	41 eb       	ldi	r20, 0xB1	; 177
    b05e:	5a e6       	ldi	r21, 0x6A	; 106
    b060:	0e 94 6c 48 	call	0x90d8	; 0x90d8 <DrawMap>
    b064:	d0 93 de 0f 	sts	0x0FDE, r29
    b068:	c0 93 dd 0f 	sts	0x0FDD, r28
    b06c:	04 c0       	rjmp	.+8      	; 0xb076 <load_level_tiles+0xce>
				case L_FENCE: DrawMap2(x, y, map_fence); break;
				default : SetTile(x, y, 0); break;
    b06e:	40 e0       	ldi	r20, 0x00	; 0
    b070:	50 e0       	ldi	r21, 0x00	; 0
    b072:	0e 94 37 3a 	call	0x746e	; 0x746e <SetTile>
void load_level_tiles(u8 blank)
{
	u8 x;
	u8 y;
	
	for (int i = 0; i < 30*25; i++)
    b076:	21 96       	adiw	r28, 0x01	; 1
    b078:	ce 3e       	cpi	r28, 0xEE	; 238
    b07a:	82 e0       	ldi	r24, 0x02	; 2
    b07c:	d8 07       	cpc	r29, r24
    b07e:	09 f0       	breq	.+2      	; 0xb082 <load_level_tiles+0xda>
    b080:	9e cf       	rjmp	.-196    	; 0xafbe <load_level_tiles+0x16>
				case L_FENCE: DrawMap2(x, y, map_fence); break;
				default : SetTile(x, y, 0); break;
			}
		}
	}
}
    b082:	df 91       	pop	r29
    b084:	cf 91       	pop	r28
    b086:	1f 91       	pop	r17
    b088:	ff 90       	pop	r15
    b08a:	ef 90       	pop	r14
    b08c:	08 95       	ret

0000b08e <prep_player>:

void prep_player(Player* p, u8 x, u8 y)
{
    b08e:	cf 93       	push	r28
    b090:	df 93       	push	r29
    b092:	ec 01       	movw	r28, r24
	p->spawn_x = x;
    b094:	6b 8b       	std	Y+19, r22	; 0x13
	p->spawn_y = y;
    b096:	4c 8b       	std	Y+20, r20	; 0x14
	p->level_score = 0;
    b098:	18 8a       	std	Y+16, r1	; 0x10
	p->has_over_speed = false;
    b09a:	19 8e       	std	Y+25, r1	; 0x19
	p->has_rocket = false;
    b09c:	18 8e       	std	Y+24, r1	; 0x18
	p->max_speed = MAX_SPEED;
    b09e:	82 e3       	ldi	r24, 0x32	; 50
    b0a0:	8f 8b       	std	Y+23, r24	; 0x17
	player_init_shot_state(p);
    b0a2:	ce 01       	movw	r24, r28
    b0a4:	0e 94 9c 4f 	call	0x9f38	; 0x9f38 <player_init_shot_state>
	player_spawn(p);
    b0a8:	ce 01       	movw	r24, r28
}
    b0aa:	df 91       	pop	r29
    b0ac:	cf 91       	pop	r28
	p->level_score = 0;
	p->has_over_speed = false;
	p->has_rocket = false;
	p->max_speed = MAX_SPEED;
	player_init_shot_state(p);
	player_spawn(p);
    b0ae:	0c 94 ca 4f 	jmp	0x9f94	; 0x9f94 <player_spawn>

0000b0b2 <load_level>:
}

void load_level(int level_number)
{
    b0b2:	8f 92       	push	r8
    b0b4:	9f 92       	push	r9
    b0b6:	af 92       	push	r10
    b0b8:	bf 92       	push	r11
    b0ba:	cf 92       	push	r12
    b0bc:	df 92       	push	r13
    b0be:	ef 92       	push	r14
    b0c0:	ff 92       	push	r15
    b0c2:	0f 93       	push	r16
    b0c4:	1f 93       	push	r17
    b0c6:	cf 93       	push	r28
    b0c8:	df 93       	push	r29
    b0ca:	ec 01       	movw	r28, r24
    int level_start = level_number*30*25;
    b0cc:	8e ee       	ldi	r24, 0xEE	; 238
    b0ce:	92 e0       	ldi	r25, 0x02	; 2
    b0d0:	c8 9f       	mul	r28, r24
    b0d2:	70 01       	movw	r14, r0
    b0d4:	c9 9f       	mul	r28, r25
    b0d6:	f0 0c       	add	r15, r0
    b0d8:	d8 9f       	mul	r29, r24
    b0da:	f0 0c       	add	r15, r0
    b0dc:	11 24       	eor	r1, r1
	u8 x;
	u8 y;

	game.scope_counter = 0;
    b0de:	10 92 af 0b 	sts	0x0BAF, r1
    b0e2:	10 92 ae 0b 	sts	0x0BAE, r1
	init_tile_animations(&tile_animations);
    b0e6:	87 eb       	ldi	r24, 0xB7	; 183
    b0e8:	9b e0       	ldi	r25, 0x0B	; 11
    b0ea:	0e 94 56 4e 	call	0x9cac	; 0x9cac <init_tile_animations>
	init_scope_animation(&scope_animation);
    b0ee:	81 ed       	ldi	r24, 0xD1	; 209
    b0f0:	9f e0       	ldi	r25, 0x0F	; 15
    b0f2:	0e 94 7d 4e 	call	0x9cfa	; 0x9cfa <init_scope_animation>
	init_sub_animation(&sub_animation);
    b0f6:	83 ec       	ldi	r24, 0xC3	; 195
    b0f8:	9f e0       	ldi	r25, 0x0F	; 15
    b0fa:	0e 94 95 4e 	call	0x9d2a	; 0x9d2a <init_sub_animation>
	game.current_screen = LEVEL;
    b0fe:	83 e0       	ldi	r24, 0x03	; 3
    b100:	80 93 a3 0b 	sts	0x0BA3, r24
	clear_sprites();
    b104:	0e 94 16 50 	call	0xa02c	; 0xa02c <clear_sprites>
	game.current_level = level_number;
    b108:	c0 93 a4 0b 	sts	0x0BA4, r28
    b10c:	89 e5       	ldi	r24, 0x59	; 89
    b10e:	a8 2e       	mov	r10, r24
    b110:	8c e0       	ldi	r24, 0x0C	; 12
    b112:	b8 2e       	mov	r11, r24
	for (int i = 0; i < 30*25; i++)
    b114:	00 e0       	ldi	r16, 0x00	; 0
    b116:	10 e0       	ldi	r17, 0x00	; 0
	{
		x = (i % 30) * 8;
    b118:	9e e1       	ldi	r25, 0x1E	; 30
    b11a:	c9 2e       	mov	r12, r25
    b11c:	d1 2c       	mov	r13, r1
    b11e:	c8 01       	movw	r24, r16
    b120:	b6 01       	movw	r22, r12
    b122:	0e 94 9a 72 	call	0xe534	; 0xe534 <__divmodhi4>
    b126:	d8 2f       	mov	r29, r24
    b128:	dd 0f       	add	r29, r29
    b12a:	dd 0f       	add	r29, r29
    b12c:	dd 0f       	add	r29, r29
		y = (i / 30 + 3) * 8;
    b12e:	ab 01       	movw	r20, r22
    b130:	4d 5f       	subi	r20, 0xFD	; 253
    b132:	5f 4f       	sbci	r21, 0xFF	; 255
    b134:	c4 2f       	mov	r28, r20
    b136:	cc 0f       	add	r28, r28
    b138:	cc 0f       	add	r28, r28
    b13a:	cc 0f       	add	r28, r28
    b13c:	f8 01       	movw	r30, r16
    b13e:	ee 0d       	add	r30, r14
    b140:	ff 1d       	adc	r31, r15
    b142:	e1 56       	subi	r30, 0x61	; 97
    b144:	f8 4f       	sbci	r31, 0xF8	; 248
		level.level_map[i] = pgm_read_byte(&level_data[level_start+i]);
    b146:	e4 91       	lpm	r30, Z
    b148:	45 01       	movw	r8, r10
    b14a:	d5 01       	movw	r26, r10
    b14c:	ec 93       	st	X, r30
		if (level.level_map[i] == L_P1_SPAWN)
    b14e:	e8 35       	cpi	r30, 0x58	; 88
    b150:	31 f4       	brne	.+12     	; 0xb15e <load_level+0xac>
		{
			prep_player(&player1, x, y);
    b152:	4c 2f       	mov	r20, r28
    b154:	6d 2f       	mov	r22, r29
    b156:	85 ed       	ldi	r24, 0xD5	; 213
    b158:	9b e0       	ldi	r25, 0x0B	; 11
    b15a:	0e 94 47 58 	call	0xb08e	; 0xb08e <prep_player>
    b15e:	bf ef       	ldi	r27, 0xFF	; 255
    b160:	ab 1a       	sub	r10, r27
    b162:	bb 0a       	sbc	r11, r27
		}
		if (level.level_map[i] == L_P2_SPAWN)
    b164:	f4 01       	movw	r30, r8
    b166:	80 81       	ld	r24, Z
    b168:	83 36       	cpi	r24, 0x63	; 99
    b16a:	31 f4       	brne	.+12     	; 0xb178 <load_level+0xc6>
		{
			prep_player(&player2, x, y);
    b16c:	4c 2f       	mov	r20, r28
    b16e:	6d 2f       	mov	r22, r29
    b170:	87 e4       	ldi	r24, 0x47	; 71
    b172:	9f e0       	ldi	r25, 0x0F	; 15
    b174:	0e 94 47 58 	call	0xb08e	; 0xb08e <prep_player>
	init_scope_animation(&scope_animation);
	init_sub_animation(&sub_animation);
	game.current_screen = LEVEL;
	clear_sprites();
	game.current_level = level_number;
	for (int i = 0; i < 30*25; i++)
    b178:	0f 5f       	subi	r16, 0xFF	; 255
    b17a:	1f 4f       	sbci	r17, 0xFF	; 255
    b17c:	0e 3e       	cpi	r16, 0xEE	; 238
    b17e:	f2 e0       	ldi	r31, 0x02	; 2
    b180:	1f 07       	cpc	r17, r31
    b182:	69 f6       	brne	.-102    	; 0xb11e <load_level+0x6c>
		if (level.level_map[i] == L_P2_SPAWN)
		{
			prep_player(&player2, x, y);
		}
	}
	render_hud(&player1, 0);
    b184:	60 e0       	ldi	r22, 0x00	; 0
    b186:	85 ed       	ldi	r24, 0xD5	; 213
    b188:	9b e0       	ldi	r25, 0x0B	; 11
    b18a:	0e 94 d8 51 	call	0xa3b0	; 0xa3b0 <render_hud>
	render_hud(&player2, 15);
    b18e:	6f e0       	ldi	r22, 0x0F	; 15
    b190:	87 e4       	ldi	r24, 0x47	; 71
    b192:	9f e0       	ldi	r25, 0x0F	; 15
    b194:	0e 94 d8 51 	call	0xa3b0	; 0xa3b0 <render_hud>
	render_score(&player1, 0);
    b198:	60 e0       	ldi	r22, 0x00	; 0
    b19a:	85 ed       	ldi	r24, 0xD5	; 213
    b19c:	9b e0       	ldi	r25, 0x0B	; 11
    b19e:	0e 94 f5 51 	call	0xa3ea	; 0xa3ea <render_score>
	render_score(&player2, 15);
    b1a2:	6f e0       	ldi	r22, 0x0F	; 15
    b1a4:	87 e4       	ldi	r24, 0x47	; 71
    b1a6:	9f e0       	ldi	r25, 0x0F	; 15
    b1a8:	0e 94 f5 51 	call	0xa3ea	; 0xa3ea <render_score>
	Print(14, 0, (char*) strVertSep);
    b1ac:	4f e3       	ldi	r20, 0x3F	; 63
    b1ae:	54 e0       	ldi	r21, 0x04	; 4
    b1b0:	60 e0       	ldi	r22, 0x00	; 0
    b1b2:	70 e0       	ldi	r23, 0x00	; 0
    b1b4:	8e e0       	ldi	r24, 0x0E	; 14
    b1b6:	90 e0       	ldi	r25, 0x00	; 0
    b1b8:	0e 94 ec 48 	call	0x91d8	; 0x91d8 <Print>
	Print(14, 1, (char*) strVertSep);
    b1bc:	4f e3       	ldi	r20, 0x3F	; 63
    b1be:	54 e0       	ldi	r21, 0x04	; 4
    b1c0:	61 e0       	ldi	r22, 0x01	; 1
    b1c2:	70 e0       	ldi	r23, 0x00	; 0
    b1c4:	8e e0       	ldi	r24, 0x0E	; 14
    b1c6:	90 e0       	ldi	r25, 0x00	; 0
    b1c8:	0e 94 ec 48 	call	0x91d8	; 0x91d8 <Print>
	Print(14, 2, (char*) strVertSep);
    b1cc:	4f e3       	ldi	r20, 0x3F	; 63
    b1ce:	54 e0       	ldi	r21, 0x04	; 4
    b1d0:	62 e0       	ldi	r22, 0x02	; 2
    b1d2:	70 e0       	ldi	r23, 0x00	; 0
    b1d4:	8e e0       	ldi	r24, 0x0E	; 14
    b1d6:	90 e0       	ldi	r25, 0x00	; 0
    b1d8:	0e 94 ec 48 	call	0x91d8	; 0x91d8 <Print>
	load_level_tiles(false);
    b1dc:	80 e0       	ldi	r24, 0x00	; 0
}
    b1de:	df 91       	pop	r29
    b1e0:	cf 91       	pop	r28
    b1e2:	1f 91       	pop	r17
    b1e4:	0f 91       	pop	r16
    b1e6:	ff 90       	pop	r15
    b1e8:	ef 90       	pop	r14
    b1ea:	df 90       	pop	r13
    b1ec:	cf 90       	pop	r12
    b1ee:	bf 90       	pop	r11
    b1f0:	af 90       	pop	r10
    b1f2:	9f 90       	pop	r9
    b1f4:	8f 90       	pop	r8
	render_score(&player1, 0);
	render_score(&player2, 15);
	Print(14, 0, (char*) strVertSep);
	Print(14, 1, (char*) strVertSep);
	Print(14, 2, (char*) strVertSep);
	load_level_tiles(false);
    b1f6:	0c 94 d4 57 	jmp	0xafa8	; 0xafa8 <load_level_tiles>

0000b1fa <level_transition>:
	ClearVram();
	FadeIn(FRAMES_PER_FADE, false);
}

void level_transition(u8 index)
{
    b1fa:	cf 93       	push	r28
    b1fc:	df 93       	push	r29
    b1fe:	c8 2f       	mov	r28, r24
	FadeOut(FRAMES_PER_FADE, true);
    b200:	61 e0       	ldi	r22, 0x01	; 1
    b202:	83 e0       	ldi	r24, 0x03	; 3
    b204:	0e 94 3b 49 	call	0x9276	; 0x9276 <FadeOut>
	ClearVram();
    b208:	0e 94 29 3a 	call	0x7452	; 0x7452 <ClearVram>
	clear_sprites();
    b20c:	0e 94 16 50 	call	0xa02c	; 0xa02c <clear_sprites>
	Print(8, 12, (char*) strLevels+index*16);
    b210:	d0 e0       	ldi	r29, 0x00	; 0
    b212:	ae 01       	movw	r20, r28
    b214:	84 e0       	ldi	r24, 0x04	; 4
    b216:	44 0f       	add	r20, r20
    b218:	55 1f       	adc	r21, r21
    b21a:	8a 95       	dec	r24
    b21c:	e1 f7       	brne	.-8      	; 0xb216 <level_transition+0x1c>
    b21e:	48 5b       	subi	r20, 0xB8	; 184
    b220:	5c 4f       	sbci	r21, 0xFC	; 252
    b222:	6c e0       	ldi	r22, 0x0C	; 12
    b224:	70 e0       	ldi	r23, 0x00	; 0
    b226:	88 e0       	ldi	r24, 0x08	; 8
    b228:	90 e0       	ldi	r25, 0x00	; 0
    b22a:	0e 94 ec 48 	call	0x91d8	; 0x91d8 <Print>
	FadeIn(1, true);
    b22e:	61 e0       	ldi	r22, 0x01	; 1
    b230:	81 e0       	ldi	r24, 0x01	; 1
    b232:	0e 94 2f 49 	call	0x925e	; 0x925e <FadeIn>
	LBWaitSeconds(TEXT_LINGER);
    b236:	84 e0       	ldi	r24, 0x04	; 4
    b238:	0e 94 18 4e 	call	0x9c30	; 0x9c30 <LBWaitSeconds>
	FadeOut(1, true);
    b23c:	61 e0       	ldi	r22, 0x01	; 1
    b23e:	81 e0       	ldi	r24, 0x01	; 1
    b240:	0e 94 3b 49 	call	0x9276	; 0x9276 <FadeOut>
	ClearVram();
    b244:	0e 94 29 3a 	call	0x7452	; 0x7452 <ClearVram>
	FadeIn(FRAMES_PER_FADE, false);
    b248:	60 e0       	ldi	r22, 0x00	; 0
    b24a:	83 e0       	ldi	r24, 0x03	; 3
    b24c:	0e 94 2f 49 	call	0x925e	; 0x925e <FadeIn>
	load_level(index);
    b250:	ce 01       	movw	r24, r28
}
    b252:	df 91       	pop	r29
    b254:	cf 91       	pop	r28
	FadeIn(1, true);
	LBWaitSeconds(TEXT_LINGER);
	FadeOut(1, true);
	ClearVram();
	FadeIn(FRAMES_PER_FADE, false);
	load_level(index);
    b256:	0c 94 59 58 	jmp	0xb0b2	; 0xb0b2 <load_level>

0000b25a <render_boss_fight_scope_load>:
	load_level_tiles(false);
}

void render_boss_fight_scope_load()
{
	if (render_scope(&scope_animation))
    b25a:	81 ed       	ldi	r24, 0xD1	; 209
    b25c:	9f e0       	ldi	r25, 0x0F	; 15
    b25e:	0e 94 9b 52 	call	0xa536	; 0xa536 <render_scope>
    b262:	88 23       	and	r24, r24
    b264:	61 f0       	breq	.+24     	; 0xb27e <render_boss_fight_scope_load+0x24>
	{
		game.boss_fight_status = BOSS_FIGHT_SUB_LOADING;
    b266:	82 e0       	ldi	r24, 0x02	; 2
    b268:	80 93 a6 0b 	sts	0x0BA6, r24
		LBPlaySound(game.selection, player1.flags, player2.flags, PATCH_ALARM);
    b26c:	27 e0       	ldi	r18, 0x07	; 7
    b26e:	40 91 5c 0f 	lds	r20, 0x0F5C
    b272:	60 91 ea 0b 	lds	r22, 0x0BEA
    b276:	80 91 b6 0b 	lds	r24, 0x0BB6
    b27a:	0c 94 31 4e 	jmp	0x9c62	; 0x9c62 <LBPlaySound>
    b27e:	08 95       	ret

0000b280 <render_boss_fight_sub_load>:
	}
}

void render_boss_fight_sub_load()
{
    b280:	0f 93       	push	r16
    b282:	1f 93       	push	r17
	char *map;
	map = LBGetNextFrameReverse(&(sub_animation.anim));
    b284:	83 ec       	ldi	r24, 0xC3	; 195
    b286:	9f e0       	ldi	r25, 0x0F	; 15
    b288:	0e 94 1f 4c 	call	0x983e	; 0x983e <LBGetNextFrameReverse>
	DrawMap2(1, 4, (const char*) map);
    b28c:	ac 01       	movw	r20, r24
    b28e:	64 e0       	ldi	r22, 0x04	; 4
    b290:	81 e0       	ldi	r24, 0x01	; 1
    b292:	0e 94 6c 48 	call	0x90d8	; 0x90d8 <DrawMap>
	if (sub_animation.anim.reversing)
    b296:	80 91 c8 0f 	lds	r24, 0x0FC8
    b29a:	88 23       	and	r24, r24
    b29c:	d9 f0       	breq	.+54     	; 0xb2d4 <render_boss_fight_sub_load+0x54>
	{
		game.boss_fight_status = BOSS_FIGHT;
    b29e:	84 e0       	ldi	r24, 0x04	; 4
    b2a0:	80 93 a6 0b 	sts	0x0BA6, r24
		init_turret(&turret1, BOSS_TURRET_1_RIGHT_LIMIT, 72);
    b2a4:	00 e0       	ldi	r16, 0x00	; 0
    b2a6:	10 e0       	ldi	r17, 0x00	; 0
    b2a8:	20 e9       	ldi	r18, 0x90	; 144
    b2aa:	32 e4       	ldi	r19, 0x42	; 66
    b2ac:	40 e0       	ldi	r20, 0x00	; 0
    b2ae:	50 e0       	ldi	r21, 0x00	; 0
    b2b0:	60 ec       	ldi	r22, 0xC0	; 192
    b2b2:	72 e4       	ldi	r23, 0x42	; 66
    b2b4:	85 e3       	ldi	r24, 0x35	; 53
    b2b6:	90 e1       	ldi	r25, 0x10	; 16
    b2b8:	0e 94 f8 4e 	call	0x9df0	; 0x9df0 <init_turret>
		init_turret(&turret2, BOSS_TURRET_2_RIGHT_LIMIT, 72);
    b2bc:	00 e0       	ldi	r16, 0x00	; 0
    b2be:	10 e0       	ldi	r17, 0x00	; 0
    b2c0:	20 e9       	ldi	r18, 0x90	; 144
    b2c2:	32 e4       	ldi	r19, 0x42	; 66
    b2c4:	40 e0       	ldi	r20, 0x00	; 0
    b2c6:	50 e0       	ldi	r21, 0x00	; 0
    b2c8:	60 e4       	ldi	r22, 0x40	; 64
    b2ca:	73 e4       	ldi	r23, 0x43	; 67
    b2cc:	81 e0       	ldi	r24, 0x01	; 1
    b2ce:	90 e1       	ldi	r25, 0x10	; 16
    b2d0:	0e 94 f8 4e 	call	0x9df0	; 0x9df0 <init_turret>
	}
}
    b2d4:	1f 91       	pop	r17
    b2d6:	0f 91       	pop	r16
    b2d8:	08 95       	ret

0000b2da <render_boss_fight_sub_sinking>:

void render_boss_fight_sub_sinking()
{
	char *map;
	map = LBGetNextFrameReverse(&(sub_animation.anim));
    b2da:	83 ec       	ldi	r24, 0xC3	; 195
    b2dc:	9f e0       	ldi	r25, 0x0F	; 15
    b2de:	0e 94 1f 4c 	call	0x983e	; 0x983e <LBGetNextFrameReverse>
	if (sub_animation.anim.current_anim == 0) DrawMap2(1, 4, (const char*) map);
    b2e2:	20 91 c3 0f 	lds	r18, 0x0FC3
    b2e6:	21 11       	cpse	r18, r1
    b2e8:	05 c0       	rjmp	.+10     	; 0xb2f4 <render_boss_fight_sub_sinking+0x1a>
    b2ea:	ac 01       	movw	r20, r24
    b2ec:	64 e0       	ldi	r22, 0x04	; 4
    b2ee:	81 e0       	ldi	r24, 0x01	; 1
    b2f0:	0e 94 6c 48 	call	0x90d8	; 0x90d8 <DrawMap>
	if (sub_animation.anim.looped)
    b2f4:	80 91 c7 0f 	lds	r24, 0x0FC7
    b2f8:	88 23       	and	r24, r24
    b2fa:	19 f0       	breq	.+6      	; 0xb302 <render_boss_fight_sub_sinking+0x28>
	{
		game.boss_fight_status = BOSS_FIGHT_WON;
    b2fc:	88 e0       	ldi	r24, 0x08	; 8
    b2fe:	80 93 a6 0b 	sts	0x0BA6, r24
    b302:	08 95       	ret

0000b304 <render_boss_turret>:
	}
}

void render_boss_turret(Turret* t, char sprite_index)
{
    b304:	ef 92       	push	r14
    b306:	ff 92       	push	r15
    b308:	0f 93       	push	r16
    b30a:	1f 93       	push	r17
    b30c:	cf 93       	push	r28
    b30e:	df 93       	push	r29
    b310:	1f 92       	push	r1
    b312:	cd b7       	in	r28, 0x3d	; 61
    b314:	de b7       	in	r29, 0x3e	; 62
    b316:	7c 01       	movw	r14, r24
    b318:	16 2f       	mov	r17, r22
	MoveSprite(sprite_index, t->shared.x, t->shared.y, 1, 1);
    b31a:	fc 01       	movw	r30, r24
    b31c:	67 81       	ldd	r22, Z+7	; 0x07
    b31e:	70 85       	ldd	r23, Z+8	; 0x08
    b320:	81 85       	ldd	r24, Z+9	; 0x09
    b322:	92 85       	ldd	r25, Z+10	; 0x0a
    b324:	0e 94 84 73 	call	0xe708	; 0xe708 <__fixunssfsi>
    b328:	46 2f       	mov	r20, r22
    b32a:	f7 01       	movw	r30, r14
    b32c:	63 81       	ldd	r22, Z+3	; 0x03
    b32e:	74 81       	ldd	r23, Z+4	; 0x04
    b330:	85 81       	ldd	r24, Z+5	; 0x05
    b332:	96 81       	ldd	r25, Z+6	; 0x06
    b334:	49 83       	std	Y+1, r20	; 0x01
    b336:	0e 94 84 73 	call	0xe708	; 0xe708 <__fixunssfsi>
    b33a:	01 e0       	ldi	r16, 0x01	; 1
    b33c:	21 e0       	ldi	r18, 0x01	; 1
    b33e:	49 81       	ldd	r20, Y+1	; 0x01
    b340:	81 2f       	mov	r24, r17
    b342:	0e 94 38 48 	call	0x9070	; 0x9070 <MoveSprite>
}
    b346:	0f 90       	pop	r0
    b348:	df 91       	pop	r29
    b34a:	cf 91       	pop	r28
    b34c:	1f 91       	pop	r17
    b34e:	0f 91       	pop	r16
    b350:	ff 90       	pop	r15
    b352:	ef 90       	pop	r14
    b354:	08 95       	ret

0000b356 <render_boss_turret_shot>:

void render_boss_turret_shot(Turret* t, char sprite_index)
{
    b356:	ef 92       	push	r14
    b358:	ff 92       	push	r15
    b35a:	0f 93       	push	r16
    b35c:	1f 93       	push	r17
    b35e:	cf 93       	push	r28
    b360:	df 93       	push	r29
    b362:	1f 92       	push	r1
    b364:	cd b7       	in	r28, 0x3d	; 61
    b366:	de b7       	in	r29, 0x3e	; 62
    b368:	7c 01       	movw	r14, r24
    b36a:	16 2f       	mov	r17, r22
	MoveSprite(sprite_index, t->shot[0].shared.x, t->shot[0].shared.y, 1, 1);
    b36c:	fc 01       	movw	r30, r24
    b36e:	63 89       	ldd	r22, Z+19	; 0x13
    b370:	74 89       	ldd	r23, Z+20	; 0x14
    b372:	85 89       	ldd	r24, Z+21	; 0x15
    b374:	96 89       	ldd	r25, Z+22	; 0x16
    b376:	0e 94 84 73 	call	0xe708	; 0xe708 <__fixunssfsi>
    b37a:	46 2f       	mov	r20, r22
    b37c:	f7 01       	movw	r30, r14
    b37e:	67 85       	ldd	r22, Z+15	; 0x0f
    b380:	70 89       	ldd	r23, Z+16	; 0x10
    b382:	81 89       	ldd	r24, Z+17	; 0x11
    b384:	92 89       	ldd	r25, Z+18	; 0x12
    b386:	49 83       	std	Y+1, r20	; 0x01
    b388:	0e 94 84 73 	call	0xe708	; 0xe708 <__fixunssfsi>
    b38c:	01 e0       	ldi	r16, 0x01	; 1
    b38e:	21 e0       	ldi	r18, 0x01	; 1
    b390:	49 81       	ldd	r20, Y+1	; 0x01
    b392:	81 2f       	mov	r24, r17
    b394:	0e 94 38 48 	call	0x9070	; 0x9070 <MoveSprite>
}
    b398:	0f 90       	pop	r0
    b39a:	df 91       	pop	r29
    b39c:	cf 91       	pop	r28
    b39e:	1f 91       	pop	r17
    b3a0:	0f 91       	pop	r16
    b3a2:	ff 90       	pop	r15
    b3a4:	ef 90       	pop	r14
    b3a6:	08 95       	ret

0000b3a8 <update_turret>:

void update_turret(Turret *t, u8 left_limit, u8 right_limit)
{
    b3a8:	cf 92       	push	r12
    b3aa:	df 92       	push	r13
    b3ac:	ef 92       	push	r14
    b3ae:	ff 92       	push	r15
    b3b0:	cf 93       	push	r28
    b3b2:	df 93       	push	r29
    b3b4:	ec 01       	movw	r28, r24
    b3b6:	36 2f       	mov	r19, r22
	u8 x = t->shared.x / 8;
    b3b8:	cb 80       	ldd	r12, Y+3	; 0x03
    b3ba:	dc 80       	ldd	r13, Y+4	; 0x04
    b3bc:	ed 80       	ldd	r14, Y+5	; 0x05
    b3be:	fe 80       	ldd	r15, Y+6	; 0x06
	u8 y = t->shared.y / 8 - 3;
    b3c0:	6f 81       	ldd	r22, Y+7	; 0x07
    b3c2:	78 85       	ldd	r23, Y+8	; 0x08
    b3c4:	89 85       	ldd	r24, Y+9	; 0x09
    b3c6:	9a 85       	ldd	r25, Y+10	; 0x0a
	int tile_index = (y * 30) + x;
	
	if (t->lives <= 0)
    b3c8:	2b 85       	ldd	r18, Y+11	; 0x0b
    b3ca:	21 11       	cpse	r18, r1
    b3cc:	27 c0       	rjmp	.+78     	; 0xb41c <update_turret+0x74>
}

void update_turret(Turret *t, u8 left_limit, u8 right_limit)
{
	u8 x = t->shared.x / 8;
	u8 y = t->shared.y / 8 - 3;
    b3ce:	20 e0       	ldi	r18, 0x00	; 0
    b3d0:	30 e0       	ldi	r19, 0x00	; 0
    b3d2:	40 e0       	ldi	r20, 0x00	; 0
    b3d4:	5e e3       	ldi	r21, 0x3E	; 62
    b3d6:	0e 94 66 74 	call	0xe8cc	; 0xe8cc <__mulsf3>
    b3da:	20 e0       	ldi	r18, 0x00	; 0
    b3dc:	30 e0       	ldi	r19, 0x00	; 0
    b3de:	40 e4       	ldi	r20, 0x40	; 64
    b3e0:	50 e4       	ldi	r21, 0x40	; 64
    b3e2:	0e 94 ae 72 	call	0xe55c	; 0xe55c <__subsf3>
    b3e6:	0e 94 84 73 	call	0xe708	; 0xe708 <__fixunssfsi>
	int tile_index = (y * 30) + x;
    b3ea:	8e e1       	ldi	r24, 0x1E	; 30
    b3ec:	68 9f       	mul	r22, r24
    b3ee:	e0 01       	movw	r28, r0
    b3f0:	11 24       	eor	r1, r1
	MoveSprite(sprite_index, t->shot[0].shared.x, t->shot[0].shared.y, 1, 1);
}

void update_turret(Turret *t, u8 left_limit, u8 right_limit)
{
	u8 x = t->shared.x / 8;
    b3f2:	20 e0       	ldi	r18, 0x00	; 0
    b3f4:	30 e0       	ldi	r19, 0x00	; 0
    b3f6:	40 e0       	ldi	r20, 0x00	; 0
    b3f8:	5e e3       	ldi	r21, 0x3E	; 62
    b3fa:	c7 01       	movw	r24, r14
    b3fc:	b6 01       	movw	r22, r12
    b3fe:	0e 94 66 74 	call	0xe8cc	; 0xe8cc <__mulsf3>
    b402:	0e 94 84 73 	call	0xe708	; 0xe708 <__fixunssfsi>
	u8 y = t->shared.y / 8 - 3;
	int tile_index = (y * 30) + x;
    b406:	c6 0f       	add	r28, r22
    b408:	d1 1d       	adc	r29, r1
	
	if (t->lives <= 0)
	{
		explode_tile(&tile_animations, tile_index);
    b40a:	be 01       	movw	r22, r28
    b40c:	87 eb       	ldi	r24, 0xB7	; 183
    b40e:	9b e0       	ldi	r25, 0x0B	; 11
    b410:	0e 94 69 56 	call	0xacd2	; 0xacd2 <explode_tile>
		level.level_map[tile_index] = L_EMPTY;
    b414:	c8 5a       	subi	r28, 0xA8	; 168
    b416:	d3 4f       	sbci	r29, 0xF3	; 243
    b418:	19 82       	std	Y+1, r1	; 0x01
    b41a:	51 c0       	rjmp	.+162    	; 0xb4be <update_turret+0x116>
	}
	else if (t->shared.direction == D_LEFT)
    b41c:	98 81       	ld	r25, Y
    b41e:	93 30       	cpi	r25, 0x03	; 3
    b420:	19 f5       	brne	.+70     	; 0xb468 <update_turret+0xc0>
	{
		if (t->shared.x < left_limit)
    b422:	63 2f       	mov	r22, r19
    b424:	70 e0       	ldi	r23, 0x00	; 0
    b426:	80 e0       	ldi	r24, 0x00	; 0
    b428:	90 e0       	ldi	r25, 0x00	; 0
    b42a:	0e 94 b2 73 	call	0xe764	; 0xe764 <__floatsisf>
    b42e:	9b 01       	movw	r18, r22
    b430:	ac 01       	movw	r20, r24
    b432:	c7 01       	movw	r24, r14
    b434:	b6 01       	movw	r22, r12
    b436:	0e 94 13 73 	call	0xe626	; 0xe626 <__cmpsf2>
    b43a:	87 ff       	sbrs	r24, 7
    b43c:	02 c0       	rjmp	.+4      	; 0xb442 <update_turret+0x9a>
		{
			t->shared.direction = D_RIGHT;
    b43e:	81 e0       	ldi	r24, 0x01	; 1
    b440:	24 c0       	rjmp	.+72     	; 0xb48a <update_turret+0xe2>
			t->shared.speed = BOSS_TURRET_SPEED;
		}
		else
		{
			t->shared.x -= FRAME_TIME*t->shared.speed;
    b442:	69 81       	ldd	r22, Y+1	; 0x01
    b444:	70 e0       	ldi	r23, 0x00	; 0
    b446:	80 e0       	ldi	r24, 0x00	; 0
    b448:	90 e0       	ldi	r25, 0x00	; 0
    b44a:	0e 94 b2 73 	call	0xe764	; 0xe764 <__floatsisf>
    b44e:	25 e6       	ldi	r18, 0x65	; 101
    b450:	38 e8       	ldi	r19, 0x88	; 136
    b452:	48 e8       	ldi	r20, 0x88	; 136
    b454:	5c e3       	ldi	r21, 0x3C	; 60
    b456:	0e 94 66 74 	call	0xe8cc	; 0xe8cc <__mulsf3>
    b45a:	9b 01       	movw	r18, r22
    b45c:	ac 01       	movw	r20, r24
    b45e:	c7 01       	movw	r24, r14
    b460:	b6 01       	movw	r22, r12
    b462:	0e 94 ae 72 	call	0xe55c	; 0xe55c <__subsf3>
    b466:	27 c0       	rjmp	.+78     	; 0xb4b6 <update_turret+0x10e>
		}
	}
	else if (t->shared.direction == D_RIGHT)
    b468:	91 30       	cpi	r25, 0x01	; 1
    b46a:	49 f5       	brne	.+82     	; 0xb4be <update_turret+0x116>
	{
		if (t->shared.x > right_limit)
    b46c:	64 2f       	mov	r22, r20
    b46e:	70 e0       	ldi	r23, 0x00	; 0
    b470:	80 e0       	ldi	r24, 0x00	; 0
    b472:	90 e0       	ldi	r25, 0x00	; 0
    b474:	0e 94 b2 73 	call	0xe764	; 0xe764 <__floatsisf>
    b478:	9b 01       	movw	r18, r22
    b47a:	ac 01       	movw	r20, r24
    b47c:	c7 01       	movw	r24, r14
    b47e:	b6 01       	movw	r22, r12
    b480:	0e 94 62 74 	call	0xe8c4	; 0xe8c4 <__gesf2>
    b484:	18 16       	cp	r1, r24
    b486:	2c f4       	brge	.+10     	; 0xb492 <update_turret+0xea>
		{
			t->shared.direction = D_LEFT;
    b488:	83 e0       	ldi	r24, 0x03	; 3
    b48a:	88 83       	st	Y, r24
			t->shared.speed = BOSS_TURRET_SPEED;
    b48c:	8a e5       	ldi	r24, 0x5A	; 90
    b48e:	89 83       	std	Y+1, r24	; 0x01
    b490:	16 c0       	rjmp	.+44     	; 0xb4be <update_turret+0x116>
		}
		else
		{
			t->shared.x += FRAME_TIME*t->shared.speed;
    b492:	69 81       	ldd	r22, Y+1	; 0x01
    b494:	70 e0       	ldi	r23, 0x00	; 0
    b496:	80 e0       	ldi	r24, 0x00	; 0
    b498:	90 e0       	ldi	r25, 0x00	; 0
    b49a:	0e 94 b2 73 	call	0xe764	; 0xe764 <__floatsisf>
    b49e:	25 e6       	ldi	r18, 0x65	; 101
    b4a0:	38 e8       	ldi	r19, 0x88	; 136
    b4a2:	48 e8       	ldi	r20, 0x88	; 136
    b4a4:	5c e3       	ldi	r21, 0x3C	; 60
    b4a6:	0e 94 66 74 	call	0xe8cc	; 0xe8cc <__mulsf3>
    b4aa:	9b 01       	movw	r18, r22
    b4ac:	ac 01       	movw	r20, r24
    b4ae:	c7 01       	movw	r24, r14
    b4b0:	b6 01       	movw	r22, r12
    b4b2:	0e 94 af 72 	call	0xe55e	; 0xe55e <__addsf3>
    b4b6:	6b 83       	std	Y+3, r22	; 0x03
    b4b8:	7c 83       	std	Y+4, r23	; 0x04
    b4ba:	8d 83       	std	Y+5, r24	; 0x05
    b4bc:	9e 83       	std	Y+6, r25	; 0x06
		}
	}
}
    b4be:	df 91       	pop	r29
    b4c0:	cf 91       	pop	r28
    b4c2:	ff 90       	pop	r15
    b4c4:	ef 90       	pop	r14
    b4c6:	df 90       	pop	r13
    b4c8:	cf 90       	pop	r12
    b4ca:	08 95       	ret

0000b4cc <load_splash>:
	}
}

void load_splash()
{
	game.current_screen = SPLASH;
    b4cc:	10 92 a3 0b 	sts	0x0BA3, r1
	clear_sprites();
    b4d0:	0e 94 16 50 	call	0xa02c	; 0xa02c <clear_sprites>
	}
	Print(5, 22, (char*) strCopyright);
	Print(18, 25, (char*) strCreditCount);
    LBPrintByte(27, 25, credits_available(), false);
#else
	if (wifi_status == WIFI_OK)
    b4d4:	80 91 d4 0b 	lds	r24, 0x0BD4
    b4d8:	81 11       	cpse	r24, r1
    b4da:	02 c0       	rjmp	.+4      	; 0xb4e0 <load_splash+0x14>
	{
		cleanupWifi();
    b4dc:	0e 94 db 4a 	call	0x95b6	; 0x95b6 <cleanupWifi>
	}
	Print(7, 13, (char*) str1Player);
    b4e0:	47 e4       	ldi	r20, 0x47	; 71
    b4e2:	55 e0       	ldi	r21, 0x05	; 5
    b4e4:	6d e0       	ldi	r22, 0x0D	; 13
    b4e6:	70 e0       	ldi	r23, 0x00	; 0
    b4e8:	87 e0       	ldi	r24, 0x07	; 7
    b4ea:	90 e0       	ldi	r25, 0x00	; 0
    b4ec:	0e 94 ec 48 	call	0x91d8	; 0x91d8 <Print>
	Print(7, 14, (char*) str2Player);
    b4f0:	46 e3       	ldi	r20, 0x36	; 54
    b4f2:	55 e0       	ldi	r21, 0x05	; 5
    b4f4:	6e e0       	ldi	r22, 0x0E	; 14
    b4f6:	70 e0       	ldi	r23, 0x00	; 0
    b4f8:	87 e0       	ldi	r24, 0x07	; 7
    b4fa:	90 e0       	ldi	r25, 0x00	; 0
    b4fc:	0e 94 ec 48 	call	0x91d8	; 0x91d8 <Print>
	if (wifi_status == WIFI_OK) {
    b500:	80 91 d4 0b 	lds	r24, 0x0BD4
    b504:	81 11       	cpse	r24, r1
    b506:	10 c0       	rjmp	.+32     	; 0xb528 <load_splash+0x5c>
		Print(7, 15, (char*) strHostNetGame);
    b508:	48 e2       	ldi	r20, 0x28	; 40
    b50a:	55 e0       	ldi	r21, 0x05	; 5
    b50c:	6f e0       	ldi	r22, 0x0F	; 15
    b50e:	70 e0       	ldi	r23, 0x00	; 0
    b510:	87 e0       	ldi	r24, 0x07	; 7
    b512:	90 e0       	ldi	r25, 0x00	; 0
    b514:	0e 94 ec 48 	call	0x91d8	; 0x91d8 <Print>
		Print(7, 16, (char*) strJoinNetGame);
    b518:	4a e1       	ldi	r20, 0x1A	; 26
    b51a:	55 e0       	ldi	r21, 0x05	; 5
    b51c:	60 e1       	ldi	r22, 0x10	; 16
    b51e:	70 e0       	ldi	r23, 0x00	; 0
    b520:	87 e0       	ldi	r24, 0x07	; 7
    b522:	90 e0       	ldi	r25, 0x00	; 0
    b524:	0e 94 ec 48 	call	0x91d8	; 0x91d8 <Print>
	}
	Print(7, 17, (char*) strHighscores);
    b528:	49 e5       	ldi	r20, 0x59	; 89
    b52a:	54 e0       	ldi	r21, 0x04	; 4
    b52c:	61 e1       	ldi	r22, 0x11	; 17
    b52e:	70 e0       	ldi	r23, 0x00	; 0
    b530:	87 e0       	ldi	r24, 0x07	; 7
    b532:	90 e0       	ldi	r25, 0x00	; 0
    b534:	0e 94 ec 48 	call	0x91d8	; 0x91d8 <Print>
	Print(5, 26, (char*) strCopyright);
    b538:	43 e6       	ldi	r20, 0x63	; 99
    b53a:	54 e0       	ldi	r21, 0x04	; 4
    b53c:	6a e1       	ldi	r22, 0x1A	; 26
    b53e:	70 e0       	ldi	r23, 0x00	; 0
    b540:	85 e0       	ldi	r24, 0x05	; 5
    b542:	90 e0       	ldi	r25, 0x00	; 0
    b544:	0e 94 ec 48 	call	0x91d8	; 0x91d8 <Print>
	MapSprite2(0, map_right_arrow, 0);
    b548:	40 e0       	ldi	r20, 0x00	; 0
    b54a:	65 e2       	ldi	r22, 0x25	; 37
    b54c:	71 e3       	ldi	r23, 0x31	; 49
    b54e:	80 e0       	ldi	r24, 0x00	; 0
    b550:	0e 94 e6 47 	call	0x8fcc	; 0x8fcc <MapSprite2>
#endif
	DrawMap2(4, 5, (const char*) map_splash);
    b554:	48 ed       	ldi	r20, 0xD8	; 216
    b556:	5a e6       	ldi	r21, 0x6A	; 106
    b558:	65 e0       	ldi	r22, 0x05	; 5
    b55a:	84 e0       	ldi	r24, 0x04	; 4
    b55c:	0c 94 6c 48 	jmp	0x90d8	; 0x90d8 <DrawMap>

0000b560 <select_pressed>:
}

char select_pressed(JoyPadState* p)
{
    b560:	fc 01       	movw	r30, r24
    b562:	20 81       	ld	r18, Z
    b564:	31 81       	ldd	r19, Z+1	; 0x01
    b566:	28 70       	andi	r18, 0x08	; 8
    b568:	31 70       	andi	r19, 0x01	; 1
#if JAMMA
	if (p == &p2) return p1.pressed & BTN_SELECT;
	return p->pressed & BTN_START;
#else
	return (p->pressed & BTN_A) || (p->pressed & BTN_START);
    b56a:	81 e0       	ldi	r24, 0x01	; 1
    b56c:	23 2b       	or	r18, r19
    b56e:	09 f4       	brne	.+2      	; 0xb572 <select_pressed+0x12>
    b570:	80 e0       	ldi	r24, 0x00	; 0
#endif
}
    b572:	08 95       	ret

0000b574 <load_tank_rank>:
	game.demo_counter++;
#endif
}

void load_tank_rank()
{
    b574:	ff 92       	push	r15
    b576:	0f 93       	push	r16
    b578:	1f 93       	push	r17
    b57a:	cf 93       	push	r28
    b57c:	df 93       	push	r29
	u8 y = 7;
	u8 rank = 1;
	
	game.current_screen = TANK_RANK;
    b57e:	81 e0       	ldi	r24, 0x01	; 1
    b580:	80 93 a3 0b 	sts	0x0BA3, r24
	clear_sprites();
    b584:	0e 94 16 50 	call	0xa02c	; 0xa02c <clear_sprites>
	DrawMap2(7, 1, map_green_tank);
    b588:	45 ea       	ldi	r20, 0xA5	; 165
    b58a:	5a e6       	ldi	r21, 0x6A	; 106
    b58c:	61 e0       	ldi	r22, 0x01	; 1
    b58e:	87 e0       	ldi	r24, 0x07	; 7
    b590:	0e 94 6c 48 	call	0x90d8	; 0x90d8 <DrawMap>
	DrawMap2(20, 1, map_blue_tank);
    b594:	4f e9       	ldi	r20, 0x9F	; 159
    b596:	5a e6       	ldi	r21, 0x6A	; 106
    b598:	61 e0       	ldi	r22, 0x01	; 1
    b59a:	84 e1       	ldi	r24, 0x14	; 20
    b59c:	0e 94 6c 48 	call	0x90d8	; 0x90d8 <DrawMap>
	Print(10, 2, (char*) strHighscores);
    b5a0:	49 e5       	ldi	r20, 0x59	; 89
    b5a2:	54 e0       	ldi	r21, 0x04	; 4
    b5a4:	62 e0       	ldi	r22, 0x02	; 2
    b5a6:	70 e0       	ldi	r23, 0x00	; 0
    b5a8:	8a e0       	ldi	r24, 0x0A	; 10
    b5aa:	90 e0       	ldi	r25, 0x00	; 0
    b5ac:	0e 94 ec 48 	call	0x91d8	; 0x91d8 <Print>
    b5b0:	0c e5       	ldi	r16, 0x5C	; 92
    b5b2:	1b e0       	ldi	r17, 0x0B	; 11
    b5b4:	c7 e0       	ldi	r28, 0x07	; 7
    b5b6:	d0 e0       	ldi	r29, 0x00	; 0
}

void load_tank_rank()
{
	u8 y = 7;
	u8 rank = 1;
    b5b8:	ff 24       	eor	r15, r15
    b5ba:	f3 94       	inc	r15
	DrawMap2(7, 1, map_green_tank);
	DrawMap2(20, 1, map_blue_tank);
	Print(10, 2, (char*) strHighscores);
	for (u8 i = 0; i < 25; i += 5)
	{
		PrintByte(2, y, rank, false);
    b5bc:	20 e0       	ldi	r18, 0x00	; 0
    b5be:	4f 2d       	mov	r20, r15
    b5c0:	be 01       	movw	r22, r28
    b5c2:	82 e0       	ldi	r24, 0x02	; 2
    b5c4:	90 e0       	ldi	r25, 0x00	; 0
    b5c6:	0e 94 b9 48 	call	0x9172	; 0x9172 <PrintByte>
		PrintChar(3, y, '.');
    b5ca:	4e e2       	ldi	r20, 0x2E	; 46
    b5cc:	be 01       	movw	r22, r28
    b5ce:	83 e0       	ldi	r24, 0x03	; 3
    b5d0:	90 e0       	ldi	r25, 0x00	; 0
    b5d2:	0e 94 07 49 	call	0x920e	; 0x920e <PrintChar>
    b5d6:	f8 01       	movw	r30, r16
    b5d8:	34 97       	sbiw	r30, 0x04	; 4
		LBPrintStr(5, y, &handles.data[scores.data[i]*3], 3);
    b5da:	80 81       	ld	r24, Z
    b5dc:	93 e0       	ldi	r25, 0x03	; 3
    b5de:	89 9f       	mul	r24, r25
    b5e0:	a0 01       	movw	r20, r0
    b5e2:	11 24       	eor	r1, r1
    b5e4:	4b 57       	subi	r20, 0x7B	; 123
    b5e6:	54 4f       	sbci	r21, 0xF4	; 244
    b5e8:	23 e0       	ldi	r18, 0x03	; 3
    b5ea:	6c 2f       	mov	r22, r28
    b5ec:	85 e0       	ldi	r24, 0x05	; 5
    b5ee:	0e 94 96 4c 	call	0x992c	; 0x992c <LBPrintStr>
		Print(9, y, (char*) strOwns);
    b5f2:	45 e2       	ldi	r20, 0x25	; 37
    b5f4:	54 e0       	ldi	r21, 0x04	; 4
    b5f6:	be 01       	movw	r22, r28
    b5f8:	89 e0       	ldi	r24, 0x09	; 9
    b5fa:	90 e0       	ldi	r25, 0x00	; 0
    b5fc:	0e 94 ec 48 	call	0x91d8	; 0x91d8 <Print>
    b600:	f8 01       	movw	r30, r16
    b602:	33 97       	sbiw	r30, 0x03	; 3
		LBPrintStr(14, y, &handles.data[scores.data[i+1]*3], 3);
    b604:	80 81       	ld	r24, Z
    b606:	e3 e0       	ldi	r30, 0x03	; 3
    b608:	8e 9f       	mul	r24, r30
    b60a:	a0 01       	movw	r20, r0
    b60c:	11 24       	eor	r1, r1
    b60e:	4b 57       	subi	r20, 0x7B	; 123
    b610:	54 4f       	sbci	r21, 0xF4	; 244
    b612:	23 e0       	ldi	r18, 0x03	; 3
    b614:	6c 2f       	mov	r22, r28
    b616:	8e e0       	ldi	r24, 0x0E	; 14
    b618:	0e 94 96 4c 	call	0x992c	; 0x992c <LBPrintStr>
		Print(18, y, (char*) strBy);
    b61c:	42 e2       	ldi	r20, 0x22	; 34
    b61e:	54 e0       	ldi	r21, 0x04	; 4
    b620:	be 01       	movw	r22, r28
    b622:	82 e1       	ldi	r24, 0x12	; 18
    b624:	90 e0       	ldi	r25, 0x00	; 0
    b626:	0e 94 ec 48 	call	0x91d8	; 0x91d8 <Print>
		PrintByte(23, y, scores.data[i+2] ,true);
    b62a:	21 e0       	ldi	r18, 0x01	; 1
    b62c:	f8 01       	movw	r30, r16
    b62e:	32 97       	sbiw	r30, 0x02	; 2
    b630:	40 81       	ld	r20, Z
    b632:	be 01       	movw	r22, r28
    b634:	87 e1       	ldi	r24, 0x17	; 23
    b636:	90 e0       	ldi	r25, 0x00	; 0
    b638:	0e 94 b9 48 	call	0x9172	; 0x9172 <PrintByte>
		PrintChar(24, y, '-');
    b63c:	4d e2       	ldi	r20, 0x2D	; 45
    b63e:	be 01       	movw	r22, r28
    b640:	88 e1       	ldi	r24, 0x18	; 24
    b642:	90 e0       	ldi	r25, 0x00	; 0
    b644:	0e 94 07 49 	call	0x920e	; 0x920e <PrintChar>
		PrintByte(27, y, scores.data[i+3] ,true);
    b648:	21 e0       	ldi	r18, 0x01	; 1
    b64a:	f8 01       	movw	r30, r16
    b64c:	31 97       	sbiw	r30, 0x01	; 1
    b64e:	40 81       	ld	r20, Z
    b650:	be 01       	movw	r22, r28
    b652:	8b e1       	ldi	r24, 0x1B	; 27
    b654:	90 e0       	ldi	r25, 0x00	; 0
    b656:	0e 94 b9 48 	call	0x9172	; 0x9172 <PrintByte>
		if (scores.data[i+4])
    b65a:	f8 01       	movw	r30, r16
    b65c:	80 81       	ld	r24, Z
    b65e:	88 23       	and	r24, r24
    b660:	11 f0       	breq	.+4      	; 0xb666 <load_tank_rank+0xf2>
			PrintChar(29, y, '*');
    b662:	4a e2       	ldi	r20, 0x2A	; 42
    b664:	01 c0       	rjmp	.+2      	; 0xb668 <load_tank_rank+0xf4>
		else
			PrintChar(29, y, ' ');
    b666:	40 e2       	ldi	r20, 0x20	; 32
    b668:	be 01       	movw	r22, r28
    b66a:	8d e1       	ldi	r24, 0x1D	; 29
    b66c:	90 e0       	ldi	r25, 0x00	; 0
    b66e:	0e 94 07 49 	call	0x920e	; 0x920e <PrintChar>
		y += 3;
		rank += 1;
    b672:	f3 94       	inc	r15
    b674:	23 96       	adiw	r28, 0x03	; 3
    b676:	0b 5f       	subi	r16, 0xFB	; 251
    b678:	1f 4f       	sbci	r17, 0xFF	; 255
	game.current_screen = TANK_RANK;
	clear_sprites();
	DrawMap2(7, 1, map_green_tank);
	DrawMap2(20, 1, map_blue_tank);
	Print(10, 2, (char*) strHighscores);
	for (u8 i = 0; i < 25; i += 5)
    b67a:	f6 e0       	ldi	r31, 0x06	; 6
    b67c:	ff 12       	cpse	r15, r31
    b67e:	9e cf       	rjmp	.-196    	; 0xb5bc <load_tank_rank+0x48>
		y += 3;
		rank += 1;
	}
#if JAMMA
#else
	Print(3, 22, (char*) strReset);
    b680:	42 e9       	ldi	r20, 0x92	; 146
    b682:	54 e0       	ldi	r21, 0x04	; 4
    b684:	66 e1       	ldi	r22, 0x16	; 22
    b686:	70 e0       	ldi	r23, 0x00	; 0
    b688:	83 e0       	ldi	r24, 0x03	; 3
    b68a:	90 e0       	ldi	r25, 0x00	; 0
    b68c:	0e 94 ec 48 	call	0x91d8	; 0x91d8 <Print>
	Print(10, 24, (char*) strCancelHandle);
    b690:	47 e8       	ldi	r20, 0x87	; 135
    b692:	54 e0       	ldi	r21, 0x04	; 4
    b694:	68 e1       	ldi	r22, 0x18	; 24
    b696:	70 e0       	ldi	r23, 0x00	; 0
    b698:	8a e0       	ldi	r24, 0x0A	; 10
    b69a:	90 e0       	ldi	r25, 0x00	; 0
#endif
}
    b69c:	df 91       	pop	r29
    b69e:	cf 91       	pop	r28
    b6a0:	1f 91       	pop	r17
    b6a2:	0f 91       	pop	r16
    b6a4:	ff 90       	pop	r15
		rank += 1;
	}
#if JAMMA
#else
	Print(3, 22, (char*) strReset);
	Print(10, 24, (char*) strCancelHandle);
    b6a6:	0c 94 ec 48 	jmp	0x91d8	; 0x91d8 <Print>

0000b6aa <exit_game>:
	save_eeprom(&scores);
}

void exit_game()
{
    save_score();
    b6aa:	0e 94 23 50 	call	0xa046	; 0xa046 <save_score>
	fade_through();
    b6ae:	0e 94 0c 50 	call	0xa018	; 0xa018 <fade_through>
	init_game_state();
    b6b2:	0e 94 a3 4f 	call	0x9f46	; 0x9f46 <init_game_state>
	load_tank_rank();
    b6b6:	0c 94 ba 5a 	jmp	0xb574	; 0xb574 <load_tank_rank>

0000b6ba <resolve_scoring>:
		}
	}
}

void resolve_scoring()
{
    b6ba:	cf 93       	push	r28
	u8 next_level;
	
	if (game.current_level < LEVEL_COUNT - 1)
    b6bc:	c0 91 a4 0b 	lds	r28, 0x0BA4
    b6c0:	80 91 e5 0b 	lds	r24, 0x0BE5
    b6c4:	ca 30       	cpi	r28, 0x0A	; 10
    b6c6:	80 f5       	brcc	.+96     	; 0xb728 <resolve_scoring+0x6e>
	{
		if (player1.level_score >= MAX_LEVEL_SCORE && !(player2.flags & EXPLODING_FLAG))
    b6c8:	8a 30       	cpi	r24, 0x0A	; 10
    b6ca:	70 f0       	brcs	.+28     	; 0xb6e8 <resolve_scoring+0x2e>
    b6cc:	80 91 5c 0f 	lds	r24, 0x0F5C
    b6d0:	80 fd       	sbrc	r24, 0
    b6d2:	0a c0       	rjmp	.+20     	; 0xb6e8 <resolve_scoring+0x2e>
		{
			next_level = game.current_level + 1;
			LBHideAllSprites();
    b6d4:	0e 94 27 4e 	call	0x9c4e	; 0x9c4e <LBHideAllSprites>
			load_level_tiles(true);
    b6d8:	81 e0       	ldi	r24, 0x01	; 1
    b6da:	0e 94 d4 57 	call	0xafa8	; 0xafa8 <load_level_tiles>
			print_level_score(&player1, &player2);
    b6de:	67 e4       	ldi	r22, 0x47	; 71
    b6e0:	7f e0       	ldi	r23, 0x0F	; 15
    b6e2:	85 ed       	ldi	r24, 0xD5	; 213
    b6e4:	9b e0       	ldi	r25, 0x0B	; 11
    b6e6:	12 c0       	rjmp	.+36     	; 0xb70c <resolve_scoring+0x52>
			LBWaitSeconds(TEXT_LINGER);
			player1.level_score = 0;
			player2.level_score = 0;
			level_transition(next_level);
		}
		else if (player2.level_score >= MAX_LEVEL_SCORE && !(player1.flags & EXPLODING_FLAG))
    b6e8:	80 91 57 0f 	lds	r24, 0x0F57
    b6ec:	8a 30       	cpi	r24, 0x0A	; 10
    b6ee:	08 f4       	brcc	.+2      	; 0xb6f2 <resolve_scoring+0x38>
    b6f0:	a7 c0       	rjmp	.+334    	; 0xb840 <resolve_scoring+0x186>
    b6f2:	80 91 ea 0b 	lds	r24, 0x0BEA
    b6f6:	80 fd       	sbrc	r24, 0
    b6f8:	a3 c0       	rjmp	.+326    	; 0xb840 <resolve_scoring+0x186>
		{
			next_level = game.current_level + 1;
			LBHideAllSprites();
    b6fa:	0e 94 27 4e 	call	0x9c4e	; 0x9c4e <LBHideAllSprites>
			load_level_tiles(true);
    b6fe:	81 e0       	ldi	r24, 0x01	; 1
    b700:	0e 94 d4 57 	call	0xafa8	; 0xafa8 <load_level_tiles>
			print_level_score(&player2, &player1);
    b704:	65 ed       	ldi	r22, 0xD5	; 213
    b706:	7b e0       	ldi	r23, 0x0B	; 11
    b708:	87 e4       	ldi	r24, 0x47	; 71
    b70a:	9f e0       	ldi	r25, 0x0F	; 15
    b70c:	0e 94 11 51 	call	0xa222	; 0xa222 <print_level_score>
			LBWaitSeconds(TEXT_LINGER);
    b710:	84 e0       	ldi	r24, 0x04	; 4
    b712:	0e 94 18 4e 	call	0x9c30	; 0x9c30 <LBWaitSeconds>
			player1.level_score = 0;
    b716:	10 92 e5 0b 	sts	0x0BE5, r1
			player2.level_score = 0;
    b71a:	10 92 57 0f 	sts	0x0F57, r1
			level_transition(next_level);
    b71e:	81 e0       	ldi	r24, 0x01	; 1
    b720:	8c 0f       	add	r24, r28
				print_final_score(&player2, &player1);
			LBWaitSeconds(TEXT_LINGER);
			exit_game();
		}
	}
}
    b722:	cf 91       	pop	r28
			load_level_tiles(true);
			print_level_score(&player2, &player1);
			LBWaitSeconds(TEXT_LINGER);
			player1.level_score = 0;
			player2.level_score = 0;
			level_transition(next_level);
    b724:	0c 94 fd 58 	jmp	0xb1fa	; 0xb1fa <level_transition>
		}
	}
	else
	{
		if ((player1.level_score >= MAX_LEVEL_SCORE) || (player2.level_score >= MAX_LEVEL_SCORE))
    b728:	8a 30       	cpi	r24, 0x0A	; 10
    b72a:	28 f4       	brcc	.+10     	; 0xb736 <resolve_scoring+0x7c>
    b72c:	80 91 57 0f 	lds	r24, 0x0F57
    b730:	8a 30       	cpi	r24, 0x0A	; 10
    b732:	08 f4       	brcc	.+2      	; 0xb736 <resolve_scoring+0x7c>
    b734:	85 c0       	rjmp	.+266    	; 0xb840 <resolve_scoring+0x186>
		{
			// Tie Breaker
			if (player1.score == player2.score) return;
    b736:	90 91 e4 0b 	lds	r25, 0x0BE4
    b73a:	80 91 56 0f 	lds	r24, 0x0F56
    b73e:	98 17       	cp	r25, r24
    b740:	09 f4       	brne	.+2      	; 0xb744 <resolve_scoring+0x8a>
    b742:	7e c0       	rjmp	.+252    	; 0xb840 <resolve_scoring+0x186>
			
			if (game.boss_fight_status == 0)
    b744:	20 91 a6 0b 	lds	r18, 0x0BA6
    b748:	21 11       	cpse	r18, r1
    b74a:	46 c0       	rjmp	.+140    	; 0xb7d8 <resolve_scoring+0x11e>
			{
				// Initiate boss fight
				game.boss_fight_status = BOSS_FIGHT_SCOPE_LOADING;
    b74c:	c1 e0       	ldi	r28, 0x01	; 1
    b74e:	c0 93 a6 0b 	sts	0x0BA6, r28
				if (player1.score > player2.score)
    b752:	89 17       	cp	r24, r25
    b754:	e8 f4       	brcc	.+58     	; 0xb790 <resolve_scoring+0xd6>
				{
					game.boss_fight_player = &player1;
    b756:	85 ed       	ldi	r24, 0xD5	; 213
    b758:	9b e0       	ldi	r25, 0x0B	; 11
    b75a:	90 93 b3 0b 	sts	0x0BB3, r25
    b75e:	80 93 b2 0b 	sts	0x0BB2, r24
					game.boss_fight_joypad = &p1;
    b762:	81 e5       	ldi	r24, 0x51	; 81
    b764:	9c e0       	ldi	r25, 0x0C	; 12
    b766:	90 93 b5 0b 	sts	0x0BB5, r25
    b76a:	80 93 b4 0b 	sts	0x0BB4, r24
					game.boss_fight_player_hud = 0;
    b76e:	10 92 a7 0b 	sts	0x0BA7, r1
					kill_player(&player2, 15);
    b772:	6f e0       	ldi	r22, 0x0F	; 15
    b774:	87 e4       	ldi	r24, 0x47	; 71
    b776:	9f e0       	ldi	r25, 0x0F	; 15
    b778:	0e 94 ef 55 	call	0xabde	; 0xabde <kill_player>
					player_spawn(&player2);
    b77c:	87 e4       	ldi	r24, 0x47	; 71
    b77e:	9f e0       	ldi	r25, 0x0F	; 15
    b780:	0e 94 ca 4f 	call	0x9f94	; 0x9f94 <player_spawn>
					player2.flags = player2.flags ^ EXPLODING_FLAG;
    b784:	80 91 5c 0f 	lds	r24, 0x0F5C
    b788:	c8 27       	eor	r28, r24
    b78a:	c0 93 5c 0f 	sts	0x0F5C, r28
    b78e:	1d c0       	rjmp	.+58     	; 0xb7ca <resolve_scoring+0x110>
				}
				else
				{
					game.boss_fight_player = &player2;
    b790:	87 e4       	ldi	r24, 0x47	; 71
    b792:	9f e0       	ldi	r25, 0x0F	; 15
    b794:	90 93 b3 0b 	sts	0x0BB3, r25
    b798:	80 93 b2 0b 	sts	0x0BB2, r24
					game.boss_fight_joypad = &p2;
    b79c:	86 e7       	ldi	r24, 0x76	; 118
    b79e:	9b e0       	ldi	r25, 0x0B	; 11
    b7a0:	90 93 b5 0b 	sts	0x0BB5, r25
    b7a4:	80 93 b4 0b 	sts	0x0BB4, r24
					game.boss_fight_player_hud = 15;
    b7a8:	8f e0       	ldi	r24, 0x0F	; 15
    b7aa:	80 93 a7 0b 	sts	0x0BA7, r24
					kill_player(&player1, 0);
    b7ae:	60 e0       	ldi	r22, 0x00	; 0
    b7b0:	85 ed       	ldi	r24, 0xD5	; 213
    b7b2:	9b e0       	ldi	r25, 0x0B	; 11
    b7b4:	0e 94 ef 55 	call	0xabde	; 0xabde <kill_player>
					player_spawn(&player1);
    b7b8:	85 ed       	ldi	r24, 0xD5	; 213
    b7ba:	9b e0       	ldi	r25, 0x0B	; 11
    b7bc:	0e 94 ca 4f 	call	0x9f94	; 0x9f94 <player_spawn>
					player1.flags = player1.flags ^ EXPLODING_FLAG;
    b7c0:	80 91 ea 0b 	lds	r24, 0x0BEA
    b7c4:	c8 27       	eor	r28, r24
    b7c6:	c0 93 ea 0b 	sts	0x0BEA, r28
				}
				scope_animation.tile_index = 15 + 5*30;
    b7ca:	85 ea       	ldi	r24, 0xA5	; 165
    b7cc:	90 e0       	ldi	r25, 0x00	; 0
    b7ce:	90 93 de 0f 	sts	0x0FDE, r25
    b7d2:	80 93 dd 0f 	sts	0x0FDD, r24
				return;
    b7d6:	34 c0       	rjmp	.+104    	; 0xb840 <resolve_scoring+0x186>
			}
			
			// Print level score
			LBHideAllSprites();
    b7d8:	0e 94 27 4e 	call	0x9c4e	; 0x9c4e <LBHideAllSprites>
			load_level_tiles(true);
    b7dc:	81 e0       	ldi	r24, 0x01	; 1
    b7de:	0e 94 d4 57 	call	0xafa8	; 0xafa8 <load_level_tiles>
			if (player1.level_score > player2.level_score)
    b7e2:	90 91 e5 0b 	lds	r25, 0x0BE5
    b7e6:	80 91 57 0f 	lds	r24, 0x0F57
    b7ea:	89 17       	cp	r24, r25
    b7ec:	28 f4       	brcc	.+10     	; 0xb7f8 <resolve_scoring+0x13e>
				print_level_score(&player1, &player2);
    b7ee:	67 e4       	ldi	r22, 0x47	; 71
    b7f0:	7f e0       	ldi	r23, 0x0F	; 15
    b7f2:	85 ed       	ldi	r24, 0xD5	; 213
    b7f4:	9b e0       	ldi	r25, 0x0B	; 11
    b7f6:	04 c0       	rjmp	.+8      	; 0xb800 <resolve_scoring+0x146>
			else
				print_level_score(&player2, &player1);
    b7f8:	65 ed       	ldi	r22, 0xD5	; 213
    b7fa:	7b e0       	ldi	r23, 0x0B	; 11
    b7fc:	87 e4       	ldi	r24, 0x47	; 71
    b7fe:	9f e0       	ldi	r25, 0x0F	; 15
    b800:	0e 94 11 51 	call	0xa222	; 0xa222 <print_level_score>
			LBWaitSeconds(TEXT_LINGER);
    b804:	84 e0       	ldi	r24, 0x04	; 4
    b806:	0e 94 18 4e 	call	0x9c30	; 0x9c30 <LBWaitSeconds>
			player1.level_score = 0;
    b80a:	10 92 e5 0b 	sts	0x0BE5, r1
			player2.level_score = 0;
    b80e:	10 92 57 0f 	sts	0x0F57, r1
			
			// Print game score and exit
			if (player1.score > player2.score)
    b812:	90 91 e4 0b 	lds	r25, 0x0BE4
    b816:	80 91 56 0f 	lds	r24, 0x0F56
    b81a:	89 17       	cp	r24, r25
    b81c:	28 f4       	brcc	.+10     	; 0xb828 <resolve_scoring+0x16e>
				print_final_score(&player1, &player2);
    b81e:	67 e4       	ldi	r22, 0x47	; 71
    b820:	7f e0       	ldi	r23, 0x0F	; 15
    b822:	85 ed       	ldi	r24, 0xD5	; 213
    b824:	9b e0       	ldi	r25, 0x0B	; 11
    b826:	04 c0       	rjmp	.+8      	; 0xb830 <resolve_scoring+0x176>
			else
				print_final_score(&player2, &player1);
    b828:	65 ed       	ldi	r22, 0xD5	; 213
    b82a:	7b e0       	ldi	r23, 0x0B	; 11
    b82c:	87 e4       	ldi	r24, 0x47	; 71
    b82e:	9f e0       	ldi	r25, 0x0F	; 15
    b830:	0e 94 53 51 	call	0xa2a6	; 0xa2a6 <print_final_score>
			LBWaitSeconds(TEXT_LINGER);
    b834:	84 e0       	ldi	r24, 0x04	; 4
    b836:	0e 94 18 4e 	call	0x9c30	; 0x9c30 <LBWaitSeconds>
			exit_game();
		}
	}
}
    b83a:	cf 91       	pop	r28
			if (player1.score > player2.score)
				print_final_score(&player1, &player2);
			else
				print_final_score(&player2, &player1);
			LBWaitSeconds(TEXT_LINGER);
			exit_game();
    b83c:	0c 94 55 5b 	jmp	0xb6aa	; 0xb6aa <exit_game>
		}
	}
}
    b840:	cf 91       	pop	r28
    b842:	08 95       	ret

0000b844 <update_tank_rank>:
	Print(10, 24, (char*) strCancelHandle);
#endif
}

void update_tank_rank(JoyPadState* p1)
{
    b844:	cf 93       	push	r28
    b846:	df 93       	push	r29
    b848:	ec 01       	movw	r28, r24
		load_splash();
	}
	game.tank_rank_counter++;
#else
	// Update
	if (p1->pressed & BTN_X)
    b84a:	88 81       	ld	r24, Y
    b84c:	99 81       	ldd	r25, Y+1	; 0x01
    b84e:	91 ff       	sbrs	r25, 1
    b850:	11 c0       	rjmp	.+34     	; 0xb874 <update_tank_rank+0x30>
	{
		game.tank_rank_counter = 0;
    b852:	10 92 b1 0b 	sts	0x0BB1, r1
    b856:	10 92 b0 0b 	sts	0x0BB0, r1
		LBPlaySound(game.selection, player1.flags, player2.flags, PATCH_NAVIGATE);
    b85a:	24 e0       	ldi	r18, 0x04	; 4
    b85c:	40 91 5c 0f 	lds	r20, 0x0F5C
    b860:	60 91 ea 0b 	lds	r22, 0x0BEA
    b864:	80 91 b6 0b 	lds	r24, 0x0BB6
    b868:	0e 94 31 4e 	call	0x9c62	; 0x9c62 <LBPlaySound>
		fade_through();
    b86c:	0e 94 0c 50 	call	0xa018	; 0xa018 <fade_through>
		load_splash();
    b870:	0e 94 66 5a 	call	0xb4cc	; 0xb4cc <load_splash>
	}
	if ((p1->held & BTN_SL) && (p1->held_cycles == 255))
    b874:	8c 81       	ldd	r24, Y+4	; 0x04
    b876:	9d 81       	ldd	r25, Y+5	; 0x05
    b878:	92 ff       	sbrs	r25, 2
    b87a:	22 c0       	rjmp	.+68     	; 0xb8c0 <update_tank_rank+0x7c>
    b87c:	8e 81       	ldd	r24, Y+6	; 0x06
    b87e:	8f 3f       	cpi	r24, 0xFF	; 255
    b880:	f9 f4       	brne	.+62     	; 0xb8c0 <update_tank_rank+0x7c>
	{
		game.tank_rank_counter = 0;
    b882:	10 92 b1 0b 	sts	0x0BB1, r1
    b886:	10 92 b0 0b 	sts	0x0BB0, r1
	    LBPlaySound(game.selection, player1.flags, player2.flags, PATCH_NAVIGATE);
    b88a:	24 e0       	ldi	r18, 0x04	; 4
    b88c:	40 91 5c 0f 	lds	r20, 0x0F5C
    b890:	60 91 ea 0b 	lds	r22, 0x0BEA
    b894:	80 91 b6 0b 	lds	r24, 0x0BB6
    b898:	0e 94 31 4e 	call	0x9c62	; 0x9c62 <LBPlaySound>
	    init_scores(&scores);
    b89c:	86 e5       	ldi	r24, 0x56	; 86
    b89e:	9b e0       	ldi	r25, 0x0B	; 11
    b8a0:	0e 94 3e 4e 	call	0x9c7c	; 0x9c7c <init_scores>
	    init_handles(&handles);
    b8a4:	83 e8       	ldi	r24, 0x83	; 131
    b8a6:	9b e0       	ldi	r25, 0x0B	; 11
    b8a8:	0e 94 4a 4e 	call	0x9c94	; 0x9c94 <init_handles>
void save_eeprom(struct EepromBlockStruct* block)
/*
 * Save to EEPROM
 */
{
	EepromWriteBlock(block);
    b8ac:	86 e5       	ldi	r24, 0x56	; 86
    b8ae:	9b e0       	ldi	r25, 0x0B	; 11
    b8b0:	0e 94 b2 3b 	call	0x7764	; 0x7764 <EepromWriteBlock>
    b8b4:	83 e8       	ldi	r24, 0x83	; 131
    b8b6:	9b e0       	ldi	r25, 0x0B	; 11
    b8b8:	0e 94 b2 3b 	call	0x7764	; 0x7764 <EepromWriteBlock>
	    LBPlaySound(game.selection, player1.flags, player2.flags, PATCH_NAVIGATE);
	    init_scores(&scores);
	    init_handles(&handles);
	    save_eeprom(&scores);
	    save_eeprom(&handles);
	    load_tank_rank();
    b8bc:	0e 94 ba 5a 	call	0xb574	; 0xb574 <load_tank_rank>
	}
	
	if (game.tank_rank_counter > TANK_RANK_LENGTH)
    b8c0:	80 91 b0 0b 	lds	r24, 0x0BB0
    b8c4:	90 91 b1 0b 	lds	r25, 0x0BB1
    b8c8:	85 38       	cpi	r24, 0x85	; 133
    b8ca:	93 40       	sbci	r25, 0x03	; 3
    b8cc:	88 f0       	brcs	.+34     	; 0xb8f0 <update_tank_rank+0xac>
	{
		game.tank_rank_counter = 0;
    b8ce:	10 92 b1 0b 	sts	0x0BB1, r1
    b8d2:	10 92 b0 0b 	sts	0x0BB0, r1
		LBPlaySound(game.selection, player1.flags, player2.flags, PATCH_NAVIGATE);
    b8d6:	24 e0       	ldi	r18, 0x04	; 4
    b8d8:	40 91 5c 0f 	lds	r20, 0x0F5C
    b8dc:	60 91 ea 0b 	lds	r22, 0x0BEA
    b8e0:	80 91 b6 0b 	lds	r24, 0x0BB6
    b8e4:	0e 94 31 4e 	call	0x9c62	; 0x9c62 <LBPlaySound>
		fade_through();
    b8e8:	0e 94 0c 50 	call	0xa018	; 0xa018 <fade_through>
		load_splash();
    b8ec:	0e 94 66 5a 	call	0xb4cc	; 0xb4cc <load_splash>
	}
	game.tank_rank_counter++;
    b8f0:	80 91 b0 0b 	lds	r24, 0x0BB0
    b8f4:	90 91 b1 0b 	lds	r25, 0x0BB1
    b8f8:	01 96       	adiw	r24, 0x01	; 1
    b8fa:	90 93 b1 0b 	sts	0x0BB1, r25
    b8fe:	80 93 b0 0b 	sts	0x0BB0, r24
#endif
}
    b902:	df 91       	pop	r29
    b904:	cf 91       	pop	r28
    b906:	08 95       	ret

0000b908 <_handle_select_render_helper>:
	}
#endif
}

void _handle_select_render_helper(HandleSelectState* ps, JoyPadState* p, u8 x_offset, u8 idx)
{
    b908:	af 92       	push	r10
    b90a:	bf 92       	push	r11
    b90c:	cf 92       	push	r12
    b90e:	df 92       	push	r13
    b910:	ef 92       	push	r14
    b912:	ff 92       	push	r15
    b914:	0f 93       	push	r16
    b916:	1f 93       	push	r17
    b918:	cf 93       	push	r28
    b91a:	df 93       	push	r29
    b91c:	00 d0       	rcall	.+0      	; 0xb91e <_handle_select_render_helper+0x16>
    b91e:	1f 92       	push	r1
    b920:	cd b7       	in	r28, 0x3d	; 61
    b922:	de b7       	in	r29, 0x3e	; 62
    b924:	7c 01       	movw	r14, r24
    b926:	b4 2e       	mov	r11, r20
    b928:	12 2f       	mov	r17, r18
	u8 tmp[3] = {' ', ' ', ' '};
    b92a:	80 e2       	ldi	r24, 0x20	; 32
    b92c:	89 83       	std	Y+1, r24	; 0x01
    b92e:	8a 83       	std	Y+2, r24	; 0x02
    b930:	8b 83       	std	Y+3, r24	; 0x03
	if (ps->select_state == SELECTING)
    b932:	f7 01       	movw	r30, r14
    b934:	85 81       	ldd	r24, Z+5	; 0x05
    b936:	81 11       	cpse	r24, r1
    b938:	1d c0       	rjmp	.+58     	; 0xb974 <_handle_select_render_helper+0x6c>
	{
		MapSprite2(idx, map_right_arrow, 0);
    b93a:	40 e0       	ldi	r20, 0x00	; 0
    b93c:	65 e2       	ldi	r22, 0x25	; 37
    b93e:	71 e3       	ldi	r23, 0x31	; 49
    b940:	82 2f       	mov	r24, r18
    b942:	0e 94 e6 47 	call	0x8fcc	; 0x8fcc <MapSprite2>
		MapSprite2(idx+1, map_none, 0);
    b946:	40 e0       	ldi	r20, 0x00	; 0
    b948:	67 e6       	ldi	r22, 0x67	; 103
    b94a:	71 e3       	ldi	r23, 0x31	; 49
    b94c:	81 e0       	ldi	r24, 0x01	; 1
    b94e:	81 0f       	add	r24, r17
    b950:	0e 94 e6 47 	call	0x8fcc	; 0x8fcc <MapSprite2>
		MoveSprite(idx, x_offset*8, (8 + ps->handle_id)*8, 1, 1);
    b954:	f7 01       	movw	r30, r14
    b956:	40 81       	ld	r20, Z
    b958:	44 0f       	add	r20, r20
    b95a:	44 0f       	add	r20, r20
    b95c:	44 0f       	add	r20, r20
    b95e:	40 5c       	subi	r20, 0xC0	; 192
    b960:	01 e0       	ldi	r16, 0x01	; 1
    b962:	21 e0       	ldi	r18, 0x01	; 1
    b964:	6b 2d       	mov	r22, r11
    b966:	66 0f       	add	r22, r22
    b968:	66 0f       	add	r22, r22
    b96a:	66 0f       	add	r22, r22
    b96c:	81 2f       	mov	r24, r17
    b96e:	0e 94 38 48 	call	0x9070	; 0x9070 <MoveSprite>
    b972:	6e c0       	rjmp	.+220    	; 0xba50 <_handle_select_render_helper+0x148>
	}
	else if (ps->select_state == EDITING)
    b974:	81 30       	cpi	r24, 0x01	; 1
    b976:	09 f0       	breq	.+2      	; 0xb97a <_handle_select_render_helper+0x72>
    b978:	43 c0       	rjmp	.+134    	; 0xba00 <_handle_select_render_helper+0xf8>
	{
		MapSprite2(idx, map_down_arrow, 0);
    b97a:	40 e0       	ldi	r20, 0x00	; 0
    b97c:	62 e2       	ldi	r22, 0x22	; 34
    b97e:	71 e3       	ldi	r23, 0x31	; 49
    b980:	82 2f       	mov	r24, r18
    b982:	0e 94 e6 47 	call	0x8fcc	; 0x8fcc <MapSprite2>
		MapSprite2(idx+1, map_up_arrow, 0);
    b986:	aa 24       	eor	r10, r10
    b988:	a3 94       	inc	r10
    b98a:	a1 0e       	add	r10, r17
    b98c:	40 e0       	ldi	r20, 0x00	; 0
    b98e:	6f e1       	ldi	r22, 0x1F	; 31
    b990:	71 e3       	ldi	r23, 0x31	; 49
    b992:	8a 2d       	mov	r24, r10
    b994:	0e 94 e6 47 	call	0x8fcc	; 0x8fcc <MapSprite2>
		MoveSprite(idx, (x_offset+5+ps->char_index)*8, (8 + ps->handle_id - 1)*8, 1, 1);
    b998:	cb 2c       	mov	r12, r11
    b99a:	d1 2c       	mov	r13, r1
    b99c:	f5 e0       	ldi	r31, 0x05	; 5
    b99e:	cf 0e       	add	r12, r31
    b9a0:	d1 1c       	adc	r13, r1
    b9a2:	f7 01       	movw	r30, r14
    b9a4:	40 81       	ld	r20, Z
    b9a6:	44 0f       	add	r20, r20
    b9a8:	44 0f       	add	r20, r20
    b9aa:	44 0f       	add	r20, r20
    b9ac:	48 5c       	subi	r20, 0xC8	; 200
    b9ae:	84 81       	ldd	r24, Z+4	; 0x04
    b9b0:	b6 01       	movw	r22, r12
    b9b2:	68 0f       	add	r22, r24
    b9b4:	71 1d       	adc	r23, r1
    b9b6:	87 fd       	sbrc	r24, 7
    b9b8:	7a 95       	dec	r23
    b9ba:	66 0f       	add	r22, r22
    b9bc:	66 0f       	add	r22, r22
    b9be:	66 0f       	add	r22, r22
    b9c0:	01 e0       	ldi	r16, 0x01	; 1
    b9c2:	21 e0       	ldi	r18, 0x01	; 1
    b9c4:	81 2f       	mov	r24, r17
    b9c6:	0e 94 38 48 	call	0x9070	; 0x9070 <MoveSprite>
		MoveSprite(idx+1, (x_offset+5+ps->char_index)*8, (8 + ps->handle_id + 1)*8, 1, 1);
    b9ca:	f7 01       	movw	r30, r14
    b9cc:	40 81       	ld	r20, Z
    b9ce:	44 0f       	add	r20, r20
    b9d0:	44 0f       	add	r20, r20
    b9d2:	44 0f       	add	r20, r20
    b9d4:	48 5b       	subi	r20, 0xB8	; 184
    b9d6:	84 81       	ldd	r24, Z+4	; 0x04
    b9d8:	c8 0e       	add	r12, r24
    b9da:	d1 1c       	adc	r13, r1
    b9dc:	87 fd       	sbrc	r24, 7
    b9de:	da 94       	dec	r13
    b9e0:	6c 2d       	mov	r22, r12
    b9e2:	66 0f       	add	r22, r22
    b9e4:	66 0f       	add	r22, r22
    b9e6:	66 0f       	add	r22, r22
    b9e8:	21 e0       	ldi	r18, 0x01	; 1
    b9ea:	8a 2d       	mov	r24, r10
    b9ec:	0e 94 38 48 	call	0x9070	; 0x9070 <MoveSprite>
		memcpy(tmp, ps->handle, 3);
    b9f0:	f7 01       	movw	r30, r14
    b9f2:	81 81       	ldd	r24, Z+1	; 0x01
    b9f4:	92 81       	ldd	r25, Z+2	; 0x02
    b9f6:	a3 81       	ldd	r26, Z+3	; 0x03
    b9f8:	89 83       	std	Y+1, r24	; 0x01
    b9fa:	9a 83       	std	Y+2, r25	; 0x02
    b9fc:	ab 83       	std	Y+3, r26	; 0x03
    b9fe:	28 c0       	rjmp	.+80     	; 0xba50 <_handle_select_render_helper+0x148>
	}
	else if (ps->select_state == CONFIRMED)
    ba00:	82 30       	cpi	r24, 0x02	; 2
    ba02:	31 f5       	brne	.+76     	; 0xba50 <_handle_select_render_helper+0x148>
	{
		PrintChar(x_offset+6, 5, '(');
    ba04:	c4 2e       	mov	r12, r20
    ba06:	d1 2c       	mov	r13, r1
    ba08:	48 e2       	ldi	r20, 0x28	; 40
    ba0a:	65 e0       	ldi	r22, 0x05	; 5
    ba0c:	70 e0       	ldi	r23, 0x00	; 0
    ba0e:	c6 01       	movw	r24, r12
    ba10:	06 96       	adiw	r24, 0x06	; 6
    ba12:	0e 94 07 49 	call	0x920e	; 0x920e <PrintChar>
		LBPrintStr(x_offset+7, 5, ps->handle, 3);
    ba16:	23 e0       	ldi	r18, 0x03	; 3
    ba18:	a7 01       	movw	r20, r14
    ba1a:	4f 5f       	subi	r20, 0xFF	; 255
    ba1c:	5f 4f       	sbci	r21, 0xFF	; 255
    ba1e:	65 e0       	ldi	r22, 0x05	; 5
    ba20:	87 e0       	ldi	r24, 0x07	; 7
    ba22:	8b 0d       	add	r24, r11
    ba24:	0e 94 96 4c 	call	0x992c	; 0x992c <LBPrintStr>
		PrintChar(x_offset+10, 5, ')');
    ba28:	49 e2       	ldi	r20, 0x29	; 41
    ba2a:	65 e0       	ldi	r22, 0x05	; 5
    ba2c:	70 e0       	ldi	r23, 0x00	; 0
    ba2e:	c6 01       	movw	r24, r12
    ba30:	0a 96       	adiw	r24, 0x0a	; 10
    ba32:	0e 94 07 49 	call	0x920e	; 0x920e <PrintChar>
		MapSprite2(idx, map_none, 0);
    ba36:	40 e0       	ldi	r20, 0x00	; 0
    ba38:	67 e6       	ldi	r22, 0x67	; 103
    ba3a:	71 e3       	ldi	r23, 0x31	; 49
    ba3c:	81 2f       	mov	r24, r17
    ba3e:	0e 94 e6 47 	call	0x8fcc	; 0x8fcc <MapSprite2>
		MapSprite2(idx+1, map_none, 0);
    ba42:	40 e0       	ldi	r20, 0x00	; 0
    ba44:	67 e6       	ldi	r22, 0x67	; 103
    ba46:	71 e3       	ldi	r23, 0x31	; 49
    ba48:	81 e0       	ldi	r24, 0x01	; 1
    ba4a:	81 0f       	add	r24, r17
    ba4c:	0e 94 e6 47 	call	0x8fcc	; 0x8fcc <MapSprite2>
	}
	LBPrintStr(x_offset+5, (8 + ps->handle_id), tmp, 3);
    ba50:	f7 01       	movw	r30, r14
    ba52:	60 81       	ld	r22, Z
    ba54:	68 5f       	subi	r22, 0xF8	; 248
    ba56:	23 e0       	ldi	r18, 0x03	; 3
    ba58:	ae 01       	movw	r20, r28
    ba5a:	4f 5f       	subi	r20, 0xFF	; 255
    ba5c:	5f 4f       	sbci	r21, 0xFF	; 255
    ba5e:	85 e0       	ldi	r24, 0x05	; 5
    ba60:	8b 0d       	add	r24, r11
    ba62:	0e 94 96 4c 	call	0x992c	; 0x992c <LBPrintStr>
}
    ba66:	0f 90       	pop	r0
    ba68:	0f 90       	pop	r0
    ba6a:	0f 90       	pop	r0
    ba6c:	df 91       	pop	r29
    ba6e:	cf 91       	pop	r28
    ba70:	1f 91       	pop	r17
    ba72:	0f 91       	pop	r16
    ba74:	ff 90       	pop	r15
    ba76:	ef 90       	pop	r14
    ba78:	df 90       	pop	r13
    ba7a:	cf 90       	pop	r12
    ba7c:	bf 90       	pop	r11
    ba7e:	af 90       	pop	r10
    ba80:	08 95       	ret

0000ba82 <load_handle_select>:

void load_handle_select()
{
    ba82:	8f 92       	push	r8
    ba84:	9f 92       	push	r9
    ba86:	af 92       	push	r10
    ba88:	bf 92       	push	r11
    ba8a:	cf 92       	push	r12
    ba8c:	df 92       	push	r13
    ba8e:	ef 92       	push	r14
    ba90:	ff 92       	push	r15
    ba92:	0f 93       	push	r16
    ba94:	1f 93       	push	r17
    ba96:	cf 93       	push	r28
    ba98:	df 93       	push	r29
	game.current_screen = HANDLE_SELECT;
    ba9a:	82 e0       	ldi	r24, 0x02	; 2
    ba9c:	80 93 a3 0b 	sts	0x0BA3, r24
	clear_sprites();
    baa0:	0e 94 16 50 	call	0xa02c	; 0xa02c <clear_sprites>
	DrawMap2(3, 4, map_green_tank);
    baa4:	45 ea       	ldi	r20, 0xA5	; 165
    baa6:	5a e6       	ldi	r21, 0x6A	; 106
    baa8:	64 e0       	ldi	r22, 0x04	; 4
    baaa:	83 e0       	ldi	r24, 0x03	; 3
    baac:	0e 94 6c 48 	call	0x90d8	; 0x90d8 <DrawMap>
	DrawMap2(20, 4, map_blue_tank);
    bab0:	4f e9       	ldi	r20, 0x9F	; 159
    bab2:	5a e6       	ldi	r21, 0x6A	; 106
    bab4:	64 e0       	ldi	r22, 0x04	; 4
    bab6:	84 e1       	ldi	r24, 0x14	; 20
    bab8:	0e 94 6c 48 	call	0x90d8	; 0x90d8 <DrawMap>
	Print(9, 1, (char*) strHandlesTitle);
    babc:	4d e4       	ldi	r20, 0x4D	; 77
    babe:	54 e0       	ldi	r21, 0x04	; 4
    bac0:	61 e0       	ldi	r22, 0x01	; 1
    bac2:	70 e0       	ldi	r23, 0x00	; 0
    bac4:	89 e0       	ldi	r24, 0x09	; 9
    bac6:	90 e0       	ldi	r25, 0x00	; 0
    bac8:	0e 94 ec 48 	call	0x91d8	; 0x91d8 <Print>
	Print(6, 5, (char*) strPlayer1);
    bacc:	4c e3       	ldi	r20, 0x3C	; 60
    bace:	54 e0       	ldi	r21, 0x04	; 4
    bad0:	65 e0       	ldi	r22, 0x05	; 5
    bad2:	70 e0       	ldi	r23, 0x00	; 0
    bad4:	86 e0       	ldi	r24, 0x06	; 6
    bad6:	90 e0       	ldi	r25, 0x00	; 0
    bad8:	0e 94 ec 48 	call	0x91d8	; 0x91d8 <Print>
	Print(23, 5, (char*) strPlayer2);
    badc:	49 e3       	ldi	r20, 0x39	; 57
    bade:	54 e0       	ldi	r21, 0x04	; 4
    bae0:	65 e0       	ldi	r22, 0x05	; 5
    bae2:	70 e0       	ldi	r23, 0x00	; 0
    bae4:	87 e1       	ldi	r24, 0x17	; 23
    bae6:	90 e0       	ldi	r25, 0x00	; 0
    bae8:	0e 94 ec 48 	call	0x91d8	; 0x91d8 <Print>
    baec:	85 e8       	ldi	r24, 0x85	; 133
    baee:	e8 2e       	mov	r14, r24
    baf0:	8b e0       	ldi	r24, 0x0B	; 11
    baf2:	f8 2e       	mov	r15, r24
	for (int i = 0; i < 27; i += 1)
    baf4:	c0 e0       	ldi	r28, 0x00	; 0
    baf6:	d0 e0       	ldi	r29, 0x00	; 0
	{
		PrintChar((i % 3) + 3, 8 + (i / 3), handles.data[i]);
    baf8:	93 e0       	ldi	r25, 0x03	; 3
    bafa:	a9 2e       	mov	r10, r25
    bafc:	b1 2c       	mov	r11, r1
    bafe:	67 01       	movw	r12, r14
    bb00:	ce 01       	movw	r24, r28
    bb02:	b5 01       	movw	r22, r10
    bb04:	0e 94 9a 72 	call	0xe534	; 0xe534 <__divmodhi4>
    bb08:	4c 01       	movw	r8, r24
    bb0a:	8b 01       	movw	r16, r22
    bb0c:	08 5f       	subi	r16, 0xF8	; 248
    bb0e:	1f 4f       	sbci	r17, 0xFF	; 255
    bb10:	f7 01       	movw	r30, r14
    bb12:	41 91       	ld	r20, Z+
    bb14:	7f 01       	movw	r14, r30
    bb16:	b8 01       	movw	r22, r16
    bb18:	03 96       	adiw	r24, 0x03	; 3
    bb1a:	0e 94 07 49 	call	0x920e	; 0x920e <PrintChar>
		PrintChar(20 + (i % 3), 8 + (i / 3), handles.data[i]);
    bb1e:	f6 01       	movw	r30, r12
    bb20:	40 81       	ld	r20, Z
    bb22:	b8 01       	movw	r22, r16
    bb24:	c4 01       	movw	r24, r8
    bb26:	44 96       	adiw	r24, 0x14	; 20
    bb28:	0e 94 07 49 	call	0x920e	; 0x920e <PrintChar>
	DrawMap2(3, 4, map_green_tank);
	DrawMap2(20, 4, map_blue_tank);
	Print(9, 1, (char*) strHandlesTitle);
	Print(6, 5, (char*) strPlayer1);
	Print(23, 5, (char*) strPlayer2);
	for (int i = 0; i < 27; i += 1)
    bb2c:	21 96       	adiw	r28, 0x01	; 1
    bb2e:	cb 31       	cpi	r28, 0x1B	; 27
    bb30:	d1 05       	cpc	r29, r1
    bb32:	29 f7       	brne	.-54     	; 0xbafe <load_handle_select+0x7c>
	}
#if JAMMA
	Print(6, 22, (char*) strSelectHandle);
	Print(6, 24, (char*) strChangeHandle);
#else
	Print(5, 21, (char*) strSelectHandle);
    bb34:	48 e7       	ldi	r20, 0x78	; 120
    bb36:	54 e0       	ldi	r21, 0x04	; 4
    bb38:	65 e1       	ldi	r22, 0x15	; 21
    bb3a:	70 e0       	ldi	r23, 0x00	; 0
    bb3c:	85 e0       	ldi	r24, 0x05	; 5
    bb3e:	90 e0       	ldi	r25, 0x00	; 0
    bb40:	0e 94 ec 48 	call	0x91d8	; 0x91d8 <Print>
	Print(5, 22, (char*) strConfirmHandle);
    bb44:	4b ea       	ldi	r20, 0xAB	; 171
    bb46:	54 e0       	ldi	r21, 0x04	; 4
    bb48:	66 e1       	ldi	r22, 0x16	; 22
    bb4a:	70 e0       	ldi	r23, 0x00	; 0
    bb4c:	85 e0       	ldi	r24, 0x05	; 5
    bb4e:	90 e0       	ldi	r25, 0x00	; 0
    bb50:	0e 94 ec 48 	call	0x91d8	; 0x91d8 <Print>
	Print(5, 23, (char*) strCancelHandle);
    bb54:	47 e8       	ldi	r20, 0x87	; 135
    bb56:	54 e0       	ldi	r21, 0x04	; 4
    bb58:	67 e1       	ldi	r22, 0x17	; 23
    bb5a:	70 e0       	ldi	r23, 0x00	; 0
    bb5c:	85 e0       	ldi	r24, 0x05	; 5
    bb5e:	90 e0       	ldi	r25, 0x00	; 0
    bb60:	0e 94 ec 48 	call	0x91d8	; 0x91d8 <Print>
	Print(5, 24, (char*) strChangeHandle);
    bb64:	4a e2       	ldi	r20, 0x2A	; 42
    bb66:	54 e0       	ldi	r21, 0x04	; 4
    bb68:	68 e1       	ldi	r22, 0x18	; 24
    bb6a:	70 e0       	ldi	r23, 0x00	; 0
    bb6c:	85 e0       	ldi	r24, 0x05	; 5
    bb6e:	90 e0       	ldi	r25, 0x00	; 0
#endif
}
    bb70:	df 91       	pop	r29
    bb72:	cf 91       	pop	r28
    bb74:	1f 91       	pop	r17
    bb76:	0f 91       	pop	r16
    bb78:	ff 90       	pop	r15
    bb7a:	ef 90       	pop	r14
    bb7c:	df 90       	pop	r13
    bb7e:	cf 90       	pop	r12
    bb80:	bf 90       	pop	r11
    bb82:	af 90       	pop	r10
    bb84:	9f 90       	pop	r9
    bb86:	8f 90       	pop	r8
	Print(6, 24, (char*) strChangeHandle);
#else
	Print(5, 21, (char*) strSelectHandle);
	Print(5, 22, (char*) strConfirmHandle);
	Print(5, 23, (char*) strCancelHandle);
	Print(5, 24, (char*) strChangeHandle);
    bb88:	0c 94 ec 48 	jmp	0x91d8	; 0x91d8 <Print>

0000bb8c <load_host_net_game>:
#if JAMMA
#else

void load_host_net_game()
{
	game.current_screen = HOST_NET_GAME;
    bb8c:	84 e0       	ldi	r24, 0x04	; 4
    bb8e:	80 93 a3 0b 	sts	0x0BA3, r24
	clear_sprites();
    bb92:	0e 94 16 50 	call	0xa02c	; 0xa02c <clear_sprites>
	if (hostNetGame((char*)gameId) == WIFI_OK)
    bb96:	84 e0       	ldi	r24, 0x04	; 4
    bb98:	91 e0       	ldi	r25, 0x01	; 1
    bb9a:	0e 94 15 4b 	call	0x962a	; 0x962a <hostNetGame>
    bb9e:	81 11       	cpse	r24, r1
    bba0:	24 c0       	rjmp	.+72     	; 0xbbea <load_host_net_game+0x5e>
	{
		Print(5, 1, (char*) strShareGameId);
    bba2:	47 e0       	ldi	r20, 0x07	; 7
    bba4:	55 e0       	ldi	r21, 0x05	; 5
    bba6:	61 e0       	ldi	r22, 0x01	; 1
    bba8:	70 e0       	ldi	r23, 0x00	; 0
    bbaa:	85 e0       	ldi	r24, 0x05	; 5
    bbac:	90 e0       	ldi	r25, 0x00	; 0
    bbae:	0e 94 ec 48 	call	0x91d8	; 0x91d8 <Print>
		LBPrintStr(10, 10, gameId, 8);
    bbb2:	28 e0       	ldi	r18, 0x08	; 8
    bbb4:	44 e0       	ldi	r20, 0x04	; 4
    bbb6:	51 e0       	ldi	r21, 0x01	; 1
    bbb8:	6a e0       	ldi	r22, 0x0A	; 10
    bbba:	8a e0       	ldi	r24, 0x0A	; 10
    bbbc:	0e 94 96 4c 	call	0x992c	; 0x992c <LBPrintStr>
		Print(2, 18, (char*) strWaitingForNetOppenent);
    bbc0:	4c ee       	ldi	r20, 0xEC	; 236
    bbc2:	54 e0       	ldi	r21, 0x04	; 4
    bbc4:	62 e1       	ldi	r22, 0x12	; 18
    bbc6:	70 e0       	ldi	r23, 0x00	; 0
    bbc8:	82 e0       	ldi	r24, 0x02	; 2
    bbca:	90 e0       	ldi	r25, 0x00	; 0
    bbcc:	0e 94 ec 48 	call	0x91d8	; 0x91d8 <Print>
		DrawMap2(7, 10, map_green_tank);
    bbd0:	45 ea       	ldi	r20, 0xA5	; 165
    bbd2:	5a e6       	ldi	r21, 0x6A	; 106
    bbd4:	6a e0       	ldi	r22, 0x0A	; 10
    bbd6:	87 e0       	ldi	r24, 0x07	; 7
    bbd8:	0e 94 6c 48 	call	0x90d8	; 0x90d8 <DrawMap>
		DrawMap2(19, 10, map_blue_tank);
    bbdc:	4f e9       	ldi	r20, 0x9F	; 159
    bbde:	5a e6       	ldi	r21, 0x6A	; 106
    bbe0:	6a e0       	ldi	r22, 0x0A	; 10
    bbe2:	83 e1       	ldi	r24, 0x13	; 19
    bbe4:	0e 94 6c 48 	call	0x90d8	; 0x90d8 <DrawMap>
    bbe8:	08 c0       	rjmp	.+16     	; 0xbbfa <load_host_net_game+0x6e>
	}
	else
	{
		Print(7, 10, (char*) strNetworkError);
    bbea:	4d eb       	ldi	r20, 0xBD	; 189
    bbec:	54 e0       	ldi	r21, 0x04	; 4
    bbee:	6a e0       	ldi	r22, 0x0A	; 10
    bbf0:	70 e0       	ldi	r23, 0x00	; 0
    bbf2:	87 e0       	ldi	r24, 0x07	; 7
    bbf4:	90 e0       	ldi	r25, 0x00	; 0
    bbf6:	0e 94 ec 48 	call	0x91d8	; 0x91d8 <Print>
	}
	Print(9, 23, (char*) strCancelHandle);
    bbfa:	47 e8       	ldi	r20, 0x87	; 135
    bbfc:	54 e0       	ldi	r21, 0x04	; 4
    bbfe:	67 e1       	ldi	r22, 0x17	; 23
    bc00:	70 e0       	ldi	r23, 0x00	; 0
    bc02:	89 e0       	ldi	r24, 0x09	; 9
    bc04:	90 e0       	ldi	r25, 0x00	; 0
    bc06:	0c 94 ec 48 	jmp	0x91d8	; 0x91d8 <Print>

0000bc0a <update_host_net_game>:
}

void update_host_net_game(JoyPadState* p1)
{
	if (p1->pressed & BTN_X)
    bc0a:	fc 01       	movw	r30, r24
    bc0c:	80 81       	ld	r24, Z
    bc0e:	91 81       	ldd	r25, Z+1	; 0x01
    bc10:	91 ff       	sbrs	r25, 1
    bc12:	0d c0       	rjmp	.+26     	; 0xbc2e <update_host_net_game+0x24>
	{
		LBPlaySound(game.selection, player1.flags, player2.flags, PATCH_NAVIGATE);
    bc14:	24 e0       	ldi	r18, 0x04	; 4
    bc16:	40 91 5c 0f 	lds	r20, 0x0F5C
    bc1a:	60 91 ea 0b 	lds	r22, 0x0BEA
    bc1e:	80 91 b6 0b 	lds	r24, 0x0BB6
    bc22:	0e 94 31 4e 	call	0x9c62	; 0x9c62 <LBPlaySound>
		fade_through();
    bc26:	0e 94 0c 50 	call	0xa018	; 0xa018 <fade_through>
		load_splash();
    bc2a:	0c 94 66 5a 	jmp	0xb4cc	; 0xb4cc <load_splash>
	} 
	else if (netMessage.code == NETJOINED)
    bc2e:	80 91 df 0f 	lds	r24, 0x0FDF
    bc32:	8b 30       	cpi	r24, 0x0B	; 11
    bc34:	c9 f4       	brne	.+50     	; 0xbc68 <update_host_net_game+0x5e>
	{
		game.demo_counter = 0;
    bc36:	10 92 ad 0b 	sts	0x0BAD, r1
    bc3a:	10 92 ac 0b 	sts	0x0BAC, r1
		p1s.select_state = SELECTING;
    bc3e:	10 92 00 10 	sts	0x1000, r1
		p2s.select_state = SELECTING;
    bc42:	10 92 82 0b 	sts	0x0B82, r1
		LBPlaySound(game.selection, player1.flags, player2.flags, PATCH_NAVIGATE);
    bc46:	24 e0       	ldi	r18, 0x04	; 4
    bc48:	40 91 5c 0f 	lds	r20, 0x0F5C
    bc4c:	60 91 ea 0b 	lds	r22, 0x0BEA
    bc50:	80 91 b6 0b 	lds	r24, 0x0BB6
    bc54:	0e 94 31 4e 	call	0x9c62	; 0x9c62 <LBPlaySound>
		fade_through();
    bc58:	0e 94 0c 50 	call	0xa018	; 0xa018 <fade_through>
		load_eeprom(&handles);
    bc5c:	83 e8       	ldi	r24, 0x83	; 131
    bc5e:	9b e0       	ldi	r25, 0x0B	; 11
    bc60:	0e 94 fa 4f 	call	0x9ff4	; 0x9ff4 <load_eeprom>
		load_handle_select();
    bc64:	0c 94 41 5d 	jmp	0xba82	; 0xba82 <load_handle_select>
    bc68:	08 95       	ret

0000bc6a <load_join_net_game>:
	}
}

void load_join_net_game()
{
	game.current_screen = JOIN_NET_GAME;
    bc6a:	85 e0       	ldi	r24, 0x05	; 5
    bc6c:	80 93 a3 0b 	sts	0x0BA3, r24
	clear_sprites();
    bc70:	0e 94 16 50 	call	0xa02c	; 0xa02c <clear_sprites>
	Print(5, 1, (char*) strEnterGameId);
    bc74:	4b ec       	ldi	r20, 0xCB	; 203
    bc76:	54 e0       	ldi	r21, 0x04	; 4
    bc78:	61 e0       	ldi	r22, 0x01	; 1
    bc7a:	70 e0       	ldi	r23, 0x00	; 0
    bc7c:	85 e0       	ldi	r24, 0x05	; 5
    bc7e:	90 e0       	ldi	r25, 0x00	; 0
    bc80:	0e 94 ec 48 	call	0x91d8	; 0x91d8 <Print>
	LBPrintStr(10, 10, gameId, 8);
    bc84:	28 e0       	ldi	r18, 0x08	; 8
    bc86:	44 e0       	ldi	r20, 0x04	; 4
    bc88:	51 e0       	ldi	r21, 0x01	; 1
    bc8a:	6a e0       	ldi	r22, 0x0A	; 10
    bc8c:	8a e0       	ldi	r24, 0x0A	; 10
    bc8e:	0e 94 96 4c 	call	0x992c	; 0x992c <LBPrintStr>
	DrawMap2(7, 10, map_green_tank);
    bc92:	45 ea       	ldi	r20, 0xA5	; 165
    bc94:	5a e6       	ldi	r21, 0x6A	; 106
    bc96:	6a e0       	ldi	r22, 0x0A	; 10
    bc98:	87 e0       	ldi	r24, 0x07	; 7
    bc9a:	0e 94 6c 48 	call	0x90d8	; 0x90d8 <DrawMap>
	DrawMap2(19, 10, map_blue_tank);
    bc9e:	4f e9       	ldi	r20, 0x9F	; 159
    bca0:	5a e6       	ldi	r21, 0x6A	; 106
    bca2:	6a e0       	ldi	r22, 0x0A	; 10
    bca4:	83 e1       	ldi	r24, 0x13	; 19
    bca6:	0e 94 6c 48 	call	0x90d8	; 0x90d8 <DrawMap>
	Print(5, 22, (char*) strConfirmHandle);
    bcaa:	4b ea       	ldi	r20, 0xAB	; 171
    bcac:	54 e0       	ldi	r21, 0x04	; 4
    bcae:	66 e1       	ldi	r22, 0x16	; 22
    bcb0:	70 e0       	ldi	r23, 0x00	; 0
    bcb2:	85 e0       	ldi	r24, 0x05	; 5
    bcb4:	90 e0       	ldi	r25, 0x00	; 0
    bcb6:	0e 94 ec 48 	call	0x91d8	; 0x91d8 <Print>
	Print(9, 23, (char*) strCancelHandle);
    bcba:	47 e8       	ldi	r20, 0x87	; 135
    bcbc:	54 e0       	ldi	r21, 0x04	; 4
    bcbe:	67 e1       	ldi	r22, 0x17	; 23
    bcc0:	70 e0       	ldi	r23, 0x00	; 0
    bcc2:	89 e0       	ldi	r24, 0x09	; 9
    bcc4:	90 e0       	ldi	r25, 0x00	; 0
    bcc6:	0e 94 ec 48 	call	0x91d8	; 0x91d8 <Print>
	gameIdIndex = 2;
    bcca:	82 e0       	ldi	r24, 0x02	; 2
    bccc:	80 93 03 01 	sts	0x0103, r24
    bcd0:	08 95       	ret

0000bcd2 <update_splash>:

void update_splash(JoyPadState* p1, JoyPadState* p2)
/*
 * Splash or title screen
 */
{		// Render
    bcd2:	0f 93       	push	r16
    bcd4:	cf 93       	push	r28
    bcd6:	df 93       	push	r29
    bcd8:	ec 01       	movw	r28, r24
		return;
		
	}
	game.demo_counter++;
#else
	switch (game.selection)
    bcda:	90 91 b6 0b 	lds	r25, 0x0BB6
    bcde:	92 30       	cpi	r25, 0x02	; 2
    bce0:	a9 f0       	breq	.+42     	; 0xbd0c <update_splash+0x3a>
    bce2:	44 f4       	brge	.+16     	; 0xbcf4 <update_splash+0x22>
    bce4:	99 23       	and	r25, r25
    bce6:	71 f0       	breq	.+28     	; 0xbd04 <update_splash+0x32>
    bce8:	91 30       	cpi	r25, 0x01	; 1
    bcea:	d9 f4       	brne	.+54     	; 0xbd22 <update_splash+0x50>
	{
		case PVCPU:
			MoveSprite(0, 6*8, 13*8, 1, 1);
			break;
		case PVP:
			MoveSprite(0, 6*8, 14*8, 1, 1);
    bcec:	01 e0       	ldi	r16, 0x01	; 1
    bcee:	21 e0       	ldi	r18, 0x01	; 1
    bcf0:	40 e7       	ldi	r20, 0x70	; 112
    bcf2:	13 c0       	rjmp	.+38     	; 0xbd1a <update_splash+0x48>
		return;
		
	}
	game.demo_counter++;
#else
	switch (game.selection)
    bcf4:	93 30       	cpi	r25, 0x03	; 3
    bcf6:	71 f0       	breq	.+28     	; 0xbd14 <update_splash+0x42>
    bcf8:	94 30       	cpi	r25, 0x04	; 4
    bcfa:	99 f4       	brne	.+38     	; 0xbd22 <update_splash+0x50>
			break;
		case JOINNETGAME:
			MoveSprite(0, 6*8, 16*8, 1, 1);
			break;
		case TR:
			MoveSprite(0, 6*8, 17*8, 1, 1);
    bcfc:	01 e0       	ldi	r16, 0x01	; 1
    bcfe:	21 e0       	ldi	r18, 0x01	; 1
    bd00:	48 e8       	ldi	r20, 0x88	; 136
    bd02:	0b c0       	rjmp	.+22     	; 0xbd1a <update_splash+0x48>
	game.demo_counter++;
#else
	switch (game.selection)
	{
		case PVCPU:
			MoveSprite(0, 6*8, 13*8, 1, 1);
    bd04:	01 e0       	ldi	r16, 0x01	; 1
    bd06:	21 e0       	ldi	r18, 0x01	; 1
    bd08:	48 e6       	ldi	r20, 0x68	; 104
    bd0a:	07 c0       	rjmp	.+14     	; 0xbd1a <update_splash+0x48>
			break;
		case PVP:
			MoveSprite(0, 6*8, 14*8, 1, 1);
			break;
		case HOSTNETGAME:
			MoveSprite(0, 6*8, 15*8, 1, 1);
    bd0c:	01 e0       	ldi	r16, 0x01	; 1
    bd0e:	21 e0       	ldi	r18, 0x01	; 1
    bd10:	48 e7       	ldi	r20, 0x78	; 120
    bd12:	03 c0       	rjmp	.+6      	; 0xbd1a <update_splash+0x48>
			break;
		case JOINNETGAME:
			MoveSprite(0, 6*8, 16*8, 1, 1);
    bd14:	01 e0       	ldi	r16, 0x01	; 1
    bd16:	21 e0       	ldi	r18, 0x01	; 1
    bd18:	40 e8       	ldi	r20, 0x80	; 128
			break;
		case TR:
			MoveSprite(0, 6*8, 17*8, 1, 1);
    bd1a:	60 e3       	ldi	r22, 0x30	; 48
    bd1c:	80 e0       	ldi	r24, 0x00	; 0
    bd1e:	0e 94 38 48 	call	0x9070	; 0x9070 <MoveSprite>
			break;
	}
	Print(6, 21, (char*) strSelectHandle);
    bd22:	48 e7       	ldi	r20, 0x78	; 120
    bd24:	54 e0       	ldi	r21, 0x04	; 4
    bd26:	65 e1       	ldi	r22, 0x15	; 21
    bd28:	70 e0       	ldi	r23, 0x00	; 0
    bd2a:	86 e0       	ldi	r24, 0x06	; 6
    bd2c:	90 e0       	ldi	r25, 0x00	; 0
    bd2e:	0e 94 ec 48 	call	0x91d8	; 0x91d8 <Print>

	// Update
	if (p1->pressed) game.demo_counter = 0;
    bd32:	28 81       	ld	r18, Y
    bd34:	39 81       	ldd	r19, Y+1	; 0x01
    bd36:	21 15       	cp	r18, r1
    bd38:	31 05       	cpc	r19, r1
    bd3a:	21 f0       	breq	.+8      	; 0xbd44 <update_splash+0x72>
    bd3c:	10 92 ad 0b 	sts	0x0BAD, r1
    bd40:	10 92 ac 0b 	sts	0x0BAC, r1
	
	if (p1->pressed & BTN_UP)
    bd44:	24 ff       	sbrs	r18, 4
    bd46:	16 c0       	rjmp	.+44     	; 0xbd74 <update_splash+0xa2>
	{
		game.selection--;
    bd48:	80 91 b6 0b 	lds	r24, 0x0BB6
    bd4c:	9f ef       	ldi	r25, 0xFF	; 255
    bd4e:	98 0f       	add	r25, r24
    bd50:	90 93 b6 0b 	sts	0x0BB6, r25
		if (game.selection == JOINNETGAME && wifi_status != WIFI_OK) game.selection -= 2;
    bd54:	93 30       	cpi	r25, 0x03	; 3
    bd56:	39 f4       	brne	.+14     	; 0xbd66 <update_splash+0x94>
    bd58:	90 91 d4 0b 	lds	r25, 0x0BD4
    bd5c:	99 23       	and	r25, r25
    bd5e:	19 f0       	breq	.+6      	; 0xbd66 <update_splash+0x94>
    bd60:	83 50       	subi	r24, 0x03	; 3
    bd62:	80 93 b6 0b 	sts	0x0BB6, r24
		if (game.selection < PVCPU) game.selection = PVCPU;
    bd66:	80 91 b6 0b 	lds	r24, 0x0BB6
    bd6a:	87 ff       	sbrs	r24, 7
    bd6c:	1b c0       	rjmp	.+54     	; 0xbda4 <update_splash+0xd2>
    bd6e:	10 92 b6 0b 	sts	0x0BB6, r1
    bd72:	18 c0       	rjmp	.+48     	; 0xbda4 <update_splash+0xd2>
		LBPlaySound(game.selection, player1.flags, player2.flags, PATCH_NAVIGATE);
	}
	else if (p1->pressed & BTN_DOWN)
    bd74:	25 ff       	sbrs	r18, 5
    bd76:	20 c0       	rjmp	.+64     	; 0xbdb8 <update_splash+0xe6>
	{
		game.selection++;
    bd78:	80 91 b6 0b 	lds	r24, 0x0BB6
    bd7c:	91 e0       	ldi	r25, 0x01	; 1
    bd7e:	98 0f       	add	r25, r24
    bd80:	90 93 b6 0b 	sts	0x0BB6, r25
		if (game.selection == HOSTNETGAME && wifi_status != WIFI_OK) game.selection += 2;
    bd84:	92 30       	cpi	r25, 0x02	; 2
    bd86:	39 f4       	brne	.+14     	; 0xbd96 <update_splash+0xc4>
    bd88:	90 91 d4 0b 	lds	r25, 0x0BD4
    bd8c:	99 23       	and	r25, r25
    bd8e:	19 f0       	breq	.+6      	; 0xbd96 <update_splash+0xc4>
    bd90:	8d 5f       	subi	r24, 0xFD	; 253
    bd92:	80 93 b6 0b 	sts	0x0BB6, r24
		if (game.selection > TR) game.selection = TR;
    bd96:	80 91 b6 0b 	lds	r24, 0x0BB6
    bd9a:	85 30       	cpi	r24, 0x05	; 5
    bd9c:	1c f0       	brlt	.+6      	; 0xbda4 <update_splash+0xd2>
    bd9e:	84 e0       	ldi	r24, 0x04	; 4
    bda0:	80 93 b6 0b 	sts	0x0BB6, r24
		LBPlaySound(game.selection, player1.flags, player2.flags, PATCH_NAVIGATE);
    bda4:	24 e0       	ldi	r18, 0x04	; 4
    bda6:	40 91 5c 0f 	lds	r20, 0x0F5C
    bdaa:	60 91 ea 0b 	lds	r22, 0x0BEA
    bdae:	80 91 b6 0b 	lds	r24, 0x0BB6
    bdb2:	0e 94 31 4e 	call	0x9c62	; 0x9c62 <LBPlaySound>
    bdb6:	b8 c0       	rjmp	.+368    	; 0xbf28 <update_splash+0x256>
	}
	else if (select_pressed(p1) && ((game.selection == PVCPU) || (game.selection == PVP)))
    bdb8:	ce 01       	movw	r24, r28
    bdba:	0e 94 b0 5a 	call	0xb560	; 0xb560 <select_pressed>
    bdbe:	88 23       	and	r24, r24
    bdc0:	09 f4       	brne	.+2      	; 0xbdc4 <update_splash+0xf2>
    bdc2:	5e c0       	rjmp	.+188    	; 0xbe80 <update_splash+0x1ae>
    bdc4:	80 91 b6 0b 	lds	r24, 0x0BB6
    bdc8:	82 30       	cpi	r24, 0x02	; 2
    bdca:	d0 f4       	brcc	.+52     	; 0xbe00 <update_splash+0x12e>
	{
		game.demo_counter = 0;
    bdcc:	10 92 ad 0b 	sts	0x0BAD, r1
    bdd0:	10 92 ac 0b 	sts	0x0BAC, r1
		p1s.select_state = SELECTING;
    bdd4:	10 92 00 10 	sts	0x1000, r1
		p2s.select_state = SELECTING;
    bdd8:	10 92 82 0b 	sts	0x0B82, r1
		LBPlaySound(game.selection, player1.flags, player2.flags, PATCH_NAVIGATE);
    bddc:	24 e0       	ldi	r18, 0x04	; 4
    bdde:	40 91 5c 0f 	lds	r20, 0x0F5C
    bde2:	60 91 ea 0b 	lds	r22, 0x0BEA
    bde6:	0e 94 31 4e 	call	0x9c62	; 0x9c62 <LBPlaySound>
		fade_through();
    bdea:	0e 94 0c 50 	call	0xa018	; 0xa018 <fade_through>
		load_eeprom(&handles);
    bdee:	83 e8       	ldi	r24, 0x83	; 131
    bdf0:	9b e0       	ldi	r25, 0x0B	; 11
    bdf2:	0e 94 fa 4f 	call	0x9ff4	; 0x9ff4 <load_eeprom>
		return;
		
	}
	game.demo_counter++;
#endif
}
    bdf6:	df 91       	pop	r29
    bdf8:	cf 91       	pop	r28
    bdfa:	0f 91       	pop	r16
		p1s.select_state = SELECTING;
		p2s.select_state = SELECTING;
		LBPlaySound(game.selection, player1.flags, player2.flags, PATCH_NAVIGATE);
		fade_through();
		load_eeprom(&handles);
		load_handle_select();
    bdfc:	0c 94 41 5d 	jmp	0xba82	; 0xba82 <load_handle_select>
		return;
	}
	else if (select_pressed(p1) && (game.selection == HOSTNETGAME))
    be00:	82 30       	cpi	r24, 0x02	; 2
    be02:	91 f4       	brne	.+36     	; 0xbe28 <update_splash+0x156>
	{
		game.demo_counter = 0;
    be04:	10 92 ad 0b 	sts	0x0BAD, r1
    be08:	10 92 ac 0b 	sts	0x0BAC, r1
		LBPlaySound(game.selection, player1.flags, player2.flags, PATCH_NAVIGATE);
    be0c:	24 e0       	ldi	r18, 0x04	; 4
    be0e:	40 91 5c 0f 	lds	r20, 0x0F5C
    be12:	60 91 ea 0b 	lds	r22, 0x0BEA
    be16:	0e 94 31 4e 	call	0x9c62	; 0x9c62 <LBPlaySound>
		fade_through();
    be1a:	0e 94 0c 50 	call	0xa018	; 0xa018 <fade_through>
		return;
		
	}
	game.demo_counter++;
#endif
}
    be1e:	df 91       	pop	r29
    be20:	cf 91       	pop	r28
    be22:	0f 91       	pop	r16
	else if (select_pressed(p1) && (game.selection == HOSTNETGAME))
	{
		game.demo_counter = 0;
		LBPlaySound(game.selection, player1.flags, player2.flags, PATCH_NAVIGATE);
		fade_through();
		load_host_net_game();
    be24:	0c 94 c6 5d 	jmp	0xbb8c	; 0xbb8c <load_host_net_game>
		return;
	}
	else if (select_pressed(p1) && (game.selection == JOINNETGAME))
    be28:	83 30       	cpi	r24, 0x03	; 3
    be2a:	91 f4       	brne	.+36     	; 0xbe50 <update_splash+0x17e>
	{
		game.demo_counter = 0;
    be2c:	10 92 ad 0b 	sts	0x0BAD, r1
    be30:	10 92 ac 0b 	sts	0x0BAC, r1
		LBPlaySound(game.selection, player1.flags, player2.flags, PATCH_NAVIGATE);
    be34:	24 e0       	ldi	r18, 0x04	; 4
    be36:	40 91 5c 0f 	lds	r20, 0x0F5C
    be3a:	60 91 ea 0b 	lds	r22, 0x0BEA
    be3e:	0e 94 31 4e 	call	0x9c62	; 0x9c62 <LBPlaySound>
		fade_through();
    be42:	0e 94 0c 50 	call	0xa018	; 0xa018 <fade_through>
		return;
		
	}
	game.demo_counter++;
#endif
}
    be46:	df 91       	pop	r29
    be48:	cf 91       	pop	r28
    be4a:	0f 91       	pop	r16
	else if (select_pressed(p1) && (game.selection == JOINNETGAME))
	{
		game.demo_counter = 0;
		LBPlaySound(game.selection, player1.flags, player2.flags, PATCH_NAVIGATE);
		fade_through();
		load_join_net_game();
    be4c:	0c 94 35 5e 	jmp	0xbc6a	; 0xbc6a <load_join_net_game>
		return;
	}
	else if (select_pressed(p1) && (game.selection == TR))
    be50:	84 30       	cpi	r24, 0x04	; 4
    be52:	b1 f4       	brne	.+44     	; 0xbe80 <update_splash+0x1ae>
	{
		game.demo_counter = 0;
    be54:	10 92 ad 0b 	sts	0x0BAD, r1
    be58:	10 92 ac 0b 	sts	0x0BAC, r1
		LBPlaySound(game.selection, player1.flags, player2.flags, PATCH_NAVIGATE);
    be5c:	24 e0       	ldi	r18, 0x04	; 4
    be5e:	40 91 5c 0f 	lds	r20, 0x0F5C
    be62:	60 91 ea 0b 	lds	r22, 0x0BEA
    be66:	0e 94 31 4e 	call	0x9c62	; 0x9c62 <LBPlaySound>
		fade_through();
    be6a:	0e 94 0c 50 	call	0xa018	; 0xa018 <fade_through>
		load_eeprom(&scores);
    be6e:	86 e5       	ldi	r24, 0x56	; 86
    be70:	9b e0       	ldi	r25, 0x0B	; 11
    be72:	0e 94 fa 4f 	call	0x9ff4	; 0x9ff4 <load_eeprom>
		return;
		
	}
	game.demo_counter++;
#endif
}
    be76:	df 91       	pop	r29
    be78:	cf 91       	pop	r28
    be7a:	0f 91       	pop	r16
	{
		game.demo_counter = 0;
		LBPlaySound(game.selection, player1.flags, player2.flags, PATCH_NAVIGATE);
		fade_through();
		load_eeprom(&scores);
		load_tank_rank();
    be7c:	0c 94 ba 5a 	jmp	0xb574	; 0xb574 <load_tank_rank>
		return;
	}
	else if (game.demo_counter >= DEMO_WAIT)
    be80:	80 91 ac 0b 	lds	r24, 0x0BAC
    be84:	90 91 ad 0b 	lds	r25, 0x0BAD
    be88:	88 35       	cpi	r24, 0x58	; 88
    be8a:	92 40       	sbci	r25, 0x02	; 2
    be8c:	08 f4       	brcc	.+2      	; 0xbe90 <update_splash+0x1be>
    be8e:	4c c0       	rjmp	.+152    	; 0xbf28 <update_splash+0x256>
	{
		game.demo_counter = 0;
    be90:	10 92 ad 0b 	sts	0x0BAD, r1
    be94:	10 92 ac 0b 	sts	0x0BAC, r1
		if (game.demo_choice % 2 == 0)
    be98:	80 91 ab 0b 	lds	r24, 0x0BAB
    be9c:	80 fd       	sbrc	r24, 0
    be9e:	2d c0       	rjmp	.+90     	; 0xbefa <update_splash+0x228>
		{
			game.selection = CPUVCPU;
    bea0:	86 e0       	ldi	r24, 0x06	; 6
    bea2:	80 93 b6 0b 	sts	0x0BB6, r24
			player1.handle_id = 9;
    bea6:	29 e0       	ldi	r18, 0x09	; 9
    bea8:	20 93 e0 0b 	sts	0x0BE0, r18
			memcpy(player1.handle, &handles.data[9*3], 3);
    beac:	80 91 a0 0b 	lds	r24, 0x0BA0
    beb0:	90 91 a1 0b 	lds	r25, 0x0BA1
    beb4:	a0 91 a2 0b 	lds	r26, 0x0BA2
    beb8:	80 93 e1 0b 	sts	0x0BE1, r24
    bebc:	90 93 e2 0b 	sts	0x0BE2, r25
    bec0:	a0 93 e3 0b 	sts	0x0BE3, r26
			player2.handle_id = 9;
    bec4:	20 93 52 0f 	sts	0x0F52, r18
			memcpy(player2.handle, &handles.data[9*3], 3);
    bec8:	80 93 53 0f 	sts	0x0F53, r24
    becc:	90 93 54 0f 	sts	0x0F54, r25
    bed0:	a0 93 55 0f 	sts	0x0F55, r26
			LBPlaySound(game.selection, player1.flags, player2.flags, PATCH_NAVIGATE);
    bed4:	24 e0       	ldi	r18, 0x04	; 4
    bed6:	40 91 5c 0f 	lds	r20, 0x0F5C
    beda:	60 91 ea 0b 	lds	r22, 0x0BEA
    bede:	86 e0       	ldi	r24, 0x06	; 6
    bee0:	0e 94 31 4e 	call	0x9c62	; 0x9c62 <LBPlaySound>
			clear_sprites();
    bee4:	0e 94 16 50 	call	0xa02c	; 0xa02c <clear_sprites>
			fade_through();
    bee8:	0e 94 0c 50 	call	0xa018	; 0xa018 <fade_through>
			level_transition(LBRandom(0, 10));
    beec:	6a e0       	ldi	r22, 0x0A	; 10
    beee:	80 e0       	ldi	r24, 0x00	; 0
    bef0:	0e 94 fd 4d 	call	0x9bfa	; 0x9bfa <LBRandom>
    bef4:	0e 94 fd 58 	call	0xb1fa	; 0xb1fa <level_transition>
    bef8:	11 c0       	rjmp	.+34     	; 0xbf1c <update_splash+0x24a>
		}
		else
		{
			LBPlaySound(game.selection, player1.flags, player2.flags, PATCH_NAVIGATE);
    befa:	24 e0       	ldi	r18, 0x04	; 4
    befc:	40 91 5c 0f 	lds	r20, 0x0F5C
    bf00:	60 91 ea 0b 	lds	r22, 0x0BEA
    bf04:	80 91 b6 0b 	lds	r24, 0x0BB6
    bf08:	0e 94 31 4e 	call	0x9c62	; 0x9c62 <LBPlaySound>
			fade_through();
    bf0c:	0e 94 0c 50 	call	0xa018	; 0xa018 <fade_through>
			load_eeprom(&scores);
    bf10:	86 e5       	ldi	r24, 0x56	; 86
    bf12:	9b e0       	ldi	r25, 0x0B	; 11
    bf14:	0e 94 fa 4f 	call	0x9ff4	; 0x9ff4 <load_eeprom>
			load_tank_rank();
    bf18:	0e 94 ba 5a 	call	0xb574	; 0xb574 <load_tank_rank>
		}
		game.demo_choice++;
    bf1c:	80 91 ab 0b 	lds	r24, 0x0BAB
    bf20:	8f 5f       	subi	r24, 0xFF	; 255
    bf22:	80 93 ab 0b 	sts	0x0BAB, r24
		return;
    bf26:	09 c0       	rjmp	.+18     	; 0xbf3a <update_splash+0x268>
		
	}
	game.demo_counter++;
    bf28:	80 91 ac 0b 	lds	r24, 0x0BAC
    bf2c:	90 91 ad 0b 	lds	r25, 0x0BAD
    bf30:	01 96       	adiw	r24, 0x01	; 1
    bf32:	90 93 ad 0b 	sts	0x0BAD, r25
    bf36:	80 93 ac 0b 	sts	0x0BAC, r24
#endif
}
    bf3a:	df 91       	pop	r29
    bf3c:	cf 91       	pop	r28
    bf3e:	0f 91       	pop	r16
    bf40:	08 95       	ret

0000bf42 <update_join_net_game>:
	Print(9, 23, (char*) strCancelHandle);
	gameIdIndex = 2;
}

void update_join_net_game(JoyPadState* p1)
{
    bf42:	ef 92       	push	r14
    bf44:	ff 92       	push	r15
    bf46:	0f 93       	push	r16
    bf48:	cf 93       	push	r28
    bf4a:	df 93       	push	r29
    bf4c:	7c 01       	movw	r14, r24
	MapSprite2(0, map_down_arrow, 0);
    bf4e:	40 e0       	ldi	r20, 0x00	; 0
    bf50:	62 e2       	ldi	r22, 0x22	; 34
    bf52:	71 e3       	ldi	r23, 0x31	; 49
    bf54:	80 e0       	ldi	r24, 0x00	; 0
    bf56:	0e 94 e6 47 	call	0x8fcc	; 0x8fcc <MapSprite2>
	MapSprite2(1, map_up_arrow, 0);
    bf5a:	40 e0       	ldi	r20, 0x00	; 0
    bf5c:	6f e1       	ldi	r22, 0x1F	; 31
    bf5e:	71 e3       	ldi	r23, 0x31	; 49
    bf60:	81 e0       	ldi	r24, 0x01	; 1
    bf62:	0e 94 e6 47 	call	0x8fcc	; 0x8fcc <MapSprite2>
	MoveSprite(0, 8*10 + gameIdIndex*8, 9*8, 1, 1);
    bf66:	60 91 03 01 	lds	r22, 0x0103
    bf6a:	66 0f       	add	r22, r22
    bf6c:	66 0f       	add	r22, r22
    bf6e:	66 0f       	add	r22, r22
    bf70:	60 5b       	subi	r22, 0xB0	; 176
    bf72:	01 e0       	ldi	r16, 0x01	; 1
    bf74:	21 e0       	ldi	r18, 0x01	; 1
    bf76:	48 e4       	ldi	r20, 0x48	; 72
    bf78:	80 e0       	ldi	r24, 0x00	; 0
    bf7a:	0e 94 38 48 	call	0x9070	; 0x9070 <MoveSprite>
	MoveSprite(1, 8*10 + gameIdIndex*8, 11*8, 1, 1);
    bf7e:	60 91 03 01 	lds	r22, 0x0103
    bf82:	66 0f       	add	r22, r22
    bf84:	66 0f       	add	r22, r22
    bf86:	66 0f       	add	r22, r22
    bf88:	60 5b       	subi	r22, 0xB0	; 176
    bf8a:	21 e0       	ldi	r18, 0x01	; 1
    bf8c:	48 e5       	ldi	r20, 0x58	; 88
    bf8e:	81 e0       	ldi	r24, 0x01	; 1
    bf90:	0e 94 38 48 	call	0x9070	; 0x9070 <MoveSprite>
	LBPrintStr(10, 10, (u8*) gameId, 8);
    bf94:	28 e0       	ldi	r18, 0x08	; 8
    bf96:	44 e0       	ldi	r20, 0x04	; 4
    bf98:	51 e0       	ldi	r21, 0x01	; 1
    bf9a:	6a e0       	ldi	r22, 0x0A	; 10
    bf9c:	8a e0       	ldi	r24, 0x0A	; 10
    bf9e:	0e 94 96 4c 	call	0x992c	; 0x992c <LBPrintStr>
		
	if (p1->pressed & BTN_X)
    bfa2:	f7 01       	movw	r30, r14
    bfa4:	c0 81       	ld	r28, Z
    bfa6:	d1 81       	ldd	r29, Z+1	; 0x01
    bfa8:	d1 ff       	sbrs	r29, 1
    bfaa:	12 c0       	rjmp	.+36     	; 0xbfd0 <update_join_net_game+0x8e>
	{
		LBPlaySound(game.selection, player1.flags, player2.flags, PATCH_NAVIGATE);
    bfac:	24 e0       	ldi	r18, 0x04	; 4
    bfae:	40 91 5c 0f 	lds	r20, 0x0F5C
    bfb2:	60 91 ea 0b 	lds	r22, 0x0BEA
    bfb6:	80 91 b6 0b 	lds	r24, 0x0BB6
    bfba:	0e 94 31 4e 	call	0x9c62	; 0x9c62 <LBPlaySound>
		fade_through();
    bfbe:	0e 94 0c 50 	call	0xa018	; 0xa018 <fade_through>
	{
		gameIdIndex--;
		if (gameIdIndex < 2) gameIdIndex= 2;
		LBPlaySound(game.selection, player1.flags, player2.flags, PATCH_NAVIGATE);
	}
}
    bfc2:	df 91       	pop	r29
    bfc4:	cf 91       	pop	r28
    bfc6:	0f 91       	pop	r16
    bfc8:	ff 90       	pop	r15
    bfca:	ef 90       	pop	r14
		
	if (p1->pressed & BTN_X)
	{
		LBPlaySound(game.selection, player1.flags, player2.flags, PATCH_NAVIGATE);
		fade_through();
		load_splash();
    bfcc:	0c 94 66 5a 	jmp	0xb4cc	; 0xb4cc <load_splash>
	}
	else if (select_pressed(p1))
    bfd0:	c7 01       	movw	r24, r14
    bfd2:	0e 94 b0 5a 	call	0xb560	; 0xb560 <select_pressed>
    bfd6:	88 23       	and	r24, r24
    bfd8:	09 f4       	brne	.+2      	; 0xbfdc <update_join_net_game+0x9a>
    bfda:	40 c0       	rjmp	.+128    	; 0xc05c <update_join_net_game+0x11a>
	{
		Print(7, 18, (char*) strConnecting);
    bfdc:	4e ed       	ldi	r20, 0xDE	; 222
    bfde:	54 e0       	ldi	r21, 0x04	; 4
    bfe0:	62 e1       	ldi	r22, 0x12	; 18
    bfe2:	70 e0       	ldi	r23, 0x00	; 0
    bfe4:	87 e0       	ldi	r24, 0x07	; 7
    bfe6:	90 e0       	ldi	r25, 0x00	; 0
    bfe8:	0e 94 ec 48 	call	0x91d8	; 0x91d8 <Print>
		if (joinNetGame((char*)gameId) == WIFI_OK)
    bfec:	84 e0       	ldi	r24, 0x04	; 4
    bfee:	91 e0       	ldi	r25, 0x01	; 1
    bff0:	0e 94 9a 4b 	call	0x9734	; 0x9734 <joinNetGame>
    bff4:	81 11       	cpse	r24, r1
    bff6:	25 c0       	rjmp	.+74     	; 0xc042 <update_join_net_game+0x100>
		{
			netMessage.code = NETJOINED;
    bff8:	8b e0       	ldi	r24, 0x0B	; 11
    bffa:	80 93 df 0f 	sts	0x0FDF, r24
			sendNetMessage(&netMessage);
    bffe:	8f ed       	ldi	r24, 0xDF	; 223
    c000:	9f e0       	ldi	r25, 0x0F	; 15
    c002:	0e 94 0f 4b 	call	0x961e	; 0x961e <sendNetMessage>
			game.demo_counter = 0;
    c006:	10 92 ad 0b 	sts	0x0BAD, r1
    c00a:	10 92 ac 0b 	sts	0x0BAC, r1
			p1s.select_state = SELECTING;
    c00e:	10 92 00 10 	sts	0x1000, r1
			p2s.select_state = SELECTING;
    c012:	10 92 82 0b 	sts	0x0B82, r1
			LBPlaySound(game.selection, player1.flags, player2.flags, PATCH_NAVIGATE);
    c016:	24 e0       	ldi	r18, 0x04	; 4
    c018:	40 91 5c 0f 	lds	r20, 0x0F5C
    c01c:	60 91 ea 0b 	lds	r22, 0x0BEA
    c020:	80 91 b6 0b 	lds	r24, 0x0BB6
    c024:	0e 94 31 4e 	call	0x9c62	; 0x9c62 <LBPlaySound>
			fade_through();
    c028:	0e 94 0c 50 	call	0xa018	; 0xa018 <fade_through>
			load_eeprom(&handles);
    c02c:	83 e8       	ldi	r24, 0x83	; 131
    c02e:	9b e0       	ldi	r25, 0x0B	; 11
    c030:	0e 94 fa 4f 	call	0x9ff4	; 0x9ff4 <load_eeprom>
	{
		gameIdIndex--;
		if (gameIdIndex < 2) gameIdIndex= 2;
		LBPlaySound(game.selection, player1.flags, player2.flags, PATCH_NAVIGATE);
	}
}
    c034:	df 91       	pop	r29
    c036:	cf 91       	pop	r28
    c038:	0f 91       	pop	r16
    c03a:	ff 90       	pop	r15
    c03c:	ef 90       	pop	r14
			p1s.select_state = SELECTING;
			p2s.select_state = SELECTING;
			LBPlaySound(game.selection, player1.flags, player2.flags, PATCH_NAVIGATE);
			fade_through();
			load_eeprom(&handles);
			load_handle_select();
    c03e:	0c 94 41 5d 	jmp	0xba82	; 0xba82 <load_handle_select>
		}
		else
		{
			Print(7, 18, (char*) strNetworkError);
    c042:	4d eb       	ldi	r20, 0xBD	; 189
    c044:	54 e0       	ldi	r21, 0x04	; 4
    c046:	62 e1       	ldi	r22, 0x12	; 18
    c048:	70 e0       	ldi	r23, 0x00	; 0
    c04a:	87 e0       	ldi	r24, 0x07	; 7
    c04c:	90 e0       	ldi	r25, 0x00	; 0
	{
		gameIdIndex--;
		if (gameIdIndex < 2) gameIdIndex= 2;
		LBPlaySound(game.selection, player1.flags, player2.flags, PATCH_NAVIGATE);
	}
}
    c04e:	df 91       	pop	r29
    c050:	cf 91       	pop	r28
    c052:	0f 91       	pop	r16
    c054:	ff 90       	pop	r15
    c056:	ef 90       	pop	r14
			load_eeprom(&handles);
			load_handle_select();
		}
		else
		{
			Print(7, 18, (char*) strNetworkError);
    c058:	0c 94 ec 48 	jmp	0x91d8	; 0x91d8 <Print>
		}
	}
	else if ((p1->pressed & BTN_UP))
    c05c:	c4 ff       	sbrs	r28, 4
    c05e:	13 c0       	rjmp	.+38     	; 0xc086 <update_join_net_game+0x144>
	{
		gameId[gameIdIndex]--;
    c060:	e0 91 03 01 	lds	r30, 0x0103
    c064:	f0 e0       	ldi	r31, 0x00	; 0
    c066:	ec 5f       	subi	r30, 0xFC	; 252
    c068:	fe 4f       	sbci	r31, 0xFE	; 254
    c06a:	80 81       	ld	r24, Z
		if ((gameId[gameIdIndex] < 'A') && (gameId[gameIdIndex] > '9')) gameId[gameIdIndex] = '9';
    c06c:	95 ec       	ldi	r25, 0xC5	; 197
    c06e:	98 0f       	add	r25, r24
    c070:	97 30       	cpi	r25, 0x07	; 7
    c072:	10 f0       	brcs	.+4      	; 0xc078 <update_join_net_game+0x136>
			Print(7, 18, (char*) strNetworkError);
		}
	}
	else if ((p1->pressed & BTN_UP))
	{
		gameId[gameIdIndex]--;
    c074:	81 50       	subi	r24, 0x01	; 1
    c076:	01 c0       	rjmp	.+2      	; 0xc07a <update_join_net_game+0x138>
		if ((gameId[gameIdIndex] < 'A') && (gameId[gameIdIndex] > '9')) gameId[gameIdIndex] = '9';
    c078:	89 e3       	ldi	r24, 0x39	; 57
    c07a:	80 83       	st	Z, r24
		if (gameId[gameIdIndex] < '0') gameId[gameIdIndex] = 'Z';
    c07c:	80 81       	ld	r24, Z
    c07e:	80 33       	cpi	r24, 0x30	; 48
    c080:	58 f5       	brcc	.+86     	; 0xc0d8 <update_join_net_game+0x196>
    c082:	8a e5       	ldi	r24, 0x5A	; 90
    c084:	14 c0       	rjmp	.+40     	; 0xc0ae <update_join_net_game+0x16c>
		LBPlaySound(game.selection, player1.flags, player2.flags, PATCH_NAVIGATE);
	}
	else if ((p1->pressed & BTN_DOWN))
    c086:	c5 ff       	sbrs	r28, 5
    c088:	14 c0       	rjmp	.+40     	; 0xc0b2 <update_join_net_game+0x170>
	{
		gameId[gameIdIndex]++;
    c08a:	e0 91 03 01 	lds	r30, 0x0103
    c08e:	f0 e0       	ldi	r31, 0x00	; 0
    c090:	ec 5f       	subi	r30, 0xFC	; 252
    c092:	fe 4f       	sbci	r31, 0xFE	; 254
    c094:	80 81       	ld	r24, Z
		if ((gameId[gameIdIndex] > '9') && (gameId[gameIdIndex] < 'A')) gameId[gameIdIndex] = 'A';
    c096:	97 ec       	ldi	r25, 0xC7	; 199
    c098:	98 0f       	add	r25, r24
    c09a:	97 30       	cpi	r25, 0x07	; 7
    c09c:	10 f0       	brcs	.+4      	; 0xc0a2 <update_join_net_game+0x160>
		if (gameId[gameIdIndex] < '0') gameId[gameIdIndex] = 'Z';
		LBPlaySound(game.selection, player1.flags, player2.flags, PATCH_NAVIGATE);
	}
	else if ((p1->pressed & BTN_DOWN))
	{
		gameId[gameIdIndex]++;
    c09e:	8f 5f       	subi	r24, 0xFF	; 255
    c0a0:	01 c0       	rjmp	.+2      	; 0xc0a4 <update_join_net_game+0x162>
		if ((gameId[gameIdIndex] > '9') && (gameId[gameIdIndex] < 'A')) gameId[gameIdIndex] = 'A';
    c0a2:	81 e4       	ldi	r24, 0x41	; 65
    c0a4:	80 83       	st	Z, r24
		if (gameId[gameIdIndex] > 'Z') gameId[gameIdIndex] = '0';
    c0a6:	80 81       	ld	r24, Z
    c0a8:	8b 35       	cpi	r24, 0x5B	; 91
    c0aa:	b0 f0       	brcs	.+44     	; 0xc0d8 <update_join_net_game+0x196>
    c0ac:	80 e3       	ldi	r24, 0x30	; 48
    c0ae:	80 83       	st	Z, r24
    c0b0:	13 c0       	rjmp	.+38     	; 0xc0d8 <update_join_net_game+0x196>
		LBPlaySound(game.selection, player1.flags, player2.flags, PATCH_NAVIGATE);
	}
	else if ((p1->pressed & BTN_RIGHT))
    c0b2:	c7 ff       	sbrs	r28, 7
    c0b4:	07 c0       	rjmp	.+14     	; 0xc0c4 <update_join_net_game+0x182>
	{
		gameIdIndex++;
    c0b6:	80 91 03 01 	lds	r24, 0x0103
    c0ba:	8f 5f       	subi	r24, 0xFF	; 255
		if (gameIdIndex > 7) gameIdIndex = 7;
    c0bc:	88 30       	cpi	r24, 0x08	; 8
    c0be:	50 f0       	brcs	.+20     	; 0xc0d4 <update_join_net_game+0x192>
    c0c0:	87 e0       	ldi	r24, 0x07	; 7
    c0c2:	08 c0       	rjmp	.+16     	; 0xc0d4 <update_join_net_game+0x192>
		LBPlaySound(game.selection, player1.flags, player2.flags, PATCH_NAVIGATE);
	}
	else if ((p1->pressed & BTN_LEFT))
    c0c4:	c6 ff       	sbrs	r28, 6
    c0c6:	16 c0       	rjmp	.+44     	; 0xc0f4 <update_join_net_game+0x1b2>
	{
		gameIdIndex--;
    c0c8:	80 91 03 01 	lds	r24, 0x0103
    c0cc:	81 50       	subi	r24, 0x01	; 1
		if (gameIdIndex < 2) gameIdIndex= 2;
    c0ce:	82 30       	cpi	r24, 0x02	; 2
    c0d0:	08 f4       	brcc	.+2      	; 0xc0d4 <update_join_net_game+0x192>
    c0d2:	82 e0       	ldi	r24, 0x02	; 2
    c0d4:	80 93 03 01 	sts	0x0103, r24
		LBPlaySound(game.selection, player1.flags, player2.flags, PATCH_NAVIGATE);
    c0d8:	24 e0       	ldi	r18, 0x04	; 4
    c0da:	40 91 5c 0f 	lds	r20, 0x0F5C
    c0de:	60 91 ea 0b 	lds	r22, 0x0BEA
    c0e2:	80 91 b6 0b 	lds	r24, 0x0BB6
	}
}
    c0e6:	df 91       	pop	r29
    c0e8:	cf 91       	pop	r28
    c0ea:	0f 91       	pop	r16
    c0ec:	ff 90       	pop	r15
    c0ee:	ef 90       	pop	r14
	}
	else if ((p1->pressed & BTN_LEFT))
	{
		gameIdIndex--;
		if (gameIdIndex < 2) gameIdIndex= 2;
		LBPlaySound(game.selection, player1.flags, player2.flags, PATCH_NAVIGATE);
    c0f0:	0c 94 31 4e 	jmp	0x9c62	; 0x9c62 <LBPlaySound>
	}
}
    c0f4:	df 91       	pop	r29
    c0f6:	cf 91       	pop	r28
    c0f8:	0f 91       	pop	r16
    c0fa:	ff 90       	pop	r15
    c0fc:	ef 90       	pop	r14
    c0fe:	08 95       	ret

0000c100 <button_map>:
#endif

u16 button_map(u16 number)
{
	if (number == 0) return BTN_UP;
    c100:	00 97       	sbiw	r24, 0x00	; 0
    c102:	41 f0       	breq	.+16     	; 0xc114 <button_map+0x14>
	if (number == 1) return BTN_DOWN;
    c104:	81 30       	cpi	r24, 0x01	; 1
    c106:	91 05       	cpc	r25, r1
    c108:	41 f0       	breq	.+16     	; 0xc11a <button_map+0x1a>
	if (number == 2) return BTN_LEFT;
    c10a:	82 30       	cpi	r24, 0x02	; 2
    c10c:	91 05       	cpc	r25, r1
    c10e:	41 f0       	breq	.+16     	; 0xc120 <button_map+0x20>
	if (number == 3) return BTN_RIGHT;
    c110:	03 97       	sbiw	r24, 0x03	; 3
    c112:	49 f0       	breq	.+18     	; 0xc126 <button_map+0x26>
}
#endif

u16 button_map(u16 number)
{
	if (number == 0) return BTN_UP;
    c114:	80 e1       	ldi	r24, 0x10	; 16
    c116:	90 e0       	ldi	r25, 0x00	; 0
    c118:	08 95       	ret
	if (number == 1) return BTN_DOWN;
    c11a:	80 e2       	ldi	r24, 0x20	; 32
    c11c:	90 e0       	ldi	r25, 0x00	; 0
    c11e:	08 95       	ret
	if (number == 2) return BTN_LEFT;
    c120:	80 e4       	ldi	r24, 0x40	; 64
    c122:	90 e0       	ldi	r25, 0x00	; 0
    c124:	08 95       	ret
	if (number == 3) return BTN_RIGHT;
    c126:	80 e8       	ldi	r24, 0x80	; 128
    c128:	90 e0       	ldi	r25, 0x00	; 0
	return BTN_UP;
}
    c12a:	08 95       	ret

0000c12c <crash_and_turn>:

char crash_and_turn(char current_x, char current_y, u8 recoiled, Player* player, JoyPadState* p)
/* 
 * Move in the direction of the goal. Move along the wall using left hand rule when hitting one
 */
{	
    c12c:	8f 92       	push	r8
    c12e:	9f 92       	push	r9
    c130:	af 92       	push	r10
    c132:	bf 92       	push	r11
    c134:	cf 92       	push	r12
    c136:	df 92       	push	r13
    c138:	ef 92       	push	r14
    c13a:	ff 92       	push	r15
    c13c:	0f 93       	push	r16
    c13e:	1f 93       	push	r17
    c140:	cf 93       	push	r28
    c142:	df 93       	push	r29
    c144:	f8 2e       	mov	r15, r24
    c146:	e6 2e       	mov	r14, r22
    c148:	d4 2e       	mov	r13, r20
    c14a:	e9 01       	movw	r28, r18
	if (player->feeling_my_way)
    c14c:	8a 8d       	ldd	r24, Y+26	; 0x1a
    c14e:	88 23       	and	r24, r24
    c150:	09 f4       	brne	.+2      	; 0xc154 <crash_and_turn+0x28>
    c152:	a8 c0       	rjmp	.+336    	; 0xc2a4 <crash_and_turn+0x178>
	{
		if ((p->held & BTN_UP) && !(solid_tile(current_y * 30 + current_x - 1) || solid_tile((current_y+1) * 30 + current_x - 1) || solid_tile((current_y+2) * 30 + current_x - 1)))
    c154:	f8 01       	movw	r30, r16
    c156:	c4 80       	ldd	r12, Z+4	; 0x04
    c158:	c4 fe       	sbrs	r12, 4
    c15a:	23 c0       	rjmp	.+70     	; 0xc1a2 <crash_and_turn+0x76>
    c15c:	fe e1       	ldi	r31, 0x1E	; 30
    c15e:	6f 02       	muls	r22, r31
    c160:	40 01       	movw	r8, r0
    c162:	11 24       	eor	r1, r1
    c164:	af 2c       	mov	r10, r15
    c166:	bb 24       	eor	r11, r11
    c168:	a7 fc       	sbrc	r10, 7
    c16a:	b0 94       	com	r11
    c16c:	c4 01       	movw	r24, r8
    c16e:	8a 0d       	add	r24, r10
    c170:	9b 1d       	adc	r25, r11
    c172:	01 97       	sbiw	r24, 0x01	; 1
    c174:	0e 94 08 54 	call	0xa810	; 0xa810 <solid_tile>
    c178:	81 11       	cpse	r24, r1
    c17a:	13 c0       	rjmp	.+38     	; 0xc1a2 <crash_and_turn+0x76>
    c17c:	c4 01       	movw	r24, r8
    c17e:	8a 0d       	add	r24, r10
    c180:	9b 1d       	adc	r25, r11
    c182:	4d 96       	adiw	r24, 0x1d	; 29
    c184:	0e 94 08 54 	call	0xa810	; 0xa810 <solid_tile>
    c188:	81 11       	cpse	r24, r1
    c18a:	0b c0       	rjmp	.+22     	; 0xc1a2 <crash_and_turn+0x76>
    c18c:	c4 01       	movw	r24, r8
    c18e:	8a 0d       	add	r24, r10
    c190:	9b 1d       	adc	r25, r11
    c192:	cb 96       	adiw	r24, 0x3b	; 59
    c194:	0e 94 08 54 	call	0xa810	; 0xa810 <solid_tile>
    c198:	81 11       	cpse	r24, r1
    c19a:	03 c0       	rjmp	.+6      	; 0xc1a2 <crash_and_turn+0x76>
		{
			p->held = BTN_LEFT;
    c19c:	80 e4       	ldi	r24, 0x40	; 64
    c19e:	90 e0       	ldi	r25, 0x00	; 0
    c1a0:	6f c0       	rjmp	.+222    	; 0xc280 <crash_and_turn+0x154>
			recoil_sprite(&player->shared);
			recoiled = 0;
		}
		else if ((p->held & BTN_LEFT) && !(solid_tile((current_y+2) * 30 + current_x) || solid_tile((current_y+2) * 30 + current_x+1) || solid_tile((current_y+2) * 30 + current_x+2)))
    c1a2:	c6 fe       	sbrs	r12, 6
    c1a4:	23 c0       	rjmp	.+70     	; 0xc1ec <crash_and_turn+0xc0>
    c1a6:	8e 2d       	mov	r24, r14
    c1a8:	99 27       	eor	r25, r25
    c1aa:	87 fd       	sbrc	r24, 7
    c1ac:	90 95       	com	r25
    c1ae:	02 96       	adiw	r24, 0x02	; 2
    c1b0:	2e e1       	ldi	r18, 0x1E	; 30
    c1b2:	28 9f       	mul	r18, r24
    c1b4:	50 01       	movw	r10, r0
    c1b6:	29 9f       	mul	r18, r25
    c1b8:	b0 0c       	add	r11, r0
    c1ba:	11 24       	eor	r1, r1
    c1bc:	af 0c       	add	r10, r15
    c1be:	b1 1c       	adc	r11, r1
    c1c0:	f7 fc       	sbrc	r15, 7
    c1c2:	ba 94       	dec	r11
    c1c4:	c5 01       	movw	r24, r10
    c1c6:	0e 94 08 54 	call	0xa810	; 0xa810 <solid_tile>
    c1ca:	81 11       	cpse	r24, r1
    c1cc:	0f c0       	rjmp	.+30     	; 0xc1ec <crash_and_turn+0xc0>
    c1ce:	c5 01       	movw	r24, r10
    c1d0:	01 96       	adiw	r24, 0x01	; 1
    c1d2:	0e 94 08 54 	call	0xa810	; 0xa810 <solid_tile>
    c1d6:	81 11       	cpse	r24, r1
    c1d8:	09 c0       	rjmp	.+18     	; 0xc1ec <crash_and_turn+0xc0>
    c1da:	c5 01       	movw	r24, r10
    c1dc:	02 96       	adiw	r24, 0x02	; 2
    c1de:	0e 94 08 54 	call	0xa810	; 0xa810 <solid_tile>
    c1e2:	81 11       	cpse	r24, r1
    c1e4:	03 c0       	rjmp	.+6      	; 0xc1ec <crash_and_turn+0xc0>
		{
			p->held = BTN_DOWN;
    c1e6:	80 e2       	ldi	r24, 0x20	; 32
    c1e8:	90 e0       	ldi	r25, 0x00	; 0
    c1ea:	4a c0       	rjmp	.+148    	; 0xc280 <crash_and_turn+0x154>
			recoil_sprite(&player->shared);
			recoiled = 0;
		}
		else if ((p->held & BTN_DOWN) && !(solid_tile((current_y) * 30 + current_x+2) || solid_tile((current_y+1) * 30 + current_x+2) || solid_tile((current_y+2) * 30 + current_x+2)))
    c1ec:	c5 fe       	sbrs	r12, 5
    c1ee:	24 c0       	rjmp	.+72     	; 0xc238 <crash_and_turn+0x10c>
    c1f0:	fe 2d       	mov	r31, r14
    c1f2:	8e e1       	ldi	r24, 0x1E	; 30
    c1f4:	f8 02       	muls	r31, r24
    c1f6:	40 01       	movw	r8, r0
    c1f8:	11 24       	eor	r1, r1
    c1fa:	af 2c       	mov	r10, r15
    c1fc:	bb 24       	eor	r11, r11
    c1fe:	a7 fc       	sbrc	r10, 7
    c200:	b0 94       	com	r11
    c202:	c4 01       	movw	r24, r8
    c204:	8a 0d       	add	r24, r10
    c206:	9b 1d       	adc	r25, r11
    c208:	02 96       	adiw	r24, 0x02	; 2
    c20a:	0e 94 08 54 	call	0xa810	; 0xa810 <solid_tile>
    c20e:	81 11       	cpse	r24, r1
    c210:	13 c0       	rjmp	.+38     	; 0xc238 <crash_and_turn+0x10c>
    c212:	c4 01       	movw	r24, r8
    c214:	8a 0d       	add	r24, r10
    c216:	9b 1d       	adc	r25, r11
    c218:	80 96       	adiw	r24, 0x20	; 32
    c21a:	0e 94 08 54 	call	0xa810	; 0xa810 <solid_tile>
    c21e:	81 11       	cpse	r24, r1
    c220:	0b c0       	rjmp	.+22     	; 0xc238 <crash_and_turn+0x10c>
    c222:	c4 01       	movw	r24, r8
    c224:	8a 0d       	add	r24, r10
    c226:	9b 1d       	adc	r25, r11
    c228:	ce 96       	adiw	r24, 0x3e	; 62
    c22a:	0e 94 08 54 	call	0xa810	; 0xa810 <solid_tile>
    c22e:	81 11       	cpse	r24, r1
    c230:	03 c0       	rjmp	.+6      	; 0xc238 <crash_and_turn+0x10c>
		{
			p->held = BTN_RIGHT;
    c232:	80 e8       	ldi	r24, 0x80	; 128
    c234:	90 e0       	ldi	r25, 0x00	; 0
    c236:	24 c0       	rjmp	.+72     	; 0xc280 <crash_and_turn+0x154>
			recoil_sprite(&player->shared);
			recoiled = 0;
		}
		else if ((p->held & BTN_RIGHT) && !(solid_tile((current_y-1) * 30 + current_x) || solid_tile((current_y-1) * 30 + current_x+1) || solid_tile((current_y-1) * 30 + current_x+2)))
    c238:	c7 fe       	sbrs	r12, 7
    c23a:	29 c0       	rjmp	.+82     	; 0xc28e <crash_and_turn+0x162>
    c23c:	8e 2d       	mov	r24, r14
    c23e:	99 27       	eor	r25, r25
    c240:	87 fd       	sbrc	r24, 7
    c242:	90 95       	com	r25
    c244:	01 97       	sbiw	r24, 0x01	; 1
    c246:	2e e1       	ldi	r18, 0x1E	; 30
    c248:	28 9f       	mul	r18, r24
    c24a:	50 01       	movw	r10, r0
    c24c:	29 9f       	mul	r18, r25
    c24e:	b0 0c       	add	r11, r0
    c250:	11 24       	eor	r1, r1
    c252:	af 0c       	add	r10, r15
    c254:	b1 1c       	adc	r11, r1
    c256:	f7 fc       	sbrc	r15, 7
    c258:	ba 94       	dec	r11
    c25a:	c5 01       	movw	r24, r10
    c25c:	0e 94 08 54 	call	0xa810	; 0xa810 <solid_tile>
    c260:	81 11       	cpse	r24, r1
    c262:	15 c0       	rjmp	.+42     	; 0xc28e <crash_and_turn+0x162>
    c264:	c5 01       	movw	r24, r10
    c266:	01 96       	adiw	r24, 0x01	; 1
    c268:	0e 94 08 54 	call	0xa810	; 0xa810 <solid_tile>
    c26c:	81 11       	cpse	r24, r1
    c26e:	0f c0       	rjmp	.+30     	; 0xc28e <crash_and_turn+0x162>
    c270:	c5 01       	movw	r24, r10
    c272:	02 96       	adiw	r24, 0x02	; 2
    c274:	0e 94 08 54 	call	0xa810	; 0xa810 <solid_tile>
    c278:	81 11       	cpse	r24, r1
    c27a:	09 c0       	rjmp	.+18     	; 0xc28e <crash_and_turn+0x162>
		{
			p->held = BTN_UP;
    c27c:	80 e1       	ldi	r24, 0x10	; 16
    c27e:	90 e0       	ldi	r25, 0x00	; 0
    c280:	f8 01       	movw	r30, r16
    c282:	95 83       	std	Z+5, r25	; 0x05
    c284:	84 83       	std	Z+4, r24	; 0x04
			recoil_sprite(&player->shared);
    c286:	ce 01       	movw	r24, r28
    c288:	0e 94 50 53 	call	0xa6a0	; 0xa6a0 <recoil_sprite>
			recoiled = 0;
    c28c:	d1 2c       	mov	r13, r1
		}
		if (player->goal_direction & p->held)
    c28e:	f8 01       	movw	r30, r16
    c290:	24 81       	ldd	r18, Z+4	; 0x04
    c292:	35 81       	ldd	r19, Z+5	; 0x05
    c294:	8d 8d       	ldd	r24, Y+29	; 0x1d
    c296:	9e 8d       	ldd	r25, Y+30	; 0x1e
    c298:	82 23       	and	r24, r18
    c29a:	93 23       	and	r25, r19
    c29c:	89 2b       	or	r24, r25
    c29e:	11 f0       	breq	.+4      	; 0xc2a4 <crash_and_turn+0x178>
		{
			player->feeling_my_way = 0;
    c2a0:	1a 8e       	std	Y+26, r1	; 0x1a
    c2a2:	1c c0       	rjmp	.+56     	; 0xc2dc <crash_and_turn+0x1b0>
			recoiled = 0;
		}
	}
	if (recoiled)
    c2a4:	dd 20       	and	r13, r13
    c2a6:	d1 f0       	breq	.+52     	; 0xc2dc <crash_and_turn+0x1b0>
	{
		if (p->held & BTN_LEFT)
    c2a8:	f8 01       	movw	r30, r16
    c2aa:	84 81       	ldd	r24, Z+4	; 0x04
    c2ac:	86 ff       	sbrs	r24, 6
    c2ae:	03 c0       	rjmp	.+6      	; 0xc2b6 <crash_and_turn+0x18a>
		{
			p->held = BTN_UP;
    c2b0:	80 e1       	ldi	r24, 0x10	; 16
    c2b2:	90 e0       	ldi	r25, 0x00	; 0
    c2b4:	0f c0       	rjmp	.+30     	; 0xc2d4 <crash_and_turn+0x1a8>
			player->feeling_my_way = 1;
		}
		else if (p->held & BTN_UP)
    c2b6:	84 ff       	sbrs	r24, 4
    c2b8:	03 c0       	rjmp	.+6      	; 0xc2c0 <crash_and_turn+0x194>
		{
			p->held = BTN_RIGHT;
    c2ba:	80 e8       	ldi	r24, 0x80	; 128
    c2bc:	90 e0       	ldi	r25, 0x00	; 0
    c2be:	09 c0       	rjmp	.+18     	; 0xc2d2 <crash_and_turn+0x1a6>
			player->feeling_my_way = 1;
		}
		else if (p->held & BTN_RIGHT)
    c2c0:	87 ff       	sbrs	r24, 7
    c2c2:	03 c0       	rjmp	.+6      	; 0xc2ca <crash_and_turn+0x19e>
		{
			p->held = BTN_DOWN;
    c2c4:	80 e2       	ldi	r24, 0x20	; 32
    c2c6:	90 e0       	ldi	r25, 0x00	; 0
    c2c8:	04 c0       	rjmp	.+8      	; 0xc2d2 <crash_and_turn+0x1a6>
			player->feeling_my_way = 1;
		}
		else if (p->held & BTN_DOWN)
    c2ca:	85 ff       	sbrs	r24, 5
    c2cc:	07 c0       	rjmp	.+14     	; 0xc2dc <crash_and_turn+0x1b0>
		{
			p->held = BTN_LEFT;
    c2ce:	80 e4       	ldi	r24, 0x40	; 64
    c2d0:	90 e0       	ldi	r25, 0x00	; 0
    c2d2:	f8 01       	movw	r30, r16
    c2d4:	95 83       	std	Z+5, r25	; 0x05
    c2d6:	84 83       	std	Z+4, r24	; 0x04
			player->feeling_my_way = 1;
    c2d8:	81 e0       	ldi	r24, 0x01	; 1
    c2da:	8a 8f       	std	Y+26, r24	; 0x1a
		}
	}

	if ((player->goal_direction == BTN_UP || player->goal_direction == BTN_DOWN) && current_y == player->goal) return 1;
    c2dc:	8d 8d       	ldd	r24, Y+29	; 0x1d
    c2de:	9e 8d       	ldd	r25, Y+30	; 0x1e
    c2e0:	80 31       	cpi	r24, 0x10	; 16
    c2e2:	91 05       	cpc	r25, r1
    c2e4:	19 f0       	breq	.+6      	; 0xc2ec <crash_and_turn+0x1c0>
    c2e6:	80 32       	cpi	r24, 0x20	; 32
    c2e8:	91 05       	cpc	r25, r1
    c2ea:	19 f4       	brne	.+6      	; 0xc2f2 <crash_and_turn+0x1c6>
    c2ec:	2b a1       	ldd	r18, Y+35	; 0x23
    c2ee:	e2 16       	cp	r14, r18
    c2f0:	59 f0       	breq	.+22     	; 0xc308 <crash_and_turn+0x1dc>
	if ((player->goal_direction == BTN_LEFT || player->goal_direction == BTN_RIGHT) && current_x == player->goal) return 1;
    c2f2:	80 34       	cpi	r24, 0x40	; 64
    c2f4:	91 05       	cpc	r25, r1
    c2f6:	19 f0       	breq	.+6      	; 0xc2fe <crash_and_turn+0x1d2>
    c2f8:	80 38       	cpi	r24, 0x80	; 128
    c2fa:	91 05       	cpc	r25, r1
    c2fc:	39 f4       	brne	.+14     	; 0xc30c <crash_and_turn+0x1e0>
    c2fe:	81 e0       	ldi	r24, 0x01	; 1
    c300:	9b a1       	ldd	r25, Y+35	; 0x23
    c302:	f9 12       	cpse	r15, r25
    c304:	03 c0       	rjmp	.+6      	; 0xc30c <crash_and_turn+0x1e0>
    c306:	03 c0       	rjmp	.+6      	; 0xc30e <crash_and_turn+0x1e2>
			p->held = BTN_LEFT;
			player->feeling_my_way = 1;
		}
	}

	if ((player->goal_direction == BTN_UP || player->goal_direction == BTN_DOWN) && current_y == player->goal) return 1;
    c308:	81 e0       	ldi	r24, 0x01	; 1
    c30a:	01 c0       	rjmp	.+2      	; 0xc30e <crash_and_turn+0x1e2>
	if ((player->goal_direction == BTN_LEFT || player->goal_direction == BTN_RIGHT) && current_x == player->goal) return 1;
	
	return 0;
    c30c:	80 e0       	ldi	r24, 0x00	; 0
}
    c30e:	df 91       	pop	r29
    c310:	cf 91       	pop	r28
    c312:	1f 91       	pop	r17
    c314:	0f 91       	pop	r16
    c316:	ff 90       	pop	r15
    c318:	ef 90       	pop	r14
    c31a:	df 90       	pop	r13
    c31c:	cf 90       	pop	r12
    c31e:	bf 90       	pop	r11
    c320:	af 90       	pop	r10
    c322:	9f 90       	pop	r9
    c324:	8f 90       	pop	r8
    c326:	08 95       	ret

0000c328 <get_cpu_goal_direction>:

u16 get_cpu_goal_direction(Player* player, char distance_x, char distance_y)
{
    c328:	fc 01       	movw	r30, r24
	char abs_distance_x = (distance_x < 0) ? -distance_x : distance_x;
    c32a:	26 2f       	mov	r18, r22
    c32c:	33 27       	eor	r19, r19
    c32e:	27 fd       	sbrc	r18, 7
    c330:	30 95       	com	r19
    c332:	37 ff       	sbrs	r19, 7
    c334:	03 c0       	rjmp	.+6      	; 0xc33c <get_cpu_goal_direction+0x14>
    c336:	31 95       	neg	r19
    c338:	21 95       	neg	r18
    c33a:	31 09       	sbc	r19, r1
    c33c:	92 2f       	mov	r25, r18
	char abs_distance_y = (distance_y < 0) ? -distance_y : distance_y;
    c33e:	24 2f       	mov	r18, r20
    c340:	33 27       	eor	r19, r19
    c342:	27 fd       	sbrc	r18, 7
    c344:	30 95       	com	r19
    c346:	37 ff       	sbrs	r19, 7
    c348:	03 c0       	rjmp	.+6      	; 0xc350 <get_cpu_goal_direction+0x28>
    c34a:	31 95       	neg	r19
    c34c:	21 95       	neg	r18
    c34e:	31 09       	sbc	r19, r1
	u16 direction = BTN_UP;
	
	if (player->tank_tactic == TACTIC_TANK_ATTACK)
    c350:	83 8d       	ldd	r24, Z+27	; 0x1b
    c352:	81 11       	cpse	r24, r1
    c354:	08 c0       	rjmp	.+16     	; 0xc366 <get_cpu_goal_direction+0x3e>
	{
		if (abs_distance_x > abs_distance_y)
    c356:	29 17       	cp	r18, r25
    c358:	1c f4       	brge	.+6      	; 0xc360 <get_cpu_goal_direction+0x38>
		{
			direction = BTN_LEFT;
			if (distance_x > 0) direction = BTN_RIGHT;
    c35a:	16 16       	cp	r1, r22
    c35c:	94 f0       	brlt	.+36     	; 0xc382 <get_cpu_goal_direction+0x5a>
    c35e:	0b c0       	rjmp	.+22     	; 0xc376 <get_cpu_goal_direction+0x4e>
		}
		else
		{
			direction = BTN_UP;
			if (distance_y > 0) direction = BTN_DOWN;
    c360:	14 16       	cp	r1, r20
    c362:	94 f0       	brlt	.+36     	; 0xc388 <get_cpu_goal_direction+0x60>
    c364:	0b c0       	rjmp	.+22     	; 0xc37c <get_cpu_goal_direction+0x54>
		}
	}
	else
	{
		if (abs_distance_x > abs_distance_y)
    c366:	29 17       	cp	r18, r25
    c368:	1c f4       	brge	.+6      	; 0xc370 <get_cpu_goal_direction+0x48>
		{
			direction = BTN_RIGHT;
			if (distance_x > 0) direction = BTN_LEFT;
    c36a:	16 16       	cp	r1, r22
    c36c:	24 f0       	brlt	.+8      	; 0xc376 <get_cpu_goal_direction+0x4e>
    c36e:	09 c0       	rjmp	.+18     	; 0xc382 <get_cpu_goal_direction+0x5a>
		}
		else
		{
			direction = BTN_DOWN;
			if (distance_y > 0) direction = BTN_UP;
    c370:	14 16       	cp	r1, r20
    c372:	24 f0       	brlt	.+8      	; 0xc37c <get_cpu_goal_direction+0x54>
    c374:	09 c0       	rjmp	.+18     	; 0xc388 <get_cpu_goal_direction+0x60>
	
	if (player->tank_tactic == TACTIC_TANK_ATTACK)
	{
		if (abs_distance_x > abs_distance_y)
		{
			direction = BTN_LEFT;
    c376:	80 e4       	ldi	r24, 0x40	; 64
    c378:	90 e0       	ldi	r25, 0x00	; 0
    c37a:	08 95       	ret
			if (distance_x > 0) direction = BTN_RIGHT;
		}
		else
		{
			direction = BTN_UP;
    c37c:	80 e1       	ldi	r24, 0x10	; 16
    c37e:	90 e0       	ldi	r25, 0x00	; 0
    c380:	08 95       	ret
	}
	else
	{
		if (abs_distance_x > abs_distance_y)
		{
			direction = BTN_RIGHT;
    c382:	80 e8       	ldi	r24, 0x80	; 128
    c384:	90 e0       	ldi	r25, 0x00	; 0
    c386:	08 95       	ret
			if (distance_x > 0) direction = BTN_LEFT;
		}
		else
		{
			direction = BTN_DOWN;
    c388:	80 e2       	ldi	r24, 0x20	; 32
    c38a:	90 e0       	ldi	r25, 0x00	; 0
			if (distance_y > 0) direction = BTN_UP;
		}
	}
	
	return direction;
}
    c38c:	08 95       	ret

0000c38e <get_cpu_joypad_state>:

void get_cpu_joypad_state(Player* player, Player* other_player, JoyPadState* p)
{
    c38e:	2f 92       	push	r2
    c390:	3f 92       	push	r3
    c392:	4f 92       	push	r4
    c394:	5f 92       	push	r5
    c396:	7f 92       	push	r7
    c398:	8f 92       	push	r8
    c39a:	9f 92       	push	r9
    c39c:	af 92       	push	r10
    c39e:	bf 92       	push	r11
    c3a0:	cf 92       	push	r12
    c3a2:	df 92       	push	r13
    c3a4:	ef 92       	push	r14
    c3a6:	ff 92       	push	r15
    c3a8:	0f 93       	push	r16
    c3aa:	1f 93       	push	r17
    c3ac:	cf 93       	push	r28
    c3ae:	df 93       	push	r29
    c3b0:	cd b7       	in	r28, 0x3d	; 61
    c3b2:	de b7       	in	r29, 0x3e	; 62
    c3b4:	2a 97       	sbiw	r28, 0x0a	; 10
    c3b6:	0f b6       	in	r0, 0x3f	; 63
    c3b8:	f8 94       	cli
    c3ba:	de bf       	out	0x3e, r29	; 62
    c3bc:	0f be       	out	0x3f, r0	; 63
    c3be:	cd bf       	out	0x3d, r28	; 61
    c3c0:	9c 01       	movw	r18, r24
	char distance_x;
	char distance_y;
	char player_x;
	char player_y;
	
	goal_x = other_player->shared.x / 8;
    c3c2:	db 01       	movw	r26, r22
    c3c4:	13 96       	adiw	r26, 0x03	; 3
    c3c6:	8d 91       	ld	r24, X+
    c3c8:	9d 91       	ld	r25, X+
    c3ca:	0d 90       	ld	r0, X+
    c3cc:	bc 91       	ld	r27, X
    c3ce:	a0 2d       	mov	r26, r0
    c3d0:	89 83       	std	Y+1, r24	; 0x01
    c3d2:	9a 83       	std	Y+2, r25	; 0x02
    c3d4:	ab 83       	std	Y+3, r26	; 0x03
    c3d6:	bc 83       	std	Y+4, r27	; 0x04
	goal_y = other_player->shared.y / 8 - 3;
    c3d8:	fb 01       	movw	r30, r22
    c3da:	87 80       	ldd	r8, Z+7	; 0x07
    c3dc:	90 84       	ldd	r9, Z+8	; 0x08
    c3de:	a1 84       	ldd	r10, Z+9	; 0x09
    c3e0:	b2 84       	ldd	r11, Z+10	; 0x0a
	player_x = player->shared.x / 8;
    c3e2:	d9 01       	movw	r26, r18
    c3e4:	13 96       	adiw	r26, 0x03	; 3
    c3e6:	cd 90       	ld	r12, X+
    c3e8:	dd 90       	ld	r13, X+
    c3ea:	ed 90       	ld	r14, X+
    c3ec:	fc 90       	ld	r15, X
    c3ee:	16 97       	sbiw	r26, 0x06	; 6
	player_y =  player->shared.y / 8 - 3;
    c3f0:	17 96       	adiw	r26, 0x07	; 7
    c3f2:	8d 91       	ld	r24, X+
    c3f4:	9d 91       	ld	r25, X+
    c3f6:	0d 90       	ld	r0, X+
    c3f8:	bc 91       	ld	r27, X
    c3fa:	a0 2d       	mov	r26, r0
    c3fc:	8d 83       	std	Y+5, r24	; 0x05
    c3fe:	9e 83       	std	Y+6, r25	; 0x06
    c400:	af 83       	std	Y+7, r26	; 0x07
    c402:	b8 87       	std	Y+8, r27	; 0x08
	distance_x = goal_x - player_x;
	distance_y = goal_y - player_y;
	
	if (player->grace_frame == 0)
    c404:	f9 01       	movw	r30, r18
    c406:	86 89       	ldd	r24, Z+22	; 0x16
    c408:	81 11       	cpse	r24, r1
    c40a:	06 c0       	rjmp	.+12     	; 0xc418 <get_cpu_joypad_state+0x8a>
	{
		p->held = 0;
    c40c:	da 01       	movw	r26, r20
    c40e:	15 96       	adiw	r26, 0x05	; 5
    c410:	1c 92       	st	X, r1
    c412:	1e 92       	st	-X, r1
    c414:	14 97       	sbiw	r26, 0x04	; 4
		return;
    c416:	57 c2       	rjmp	.+1198   	; 0xc8c6 <get_cpu_joypad_state+0x538>
    c418:	2a 01       	movw	r4, r20
    c41a:	1b 01       	movw	r2, r22
    c41c:	3a 87       	std	Y+10, r19	; 0x0a
    c41e:	29 87       	std	Y+9, r18	; 0x09
	}
	
	// Shot
	if (shoot_pressed(p))
    c420:	ca 01       	movw	r24, r20
    c422:	0e 94 ad 51 	call	0xa35a	; 0xa35a <shoot_pressed>
    c426:	88 23       	and	r24, r24
    c428:	19 f0       	breq	.+6      	; 0xc430 <get_cpu_joypad_state+0xa2>
	{
		p->pressed = 0;
    c42a:	f2 01       	movw	r30, r4
    c42c:	11 82       	std	Z+1, r1	; 0x01
    c42e:	10 82       	st	Z, r1
	}
	if (global_frame_counter % DEFAULT_FRAMES_PER_SHOT == 0 && player->grace_frame > 50)
    c430:	20 91 01 01 	lds	r18, 0x0101
    c434:	30 91 02 01 	lds	r19, 0x0102
    c438:	c9 01       	movw	r24, r18
    c43a:	6a e0       	ldi	r22, 0x0A	; 10
    c43c:	70 e0       	ldi	r23, 0x00	; 0
    c43e:	0e 94 86 72 	call	0xe50c	; 0xe50c <__udivmodhi4>
    c442:	89 2b       	or	r24, r25
    c444:	59 f4       	brne	.+22     	; 0xc45c <get_cpu_joypad_state+0xce>
    c446:	a9 85       	ldd	r26, Y+9	; 0x09
    c448:	ba 85       	ldd	r27, Y+10	; 0x0a
    c44a:	56 96       	adiw	r26, 0x16	; 22
    c44c:	8c 91       	ld	r24, X
    c44e:	83 33       	cpi	r24, 0x33	; 51
    c450:	28 f0       	brcs	.+10     	; 0xc45c <get_cpu_joypad_state+0xce>
	{
		p->pressed = BTN_B;
    c452:	81 e0       	ldi	r24, 0x01	; 1
    c454:	90 e0       	ldi	r25, 0x00	; 0
    c456:	f2 01       	movw	r30, r4
    c458:	91 83       	std	Z+1, r25	; 0x01
    c45a:	80 83       	st	Z, r24
	}
		
	// Determine goal
	if ((global_frame_counter % DEFAULT_FRAMES_PER_GOAL == 0) || player->grace_frame == 10 || player->goal_reached)
    c45c:	c9 01       	movw	r24, r18
    c45e:	64 eb       	ldi	r22, 0xB4	; 180
    c460:	70 e0       	ldi	r23, 0x00	; 0
    c462:	0e 94 86 72 	call	0xe50c	; 0xe50c <__udivmodhi4>
    c466:	89 2b       	or	r24, r25
    c468:	61 f0       	breq	.+24     	; 0xc482 <get_cpu_joypad_state+0xf4>
    c46a:	a9 85       	ldd	r26, Y+9	; 0x09
    c46c:	ba 85       	ldd	r27, Y+10	; 0x0a
    c46e:	56 96       	adiw	r26, 0x16	; 22
    c470:	8c 91       	ld	r24, X
    c472:	56 97       	sbiw	r26, 0x16	; 22
    c474:	8a 30       	cpi	r24, 0x0A	; 10
    c476:	29 f0       	breq	.+10     	; 0xc482 <get_cpu_joypad_state+0xf4>
    c478:	94 96       	adiw	r26, 0x24	; 36
    c47a:	8c 91       	ld	r24, X
    c47c:	88 23       	and	r24, r24
    c47e:	09 f4       	brne	.+2      	; 0xc482 <get_cpu_joypad_state+0xf4>
    c480:	7e c0       	rjmp	.+252    	; 0xc57e <get_cpu_joypad_state+0x1f0>
	char distance_x;
	char distance_y;
	char player_x;
	char player_y;
	
	goal_x = other_player->shared.x / 8;
    c482:	20 e0       	ldi	r18, 0x00	; 0
    c484:	30 e0       	ldi	r19, 0x00	; 0
    c486:	40 e0       	ldi	r20, 0x00	; 0
    c488:	5e e3       	ldi	r21, 0x3E	; 62
    c48a:	69 81       	ldd	r22, Y+1	; 0x01
    c48c:	7a 81       	ldd	r23, Y+2	; 0x02
    c48e:	8b 81       	ldd	r24, Y+3	; 0x03
    c490:	9c 81       	ldd	r25, Y+4	; 0x04
    c492:	0e 94 66 74 	call	0xe8cc	; 0xe8cc <__mulsf3>
    c496:	0e 94 7f 73 	call	0xe6fe	; 0xe6fe <__fixsfsi>
    c49a:	76 2e       	mov	r7, r22
	goal_y = other_player->shared.y / 8 - 3;
    c49c:	20 e0       	ldi	r18, 0x00	; 0
    c49e:	30 e0       	ldi	r19, 0x00	; 0
    c4a0:	40 e0       	ldi	r20, 0x00	; 0
    c4a2:	5e e3       	ldi	r21, 0x3E	; 62
    c4a4:	c5 01       	movw	r24, r10
    c4a6:	b4 01       	movw	r22, r8
    c4a8:	0e 94 66 74 	call	0xe8cc	; 0xe8cc <__mulsf3>
    c4ac:	20 e0       	ldi	r18, 0x00	; 0
    c4ae:	30 e0       	ldi	r19, 0x00	; 0
    c4b0:	40 e4       	ldi	r20, 0x40	; 64
    c4b2:	50 e4       	ldi	r21, 0x40	; 64
    c4b4:	0e 94 ae 72 	call	0xe55c	; 0xe55c <__subsf3>
    c4b8:	0e 94 7f 73 	call	0xe6fe	; 0xe6fe <__fixsfsi>
    c4bc:	b6 2e       	mov	r11, r22
	player_x = player->shared.x / 8;
    c4be:	20 e0       	ldi	r18, 0x00	; 0
    c4c0:	30 e0       	ldi	r19, 0x00	; 0
    c4c2:	40 e0       	ldi	r20, 0x00	; 0
    c4c4:	5e e3       	ldi	r21, 0x3E	; 62
    c4c6:	c7 01       	movw	r24, r14
    c4c8:	b6 01       	movw	r22, r12
    c4ca:	0e 94 66 74 	call	0xe8cc	; 0xe8cc <__mulsf3>
    c4ce:	0e 94 7f 73 	call	0xe6fe	; 0xe6fe <__fixsfsi>
	player_y =  player->shared.y / 8 - 3;
	distance_x = goal_x - player_x;
    c4d2:	f7 2c       	mov	r15, r7
    c4d4:	f6 1a       	sub	r15, r22
	char player_y;
	
	goal_x = other_player->shared.x / 8;
	goal_y = other_player->shared.y / 8 - 3;
	player_x = player->shared.x / 8;
	player_y =  player->shared.y / 8 - 3;
    c4d6:	20 e0       	ldi	r18, 0x00	; 0
    c4d8:	30 e0       	ldi	r19, 0x00	; 0
    c4da:	40 e0       	ldi	r20, 0x00	; 0
    c4dc:	5e e3       	ldi	r21, 0x3E	; 62
    c4de:	6d 81       	ldd	r22, Y+5	; 0x05
    c4e0:	7e 81       	ldd	r23, Y+6	; 0x06
    c4e2:	8f 81       	ldd	r24, Y+7	; 0x07
    c4e4:	98 85       	ldd	r25, Y+8	; 0x08
    c4e6:	0e 94 66 74 	call	0xe8cc	; 0xe8cc <__mulsf3>
    c4ea:	20 e0       	ldi	r18, 0x00	; 0
    c4ec:	30 e0       	ldi	r19, 0x00	; 0
    c4ee:	40 e4       	ldi	r20, 0x40	; 64
    c4f0:	50 e4       	ldi	r21, 0x40	; 64
    c4f2:	0e 94 ae 72 	call	0xe55c	; 0xe55c <__subsf3>
    c4f6:	0e 94 7f 73 	call	0xe6fe	; 0xe6fe <__fixsfsi>
	distance_x = goal_x - player_x;
	distance_y = goal_y - player_y;
    c4fa:	4b 2d       	mov	r20, r11
    c4fc:	46 1b       	sub	r20, r22
	}
		
	// Determine goal
	if ((global_frame_counter % DEFAULT_FRAMES_PER_GOAL == 0) || player->grace_frame == 10 || player->goal_reached)
	{
		player->goal_reached = 0;
    c4fe:	e9 85       	ldd	r30, Y+9	; 0x09
    c500:	fa 85       	ldd	r31, Y+10	; 0x0a
    c502:	14 a2       	std	Z+36, r1	; 0x24
		player->feeling_my_way = 0;
    c504:	12 8e       	std	Z+26, r1	; 0x1a
		
		if (distance_x >= -2 && distance_x <= 2 && distance_y >= -2 && distance_y <= 2)
    c506:	82 e0       	ldi	r24, 0x02	; 2
    c508:	8f 0d       	add	r24, r15
    c50a:	85 30       	cpi	r24, 0x05	; 5
    c50c:	c8 f4       	brcc	.+50     	; 0xc540 <get_cpu_joypad_state+0x1b2>
    c50e:	4e 3f       	cpi	r20, 0xFE	; 254
    c510:	bc f0       	brlt	.+46     	; 0xc540 <get_cpu_joypad_state+0x1b2>
    c512:	43 30       	cpi	r20, 0x03	; 3
    c514:	ac f4       	brge	.+42     	; 0xc540 <get_cpu_joypad_state+0x1b2>
		{
			// Dont get too close
			player->goal_direction = button_map(LBRandom(0, 4));
    c516:	64 e0       	ldi	r22, 0x04	; 4
    c518:	80 e0       	ldi	r24, 0x00	; 0
    c51a:	0e 94 fd 4d 	call	0x9bfa	; 0x9bfa <LBRandom>
    c51e:	90 e0       	ldi	r25, 0x00	; 0
    c520:	0e 94 80 60 	call	0xc100	; 0xc100 <button_map>
    c524:	a9 85       	ldd	r26, Y+9	; 0x09
    c526:	ba 85       	ldd	r27, Y+10	; 0x0a
    c528:	5e 96       	adiw	r26, 0x1e	; 30
    c52a:	9c 93       	st	X, r25
    c52c:	8e 93       	st	-X, r24
    c52e:	5d 97       	sbiw	r26, 0x1d	; 29
			player->goal = LBRandom(5, 18);
    c530:	62 e1       	ldi	r22, 0x12	; 18
    c532:	85 e0       	ldi	r24, 0x05	; 5
    c534:	0e 94 fd 4d 	call	0x9bfa	; 0x9bfa <LBRandom>
    c538:	e9 85       	ldd	r30, Y+9	; 0x09
    c53a:	fa 85       	ldd	r31, Y+10	; 0x0a
    c53c:	83 a3       	std	Z+35, r24	; 0x23
    c53e:	16 c0       	rjmp	.+44     	; 0xc56c <get_cpu_joypad_state+0x1de>
		}
		else
		{
			player->goal_direction = get_cpu_goal_direction(player, distance_x, distance_y);
    c540:	6f 2d       	mov	r22, r15
    c542:	89 85       	ldd	r24, Y+9	; 0x09
    c544:	9a 85       	ldd	r25, Y+10	; 0x0a
    c546:	0e 94 94 61 	call	0xc328	; 0xc328 <get_cpu_goal_direction>
    c54a:	a9 85       	ldd	r26, Y+9	; 0x09
    c54c:	ba 85       	ldd	r27, Y+10	; 0x0a
    c54e:	5e 96       	adiw	r26, 0x1e	; 30
    c550:	9c 93       	st	X, r25
    c552:	8e 93       	st	-X, r24
    c554:	5d 97       	sbiw	r26, 0x1d	; 29
			player->goal = goal_x;
			if (player->goal_direction == BTN_UP || player->goal_direction == BTN_DOWN) player->goal = goal_y;
    c556:	80 31       	cpi	r24, 0x10	; 16
    c558:	91 05       	cpc	r25, r1
    c55a:	29 f0       	breq	.+10     	; 0xc566 <get_cpu_joypad_state+0x1d8>
    c55c:	80 97       	sbiw	r24, 0x20	; 32
    c55e:	19 f0       	breq	.+6      	; 0xc566 <get_cpu_joypad_state+0x1d8>
			player->goal = LBRandom(5, 18);
		}
		else
		{
			player->goal_direction = get_cpu_goal_direction(player, distance_x, distance_y);
			player->goal = goal_x;
    c560:	93 96       	adiw	r26, 0x23	; 35
    c562:	7c 92       	st	X, r7
    c564:	03 c0       	rjmp	.+6      	; 0xc56c <get_cpu_joypad_state+0x1de>
			if (player->goal_direction == BTN_UP || player->goal_direction == BTN_DOWN) player->goal = goal_y;
    c566:	e9 85       	ldd	r30, Y+9	; 0x09
    c568:	fa 85       	ldd	r31, Y+10	; 0x0a
    c56a:	b3 a2       	std	Z+35, r11	; 0x23
		}
		p->held = player->goal_direction;
    c56c:	a9 85       	ldd	r26, Y+9	; 0x09
    c56e:	ba 85       	ldd	r27, Y+10	; 0x0a
    c570:	5d 96       	adiw	r26, 0x1d	; 29
    c572:	8d 91       	ld	r24, X+
    c574:	9c 91       	ld	r25, X
    c576:	5e 97       	sbiw	r26, 0x1e	; 30
    c578:	f2 01       	movw	r30, r4
    c57a:	95 83       	std	Z+5, r25	; 0x05
    c57c:	84 83       	std	Z+4, r24	; 0x04
	}
	
	// Monitor movement
	if (player->shared.x != player->old_x)
    c57e:	a9 85       	ldd	r26, Y+9	; 0x09
    c580:	ba 85       	ldd	r27, Y+10	; 0x0a
    c582:	13 96       	adiw	r26, 0x03	; 3
    c584:	cd 90       	ld	r12, X+
    c586:	dd 90       	ld	r13, X+
    c588:	ed 90       	ld	r14, X+
    c58a:	fc 90       	ld	r15, X
    c58c:	16 97       	sbiw	r26, 0x06	; 6
    c58e:	98 96       	adiw	r26, 0x28	; 40
    c590:	2d 91       	ld	r18, X+
    c592:	3d 91       	ld	r19, X+
    c594:	4d 91       	ld	r20, X+
    c596:	5c 91       	ld	r21, X
    c598:	9b 97       	sbiw	r26, 0x2b	; 43
    c59a:	c7 01       	movw	r24, r14
    c59c:	b6 01       	movw	r22, r12
    c59e:	0e 94 13 73 	call	0xe626	; 0xe626 <__cmpsf2>
    c5a2:	88 23       	and	r24, r24
    c5a4:	29 f0       	breq	.+10     	; 0xc5b0 <get_cpu_joypad_state+0x222>
		player->deadlock_count_x = 0;
    c5a6:	e9 85       	ldd	r30, Y+9	; 0x09
    c5a8:	fa 85       	ldd	r31, Y+10	; 0x0a
    c5aa:	10 a2       	std	Z+32, r1	; 0x20
    c5ac:	17 8e       	std	Z+31, r1	; 0x1f
    c5ae:	0b c0       	rjmp	.+22     	; 0xc5c6 <get_cpu_joypad_state+0x238>
	else 
		player->deadlock_count_x++;
    c5b0:	a9 85       	ldd	r26, Y+9	; 0x09
    c5b2:	ba 85       	ldd	r27, Y+10	; 0x0a
    c5b4:	5f 96       	adiw	r26, 0x1f	; 31
    c5b6:	8d 91       	ld	r24, X+
    c5b8:	9c 91       	ld	r25, X
    c5ba:	90 97       	sbiw	r26, 0x20	; 32
    c5bc:	01 96       	adiw	r24, 0x01	; 1
    c5be:	90 96       	adiw	r26, 0x20	; 32
    c5c0:	9c 93       	st	X, r25
    c5c2:	8e 93       	st	-X, r24
    c5c4:	5f 97       	sbiw	r26, 0x1f	; 31
	if (player->shared.y != player->old_y)
    c5c6:	e9 85       	ldd	r30, Y+9	; 0x09
    c5c8:	fa 85       	ldd	r31, Y+10	; 0x0a
    c5ca:	87 80       	ldd	r8, Z+7	; 0x07
    c5cc:	90 84       	ldd	r9, Z+8	; 0x08
    c5ce:	a1 84       	ldd	r10, Z+9	; 0x09
    c5d0:	b2 84       	ldd	r11, Z+10	; 0x0a
    c5d2:	24 a5       	ldd	r18, Z+44	; 0x2c
    c5d4:	35 a5       	ldd	r19, Z+45	; 0x2d
    c5d6:	46 a5       	ldd	r20, Z+46	; 0x2e
    c5d8:	57 a5       	ldd	r21, Z+47	; 0x2f
    c5da:	c5 01       	movw	r24, r10
    c5dc:	b4 01       	movw	r22, r8
    c5de:	0e 94 13 73 	call	0xe626	; 0xe626 <__cmpsf2>
    c5e2:	88 23       	and	r24, r24
    c5e4:	39 f0       	breq	.+14     	; 0xc5f4 <get_cpu_joypad_state+0x266>
		player->deadlock_count_y = 0;
    c5e6:	a9 85       	ldd	r26, Y+9	; 0x09
    c5e8:	ba 85       	ldd	r27, Y+10	; 0x0a
    c5ea:	92 96       	adiw	r26, 0x22	; 34
    c5ec:	1c 92       	st	X, r1
    c5ee:	1e 92       	st	-X, r1
    c5f0:	91 97       	sbiw	r26, 0x21	; 33
    c5f2:	07 c0       	rjmp	.+14     	; 0xc602 <get_cpu_joypad_state+0x274>
	else
		player->deadlock_count_y++;
    c5f4:	e9 85       	ldd	r30, Y+9	; 0x09
    c5f6:	fa 85       	ldd	r31, Y+10	; 0x0a
    c5f8:	81 a1       	ldd	r24, Z+33	; 0x21
    c5fa:	92 a1       	ldd	r25, Z+34	; 0x22
    c5fc:	01 96       	adiw	r24, 0x01	; 1
    c5fe:	92 a3       	std	Z+34, r25	; 0x22
    c600:	81 a3       	std	Z+33, r24	; 0x21
	player->old_x = player->shared.x;
    c602:	a9 85       	ldd	r26, Y+9	; 0x09
    c604:	ba 85       	ldd	r27, Y+10	; 0x0a
    c606:	98 96       	adiw	r26, 0x28	; 40
    c608:	cd 92       	st	X+, r12
    c60a:	dd 92       	st	X+, r13
    c60c:	ed 92       	st	X+, r14
    c60e:	fc 92       	st	X, r15
    c610:	9b 97       	sbiw	r26, 0x2b	; 43
	player->old_y = player->shared.y;
    c612:	fd 01       	movw	r30, r26
    c614:	84 a6       	std	Z+44, r8	; 0x2c
    c616:	95 a6       	std	Z+45, r9	; 0x2d
    c618:	a6 a6       	std	Z+46, r10	; 0x2e
    c61a:	b7 a6       	std	Z+47, r11	; 0x2f
	
	// Break tactical deadlock
	if (player->deadlock_count_x >= FRAMES_PER_DEADLOCK)
    c61c:	87 8d       	ldd	r24, Z+31	; 0x1f
    c61e:	90 a1       	ldd	r25, Z+32	; 0x20
    c620:	80 34       	cpi	r24, 0x40	; 64
    c622:	91 40       	sbci	r25, 0x01	; 1
    c624:	88 f0       	brcs	.+34     	; 0xc648 <get_cpu_joypad_state+0x2ba>
	{
		p->held = button_map(LBRandom(2, 4));
    c626:	64 e0       	ldi	r22, 0x04	; 4
    c628:	82 e0       	ldi	r24, 0x02	; 2
    c62a:	0e 94 fd 4d 	call	0x9bfa	; 0x9bfa <LBRandom>
    c62e:	90 e0       	ldi	r25, 0x00	; 0
    c630:	0e 94 80 60 	call	0xc100	; 0xc100 <button_map>
    c634:	d2 01       	movw	r26, r4
    c636:	15 96       	adiw	r26, 0x05	; 5
    c638:	9c 93       	st	X, r25
    c63a:	8e 93       	st	-X, r24
    c63c:	14 97       	sbiw	r26, 0x04	; 4
		player->deadlock_count_x = 0;
    c63e:	e9 85       	ldd	r30, Y+9	; 0x09
    c640:	fa 85       	ldd	r31, Y+10	; 0x0a
    c642:	10 a2       	std	Z+32, r1	; 0x20
    c644:	17 8e       	std	Z+31, r1	; 0x1f
    c646:	42 c0       	rjmp	.+132    	; 0xc6cc <get_cpu_joypad_state+0x33e>
	}
	else if (player->deadlock_count_y >= FRAMES_PER_DEADLOCK)
    c648:	a9 85       	ldd	r26, Y+9	; 0x09
    c64a:	ba 85       	ldd	r27, Y+10	; 0x0a
    c64c:	91 96       	adiw	r26, 0x21	; 33
    c64e:	8d 91       	ld	r24, X+
    c650:	9c 91       	ld	r25, X
    c652:	92 97       	sbiw	r26, 0x22	; 34
    c654:	80 34       	cpi	r24, 0x40	; 64
    c656:	91 40       	sbci	r25, 0x01	; 1
    c658:	88 f0       	brcs	.+34     	; 0xc67c <get_cpu_joypad_state+0x2ee>
	{
		p->held = button_map(LBRandom(0, 2));
    c65a:	62 e0       	ldi	r22, 0x02	; 2
    c65c:	80 e0       	ldi	r24, 0x00	; 0
    c65e:	0e 94 fd 4d 	call	0x9bfa	; 0x9bfa <LBRandom>
    c662:	90 e0       	ldi	r25, 0x00	; 0
    c664:	0e 94 80 60 	call	0xc100	; 0xc100 <button_map>
    c668:	f2 01       	movw	r30, r4
    c66a:	95 83       	std	Z+5, r25	; 0x05
    c66c:	84 83       	std	Z+4, r24	; 0x04
		player->deadlock_count_y = 0;
    c66e:	a9 85       	ldd	r26, Y+9	; 0x09
    c670:	ba 85       	ldd	r27, Y+10	; 0x0a
    c672:	92 96       	adiw	r26, 0x22	; 34
    c674:	1c 92       	st	X, r1
    c676:	1e 92       	st	-X, r1
    c678:	91 97       	sbiw	r26, 0x21	; 33
    c67a:	28 c0       	rjmp	.+80     	; 0xc6cc <get_cpu_joypad_state+0x33e>
	}
	else player->goal_reached = crash_and_turn(player->shared.x / 8, player->shared.y / 8 - 3, player->shared.recoiled, player, p);
    c67c:	20 e0       	ldi	r18, 0x00	; 0
    c67e:	30 e0       	ldi	r19, 0x00	; 0
    c680:	40 e0       	ldi	r20, 0x00	; 0
    c682:	5e e3       	ldi	r21, 0x3E	; 62
    c684:	c5 01       	movw	r24, r10
    c686:	b4 01       	movw	r22, r8
    c688:	0e 94 66 74 	call	0xe8cc	; 0xe8cc <__mulsf3>
    c68c:	20 e0       	ldi	r18, 0x00	; 0
    c68e:	30 e0       	ldi	r19, 0x00	; 0
    c690:	40 e4       	ldi	r20, 0x40	; 64
    c692:	50 e4       	ldi	r21, 0x40	; 64
    c694:	0e 94 ae 72 	call	0xe55c	; 0xe55c <__subsf3>
    c698:	0e 94 7f 73 	call	0xe6fe	; 0xe6fe <__fixsfsi>
    c69c:	b6 2e       	mov	r11, r22
    c69e:	20 e0       	ldi	r18, 0x00	; 0
    c6a0:	30 e0       	ldi	r19, 0x00	; 0
    c6a2:	40 e0       	ldi	r20, 0x00	; 0
    c6a4:	5e e3       	ldi	r21, 0x3E	; 62
    c6a6:	c7 01       	movw	r24, r14
    c6a8:	b6 01       	movw	r22, r12
    c6aa:	0e 94 66 74 	call	0xe8cc	; 0xe8cc <__mulsf3>
    c6ae:	0e 94 7f 73 	call	0xe6fe	; 0xe6fe <__fixsfsi>
    c6b2:	86 2f       	mov	r24, r22
    c6b4:	82 01       	movw	r16, r4
    c6b6:	29 85       	ldd	r18, Y+9	; 0x09
    c6b8:	3a 85       	ldd	r19, Y+10	; 0x0a
    c6ba:	f9 01       	movw	r30, r18
    c6bc:	42 81       	ldd	r20, Z+2	; 0x02
    c6be:	6b 2d       	mov	r22, r11
    c6c0:	0e 94 96 60 	call	0xc12c	; 0xc12c <crash_and_turn>
    c6c4:	a9 85       	ldd	r26, Y+9	; 0x09
    c6c6:	ba 85       	ldd	r27, Y+10	; 0x0a
    c6c8:	94 96       	adiw	r26, 0x24	; 36
    c6ca:	8c 93       	st	X, r24
	
	// Re-act to player shot
	if (player->shot_tactic == TACTIC_SHOT_EVADE && other_player->old_active_shots < other_player->active_shots)
    c6cc:	e9 85       	ldd	r30, Y+9	; 0x09
    c6ce:	fa 85       	ldd	r31, Y+10	; 0x0a
    c6d0:	84 8d       	ldd	r24, Z+28	; 0x1c
    c6d2:	81 30       	cpi	r24, 0x01	; 1
    c6d4:	09 f0       	breq	.+2      	; 0xc6d8 <get_cpu_joypad_state+0x34a>
    c6d6:	f7 c0       	rjmp	.+494    	; 0xc8c6 <get_cpu_joypad_state+0x538>
    c6d8:	d1 01       	movw	r26, r2
    c6da:	52 96       	adiw	r26, 0x12	; 18
    c6dc:	9c 91       	ld	r25, X
    c6de:	52 97       	sbiw	r26, 0x12	; 18
    c6e0:	51 96       	adiw	r26, 0x11	; 17
    c6e2:	8c 91       	ld	r24, X
    c6e4:	51 97       	sbiw	r26, 0x11	; 17
    c6e6:	98 17       	cp	r25, r24
    c6e8:	08 f0       	brcs	.+2      	; 0xc6ec <get_cpu_joypad_state+0x35e>
    c6ea:	ed c0       	rjmp	.+474    	; 0xc8c6 <get_cpu_joypad_state+0x538>
	{
		if (other_player->shared.y < player->shared.y && other_player->shared.x < player->shared.x)
    c6ec:	17 96       	adiw	r26, 0x07	; 7
    c6ee:	cd 90       	ld	r12, X+
    c6f0:	dd 90       	ld	r13, X+
    c6f2:	ed 90       	ld	r14, X+
    c6f4:	fc 90       	ld	r15, X
    c6f6:	1a 97       	sbiw	r26, 0x0a	; 10
    c6f8:	87 80       	ldd	r8, Z+7	; 0x07
    c6fa:	90 84       	ldd	r9, Z+8	; 0x08
    c6fc:	a1 84       	ldd	r10, Z+9	; 0x09
    c6fe:	b2 84       	ldd	r11, Z+10	; 0x0a
    c700:	a5 01       	movw	r20, r10
    c702:	94 01       	movw	r18, r8
    c704:	c7 01       	movw	r24, r14
    c706:	b6 01       	movw	r22, r12
    c708:	0e 94 13 73 	call	0xe626	; 0xe626 <__cmpsf2>
    c70c:	87 ff       	sbrs	r24, 7
    c70e:	64 c0       	rjmp	.+200    	; 0xc7d8 <get_cpu_joypad_state+0x44a>
    c710:	e9 85       	ldd	r30, Y+9	; 0x09
    c712:	fa 85       	ldd	r31, Y+10	; 0x0a
    c714:	23 81       	ldd	r18, Z+3	; 0x03
    c716:	34 81       	ldd	r19, Z+4	; 0x04
    c718:	45 81       	ldd	r20, Z+5	; 0x05
    c71a:	56 81       	ldd	r21, Z+6	; 0x06
    c71c:	d1 01       	movw	r26, r2
    c71e:	13 96       	adiw	r26, 0x03	; 3
    c720:	6d 91       	ld	r22, X+
    c722:	7d 91       	ld	r23, X+
    c724:	8d 91       	ld	r24, X+
    c726:	9c 91       	ld	r25, X
    c728:	16 97       	sbiw	r26, 0x06	; 6
    c72a:	0e 94 13 73 	call	0xe626	; 0xe626 <__cmpsf2>
    c72e:	87 ff       	sbrs	r24, 7
    c730:	27 c0       	rjmp	.+78     	; 0xc780 <get_cpu_joypad_state+0x3f2>
		{
			if (other_player->shared.direction == D_DOWN && player->shared.direction == D_LEFT)
    c732:	f1 01       	movw	r30, r2
    c734:	80 81       	ld	r24, Z
    c736:	82 30       	cpi	r24, 0x02	; 2
    c738:	79 f4       	brne	.+30     	; 0xc758 <get_cpu_joypad_state+0x3ca>
    c73a:	a9 85       	ldd	r26, Y+9	; 0x09
    c73c:	ba 85       	ldd	r27, Y+10	; 0x0a
    c73e:	8c 91       	ld	r24, X
    c740:	83 30       	cpi	r24, 0x03	; 3
    c742:	51 f4       	brne	.+20     	; 0xc758 <get_cpu_joypad_state+0x3ca>
			{
				p->held = BTN_RIGHT;
    c744:	80 e8       	ldi	r24, 0x80	; 128
    c746:	90 e0       	ldi	r25, 0x00	; 0
    c748:	f2 01       	movw	r30, r4
    c74a:	95 83       	std	Z+5, r25	; 0x05
    c74c:	84 83       	std	Z+4, r24	; 0x04
				player->goal_reached = 0;
    c74e:	94 96       	adiw	r26, 0x24	; 36
    c750:	1c 92       	st	X, r1
    c752:	94 97       	sbiw	r26, 0x24	; 36
				player->feeling_my_way = 0;
    c754:	5a 96       	adiw	r26, 0x1a	; 26
    c756:	1c 92       	st	X, r1
			}
			if (other_player->shared.direction == D_RIGHT && player->shared.direction == D_UP)
    c758:	d1 01       	movw	r26, r2
    c75a:	8c 91       	ld	r24, X
    c75c:	81 30       	cpi	r24, 0x01	; 1
    c75e:	09 f0       	breq	.+2      	; 0xc762 <get_cpu_joypad_state+0x3d4>
    c760:	b2 c0       	rjmp	.+356    	; 0xc8c6 <get_cpu_joypad_state+0x538>
    c762:	e9 85       	ldd	r30, Y+9	; 0x09
    c764:	fa 85       	ldd	r31, Y+10	; 0x0a
    c766:	80 81       	ld	r24, Z
    c768:	81 11       	cpse	r24, r1
    c76a:	ad c0       	rjmp	.+346    	; 0xc8c6 <get_cpu_joypad_state+0x538>
			{
				player->goal_reached = 0;
    c76c:	a9 85       	ldd	r26, Y+9	; 0x09
    c76e:	ba 85       	ldd	r27, Y+10	; 0x0a
    c770:	94 96       	adiw	r26, 0x24	; 36
    c772:	1c 92       	st	X, r1
    c774:	94 97       	sbiw	r26, 0x24	; 36
				player->feeling_my_way = 0;
    c776:	5a 96       	adiw	r26, 0x1a	; 26
    c778:	1c 92       	st	X, r1
				p->held = BTN_DOWN;
    c77a:	80 e2       	ldi	r24, 0x20	; 32
    c77c:	90 e0       	ldi	r25, 0x00	; 0
    c77e:	6c c0       	rjmp	.+216    	; 0xc858 <get_cpu_joypad_state+0x4ca>
			}
		}
		else if (other_player->shared.y < player->shared.y && other_player->shared.x > player->shared.x)
    c780:	a9 85       	ldd	r26, Y+9	; 0x09
    c782:	ba 85       	ldd	r27, Y+10	; 0x0a
    c784:	13 96       	adiw	r26, 0x03	; 3
    c786:	2d 91       	ld	r18, X+
    c788:	3d 91       	ld	r19, X+
    c78a:	4d 91       	ld	r20, X+
    c78c:	5c 91       	ld	r21, X
    c78e:	16 97       	sbiw	r26, 0x06	; 6
    c790:	f1 01       	movw	r30, r2
    c792:	63 81       	ldd	r22, Z+3	; 0x03
    c794:	74 81       	ldd	r23, Z+4	; 0x04
    c796:	85 81       	ldd	r24, Z+5	; 0x05
    c798:	96 81       	ldd	r25, Z+6	; 0x06
    c79a:	0e 94 62 74 	call	0xe8c4	; 0xe8c4 <__gesf2>
    c79e:	18 16       	cp	r1, r24
    c7a0:	dc f4       	brge	.+54     	; 0xc7d8 <get_cpu_joypad_state+0x44a>
		{
			if (other_player->shared.direction == D_DOWN && player->shared.direction == D_RIGHT)
    c7a2:	d1 01       	movw	r26, r2
    c7a4:	8c 91       	ld	r24, X
    c7a6:	82 30       	cpi	r24, 0x02	; 2
    c7a8:	71 f4       	brne	.+28     	; 0xc7c6 <get_cpu_joypad_state+0x438>
    c7aa:	e9 85       	ldd	r30, Y+9	; 0x09
    c7ac:	fa 85       	ldd	r31, Y+10	; 0x0a
    c7ae:	80 81       	ld	r24, Z
    c7b0:	81 30       	cpi	r24, 0x01	; 1
    c7b2:	49 f4       	brne	.+18     	; 0xc7c6 <get_cpu_joypad_state+0x438>
			{
				player->goal_reached = 0;
    c7b4:	14 a2       	std	Z+36, r1	; 0x24
				player->feeling_my_way = 0;
    c7b6:	12 8e       	std	Z+26, r1	; 0x1a
				p->held = BTN_LEFT;
    c7b8:	80 e4       	ldi	r24, 0x40	; 64
    c7ba:	90 e0       	ldi	r25, 0x00	; 0
    c7bc:	d2 01       	movw	r26, r4
    c7be:	15 96       	adiw	r26, 0x05	; 5
    c7c0:	9c 93       	st	X, r25
    c7c2:	8e 93       	st	-X, r24
    c7c4:	14 97       	sbiw	r26, 0x04	; 4
			}
			if (other_player->shared.direction == D_LEFT && player->shared.direction == D_UP)
    c7c6:	f1 01       	movw	r30, r2
    c7c8:	80 81       	ld	r24, Z
    c7ca:	83 30       	cpi	r24, 0x03	; 3
    c7cc:	09 f0       	breq	.+2      	; 0xc7d0 <get_cpu_joypad_state+0x442>
    c7ce:	7b c0       	rjmp	.+246    	; 0xc8c6 <get_cpu_joypad_state+0x538>
    c7d0:	a9 85       	ldd	r26, Y+9	; 0x09
    c7d2:	ba 85       	ldd	r27, Y+10	; 0x0a
    c7d4:	8c 91       	ld	r24, X
    c7d6:	c8 cf       	rjmp	.-112    	; 0xc768 <get_cpu_joypad_state+0x3da>
				player->goal_reached = 0;
				player->feeling_my_way = 0;
				p->held = BTN_DOWN;
			}
		}
		else if (other_player->shared.y > player->shared.y && other_player->shared.x < player->shared.x)
    c7d8:	a5 01       	movw	r20, r10
    c7da:	94 01       	movw	r18, r8
    c7dc:	c7 01       	movw	r24, r14
    c7de:	b6 01       	movw	r22, r12
    c7e0:	0e 94 62 74 	call	0xe8c4	; 0xe8c4 <__gesf2>
    c7e4:	18 16       	cp	r1, r24
    c7e6:	e4 f5       	brge	.+120    	; 0xc860 <get_cpu_joypad_state+0x4d2>
    c7e8:	e9 85       	ldd	r30, Y+9	; 0x09
    c7ea:	fa 85       	ldd	r31, Y+10	; 0x0a
    c7ec:	23 81       	ldd	r18, Z+3	; 0x03
    c7ee:	34 81       	ldd	r19, Z+4	; 0x04
    c7f0:	45 81       	ldd	r20, Z+5	; 0x05
    c7f2:	56 81       	ldd	r21, Z+6	; 0x06
    c7f4:	d1 01       	movw	r26, r2
    c7f6:	13 96       	adiw	r26, 0x03	; 3
    c7f8:	6d 91       	ld	r22, X+
    c7fa:	7d 91       	ld	r23, X+
    c7fc:	8d 91       	ld	r24, X+
    c7fe:	9c 91       	ld	r25, X
    c800:	16 97       	sbiw	r26, 0x06	; 6
    c802:	0e 94 13 73 	call	0xe626	; 0xe626 <__cmpsf2>
    c806:	87 ff       	sbrs	r24, 7
    c808:	33 c0       	rjmp	.+102    	; 0xc870 <get_cpu_joypad_state+0x4e2>
		{
			if (other_player->shared.direction == D_UP && player->shared.direction == D_LEFT)
    c80a:	f1 01       	movw	r30, r2
    c80c:	80 81       	ld	r24, Z
    c80e:	81 11       	cpse	r24, r1
    c810:	0f c0       	rjmp	.+30     	; 0xc830 <get_cpu_joypad_state+0x4a2>
    c812:	a9 85       	ldd	r26, Y+9	; 0x09
    c814:	ba 85       	ldd	r27, Y+10	; 0x0a
    c816:	8c 91       	ld	r24, X
    c818:	83 30       	cpi	r24, 0x03	; 3
    c81a:	51 f4       	brne	.+20     	; 0xc830 <get_cpu_joypad_state+0x4a2>
			{
				player->goal_reached = 0;
    c81c:	94 96       	adiw	r26, 0x24	; 36
    c81e:	1c 92       	st	X, r1
    c820:	94 97       	sbiw	r26, 0x24	; 36
				player->feeling_my_way = 0;
    c822:	5a 96       	adiw	r26, 0x1a	; 26
    c824:	1c 92       	st	X, r1
				p->held = BTN_RIGHT;
    c826:	80 e8       	ldi	r24, 0x80	; 128
    c828:	90 e0       	ldi	r25, 0x00	; 0
    c82a:	f2 01       	movw	r30, r4
    c82c:	95 83       	std	Z+5, r25	; 0x05
    c82e:	84 83       	std	Z+4, r24	; 0x04
			}
			if (other_player->shared.direction == D_RIGHT && player->shared.direction == D_DOWN)
    c830:	d1 01       	movw	r26, r2
    c832:	8c 91       	ld	r24, X
    c834:	81 30       	cpi	r24, 0x01	; 1
    c836:	09 f0       	breq	.+2      	; 0xc83a <get_cpu_joypad_state+0x4ac>
    c838:	46 c0       	rjmp	.+140    	; 0xc8c6 <get_cpu_joypad_state+0x538>
    c83a:	e9 85       	ldd	r30, Y+9	; 0x09
    c83c:	fa 85       	ldd	r31, Y+10	; 0x0a
    c83e:	80 81       	ld	r24, Z
    c840:	82 30       	cpi	r24, 0x02	; 2
    c842:	09 f0       	breq	.+2      	; 0xc846 <get_cpu_joypad_state+0x4b8>
    c844:	40 c0       	rjmp	.+128    	; 0xc8c6 <get_cpu_joypad_state+0x538>
			{
				player->goal_reached = 0;
    c846:	a9 85       	ldd	r26, Y+9	; 0x09
    c848:	ba 85       	ldd	r27, Y+10	; 0x0a
    c84a:	94 96       	adiw	r26, 0x24	; 36
    c84c:	1c 92       	st	X, r1
    c84e:	94 97       	sbiw	r26, 0x24	; 36
				player->feeling_my_way = 0;
    c850:	5a 96       	adiw	r26, 0x1a	; 26
    c852:	1c 92       	st	X, r1
				p->held = BTN_UP;
    c854:	80 e1       	ldi	r24, 0x10	; 16
    c856:	90 e0       	ldi	r25, 0x00	; 0
    c858:	f2 01       	movw	r30, r4
    c85a:	95 83       	std	Z+5, r25	; 0x05
    c85c:	84 83       	std	Z+4, r24	; 0x04
    c85e:	33 c0       	rjmp	.+102    	; 0xc8c6 <get_cpu_joypad_state+0x538>
			}
		}
		else if (other_player->shared.y > player->shared.y && other_player->shared.x > player->shared.x)
    c860:	a5 01       	movw	r20, r10
    c862:	94 01       	movw	r18, r8
    c864:	c7 01       	movw	r24, r14
    c866:	b6 01       	movw	r22, r12
    c868:	0e 94 62 74 	call	0xe8c4	; 0xe8c4 <__gesf2>
    c86c:	18 16       	cp	r1, r24
    c86e:	5c f5       	brge	.+86     	; 0xc8c6 <get_cpu_joypad_state+0x538>
    c870:	a9 85       	ldd	r26, Y+9	; 0x09
    c872:	ba 85       	ldd	r27, Y+10	; 0x0a
    c874:	13 96       	adiw	r26, 0x03	; 3
    c876:	2d 91       	ld	r18, X+
    c878:	3d 91       	ld	r19, X+
    c87a:	4d 91       	ld	r20, X+
    c87c:	5c 91       	ld	r21, X
    c87e:	16 97       	sbiw	r26, 0x06	; 6
    c880:	f1 01       	movw	r30, r2
    c882:	63 81       	ldd	r22, Z+3	; 0x03
    c884:	74 81       	ldd	r23, Z+4	; 0x04
    c886:	85 81       	ldd	r24, Z+5	; 0x05
    c888:	96 81       	ldd	r25, Z+6	; 0x06
    c88a:	0e 94 62 74 	call	0xe8c4	; 0xe8c4 <__gesf2>
    c88e:	18 16       	cp	r1, r24
    c890:	d4 f4       	brge	.+52     	; 0xc8c6 <get_cpu_joypad_state+0x538>
		{
			if (other_player->shared.direction == D_UP && player->shared.direction == D_RIGHT)
    c892:	d1 01       	movw	r26, r2
    c894:	8c 91       	ld	r24, X
    c896:	81 11       	cpse	r24, r1
    c898:	0e c0       	rjmp	.+28     	; 0xc8b6 <get_cpu_joypad_state+0x528>
    c89a:	e9 85       	ldd	r30, Y+9	; 0x09
    c89c:	fa 85       	ldd	r31, Y+10	; 0x0a
    c89e:	80 81       	ld	r24, Z
    c8a0:	81 30       	cpi	r24, 0x01	; 1
    c8a2:	49 f4       	brne	.+18     	; 0xc8b6 <get_cpu_joypad_state+0x528>
			{
				player->goal_reached = 0;
    c8a4:	14 a2       	std	Z+36, r1	; 0x24
				player->feeling_my_way = 0;
    c8a6:	12 8e       	std	Z+26, r1	; 0x1a
				p->held = BTN_LEFT;
    c8a8:	80 e4       	ldi	r24, 0x40	; 64
    c8aa:	90 e0       	ldi	r25, 0x00	; 0
    c8ac:	d2 01       	movw	r26, r4
    c8ae:	15 96       	adiw	r26, 0x05	; 5
    c8b0:	9c 93       	st	X, r25
    c8b2:	8e 93       	st	-X, r24
    c8b4:	14 97       	sbiw	r26, 0x04	; 4
			}
			if (other_player->shared.direction == D_LEFT && player->shared.direction == D_DOWN){
    c8b6:	f1 01       	movw	r30, r2
    c8b8:	80 81       	ld	r24, Z
    c8ba:	83 30       	cpi	r24, 0x03	; 3
    c8bc:	21 f4       	brne	.+8      	; 0xc8c6 <get_cpu_joypad_state+0x538>
    c8be:	a9 85       	ldd	r26, Y+9	; 0x09
    c8c0:	ba 85       	ldd	r27, Y+10	; 0x0a
    c8c2:	8c 91       	ld	r24, X
    c8c4:	bd cf       	rjmp	.-134    	; 0xc840 <get_cpu_joypad_state+0x4b2>
				player->feeling_my_way = 0;
				p->held = BTN_UP;
			}
		}
	}
}
    c8c6:	2a 96       	adiw	r28, 0x0a	; 10
    c8c8:	0f b6       	in	r0, 0x3f	; 63
    c8ca:	f8 94       	cli
    c8cc:	de bf       	out	0x3e, r29	; 62
    c8ce:	0f be       	out	0x3f, r0	; 63
    c8d0:	cd bf       	out	0x3d, r28	; 61
    c8d2:	df 91       	pop	r29
    c8d4:	cf 91       	pop	r28
    c8d6:	1f 91       	pop	r17
    c8d8:	0f 91       	pop	r16
    c8da:	ff 90       	pop	r15
    c8dc:	ef 90       	pop	r14
    c8de:	df 90       	pop	r13
    c8e0:	cf 90       	pop	r12
    c8e2:	bf 90       	pop	r11
    c8e4:	af 90       	pop	r10
    c8e6:	9f 90       	pop	r9
    c8e8:	8f 90       	pop	r8
    c8ea:	7f 90       	pop	r7
    c8ec:	5f 90       	pop	r5
    c8ee:	4f 90       	pop	r4
    c8f0:	3f 90       	pop	r3
    c8f2:	2f 90       	pop	r2
    c8f4:	08 95       	ret

0000c8f6 <stream_text_middle>:
void stream_text_middle(const char* dialogue, u8 y, u16 delay)
{
    c8f6:	bf 92       	push	r11
    c8f8:	cf 92       	push	r12
    c8fa:	df 92       	push	r13
    c8fc:	ef 92       	push	r14
    c8fe:	ff 92       	push	r15
    c900:	0f 93       	push	r16
    c902:	1f 93       	push	r17
    c904:	cf 93       	push	r28
    c906:	df 93       	push	r29
    c908:	1f 92       	push	r1
    c90a:	cd b7       	in	r28, 0x3d	; 61
    c90c:	de b7       	in	r29, 0x3e	; 62
    c90e:	8c 01       	movw	r16, r24
    c910:	f6 2e       	mov	r15, r22
    c912:	6a 01       	movw	r12, r20
	u8 x, ln, c;
	
	while (pgm_read_byte(dialogue) != '#')
	{
		ln = strnlen_P(dialogue, 255);
		x = 15 - ln / 2;
    c914:	8f e0       	ldi	r24, 0x0F	; 15
    c916:	b8 2e       	mov	r11, r24
}
void stream_text_middle(const char* dialogue, u8 y, u16 delay)
{
	u8 x, ln, c;
	
	while (pgm_read_byte(dialogue) != '#')
    c918:	f8 01       	movw	r30, r16
    c91a:	84 91       	lpm	r24, Z
    c91c:	83 32       	cpi	r24, 0x23	; 35
    c91e:	01 f1       	breq	.+64     	; 0xc960 <stream_text_middle+0x6a>
	{
		ln = strnlen_P(dialogue, 255);
    c920:	6f ef       	ldi	r22, 0xFF	; 255
    c922:	70 e0       	ldi	r23, 0x00	; 0
    c924:	c8 01       	movw	r24, r16
    c926:	0e 94 d2 74 	call	0xe9a4	; 0xe9a4 <strnlen_P>
		x = 15 - ln / 2;
    c92a:	86 95       	lsr	r24
    c92c:	eb 2c       	mov	r14, r11
    c92e:	e8 1a       	sub	r14, r24
    c930:	e0 1a       	sub	r14, r16
    c932:	8e 2d       	mov	r24, r14
    c934:	80 0f       	add	r24, r16
		while ((c = pgm_read_byte(dialogue++)))
    c936:	0f 5f       	subi	r16, 0xFF	; 255
    c938:	1f 4f       	sbci	r17, 0xFF	; 255
    c93a:	f8 01       	movw	r30, r16
    c93c:	31 97       	sbiw	r30, 0x01	; 1
    c93e:	e4 91       	lpm	r30, Z
    c940:	e9 83       	std	Y+1, r30	; 0x01
    c942:	ee 23       	and	r30, r30
    c944:	59 f0       	breq	.+22     	; 0xc95c <stream_text_middle+0x66>
		{
#if JAMMA
			handle_coin_insert();
#endif
			LBPrintStr(x++, y, &c, 1);
    c946:	21 e0       	ldi	r18, 0x01	; 1
    c948:	ae 01       	movw	r20, r28
    c94a:	4f 5f       	subi	r20, 0xFF	; 255
    c94c:	5f 4f       	sbci	r21, 0xFF	; 255
    c94e:	6f 2d       	mov	r22, r15
    c950:	0e 94 96 4c 	call	0x992c	; 0x992c <LBPrintStr>
	for (;micro_seconds > 0; micro_seconds--) {
		WaitVsync(1);
		handle_coin_insert();
	}
#else
	WaitUs(micro_seconds);
    c954:	c6 01       	movw	r24, r12
    c956:	0e 94 6d 3a 	call	0x74da	; 0x74da <WaitUs>
    c95a:	eb cf       	rjmp	.-42     	; 0xc932 <stream_text_middle+0x3c>
			LBWaitUs(delay);
		}
		y++;
    c95c:	f3 94       	inc	r15
    c95e:	dc cf       	rjmp	.-72     	; 0xc918 <stream_text_middle+0x22>
	}
}
    c960:	0f 90       	pop	r0
    c962:	df 91       	pop	r29
    c964:	cf 91       	pop	r28
    c966:	1f 91       	pop	r17
    c968:	0f 91       	pop	r16
    c96a:	ff 90       	pop	r15
    c96c:	ef 90       	pop	r14
    c96e:	df 90       	pop	r13
    c970:	cf 90       	pop	r12
    c972:	bf 90       	pop	r11
    c974:	08 95       	ret

0000c976 <load_credits>:

void load_credits()
{
	fade_through();
    c976:	0e 94 0c 50 	call	0xa018	; 0xa018 <fade_through>
	stream_text_middle((const char*) strCredits, 5, 100);
    c97a:	44 e6       	ldi	r20, 0x64	; 100
    c97c:	50 e0       	ldi	r21, 0x00	; 0
    c97e:	65 e0       	ldi	r22, 0x05	; 5
    c980:	87 ea       	ldi	r24, 0xA7	; 167
    c982:	92 e0       	ldi	r25, 0x02	; 2
    c984:	0e 94 7b 64 	call	0xc8f6	; 0xc8f6 <stream_text_middle>
#if JAMMA
	wifi_status = WIFI_TIMEOUT;
#else
	wifi_status = activateNet();
    c988:	0e 94 0b 4b 	call	0x9616	; 0x9616 <activateNet>
    c98c:	80 93 d4 0b 	sts	0x0BD4, r24
#endif
	LBWaitSeconds(4);
    c990:	84 e0       	ldi	r24, 0x04	; 4
    c992:	0e 94 18 4e 	call	0x9c30	; 0x9c30 <LBWaitSeconds>
	fade_through();
    c996:	0c 94 0c 50 	jmp	0xa018	; 0xa018 <fade_through>

0000c99a <send_net_message>:
		send_net_message(code, 0, 0);
	}
}

void send_net_message(u8 code, u8 object_pos_x, u8 object_pos_y)
{
    c99a:	0f 93       	push	r16
    c99c:	1f 93       	push	r17
    c99e:	cf 93       	push	r28
    c9a0:	df 93       	push	r29
	Player* player = &player1;
	Player* otherPlayer = &player2;
	JoyPadState* state = &p1;
	HandleSelectState* handle_select = &p1s;
	
	if (game.selection != HOSTNETGAME && game.selection != JOINNETGAME) return;
    c9a2:	90 91 b6 0b 	lds	r25, 0x0BB6
    c9a6:	2e ef       	ldi	r18, 0xFE	; 254
    c9a8:	29 0f       	add	r18, r25
    c9aa:	22 30       	cpi	r18, 0x02	; 2
    c9ac:	08 f0       	brcs	.+2      	; 0xc9b0 <send_net_message+0x16>
    c9ae:	81 c0       	rjmp	.+258    	; 0xcab2 <send_net_message+0x118>
	
	netMessage.hud_x = 15;
	if (code >= NETITEMSPEED && code <= NETITEMBOMB) netMessage.hud_x = 0;
    c9b0:	2d ef       	ldi	r18, 0xFD	; 253
    c9b2:	28 0f       	add	r18, r24
    c9b4:	23 30       	cpi	r18, 0x03	; 3
    c9b6:	88 f4       	brcc	.+34     	; 0xc9da <send_net_message+0x40>
    c9b8:	10 92 e8 0f 	sts	0x0FE8, r1
	if (game.selection == JOINNETGAME)
    c9bc:	93 30       	cpi	r25, 0x03	; 3
    c9be:	49 f0       	breq	.+18     	; 0xc9d2 <send_net_message+0x38>
void send_net_message(u8 code, u8 object_pos_x, u8 object_pos_y)
{
	Player* player = &player1;
	Player* otherPlayer = &player2;
	JoyPadState* state = &p1;
	HandleSelectState* handle_select = &p1s;
    c9c0:	ab ef       	ldi	r26, 0xFB	; 251
    c9c2:	bf e0       	ldi	r27, 0x0F	; 15

void send_net_message(u8 code, u8 object_pos_x, u8 object_pos_y)
{
	Player* player = &player1;
	Player* otherPlayer = &player2;
	JoyPadState* state = &p1;
    c9c4:	21 e5       	ldi	r18, 0x51	; 81
    c9c6:	3c e0       	ldi	r19, 0x0C	; 12
}

void send_net_message(u8 code, u8 object_pos_x, u8 object_pos_y)
{
	Player* player = &player1;
	Player* otherPlayer = &player2;
    c9c8:	07 e4       	ldi	r16, 0x47	; 71
    c9ca:	1f e0       	ldi	r17, 0x0F	; 15
	}
}

void send_net_message(u8 code, u8 object_pos_x, u8 object_pos_y)
{
	Player* player = &player1;
    c9cc:	e5 ed       	ldi	r30, 0xD5	; 213
    c9ce:	fb e0       	ldi	r31, 0x0B	; 11
    c9d0:	14 c0       	rjmp	.+40     	; 0xc9fa <send_net_message+0x60>
		player = &player2;
		otherPlayer = &player1;
		state = &p2;
		handle_select = &p2s;
		netMessage.hud_x = 0;
		if (code >= NETITEMSPEED && code <= NETITEMBOMB) netMessage.hud_x = 15;
    c9d2:	9f e0       	ldi	r25, 0x0F	; 15
    c9d4:	90 93 e8 0f 	sts	0x0FE8, r25
    c9d8:	08 c0       	rjmp	.+16     	; 0xc9ea <send_net_message+0x50>
	
	if (game.selection != HOSTNETGAME && game.selection != JOINNETGAME) return;
	
	netMessage.hud_x = 15;
	if (code >= NETITEMSPEED && code <= NETITEMBOMB) netMessage.hud_x = 0;
	if (game.selection == JOINNETGAME)
    c9da:	93 30       	cpi	r25, 0x03	; 3
    c9dc:	21 f0       	breq	.+8      	; 0xc9e6 <send_net_message+0x4c>
	JoyPadState* state = &p1;
	HandleSelectState* handle_select = &p1s;
	
	if (game.selection != HOSTNETGAME && game.selection != JOINNETGAME) return;
	
	netMessage.hud_x = 15;
    c9de:	9f e0       	ldi	r25, 0x0F	; 15
    c9e0:	90 93 e8 0f 	sts	0x0FE8, r25
    c9e4:	ed cf       	rjmp	.-38     	; 0xc9c0 <send_net_message+0x26>
	{
		player = &player2;
		otherPlayer = &player1;
		state = &p2;
		handle_select = &p2s;
		netMessage.hud_x = 0;
    c9e6:	10 92 e8 0f 	sts	0x0FE8, r1
	if (game.selection == JOINNETGAME)
	{
		player = &player2;
		otherPlayer = &player1;
		state = &p2;
		handle_select = &p2s;
    c9ea:	ad e7       	ldi	r26, 0x7D	; 125
    c9ec:	bb e0       	ldi	r27, 0x0B	; 11
	if (code >= NETITEMSPEED && code <= NETITEMBOMB) netMessage.hud_x = 0;
	if (game.selection == JOINNETGAME)
	{
		player = &player2;
		otherPlayer = &player1;
		state = &p2;
    c9ee:	26 e7       	ldi	r18, 0x76	; 118
    c9f0:	3b e0       	ldi	r19, 0x0B	; 11
	netMessage.hud_x = 15;
	if (code >= NETITEMSPEED && code <= NETITEMBOMB) netMessage.hud_x = 0;
	if (game.selection == JOINNETGAME)
	{
		player = &player2;
		otherPlayer = &player1;
    c9f2:	05 ed       	ldi	r16, 0xD5	; 213
    c9f4:	1b e0       	ldi	r17, 0x0B	; 11
	
	netMessage.hud_x = 15;
	if (code >= NETITEMSPEED && code <= NETITEMBOMB) netMessage.hud_x = 0;
	if (game.selection == JOINNETGAME)
	{
		player = &player2;
    c9f6:	e7 e4       	ldi	r30, 0x47	; 71
    c9f8:	ff e0       	ldi	r31, 0x0F	; 15
		state = &p2;
		handle_select = &p2s;
		netMessage.hud_x = 0;
		if (code >= NETITEMSPEED && code <= NETITEMBOMB) netMessage.hud_x = 15;
	}
	netMessage.code = code;
    c9fa:	80 93 df 0f 	sts	0x0FDF, r24
	netMessage.held = state->held;
    c9fe:	e9 01       	movw	r28, r18
    ca00:	8c 81       	ldd	r24, Y+4	; 0x04
    ca02:	9d 81       	ldd	r25, Y+5	; 0x05
    ca04:	90 93 e1 0f 	sts	0x0FE1, r25
    ca08:	80 93 e0 0f 	sts	0x0FE0, r24
	netMessage.pressed = state->pressed;
    ca0c:	88 81       	ld	r24, Y
    ca0e:	99 81       	ldd	r25, Y+1	; 0x01
    ca10:	90 93 e3 0f 	sts	0x0FE3, r25
    ca14:	80 93 e2 0f 	sts	0x0FE2, r24
	netMessage.object_pos_x = object_pos_x;
    ca18:	60 93 e4 0f 	sts	0x0FE4, r22
	netMessage.object_pos_y = object_pos_y;
    ca1c:	40 93 e5 0f 	sts	0x0FE5, r20
	netMessage.score = otherPlayer->score;
    ca20:	e8 01       	movw	r28, r16
    ca22:	8f 85       	ldd	r24, Y+15	; 0x0f
    ca24:	80 93 e6 0f 	sts	0x0FE6, r24
	netMessage.level_score = otherPlayer->level_score;
    ca28:	88 89       	ldd	r24, Y+16	; 0x10
    ca2a:	80 93 e7 0f 	sts	0x0FE7, r24
	netMessage.pos_x = player->shared.x;
    ca2e:	43 81       	ldd	r20, Z+3	; 0x03
    ca30:	54 81       	ldd	r21, Z+4	; 0x04
    ca32:	65 81       	ldd	r22, Z+5	; 0x05
    ca34:	76 81       	ldd	r23, Z+6	; 0x06
    ca36:	40 93 f2 0f 	sts	0x0FF2, r20
    ca3a:	50 93 f3 0f 	sts	0x0FF3, r21
    ca3e:	60 93 f4 0f 	sts	0x0FF4, r22
    ca42:	70 93 f5 0f 	sts	0x0FF5, r23
	netMessage.pos_y = player->shared.y;
    ca46:	47 81       	ldd	r20, Z+7	; 0x07
    ca48:	50 85       	ldd	r21, Z+8	; 0x08
    ca4a:	61 85       	ldd	r22, Z+9	; 0x09
    ca4c:	72 85       	ldd	r23, Z+10	; 0x0a
    ca4e:	40 93 f6 0f 	sts	0x0FF6, r20
    ca52:	50 93 f7 0f 	sts	0x0FF7, r21
    ca56:	60 93 f8 0f 	sts	0x0FF8, r22
    ca5a:	70 93 f9 0f 	sts	0x0FF9, r23
	netMessage.speed = player->shared.speed;
    ca5e:	81 81       	ldd	r24, Z+1	; 0x01
    ca60:	80 93 f0 0f 	sts	0x0FF0, r24
	netMessage.direction = player->shared.direction;
    ca64:	80 81       	ld	r24, Z
    ca66:	80 93 ef 0f 	sts	0x0FEF, r24
	netMessage.recoiled = player->shared.recoiled;
    ca6a:	82 81       	ldd	r24, Z+2	; 0x02
    ca6c:	80 93 f1 0f 	sts	0x0FF1, r24
	netMessage.handle_id = handle_select->handle_id;
    ca70:	8c 91       	ld	r24, X
    ca72:	80 93 e9 0f 	sts	0x0FE9, r24
	netMessage.char_index = handle_select->char_index;
    ca76:	14 96       	adiw	r26, 0x04	; 4
    ca78:	8c 91       	ld	r24, X
    ca7a:	14 97       	sbiw	r26, 0x04	; 4
    ca7c:	80 93 ed 0f 	sts	0x0FED, r24
	netMessage.select_state = handle_select->select_state;
    ca80:	15 96       	adiw	r26, 0x05	; 5
    ca82:	8c 91       	ld	r24, X
    ca84:	15 97       	sbiw	r26, 0x05	; 5
    ca86:	80 93 ee 0f 	sts	0x0FEE, r24
	memcpy(netMessage.handle, handle_select->handle, 3);
    ca8a:	11 96       	adiw	r26, 0x01	; 1
    ca8c:	8d 91       	ld	r24, X+
    ca8e:	9d 91       	ld	r25, X+
    ca90:	ac 91       	ld	r26, X
    ca92:	80 93 ea 0f 	sts	0x0FEA, r24
    ca96:	90 93 eb 0f 	sts	0x0FEB, r25
    ca9a:	a0 93 ec 0f 	sts	0x0FEC, r26
	netMessage.zero = 0;
    ca9e:	10 92 fa 0f 	sts	0x0FFA, r1
	sendNetMessage(&netMessage);
    caa2:	8f ed       	ldi	r24, 0xDF	; 223
    caa4:	9f e0       	ldi	r25, 0x0F	; 15
}
    caa6:	df 91       	pop	r29
    caa8:	cf 91       	pop	r28
    caaa:	1f 91       	pop	r17
    caac:	0f 91       	pop	r16
	netMessage.handle_id = handle_select->handle_id;
	netMessage.char_index = handle_select->char_index;
	netMessage.select_state = handle_select->select_state;
	memcpy(netMessage.handle, handle_select->handle, 3);
	netMessage.zero = 0;
	sendNetMessage(&netMessage);
    caae:	0c 94 0f 4b 	jmp	0x961e	; 0x961e <sendNetMessage>
}
    cab2:	df 91       	pop	r29
    cab4:	cf 91       	pop	r28
    cab6:	1f 91       	pop	r17
    cab8:	0f 91       	pop	r16
    caba:	08 95       	ret

0000cabc <send_smart_net_message>:
} 
#endif


void send_smart_net_message(Player* player, JoyPadState* p, u8 code)
{
    cabc:	34 2f       	mov	r19, r20
	if (game.selection == HOSTNETGAME && player == &player1)
    cabe:	20 91 b6 0b 	lds	r18, 0x0BB6
    cac2:	22 30       	cpi	r18, 0x02	; 2
    cac4:	41 f4       	brne	.+16     	; 0xcad6 <send_smart_net_message+0x1a>
    cac6:	85 5d       	subi	r24, 0xD5	; 213
    cac8:	9b 40       	sbci	r25, 0x0B	; 11
    caca:	51 f4       	brne	.+20     	; 0xcae0 <send_smart_net_message+0x24>
	{
		send_net_message(code, 0, 0);
    cacc:	40 e0       	ldi	r20, 0x00	; 0
    cace:	60 e0       	ldi	r22, 0x00	; 0
    cad0:	83 2f       	mov	r24, r19
    cad2:	0c 94 cd 64 	jmp	0xc99a	; 0xc99a <send_net_message>
	}
	else if (game.selection == JOINNETGAME && player == &player2)
    cad6:	23 30       	cpi	r18, 0x03	; 3
    cad8:	19 f4       	brne	.+6      	; 0xcae0 <send_smart_net_message+0x24>
    cada:	87 54       	subi	r24, 0x47	; 71
    cadc:	9f 40       	sbci	r25, 0x0F	; 15
    cade:	b1 f3       	breq	.-20     	; 0xcacc <send_smart_net_message+0x10>
    cae0:	08 95       	ret

0000cae2 <get_net_message>:
	netMessage.zero = 0;
	sendNetMessage(&netMessage);
}

void get_net_message()
{
    cae2:	df 92       	push	r13
    cae4:	ef 92       	push	r14
    cae6:	ff 92       	push	r15
    cae8:	0f 93       	push	r16
    caea:	1f 93       	push	r17
    caec:	cf 93       	push	r28
    caee:	df 93       	push	r29
	Player* player = &player2;
	Player* otherPlayer = &player1;
	u8 otherPlayerHudx = 0;
	HandleSelectState* handle_select = &p2s;
	if (game.selection != HOSTNETGAME && game.selection != JOINNETGAME) return;
    caf0:	80 91 b6 0b 	lds	r24, 0x0BB6
    caf4:	9e ef       	ldi	r25, 0xFE	; 254
    caf6:	98 0f       	add	r25, r24
    caf8:	92 30       	cpi	r25, 0x02	; 2
    cafa:	08 f0       	brcs	.+2      	; 0xcafe <get_net_message+0x1c>
    cafc:	32 c1       	rjmp	.+612    	; 0xcd62 <get_net_message+0x280>
	
	netMessage.code = NETNODATA;
    cafe:	9c e0       	ldi	r25, 0x0C	; 12
    cb00:	90 93 df 0f 	sts	0x0FDF, r25
	if (game.selection == JOINNETGAME)
    cb04:	83 30       	cpi	r24, 0x03	; 3
    cb06:	59 f4       	brne	.+22     	; 0xcb1e <get_net_message+0x3c>
	{
		player = &player1;
		handle_select = &p1s;
    cb08:	9b ef       	ldi	r25, 0xFB	; 251
    cb0a:	e9 2e       	mov	r14, r25
    cb0c:	9f e0       	ldi	r25, 0x0F	; 15
    cb0e:	f9 2e       	mov	r15, r25
		otherPlayer = &player2;
		otherPlayerHudx = 15;
    cb10:	2f e0       	ldi	r18, 0x0F	; 15
    cb12:	d2 2e       	mov	r13, r18
	netMessage.code = NETNODATA;
	if (game.selection == JOINNETGAME)
	{
		player = &player1;
		handle_select = &p1s;
		otherPlayer = &player2;
    cb14:	07 e4       	ldi	r16, 0x47	; 71
    cb16:	1f e0       	ldi	r17, 0x0F	; 15
	if (game.selection != HOSTNETGAME && game.selection != JOINNETGAME) return;
	
	netMessage.code = NETNODATA;
	if (game.selection == JOINNETGAME)
	{
		player = &player1;
    cb18:	c5 ed       	ldi	r28, 0xD5	; 213
    cb1a:	db e0       	ldi	r29, 0x0B	; 11
    cb1c:	09 c0       	rjmp	.+18     	; 0xcb30 <get_net_message+0x4e>
void get_net_message()
{
	Player* player = &player2;
	Player* otherPlayer = &player1;
	u8 otherPlayerHudx = 0;
	HandleSelectState* handle_select = &p2s;
    cb1e:	8d e7       	ldi	r24, 0x7D	; 125
    cb20:	e8 2e       	mov	r14, r24
    cb22:	8b e0       	ldi	r24, 0x0B	; 11
    cb24:	f8 2e       	mov	r15, r24

void get_net_message()
{
	Player* player = &player2;
	Player* otherPlayer = &player1;
	u8 otherPlayerHudx = 0;
    cb26:	d1 2c       	mov	r13, r1
}

void get_net_message()
{
	Player* player = &player2;
	Player* otherPlayer = &player1;
    cb28:	05 ed       	ldi	r16, 0xD5	; 213
    cb2a:	1b e0       	ldi	r17, 0x0B	; 11
	sendNetMessage(&netMessage);
}

void get_net_message()
{
	Player* player = &player2;
    cb2c:	c7 e4       	ldi	r28, 0x47	; 71
    cb2e:	df e0       	ldi	r29, 0x0F	; 15
		player = &player1;
		handle_select = &p1s;
		otherPlayer = &player2;
		otherPlayerHudx = 15;
	}
	LBPrintByte(3, 25, UartUnreadCount(), true);
    cb30:	0e 94 2f 3c 	call	0x785e	; 0x785e <UartUnreadCount>
    cb34:	21 e0       	ldi	r18, 0x01	; 1
    cb36:	48 2f       	mov	r20, r24
    cb38:	69 e1       	ldi	r22, 0x19	; 25
    cb3a:	83 e0       	ldi	r24, 0x03	; 3
    cb3c:	0e 94 c7 4c 	call	0x998e	; 0x998e <LBPrintByte>
	if (getNetMessage(&netMessage) != WIFI_NODATA)
    cb40:	8f ed       	ldi	r24, 0xDF	; 223
    cb42:	9f e0       	ldi	r25, 0x0F	; 15
    cb44:	0e 94 12 4b 	call	0x9624	; 0x9624 <getNetMessage>
    cb48:	82 30       	cpi	r24, 0x02	; 2
    cb4a:	09 f4       	brne	.+2      	; 0xcb4e <get_net_message+0x6c>
    cb4c:	06 c1       	rjmp	.+524    	; 0xcd5a <get_net_message+0x278>
	{
		otherPlayer->score = netMessage.score;
    cb4e:	80 91 e6 0f 	lds	r24, 0x0FE6
    cb52:	f8 01       	movw	r30, r16
    cb54:	87 87       	std	Z+15, r24	; 0x0f
		otherPlayer->level_score = netMessage.score;
    cb56:	80 8b       	std	Z+16, r24	; 0x10
		player->shared.x = netMessage.pos_x;
    cb58:	80 91 f2 0f 	lds	r24, 0x0FF2
    cb5c:	90 91 f3 0f 	lds	r25, 0x0FF3
    cb60:	a0 91 f4 0f 	lds	r26, 0x0FF4
    cb64:	b0 91 f5 0f 	lds	r27, 0x0FF5
    cb68:	8b 83       	std	Y+3, r24	; 0x03
    cb6a:	9c 83       	std	Y+4, r25	; 0x04
    cb6c:	ad 83       	std	Y+5, r26	; 0x05
    cb6e:	be 83       	std	Y+6, r27	; 0x06
		player->shared.y = netMessage.pos_y;
    cb70:	80 91 f6 0f 	lds	r24, 0x0FF6
    cb74:	90 91 f7 0f 	lds	r25, 0x0FF7
    cb78:	a0 91 f8 0f 	lds	r26, 0x0FF8
    cb7c:	b0 91 f9 0f 	lds	r27, 0x0FF9
    cb80:	8f 83       	std	Y+7, r24	; 0x07
    cb82:	98 87       	std	Y+8, r25	; 0x08
    cb84:	a9 87       	std	Y+9, r26	; 0x09
    cb86:	ba 87       	std	Y+10, r27	; 0x0a
		player->shared.speed = netMessage.speed;
    cb88:	80 91 f0 0f 	lds	r24, 0x0FF0
    cb8c:	89 83       	std	Y+1, r24	; 0x01
		player->shared.direction = netMessage.direction;
    cb8e:	80 91 ef 0f 	lds	r24, 0x0FEF
    cb92:	88 83       	st	Y, r24
		player->shared.recoiled = netMessage.recoiled;
    cb94:	80 91 f1 0f 	lds	r24, 0x0FF1
    cb98:	8a 83       	std	Y+2, r24	; 0x02
		handle_select->handle_id = netMessage.handle_id;
    cb9a:	80 91 e9 0f 	lds	r24, 0x0FE9
    cb9e:	f7 01       	movw	r30, r14
    cba0:	80 83       	st	Z, r24
		handle_select->char_index = netMessage.char_index;
    cba2:	80 91 ed 0f 	lds	r24, 0x0FED
    cba6:	84 83       	std	Z+4, r24	; 0x04
		handle_select->select_state = netMessage.select_state;
    cba8:	80 91 ee 0f 	lds	r24, 0x0FEE
    cbac:	85 83       	std	Z+5, r24	; 0x05
		memcpy(handle_select->handle, netMessage.handle, 3);
    cbae:	80 91 ea 0f 	lds	r24, 0x0FEA
    cbb2:	90 91 eb 0f 	lds	r25, 0x0FEB
    cbb6:	a0 91 ec 0f 	lds	r26, 0x0FEC
    cbba:	81 83       	std	Z+1, r24	; 0x01
    cbbc:	92 83       	std	Z+2, r25	; 0x02
    cbbe:	a3 83       	std	Z+3, r26	; 0x03
		
		// Act on message code
		if (netMessage.code == NETHIT)
    cbc0:	80 91 df 0f 	lds	r24, 0x0FDF
    cbc4:	81 11       	cpse	r24, r1
    cbc6:	13 c0       	rjmp	.+38     	; 0xcbee <get_net_message+0x10c>
		{
			render_score(otherPlayer, netMessage.hud_x);
    cbc8:	60 91 e8 0f 	lds	r22, 0x0FE8
    cbcc:	c8 01       	movw	r24, r16
    cbce:	0e 94 f5 51 	call	0xa3ea	; 0xa3ea <render_score>
			init_shot_state(&otherPlayer->shot[0], otherPlayer->shot[0].shot_type);
    cbd2:	f8 01       	movw	r30, r16
    cbd4:	63 ad       	ldd	r22, Z+59	; 0x3b
    cbd6:	c8 01       	movw	r24, r16
    cbd8:	c0 96       	adiw	r24, 0x30	; 48
    cbda:	0e 94 a9 4e 	call	0x9d52	; 0x9d52 <init_shot_state>
			otherPlayer->active_shots--;
    cbde:	f8 01       	movw	r30, r16
    cbe0:	81 89       	ldd	r24, Z+17	; 0x11
    cbe2:	81 50       	subi	r24, 0x01	; 1
    cbe4:	81 8b       	std	Z+17, r24	; 0x11
			kill_player(player, netMessage.hud_x);
    cbe6:	60 91 e8 0f 	lds	r22, 0x0FE8
    cbea:	ce 01       	movw	r24, r28
    cbec:	12 c0       	rjmp	.+36     	; 0xcc12 <get_net_message+0x130>
			LBPlaySound(game.selection, player1.flags, player2.flags, PATCH_TANK_EXPLODE);
		}
		else if (netMessage.code == NETTURRETHIT)
    cbee:	81 30       	cpi	r24, 0x01	; 1
    cbf0:	e1 f4       	brne	.+56     	; 0xcc2a <get_net_message+0x148>
		{
			game.boss_fight_player_lives--;
    cbf2:	80 91 a8 0b 	lds	r24, 0x0BA8
    cbf6:	81 50       	subi	r24, 0x01	; 1
    cbf8:	80 93 a8 0b 	sts	0x0BA8, r24
			if (game.boss_fight_player_lives <= 0)
    cbfc:	81 11       	cpse	r24, r1
    cbfe:	03 c0       	rjmp	.+6      	; 0xcc06 <get_net_message+0x124>
			{
				game.boss_fight_status = BOSS_FIGHT_LOST;
    cc00:	80 e1       	ldi	r24, 0x10	; 16
    cc02:	80 93 a6 0b 	sts	0x0BA6, r24
			}
			kill_player(game.boss_fight_player, game.boss_fight_player_hud);
    cc06:	60 91 a7 0b 	lds	r22, 0x0BA7
    cc0a:	80 91 b2 0b 	lds	r24, 0x0BB2
    cc0e:	90 91 b3 0b 	lds	r25, 0x0BB3
    cc12:	0e 94 ef 55 	call	0xabde	; 0xabde <kill_player>
    cc16:	86 e0       	ldi	r24, 0x06	; 6
	}
	else
	{
		netMessage.pressed = 0;
	}
}
    cc18:	df 91       	pop	r29
    cc1a:	cf 91       	pop	r28
    cc1c:	1f 91       	pop	r17
    cc1e:	0f 91       	pop	r16
    cc20:	ff 90       	pop	r15
    cc22:	ef 90       	pop	r14
    cc24:	df 90       	pop	r13
    cc26:	0c 94 6e 49 	jmp	0x92dc	; 0x92dc <LBPlaySound.part.6>
				game.boss_fight_status = BOSS_FIGHT_LOST;
			}
			kill_player(game.boss_fight_player, game.boss_fight_player_hud);
			LBPlaySound(game.selection, player1.flags, player2.flags, PATCH_TANK_EXPLODE);
		}
		else if (netMessage.code == NETITEMSPEED)
    cc2a:	83 30       	cpi	r24, 0x03	; 3
    cc2c:	c1 f4       	brne	.+48     	; 0xcc5e <get_net_message+0x17c>
		{
			level.level_map[netMessage.object_pos_y * 30 + netMessage.object_pos_x] = L_EMPTY;
    cc2e:	e0 91 e5 0f 	lds	r30, 0x0FE5
    cc32:	8e e1       	ldi	r24, 0x1E	; 30
    cc34:	e8 9f       	mul	r30, r24
    cc36:	f0 01       	movw	r30, r0
    cc38:	11 24       	eor	r1, r1
    cc3a:	80 91 e4 0f 	lds	r24, 0x0FE4
    cc3e:	e8 5a       	subi	r30, 0xA8	; 168
    cc40:	f3 4f       	sbci	r31, 0xF3	; 243
    cc42:	e8 0f       	add	r30, r24
    cc44:	f1 1d       	adc	r31, r1
    cc46:	11 82       	std	Z+1, r1	; 0x01
			player->max_speed = OVER_SPEED;
    cc48:	81 e4       	ldi	r24, 0x41	; 65
    cc4a:	8f 8b       	std	Y+23, r24	; 0x17
			player->has_over_speed = true;
    cc4c:	81 e0       	ldi	r24, 0x01	; 1
    cc4e:	89 8f       	std	Y+25, r24	; 0x19
			DrawMap2(netMessage.hud_x+10, 1, map_speed_itm);
    cc50:	80 91 e8 0f 	lds	r24, 0x0FE8
    cc54:	4f ec       	ldi	r20, 0xCF	; 207
    cc56:	5a e6       	ldi	r21, 0x6A	; 106
    cc58:	61 e0       	ldi	r22, 0x01	; 1
    cc5a:	86 5f       	subi	r24, 0xF6	; 246
    cc5c:	17 c0       	rjmp	.+46     	; 0xcc8c <get_net_message+0x1aa>
			SetTile(netMessage.object_pos_x, netMessage.object_pos_y, 0);
			LBPlaySound(game.selection, player1.flags, player2.flags, PATCH_ITEM);
		}
		else if (netMessage.code == NETITEMROCKET)
    cc5e:	84 30       	cpi	r24, 0x04	; 4
    cc60:	01 f5       	brne	.+64     	; 0xcca2 <get_net_message+0x1c0>
		{
			level.level_map[netMessage.object_pos_y * 30 + netMessage.object_pos_x] = L_EMPTY;
    cc62:	e0 91 e5 0f 	lds	r30, 0x0FE5
    cc66:	9e e1       	ldi	r25, 0x1E	; 30
    cc68:	e9 9f       	mul	r30, r25
    cc6a:	f0 01       	movw	r30, r0
    cc6c:	11 24       	eor	r1, r1
    cc6e:	80 91 e4 0f 	lds	r24, 0x0FE4
    cc72:	e8 5a       	subi	r30, 0xA8	; 168
    cc74:	f3 4f       	sbci	r31, 0xF3	; 243
    cc76:	e8 0f       	add	r30, r24
    cc78:	f1 1d       	adc	r31, r1
    cc7a:	11 82       	std	Z+1, r1	; 0x01
			player->has_rocket = true;
    cc7c:	81 e0       	ldi	r24, 0x01	; 1
    cc7e:	88 8f       	std	Y+24, r24	; 0x18
			DrawMap2(netMessage.hud_x+11, 1, map_rocket_itm);
    cc80:	80 91 e8 0f 	lds	r24, 0x0FE8
    cc84:	49 ec       	ldi	r20, 0xC9	; 201
    cc86:	5a e6       	ldi	r21, 0x6A	; 106
    cc88:	61 e0       	ldi	r22, 0x01	; 1
    cc8a:	85 5f       	subi	r24, 0xF5	; 245
    cc8c:	0e 94 6c 48 	call	0x90d8	; 0x90d8 <DrawMap>
			SetTile(netMessage.object_pos_x, netMessage.object_pos_y, 0);
    cc90:	40 e0       	ldi	r20, 0x00	; 0
    cc92:	50 e0       	ldi	r21, 0x00	; 0
    cc94:	60 91 e5 0f 	lds	r22, 0x0FE5
    cc98:	80 91 e4 0f 	lds	r24, 0x0FE4
    cc9c:	0e 94 37 3a 	call	0x746e	; 0x746e <SetTile>
    cca0:	20 c0       	rjmp	.+64     	; 0xcce2 <get_net_message+0x200>
			LBPlaySound(game.selection, player1.flags, player2.flags, PATCH_ITEM);
		}
		else if (netMessage.code == NETITEMBOMB)
    cca2:	85 30       	cpi	r24, 0x05	; 5
    cca4:	01 f5       	brne	.+64     	; 0xcce6 <get_net_message+0x204>
		{
			level.level_map[netMessage.object_pos_y * 30 + netMessage.object_pos_x] = L_EMPTY;
    cca6:	60 91 e5 0f 	lds	r22, 0x0FE5
    ccaa:	80 91 e4 0f 	lds	r24, 0x0FE4
    ccae:	9e e1       	ldi	r25, 0x1E	; 30
    ccb0:	69 9f       	mul	r22, r25
    ccb2:	f0 01       	movw	r30, r0
    ccb4:	11 24       	eor	r1, r1
    ccb6:	e8 5a       	subi	r30, 0xA8	; 168
    ccb8:	f3 4f       	sbci	r31, 0xF3	; 243
    ccba:	e8 0f       	add	r30, r24
    ccbc:	f1 1d       	adc	r31, r1
    ccbe:	11 82       	std	Z+1, r1	; 0x01
			SetTile(netMessage.object_pos_x, netMessage.object_pos_y, 0);
    ccc0:	40 e0       	ldi	r20, 0x00	; 0
    ccc2:	50 e0       	ldi	r21, 0x00	; 0
    ccc4:	0e 94 37 3a 	call	0x746e	; 0x746e <SetTile>
			if (!(otherPlayer->flags & EXPLODING_FLAG))
    ccc8:	f8 01       	movw	r30, r16
    ccca:	85 89       	ldd	r24, Z+21	; 0x15
    cccc:	80 fd       	sbrc	r24, 0
    ccce:	09 c0       	rjmp	.+18     	; 0xcce2 <get_net_message+0x200>
			{
				render_score(player, netMessage.hud_x);
    ccd0:	60 91 e8 0f 	lds	r22, 0x0FE8
    ccd4:	ce 01       	movw	r24, r28
    ccd6:	0e 94 f5 51 	call	0xa3ea	; 0xa3ea <render_score>
				kill_player(otherPlayer, otherPlayerHudx);
    ccda:	6d 2d       	mov	r22, r13
    ccdc:	c8 01       	movw	r24, r16
    ccde:	0e 94 ef 55 	call	0xabde	; 0xabde <kill_player>
			}
			LBPlaySound(game.selection, player1.flags, player2.flags, PATCH_ITEM);
    cce2:	22 e0       	ldi	r18, 0x02	; 2
    cce4:	2b c0       	rjmp	.+86     	; 0xcd3c <get_net_message+0x25a>
		}
		else if (netMessage.code == NETBLOCKHIT)
    cce6:	87 30       	cpi	r24, 0x07	; 7
    cce8:	e1 f5       	brne	.+120    	; 0xcd62 <get_net_message+0x280>
		{
			explode_tile(&tile_animations, netMessage.object_pos_y * 30 + netMessage.object_pos_x);
    ccea:	80 91 e5 0f 	lds	r24, 0x0FE5
    ccee:	60 91 e4 0f 	lds	r22, 0x0FE4
    ccf2:	70 e0       	ldi	r23, 0x00	; 0
    ccf4:	fe e1       	ldi	r31, 0x1E	; 30
    ccf6:	8f 9f       	mul	r24, r31
    ccf8:	60 0d       	add	r22, r0
    ccfa:	71 1d       	adc	r23, r1
    ccfc:	11 24       	eor	r1, r1
    ccfe:	87 eb       	ldi	r24, 0xB7	; 183
    cd00:	9b e0       	ldi	r25, 0x0B	; 11
    cd02:	0e 94 69 56 	call	0xacd2	; 0xacd2 <explode_tile>
			level.level_map[netMessage.object_pos_y * 30 + netMessage.object_pos_x] = L_EMPTY;
    cd06:	e0 91 e5 0f 	lds	r30, 0x0FE5
    cd0a:	8e e1       	ldi	r24, 0x1E	; 30
    cd0c:	e8 9f       	mul	r30, r24
    cd0e:	f0 01       	movw	r30, r0
    cd10:	11 24       	eor	r1, r1
    cd12:	80 91 e4 0f 	lds	r24, 0x0FE4
    cd16:	e8 5a       	subi	r30, 0xA8	; 168
    cd18:	f3 4f       	sbci	r31, 0xF3	; 243
    cd1a:	e8 0f       	add	r30, r24
    cd1c:	f1 1d       	adc	r31, r1
    cd1e:	11 82       	std	Z+1, r1	; 0x01
			player->shot[0].hit_count--;
    cd20:	8c ad       	ldd	r24, Y+60	; 0x3c
    cd22:	81 50       	subi	r24, 0x01	; 1
    cd24:	8c af       	std	Y+60, r24	; 0x3c
			if (player->shot[0].hit_count <= 0)
    cd26:	81 11       	cpse	r24, r1
    cd28:	08 c0       	rjmp	.+16     	; 0xcd3a <get_net_message+0x258>
			{
				init_shot_state(&player->shot[0], player->shot[0].shot_type);
    cd2a:	6b ad       	ldd	r22, Y+59	; 0x3b
    cd2c:	ce 01       	movw	r24, r28
    cd2e:	c0 96       	adiw	r24, 0x30	; 48
    cd30:	0e 94 a9 4e 	call	0x9d52	; 0x9d52 <init_shot_state>
				player->active_shots--;
    cd34:	89 89       	ldd	r24, Y+17	; 0x11
    cd36:	81 50       	subi	r24, 0x01	; 1
    cd38:	89 8b       	std	Y+17, r24	; 0x11
			}
			LBPlaySound(game.selection, player1.flags, player2.flags, PATCH_BRICK_EXPLODE);
    cd3a:	20 e0       	ldi	r18, 0x00	; 0
    cd3c:	40 91 5c 0f 	lds	r20, 0x0F5C
    cd40:	60 91 ea 0b 	lds	r22, 0x0BEA
    cd44:	80 91 b6 0b 	lds	r24, 0x0BB6
	}
	else
	{
		netMessage.pressed = 0;
	}
}
    cd48:	df 91       	pop	r29
    cd4a:	cf 91       	pop	r28
    cd4c:	1f 91       	pop	r17
    cd4e:	0f 91       	pop	r16
    cd50:	ff 90       	pop	r15
    cd52:	ef 90       	pop	r14
    cd54:	df 90       	pop	r13
			if (player->shot[0].hit_count <= 0)
			{
				init_shot_state(&player->shot[0], player->shot[0].shot_type);
				player->active_shots--;
			}
			LBPlaySound(game.selection, player1.flags, player2.flags, PATCH_BRICK_EXPLODE);
    cd56:	0c 94 31 4e 	jmp	0x9c62	; 0x9c62 <LBPlaySound>
		}
	}
	else
	{
		netMessage.pressed = 0;
    cd5a:	10 92 e3 0f 	sts	0x0FE3, r1
    cd5e:	10 92 e2 0f 	sts	0x0FE2, r1
	}
}
    cd62:	df 91       	pop	r29
    cd64:	cf 91       	pop	r28
    cd66:	1f 91       	pop	r17
    cd68:	0f 91       	pop	r16
    cd6a:	ff 90       	pop	r15
    cd6c:	ef 90       	pop	r14
    cd6e:	df 90       	pop	r13
    cd70:	08 95       	ret

0000cd72 <is_net_player>:

u8 is_net_player(Player* player)
{
    cd72:	9c 01       	movw	r18, r24
	if (game.selection == HOSTNETGAME && player == &player2) return 1;
    cd74:	80 91 b6 0b 	lds	r24, 0x0BB6
    cd78:	82 30       	cpi	r24, 0x02	; 2
    cd7a:	29 f4       	brne	.+10     	; 0xcd86 <is_net_player+0x14>
    cd7c:	81 e0       	ldi	r24, 0x01	; 1
    cd7e:	27 54       	subi	r18, 0x47	; 71
    cd80:	3f 40       	sbci	r19, 0x0F	; 15
    cd82:	39 f4       	brne	.+14     	; 0xcd92 <is_net_player+0x20>
    cd84:	07 c0       	rjmp	.+14     	; 0xcd94 <is_net_player+0x22>
	if (game.selection == JOINNETGAME && player == &player1) return 1;
    cd86:	83 30       	cpi	r24, 0x03	; 3
    cd88:	21 f4       	brne	.+8      	; 0xcd92 <is_net_player+0x20>
    cd8a:	81 e0       	ldi	r24, 0x01	; 1
    cd8c:	25 5d       	subi	r18, 0xD5	; 213
    cd8e:	3b 40       	sbci	r19, 0x0B	; 11
    cd90:	09 f0       	breq	.+2      	; 0xcd94 <is_net_player+0x22>
	return 0;
    cd92:	80 e0       	ldi	r24, 0x00	; 0
}
    cd94:	08 95       	ret

0000cd96 <collision_detect_shot>:
			break;
	}
}

void collision_detect_shot(Player* player, Shot* shot)
{	 
    cd96:	2f 92       	push	r2
    cd98:	3f 92       	push	r3
    cd9a:	4f 92       	push	r4
    cd9c:	5f 92       	push	r5
    cd9e:	6f 92       	push	r6
    cda0:	7f 92       	push	r7
    cda2:	8f 92       	push	r8
    cda4:	9f 92       	push	r9
    cda6:	af 92       	push	r10
    cda8:	bf 92       	push	r11
    cdaa:	cf 92       	push	r12
    cdac:	df 92       	push	r13
    cdae:	ef 92       	push	r14
    cdb0:	ff 92       	push	r15
    cdb2:	0f 93       	push	r16
    cdb4:	1f 93       	push	r17
    cdb6:	cf 93       	push	r28
    cdb8:	df 93       	push	r29
    cdba:	00 d0       	rcall	.+0      	; 0xcdbc <collision_detect_shot+0x26>
    cdbc:	00 d0       	rcall	.+0      	; 0xcdbe <collision_detect_shot+0x28>
    cdbe:	1f 92       	push	r1
    cdc0:	cd b7       	in	r28, 0x3d	; 61
    cdc2:	de b7       	in	r29, 0x3e	; 62
    cdc4:	3c 01       	movw	r6, r24
    cdc6:	4b 01       	movw	r8, r22
	int tiles[2] = {0, 0};
    cdc8:	1a 82       	std	Y+2, r1	; 0x02
    cdca:	19 82       	std	Y+1, r1	; 0x01
    cdcc:	1c 82       	std	Y+4, r1	; 0x04
    cdce:	1b 82       	std	Y+3, r1	; 0x03
	u8 x = shot->shared.x / 8;
	u8 y = shot->shared.y / 8 - 3;
    cdd0:	20 e0       	ldi	r18, 0x00	; 0
    cdd2:	30 e0       	ldi	r19, 0x00	; 0
    cdd4:	40 e0       	ldi	r20, 0x00	; 0
    cdd6:	5e e3       	ldi	r21, 0x3E	; 62
    cdd8:	db 01       	movw	r26, r22
    cdda:	17 96       	adiw	r26, 0x07	; 7
    cddc:	6d 91       	ld	r22, X+
    cdde:	7d 91       	ld	r23, X+
    cde0:	8d 91       	ld	r24, X+
    cde2:	9c 91       	ld	r25, X
    cde4:	1a 97       	sbiw	r26, 0x0a	; 10
    cde6:	0e 94 66 74 	call	0xe8cc	; 0xe8cc <__mulsf3>
    cdea:	20 e0       	ldi	r18, 0x00	; 0
    cdec:	30 e0       	ldi	r19, 0x00	; 0
    cdee:	40 e4       	ldi	r20, 0x40	; 64
    cdf0:	50 e4       	ldi	r21, 0x40	; 64
    cdf2:	0e 94 ae 72 	call	0xe55c	; 0xe55c <__subsf3>
    cdf6:	0e 94 84 73 	call	0xe708	; 0xe708 <__fixunssfsi>
    cdfa:	16 2f       	mov	r17, r22
}

void collision_detect_shot(Player* player, Shot* shot)
{	 
	int tiles[2] = {0, 0};
	u8 x = shot->shared.x / 8;
    cdfc:	20 e0       	ldi	r18, 0x00	; 0
    cdfe:	30 e0       	ldi	r19, 0x00	; 0
    ce00:	40 e0       	ldi	r20, 0x00	; 0
    ce02:	5e e3       	ldi	r21, 0x3E	; 62
    ce04:	f4 01       	movw	r30, r8
    ce06:	63 81       	ldd	r22, Z+3	; 0x03
    ce08:	74 81       	ldd	r23, Z+4	; 0x04
    ce0a:	85 81       	ldd	r24, Z+5	; 0x05
    ce0c:	96 81       	ldd	r25, Z+6	; 0x06
    ce0e:	0e 94 66 74 	call	0xe8cc	; 0xe8cc <__mulsf3>
    ce12:	0e 94 84 73 	call	0xe708	; 0xe708 <__fixunssfsi>
	Player* p = 0;
    u8 hit = 0;
	u8 brick_index = 0;
	u8 angle_tile = 0;
	
	get_interesting_tile_indexes_shot(tiles, x, y, shot->shared.direction);
    ce16:	d4 01       	movw	r26, r8
    ce18:	2c 91       	ld	r18, X
    ce1a:	41 2f       	mov	r20, r17
    ce1c:	ce 01       	movw	r24, r28
    ce1e:	01 96       	adiw	r24, 0x01	; 1
    ce20:	0e 94 47 56 	call	0xac8e	; 0xac8e <get_interesting_tile_indexes_shot>
	
	/* Level boundries first */
	if (collision_detect_boundries(&shot->shared))
    ce24:	c4 01       	movw	r24, r8
    ce26:	0e 94 6d 55 	call	0xaada	; 0xaada <collision_detect_boundries>
    ce2a:	88 23       	and	r24, r24
    ce2c:	69 f0       	breq	.+26     	; 0xce48 <collision_detect_shot+0xb2>
	{
		init_shot_state(shot, shot->shot_type);
    ce2e:	f4 01       	movw	r30, r8
    ce30:	63 85       	ldd	r22, Z+11	; 0x0b
    ce32:	c4 01       	movw	r24, r8
    ce34:	0e 94 a9 4e 	call	0x9d52	; 0x9d52 <init_shot_state>
		player->active_shots--;
    ce38:	d3 01       	movw	r26, r6
    ce3a:	51 96       	adiw	r26, 0x11	; 17
    ce3c:	8c 91       	ld	r24, X
    ce3e:	51 97       	sbiw	r26, 0x11	; 17
    ce40:	81 50       	subi	r24, 0x01	; 1
    ce42:	51 96       	adiw	r26, 0x11	; 17
    ce44:	8c 93       	st	X, r24
		return;
    ce46:	c7 c1       	rjmp	.+910    	; 0xd1d6 <collision_detect_shot+0x440>
	}
	
	/* Player interaction */
	if (player_shot(&player1, shot) && !(player1.flags & EXPLODING_FLAG) && !is_net_player(&player1))
    ce48:	b4 01       	movw	r22, r8
    ce4a:	85 ed       	ldi	r24, 0xD5	; 213
    ce4c:	9b e0       	ldi	r25, 0x0B	; 11
    ce4e:	0e 94 c0 54 	call	0xa980	; 0xa980 <player_shot>
    ce52:	88 23       	and	r24, r24
    ce54:	11 f1       	breq	.+68     	; 0xce9a <collision_detect_shot+0x104>
    ce56:	80 91 ea 0b 	lds	r24, 0x0BEA
    ce5a:	80 fd       	sbrc	r24, 0
    ce5c:	1e c0       	rjmp	.+60     	; 0xce9a <collision_detect_shot+0x104>
    ce5e:	85 ed       	ldi	r24, 0xD5	; 213
    ce60:	9b e0       	ldi	r25, 0x0B	; 11
    ce62:	0e 94 b9 66 	call	0xcd72	; 0xcd72 <is_net_player>
    ce66:	81 11       	cpse	r24, r1
    ce68:	18 c0       	rjmp	.+48     	; 0xce9a <collision_detect_shot+0x104>
	{
		p = &player1;
		hud_x = 0;
		player2.level_score++;
    ce6a:	80 91 57 0f 	lds	r24, 0x0F57
    ce6e:	8f 5f       	subi	r24, 0xFF	; 255
    ce70:	80 93 57 0f 	sts	0x0F57, r24
		player2.score++;
    ce74:	80 91 56 0f 	lds	r24, 0x0F56
    ce78:	8f 5f       	subi	r24, 0xFF	; 255
    ce7a:	80 93 56 0f 	sts	0x0F56, r24
		render_score(&player2, 15);
    ce7e:	6f e0       	ldi	r22, 0x0F	; 15
    ce80:	87 e4       	ldi	r24, 0x47	; 71
    ce82:	9f e0       	ldi	r25, 0x0F	; 15
    ce84:	0e 94 f5 51 	call	0xa3ea	; 0xa3ea <render_score>
		send_net_message(NETHIT, 0, 0);
    ce88:	40 e0       	ldi	r20, 0x00	; 0
    ce8a:	60 e0       	ldi	r22, 0x00	; 0
    ce8c:	80 e0       	ldi	r24, 0x00	; 0
    ce8e:	0e 94 cd 64 	call	0xc99a	; 0xc99a <send_net_message>
	}
	
	/* Player interaction */
	if (player_shot(&player1, shot) && !(player1.flags & EXPLODING_FLAG) && !is_net_player(&player1))
	{
		p = &player1;
    ce92:	05 ed       	ldi	r16, 0xD5	; 213
    ce94:	1b e0       	ldi	r17, 0x0B	; 11
		hud_x = 0;
    ce96:	f1 2c       	mov	r15, r1
		player2.level_score++;
		player2.score++;
		render_score(&player2, 15);
		send_net_message(NETHIT, 0, 0);
    ce98:	5c c0       	rjmp	.+184    	; 0xcf52 <collision_detect_shot+0x1bc>
	}
	else if (player_shot(&player2, shot) && !(player2.flags & EXPLODING_FLAG) && !(game.boss_fight_status) && !is_net_player(&player2))
    ce9a:	b4 01       	movw	r22, r8
    ce9c:	87 e4       	ldi	r24, 0x47	; 71
    ce9e:	9f e0       	ldi	r25, 0x0F	; 15
    cea0:	0e 94 c0 54 	call	0xa980	; 0xa980 <player_shot>
    cea4:	90 91 a6 0b 	lds	r25, 0x0BA6
    cea8:	88 23       	and	r24, r24
    ceaa:	29 f1       	breq	.+74     	; 0xcef6 <collision_detect_shot+0x160>
    ceac:	80 91 5c 0f 	lds	r24, 0x0F5C
    ceb0:	80 fd       	sbrc	r24, 0
    ceb2:	21 c0       	rjmp	.+66     	; 0xcef6 <collision_detect_shot+0x160>
    ceb4:	91 11       	cpse	r25, r1
    ceb6:	1f c0       	rjmp	.+62     	; 0xcef6 <collision_detect_shot+0x160>
    ceb8:	87 e4       	ldi	r24, 0x47	; 71
    ceba:	9f e0       	ldi	r25, 0x0F	; 15
    cebc:	0e 94 b9 66 	call	0xcd72	; 0xcd72 <is_net_player>
    cec0:	81 11       	cpse	r24, r1
    cec2:	4a c0       	rjmp	.+148    	; 0xcf58 <collision_detect_shot+0x1c2>
	{
		p = &player2;
		hud_x = 15;
		player1.level_score++;
    cec4:	80 91 e5 0b 	lds	r24, 0x0BE5
    cec8:	8f 5f       	subi	r24, 0xFF	; 255
    ceca:	80 93 e5 0b 	sts	0x0BE5, r24
		player1.score++;
    cece:	80 91 e4 0b 	lds	r24, 0x0BE4
    ced2:	8f 5f       	subi	r24, 0xFF	; 255
    ced4:	80 93 e4 0b 	sts	0x0BE4, r24
		render_score(&player1, 0);
    ced8:	60 e0       	ldi	r22, 0x00	; 0
    ceda:	85 ed       	ldi	r24, 0xD5	; 213
    cedc:	9b e0       	ldi	r25, 0x0B	; 11
    cede:	0e 94 f5 51 	call	0xa3ea	; 0xa3ea <render_score>
		send_net_message(NETHIT, 0, 0);
    cee2:	40 e0       	ldi	r20, 0x00	; 0
    cee4:	60 e0       	ldi	r22, 0x00	; 0
    cee6:	80 e0       	ldi	r24, 0x00	; 0
    cee8:	0e 94 cd 64 	call	0xc99a	; 0xc99a <send_net_message>
		render_score(&player2, 15);
		send_net_message(NETHIT, 0, 0);
	}
	else if (player_shot(&player2, shot) && !(player2.flags & EXPLODING_FLAG) && !(game.boss_fight_status) && !is_net_player(&player2))
	{
		p = &player2;
    ceec:	07 e4       	ldi	r16, 0x47	; 71
    ceee:	1f e0       	ldi	r17, 0x0F	; 15
		hud_x = 15;
    cef0:	6f e0       	ldi	r22, 0x0F	; 15
    cef2:	f6 2e       	mov	r15, r22
		player1.level_score++;
		player1.score++;
		render_score(&player1, 0);
		send_net_message(NETHIT, 0, 0);
    cef4:	2e c0       	rjmp	.+92     	; 0xcf52 <collision_detect_shot+0x1bc>
	}
	else if (game.boss_fight_status == BOSS_FIGHT)
    cef6:	94 30       	cpi	r25, 0x04	; 4
    cef8:	79 f5       	brne	.+94     	; 0xcf58 <collision_detect_shot+0x1c2>
	{
		if (turret_shot(&turret1, shot))
    cefa:	b4 01       	movw	r22, r8
    cefc:	85 e3       	ldi	r24, 0x35	; 53
    cefe:	90 e1       	ldi	r25, 0x10	; 16
    cf00:	0e 94 1f 55 	call	0xaa3e	; 0xaa3e <turret_shot>
    cf04:	88 23       	and	r24, r24
    cf06:	41 f0       	breq	.+16     	; 0xcf18 <collision_detect_shot+0x182>
		{
			turret1.lives--;
    cf08:	80 91 40 10 	lds	r24, 0x1040
    cf0c:	81 50       	subi	r24, 0x01	; 1
    cf0e:	80 93 40 10 	sts	0x1040, r24
			init_shot_state(shot, shot->shot_type);
    cf12:	f4 01       	movw	r30, r8
    cf14:	63 85       	ldd	r22, Z+11	; 0x0b
    cf16:	0f c0       	rjmp	.+30     	; 0xcf36 <collision_detect_shot+0x1a0>
			game.boss_fight_player->active_shots--;
			LBPlaySound(game.selection, player1.flags, player2.flags, PATCH_TANK_EXPLODE);
		}
		else if (turret_shot(&turret2, shot))
    cf18:	b4 01       	movw	r22, r8
    cf1a:	81 e0       	ldi	r24, 0x01	; 1
    cf1c:	90 e1       	ldi	r25, 0x10	; 16
    cf1e:	0e 94 1f 55 	call	0xaa3e	; 0xaa3e <turret_shot>
    cf22:	88 23       	and	r24, r24
    cf24:	c9 f0       	breq	.+50     	; 0xcf58 <collision_detect_shot+0x1c2>
		{
			turret2.lives--;
    cf26:	80 91 0c 10 	lds	r24, 0x100C
    cf2a:	81 50       	subi	r24, 0x01	; 1
    cf2c:	80 93 0c 10 	sts	0x100C, r24
			init_shot_state(shot, shot->shot_type);
    cf30:	d4 01       	movw	r26, r8
    cf32:	1b 96       	adiw	r26, 0x0b	; 11
    cf34:	6c 91       	ld	r22, X
    cf36:	c4 01       	movw	r24, r8
    cf38:	0e 94 a9 4e 	call	0x9d52	; 0x9d52 <init_shot_state>
			game.boss_fight_player->active_shots--;
    cf3c:	e0 91 b2 0b 	lds	r30, 0x0BB2
    cf40:	f0 91 b3 0b 	lds	r31, 0x0BB3
    cf44:	81 89       	ldd	r24, Z+17	; 0x11
    cf46:	81 50       	subi	r24, 0x01	; 1
    cf48:	81 8b       	std	Z+17, r24	; 0x11
    cf4a:	86 e0       	ldi	r24, 0x06	; 6
    cf4c:	0e 94 6e 49 	call	0x92dc	; 0x92dc <LBPlaySound.part.6>
    cf50:	03 c0       	rjmp	.+6      	; 0xcf58 <collision_detect_shot+0x1c2>
			LBPlaySound(game.selection, player1.flags, player2.flags, PATCH_TANK_EXPLODE);
		}
	}
	if (p)
    cf52:	01 15       	cp	r16, r1
    cf54:	11 05       	cpc	r17, r1
    cf56:	59 f4       	brne	.+22     	; 0xcf6e <collision_detect_shot+0x1d8>
    cf58:	fe 01       	movw	r30, r28
    cf5a:	31 96       	adiw	r30, 0x01	; 1
    cf5c:	2f 01       	movw	r4, r30
    cf5e:	1d 82       	std	Y+5, r1	; 0x05
    cf60:	d1 2c       	mov	r13, r1
    cf62:	f1 2c       	mov	r15, r1
    cf64:	10 e0       	ldi	r17, 0x00	; 0
		else if (tile == L_BRICK && LBCollides(shot->shared.x+2,shot->shared.y+2,4,4,(tiles[i]%30)*8,(tiles[i]/30)*8+24,8,8))
		{
			hit = hit | HIT_BRICK;
			brick_index = i;
		}
		else if (tile == L_METAL && LBCollides(shot->shared.x+2,shot->shared.y+2,4,4,(tiles[i]%30)*8,(tiles[i]/30)*8+24,8,8))
    cf66:	5e e1       	ldi	r21, 0x1E	; 30
    cf68:	25 2e       	mov	r2, r21
    cf6a:	31 2c       	mov	r3, r1
    cf6c:	44 c0       	rjmp	.+136    	; 0xcff6 <collision_detect_shot+0x260>
			LBPlaySound(game.selection, player1.flags, player2.flags, PATCH_TANK_EXPLODE);
		}
	}
	if (p)
	{
		init_shot_state(shot, shot->shot_type);
    cf6e:	d4 01       	movw	r26, r8
    cf70:	1b 96       	adiw	r26, 0x0b	; 11
    cf72:	6c 91       	ld	r22, X
    cf74:	c4 01       	movw	r24, r8
    cf76:	0e 94 a9 4e 	call	0x9d52	; 0x9d52 <init_shot_state>
		player->active_shots--;
    cf7a:	f3 01       	movw	r30, r6
    cf7c:	81 89       	ldd	r24, Z+17	; 0x11
    cf7e:	81 50       	subi	r24, 0x01	; 1
    cf80:	81 8b       	std	Z+17, r24	; 0x11
		kill_player(p, hud_x);
    cf82:	6f 2d       	mov	r22, r15
    cf84:	c8 01       	movw	r24, r16
    cf86:	0e 94 ef 55 	call	0xabde	; 0xabde <kill_player>
    cf8a:	86 e0       	ldi	r24, 0x06	; 6
    cf8c:	0e 94 6e 49 	call	0x92dc	; 0x92dc <LBPlaySound.part.6>
    cf90:	22 c1       	rjmp	.+580    	; 0xd1d6 <collision_detect_shot+0x440>
	for (u8 i = 0; i < 2; i++)
	{
		tile = level.level_map[tiles[i]];
		if (tile == L_EMPTY) continue;
		
		if (solid_directional_tile(tiles[i]) && collides_directional_tile(tiles[i], shot->shared.x+2, shot->shared.y+2,4,4))
    cf92:	c5 01       	movw	r24, r10
    cf94:	0e 94 f2 53 	call	0xa7e4	; 0xa7e4 <solid_directional_tile>
    cf98:	88 23       	and	r24, r24
    cf9a:	c1 f1       	breq	.+112    	; 0xd00c <collision_detect_shot+0x276>
    cf9c:	20 e0       	ldi	r18, 0x00	; 0
    cf9e:	30 e0       	ldi	r19, 0x00	; 0
    cfa0:	40 e0       	ldi	r20, 0x00	; 0
    cfa2:	50 e4       	ldi	r21, 0x40	; 64
    cfa4:	f4 01       	movw	r30, r8
    cfa6:	67 81       	ldd	r22, Z+7	; 0x07
    cfa8:	70 85       	ldd	r23, Z+8	; 0x08
    cfaa:	81 85       	ldd	r24, Z+9	; 0x09
    cfac:	92 85       	ldd	r25, Z+10	; 0x0a
    cfae:	0e 94 af 72 	call	0xe55e	; 0xe55e <__addsf3>
    cfb2:	0e 94 84 73 	call	0xe708	; 0xe708 <__fixunssfsi>
    cfb6:	c6 2e       	mov	r12, r22
    cfb8:	20 e0       	ldi	r18, 0x00	; 0
    cfba:	30 e0       	ldi	r19, 0x00	; 0
    cfbc:	40 e0       	ldi	r20, 0x00	; 0
    cfbe:	50 e4       	ldi	r21, 0x40	; 64
    cfc0:	d4 01       	movw	r26, r8
    cfc2:	13 96       	adiw	r26, 0x03	; 3
    cfc4:	6d 91       	ld	r22, X+
    cfc6:	7d 91       	ld	r23, X+
    cfc8:	8d 91       	ld	r24, X+
    cfca:	9c 91       	ld	r25, X
    cfcc:	16 97       	sbiw	r26, 0x06	; 6
    cfce:	0e 94 af 72 	call	0xe55e	; 0xe55e <__addsf3>
    cfd2:	0e 94 84 73 	call	0xe708	; 0xe708 <__fixunssfsi>
    cfd6:	04 e0       	ldi	r16, 0x04	; 4
    cfd8:	24 e0       	ldi	r18, 0x04	; 4
    cfda:	4c 2d       	mov	r20, r12
    cfdc:	c5 01       	movw	r24, r10
    cfde:	0e 94 1c 54 	call	0xa838	; 0xa838 <collides_directional_tile>
    cfe2:	88 23       	and	r24, r24
    cfe4:	99 f0       	breq	.+38     	; 0xd00c <collision_detect_shot+0x276>
		{
			hit = hit | HIT_ANGLE;
    cfe6:	14 60       	ori	r17, 0x04	; 4
			angle_tile = tile;
    cfe8:	de 2c       	mov	r13, r14
		LBPlaySound(game.selection, player1.flags, player2.flags, PATCH_TANK_EXPLODE);
		return;
	}
	
	/* Tile interaction */
	for (u8 i = 0; i < 2; i++)
    cfea:	bd 81       	ldd	r27, Y+5	; 0x05
    cfec:	b1 30       	cpi	r27, 0x01	; 1
    cfee:	09 f4       	brne	.+2      	; 0xcff2 <collision_detect_shot+0x25c>
    cff0:	88 c0       	rjmp	.+272    	; 0xd102 <collision_detect_shot+0x36c>
    cff2:	f1 e0       	ldi	r31, 0x01	; 1
    cff4:	fd 83       	std	Y+5, r31	; 0x05
	{
		tile = level.level_map[tiles[i]];
    cff6:	d2 01       	movw	r26, r4
    cff8:	ad 90       	ld	r10, X+
    cffa:	bd 90       	ld	r11, X+
    cffc:	2d 01       	movw	r4, r26
    cffe:	f5 01       	movw	r30, r10
    d000:	e8 5a       	subi	r30, 0xA8	; 168
    d002:	f3 4f       	sbci	r31, 0xF3	; 243
    d004:	e1 80       	ldd	r14, Z+1	; 0x01
		if (tile == L_EMPTY) continue;
    d006:	ee 20       	and	r14, r14
    d008:	81 f3       	breq	.-32     	; 0xcfea <collision_detect_shot+0x254>
    d00a:	c3 cf       	rjmp	.-122    	; 0xcf92 <collision_detect_shot+0x1fc>
		if (solid_directional_tile(tiles[i]) && collides_directional_tile(tiles[i], shot->shared.x+2, shot->shared.y+2,4,4))
		{
			hit = hit | HIT_ANGLE;
			angle_tile = tile;
		}
		else if (tile == L_BRICK && LBCollides(shot->shared.x+2,shot->shared.y+2,4,4,(tiles[i]%30)*8,(tiles[i]/30)*8+24,8,8))
    d00c:	b1 e0       	ldi	r27, 0x01	; 1
    d00e:	eb 12       	cpse	r14, r27
    d010:	3b c0       	rjmp	.+118    	; 0xd088 <collision_detect_shot+0x2f2>
    d012:	c5 01       	movw	r24, r10
    d014:	b1 01       	movw	r22, r2
    d016:	0e 94 9a 72 	call	0xe534	; 0xe534 <__divmodhi4>
    d01a:	6d 5f       	subi	r22, 0xFD	; 253
    d01c:	7f 4f       	sbci	r23, 0xFF	; 255
    d01e:	e6 2e       	mov	r14, r22
    d020:	ee 0c       	add	r14, r14
    d022:	ee 0c       	add	r14, r14
    d024:	ee 0c       	add	r14, r14
    d026:	08 2f       	mov	r16, r24
    d028:	00 0f       	add	r16, r16
    d02a:	00 0f       	add	r16, r16
    d02c:	00 0f       	add	r16, r16
    d02e:	20 e0       	ldi	r18, 0x00	; 0
    d030:	30 e0       	ldi	r19, 0x00	; 0
    d032:	40 e0       	ldi	r20, 0x00	; 0
    d034:	50 e4       	ldi	r21, 0x40	; 64
    d036:	f4 01       	movw	r30, r8
    d038:	67 81       	ldd	r22, Z+7	; 0x07
    d03a:	70 85       	ldd	r23, Z+8	; 0x08
    d03c:	81 85       	ldd	r24, Z+9	; 0x09
    d03e:	92 85       	ldd	r25, Z+10	; 0x0a
    d040:	0e 94 af 72 	call	0xe55e	; 0xe55e <__addsf3>
    d044:	0e 94 84 73 	call	0xe708	; 0xe708 <__fixunssfsi>
    d048:	b6 2e       	mov	r11, r22
    d04a:	20 e0       	ldi	r18, 0x00	; 0
    d04c:	30 e0       	ldi	r19, 0x00	; 0
    d04e:	40 e0       	ldi	r20, 0x00	; 0
    d050:	50 e4       	ldi	r21, 0x40	; 64
    d052:	d4 01       	movw	r26, r8
    d054:	13 96       	adiw	r26, 0x03	; 3
    d056:	6d 91       	ld	r22, X+
    d058:	7d 91       	ld	r23, X+
    d05a:	8d 91       	ld	r24, X+
    d05c:	9c 91       	ld	r25, X
    d05e:	16 97       	sbiw	r26, 0x06	; 6
    d060:	0e 94 af 72 	call	0xe55e	; 0xe55e <__addsf3>
    d064:	0e 94 84 73 	call	0xe708	; 0xe708 <__fixunssfsi>
    d068:	86 2f       	mov	r24, r22
    d06a:	38 e0       	ldi	r19, 0x08	; 8
    d06c:	a3 2e       	mov	r10, r19
    d06e:	48 e0       	ldi	r20, 0x08	; 8
    d070:	c4 2e       	mov	r12, r20
    d072:	24 e0       	ldi	r18, 0x04	; 4
    d074:	44 e0       	ldi	r20, 0x04	; 4
    d076:	6b 2d       	mov	r22, r11
    d078:	0e 94 fd 4c 	call	0x99fa	; 0x99fa <LBCollides>
    d07c:	88 23       	and	r24, r24
    d07e:	09 f4       	brne	.+2      	; 0xd082 <collision_detect_shot+0x2ec>
    d080:	b4 cf       	rjmp	.-152    	; 0xcfea <collision_detect_shot+0x254>
		{
			hit = hit | HIT_BRICK;
    d082:	12 60       	ori	r17, 0x02	; 2
			brick_index = i;
    d084:	fd 80       	ldd	r15, Y+5	; 0x05
    d086:	b1 cf       	rjmp	.-158    	; 0xcfea <collision_detect_shot+0x254>
		}
		else if (tile == L_METAL && LBCollides(shot->shared.x+2,shot->shared.y+2,4,4,(tiles[i]%30)*8,(tiles[i]/30)*8+24,8,8))
    d088:	b2 e0       	ldi	r27, 0x02	; 2
    d08a:	eb 12       	cpse	r14, r27
    d08c:	ae cf       	rjmp	.-164    	; 0xcfea <collision_detect_shot+0x254>
    d08e:	c5 01       	movw	r24, r10
    d090:	b1 01       	movw	r22, r2
    d092:	0e 94 9a 72 	call	0xe534	; 0xe534 <__divmodhi4>
    d096:	6d 5f       	subi	r22, 0xFD	; 253
    d098:	7f 4f       	sbci	r23, 0xFF	; 255
    d09a:	e6 2e       	mov	r14, r22
    d09c:	ee 0c       	add	r14, r14
    d09e:	ee 0c       	add	r14, r14
    d0a0:	ee 0c       	add	r14, r14
    d0a2:	08 2f       	mov	r16, r24
    d0a4:	00 0f       	add	r16, r16
    d0a6:	00 0f       	add	r16, r16
    d0a8:	00 0f       	add	r16, r16
    d0aa:	20 e0       	ldi	r18, 0x00	; 0
    d0ac:	30 e0       	ldi	r19, 0x00	; 0
    d0ae:	40 e0       	ldi	r20, 0x00	; 0
    d0b0:	50 e4       	ldi	r21, 0x40	; 64
    d0b2:	f4 01       	movw	r30, r8
    d0b4:	67 81       	ldd	r22, Z+7	; 0x07
    d0b6:	70 85       	ldd	r23, Z+8	; 0x08
    d0b8:	81 85       	ldd	r24, Z+9	; 0x09
    d0ba:	92 85       	ldd	r25, Z+10	; 0x0a
    d0bc:	0e 94 af 72 	call	0xe55e	; 0xe55e <__addsf3>
    d0c0:	0e 94 84 73 	call	0xe708	; 0xe708 <__fixunssfsi>
    d0c4:	b6 2e       	mov	r11, r22
    d0c6:	20 e0       	ldi	r18, 0x00	; 0
    d0c8:	30 e0       	ldi	r19, 0x00	; 0
    d0ca:	40 e0       	ldi	r20, 0x00	; 0
    d0cc:	50 e4       	ldi	r21, 0x40	; 64
    d0ce:	d4 01       	movw	r26, r8
    d0d0:	13 96       	adiw	r26, 0x03	; 3
    d0d2:	6d 91       	ld	r22, X+
    d0d4:	7d 91       	ld	r23, X+
    d0d6:	8d 91       	ld	r24, X+
    d0d8:	9c 91       	ld	r25, X
    d0da:	16 97       	sbiw	r26, 0x06	; 6
    d0dc:	0e 94 af 72 	call	0xe55e	; 0xe55e <__addsf3>
    d0e0:	0e 94 84 73 	call	0xe708	; 0xe708 <__fixunssfsi>
    d0e4:	86 2f       	mov	r24, r22
    d0e6:	98 e0       	ldi	r25, 0x08	; 8
    d0e8:	a9 2e       	mov	r10, r25
    d0ea:	28 e0       	ldi	r18, 0x08	; 8
    d0ec:	c2 2e       	mov	r12, r18
    d0ee:	24 e0       	ldi	r18, 0x04	; 4
    d0f0:	44 e0       	ldi	r20, 0x04	; 4
    d0f2:	6b 2d       	mov	r22, r11
    d0f4:	0e 94 fd 4c 	call	0x99fa	; 0x99fa <LBCollides>
    d0f8:	88 23       	and	r24, r24
    d0fa:	09 f4       	brne	.+2      	; 0xd0fe <collision_detect_shot+0x368>
    d0fc:	76 cf       	rjmp	.-276    	; 0xcfea <collision_detect_shot+0x254>
        {
		    hit = hit | HIT_METAL;
    d0fe:	11 60       	ori	r17, 0x01	; 1
    d100:	74 cf       	rjmp	.-280    	; 0xcfea <collision_detect_shot+0x254>
        }
	}
	
	if (hit & HIT_ANGLE)
    d102:	12 ff       	sbrs	r17, 2
    d104:	0f c0       	rjmp	.+30     	; 0xd124 <collision_detect_shot+0x38e>
	{
		recoil_sprite_fine(player, &shot->shared);
    d106:	b4 01       	movw	r22, r8
    d108:	c3 01       	movw	r24, r6
    d10a:	0e 94 aa 53 	call	0xa754	; 0xa754 <recoil_sprite_fine>
		richochet(angle_tile, &shot->shared);
    d10e:	b4 01       	movw	r22, r8
    d110:	8d 2d       	mov	r24, r13
    d112:	0e 94 a7 56 	call	0xad4e	; 0xad4e <richochet>
		shot->rebounds--;
    d116:	f4 01       	movw	r30, r8
    d118:	85 85       	ldd	r24, Z+13	; 0x0d
    d11a:	81 50       	subi	r24, 0x01	; 1
    d11c:	85 87       	std	Z+13, r24	; 0x0d
		if (shot->rebounds <= 0)
    d11e:	81 11       	cpse	r24, r1
    d120:	51 c0       	rjmp	.+162    	; 0xd1c4 <collision_detect_shot+0x42e>
    d122:	45 c0       	rjmp	.+138    	; 0xd1ae <collision_detect_shot+0x418>
			init_shot_state(shot, shot->shot_type);
			player->active_shots--;
		}
		LBPlaySound(game.selection, player1.flags, player2.flags, PATCH_METAL);
	}
	else if ((hit & HIT_BRICK) && !is_net_player(player))
    d124:	11 ff       	sbrs	r17, 1
    d126:	40 c0       	rjmp	.+128    	; 0xd1a8 <collision_detect_shot+0x412>
    d128:	c3 01       	movw	r24, r6
    d12a:	0e 94 b9 66 	call	0xcd72	; 0xcd72 <is_net_player>
    d12e:	81 11       	cpse	r24, r1
    d130:	3b c0       	rjmp	.+118    	; 0xd1a8 <collision_detect_shot+0x412>
	{
		explode_tile(&tile_animations, tiles[brick_index]);
    d132:	ef 2c       	mov	r14, r15
    d134:	f1 2c       	mov	r15, r1
    d136:	ee 0c       	add	r14, r14
    d138:	ff 1c       	adc	r15, r15
    d13a:	01 e0       	ldi	r16, 0x01	; 1
    d13c:	10 e0       	ldi	r17, 0x00	; 0
    d13e:	0c 0f       	add	r16, r28
    d140:	1d 1f       	adc	r17, r29
    d142:	0e 0d       	add	r16, r14
    d144:	1f 1d       	adc	r17, r15
    d146:	f8 01       	movw	r30, r16
    d148:	60 81       	ld	r22, Z
    d14a:	71 81       	ldd	r23, Z+1	; 0x01
    d14c:	87 eb       	ldi	r24, 0xB7	; 183
    d14e:	9b e0       	ldi	r25, 0x0B	; 11
    d150:	0e 94 69 56 	call	0xacd2	; 0xacd2 <explode_tile>
		level.level_map[tiles[brick_index]] = L_EMPTY;
    d154:	d8 01       	movw	r26, r16
    d156:	ed 91       	ld	r30, X+
    d158:	fc 91       	ld	r31, X
    d15a:	e8 5a       	subi	r30, 0xA8	; 168
    d15c:	f3 4f       	sbci	r31, 0xF3	; 243
    d15e:	11 82       	std	Z+1, r1	; 0x01
		shot->hit_count--;
    d160:	f4 01       	movw	r30, r8
    d162:	84 85       	ldd	r24, Z+12	; 0x0c
    d164:	81 50       	subi	r24, 0x01	; 1
    d166:	84 87       	std	Z+12, r24	; 0x0c
		if (shot->hit_count <= 0)
    d168:	81 11       	cpse	r24, r1
    d16a:	0b c0       	rjmp	.+22     	; 0xd182 <collision_detect_shot+0x3ec>
		{
			init_shot_state(shot, shot->shot_type);
    d16c:	63 85       	ldd	r22, Z+11	; 0x0b
    d16e:	c4 01       	movw	r24, r8
    d170:	0e 94 a9 4e 	call	0x9d52	; 0x9d52 <init_shot_state>
			player->active_shots--;
    d174:	d3 01       	movw	r26, r6
    d176:	51 96       	adiw	r26, 0x11	; 17
    d178:	8c 91       	ld	r24, X
    d17a:	51 97       	sbiw	r26, 0x11	; 17
    d17c:	81 50       	subi	r24, 0x01	; 1
    d17e:	51 96       	adiw	r26, 0x11	; 17
    d180:	8c 93       	st	X, r24
		}
		send_net_message(NETBLOCKHIT, tiles[brick_index] % 30, tiles[brick_index] / 30);
    d182:	e1 e0       	ldi	r30, 0x01	; 1
    d184:	f0 e0       	ldi	r31, 0x00	; 0
    d186:	ec 0f       	add	r30, r28
    d188:	fd 1f       	adc	r31, r29
    d18a:	ee 0d       	add	r30, r14
    d18c:	ff 1d       	adc	r31, r15
    d18e:	80 81       	ld	r24, Z
    d190:	91 81       	ldd	r25, Z+1	; 0x01
    d192:	6e e1       	ldi	r22, 0x1E	; 30
    d194:	70 e0       	ldi	r23, 0x00	; 0
    d196:	0e 94 9a 72 	call	0xe534	; 0xe534 <__divmodhi4>
    d19a:	46 2f       	mov	r20, r22
    d19c:	68 2f       	mov	r22, r24
    d19e:	87 e0       	ldi	r24, 0x07	; 7
    d1a0:	0e 94 cd 64 	call	0xc99a	; 0xc99a <send_net_message>
		LBPlaySound(game.selection, player1.flags, player2.flags, PATCH_BRICK_EXPLODE);
    d1a4:	20 e0       	ldi	r18, 0x00	; 0
    d1a6:	0f c0       	rjmp	.+30     	; 0xd1c6 <collision_detect_shot+0x430>
	}
	else if (hit & HIT_METAL)
    d1a8:	10 ff       	sbrs	r17, 0
    d1aa:	15 c0       	rjmp	.+42     	; 0xd1d6 <collision_detect_shot+0x440>
	{
        init_shot_state(shot, shot->shot_type);
    d1ac:	f4 01       	movw	r30, r8
    d1ae:	63 85       	ldd	r22, Z+11	; 0x0b
    d1b0:	c4 01       	movw	r24, r8
    d1b2:	0e 94 a9 4e 	call	0x9d52	; 0x9d52 <init_shot_state>
        player->active_shots--;
    d1b6:	d3 01       	movw	r26, r6
    d1b8:	51 96       	adiw	r26, 0x11	; 17
    d1ba:	8c 91       	ld	r24, X
    d1bc:	51 97       	sbiw	r26, 0x11	; 17
    d1be:	81 50       	subi	r24, 0x01	; 1
    d1c0:	51 96       	adiw	r26, 0x11	; 17
    d1c2:	8c 93       	st	X, r24
        LBPlaySound(game.selection, player1.flags, player2.flags, PATCH_METAL);
    d1c4:	23 e0       	ldi	r18, 0x03	; 3
    d1c6:	40 91 5c 0f 	lds	r20, 0x0F5C
    d1ca:	60 91 ea 0b 	lds	r22, 0x0BEA
    d1ce:	80 91 b6 0b 	lds	r24, 0x0BB6
    d1d2:	0e 94 31 4e 	call	0x9c62	; 0x9c62 <LBPlaySound>
	}
}
    d1d6:	0f 90       	pop	r0
    d1d8:	0f 90       	pop	r0
    d1da:	0f 90       	pop	r0
    d1dc:	0f 90       	pop	r0
    d1de:	0f 90       	pop	r0
    d1e0:	df 91       	pop	r29
    d1e2:	cf 91       	pop	r28
    d1e4:	1f 91       	pop	r17
    d1e6:	0f 91       	pop	r16
    d1e8:	ff 90       	pop	r15
    d1ea:	ef 90       	pop	r14
    d1ec:	df 90       	pop	r13
    d1ee:	cf 90       	pop	r12
    d1f0:	bf 90       	pop	r11
    d1f2:	af 90       	pop	r10
    d1f4:	9f 90       	pop	r9
    d1f6:	8f 90       	pop	r8
    d1f8:	7f 90       	pop	r7
    d1fa:	6f 90       	pop	r6
    d1fc:	5f 90       	pop	r5
    d1fe:	4f 90       	pop	r4
    d200:	3f 90       	pop	r3
    d202:	2f 90       	pop	r2
    d204:	08 95       	ret

0000d206 <update_player>:
		return FRAME_TIME * s->speed;
	return FRAME_TIME * s->speed * AI_SPEED_FACTOR;
}

void update_player(JoyPadState* p, Player* player)
{
    d206:	cf 92       	push	r12
    d208:	df 92       	push	r13
    d20a:	ef 92       	push	r14
    d20c:	ff 92       	push	r15
    d20e:	0f 93       	push	r16
    d210:	1f 93       	push	r17
    d212:	cf 93       	push	r28
    d214:	df 93       	push	r29
    d216:	00 d0       	rcall	.+0      	; 0xd218 <update_player+0x12>
    d218:	00 d0       	rcall	.+0      	; 0xd21a <update_player+0x14>
    d21a:	cd b7       	in	r28, 0x3d	; 61
    d21c:	de b7       	in	r29, 0x3e	; 62
    d21e:	8c 01       	movw	r16, r24
    d220:	6b 01       	movw	r12, r22
	Shot* shot;
	
	player->shared.recoiled = 0;
    d222:	fb 01       	movw	r30, r22
    d224:	12 82       	std	Z+2, r1	; 0x02
	player->old_active_shots = player->active_shots;
    d226:	81 89       	ldd	r24, Z+17	; 0x11
    d228:	82 8b       	std	Z+18, r24	; 0x12
	if ((p->pressed & BTN_START) && (game.boss_fight_status == 0))
    d22a:	f8 01       	movw	r30, r16
    d22c:	80 81       	ld	r24, Z
    d22e:	83 ff       	sbrs	r24, 3
    d230:	1b c0       	rjmp	.+54     	; 0xd268 <update_player+0x62>
    d232:	80 91 a6 0b 	lds	r24, 0x0BA6
    d236:	81 11       	cpse	r24, r1
    d238:	17 c0       	rjmp	.+46     	; 0xd268 <update_player+0x62>
	{
#if JAMMA
#else
		LBPlaySound(game.selection, player1.flags, player2.flags, PATCH_NAVIGATE);
    d23a:	24 e0       	ldi	r18, 0x04	; 4
    d23c:	40 91 5c 0f 	lds	r20, 0x0F5C
    d240:	60 91 ea 0b 	lds	r22, 0x0BEA
    d244:	80 91 b6 0b 	lds	r24, 0x0BB6
    d248:	0e 94 31 4e 	call	0x9c62	; 0x9c62 <LBPlaySound>
		send_smart_net_message(player, p, NETPAUSETOGGLE);
    d24c:	48 e0       	ldi	r20, 0x08	; 8
    d24e:	b8 01       	movw	r22, r16
    d250:	c6 01       	movw	r24, r12
    d252:	0e 94 5e 65 	call	0xcabc	; 0xcabc <send_smart_net_message>
		game.paused = game.paused ^ 1;
    d256:	90 91 a5 0b 	lds	r25, 0x0BA5
    d25a:	81 e0       	ldi	r24, 0x01	; 1
    d25c:	89 27       	eor	r24, r25
    d25e:	80 93 a5 0b 	sts	0x0BA5, r24
		load_level_tiles(false);
    d262:	80 e0       	ldi	r24, 0x00	; 0
    d264:	0e 94 d4 57 	call	0xafa8	; 0xafa8 <load_level_tiles>
#endif
	}
	if (!(game.paused || (player->flags & EXPLODING_FLAG)))
    d268:	80 91 a5 0b 	lds	r24, 0x0BA5
    d26c:	81 11       	cpse	r24, r1
    d26e:	a6 c0       	rjmp	.+332    	; 0xd3bc <update_player+0x1b6>
    d270:	f6 01       	movw	r30, r12
    d272:	85 89       	ldd	r24, Z+21	; 0x15
    d274:	80 fd       	sbrc	r24, 0
    d276:	a2 c0       	rjmp	.+324    	; 0xd3bc <update_player+0x1b6>
	{
		player->shared.speed = player->max_speed;
    d278:	87 89       	ldd	r24, Z+23	; 0x17
    d27a:	81 83       	std	Z+1, r24	; 0x01
		if ((p->held & BTN_UP))
    d27c:	f8 01       	movw	r30, r16
    d27e:	84 81       	ldd	r24, Z+4	; 0x04
    d280:	84 ff       	sbrs	r24, 4
    d282:	10 c0       	rjmp	.+32     	; 0xd2a4 <update_player+0x9e>
		{
			player->shared.direction = D_UP;
    d284:	f6 01       	movw	r30, r12
    d286:	10 82       	st	Z, r1
			player->shared.y -= get_delta(player, &player->shared);
    d288:	b6 01       	movw	r22, r12
    d28a:	c6 01       	movw	r24, r12
    d28c:	0e 94 b7 51 	call	0xa36e	; 0xa36e <get_delta>
    d290:	9b 01       	movw	r18, r22
    d292:	ac 01       	movw	r20, r24
    d294:	f6 01       	movw	r30, r12
    d296:	67 81       	ldd	r22, Z+7	; 0x07
    d298:	70 85       	ldd	r23, Z+8	; 0x08
    d29a:	81 85       	ldd	r24, Z+9	; 0x09
    d29c:	92 85       	ldd	r25, Z+10	; 0x0a
    d29e:	0e 94 ae 72 	call	0xe55c	; 0xe55c <__subsf3>
    d2a2:	25 c0       	rjmp	.+74     	; 0xd2ee <update_player+0xe8>
		}
		else if ((p->held & BTN_RIGHT))
    d2a4:	87 ff       	sbrs	r24, 7
    d2a6:	11 c0       	rjmp	.+34     	; 0xd2ca <update_player+0xc4>
		{
			player->shared.direction = D_RIGHT;
    d2a8:	81 e0       	ldi	r24, 0x01	; 1
    d2aa:	f6 01       	movw	r30, r12
    d2ac:	80 83       	st	Z, r24
			player->shared.x += get_delta(player, &player->shared);
    d2ae:	b6 01       	movw	r22, r12
    d2b0:	c6 01       	movw	r24, r12
    d2b2:	0e 94 b7 51 	call	0xa36e	; 0xa36e <get_delta>
    d2b6:	9b 01       	movw	r18, r22
    d2b8:	ac 01       	movw	r20, r24
    d2ba:	f6 01       	movw	r30, r12
    d2bc:	63 81       	ldd	r22, Z+3	; 0x03
    d2be:	74 81       	ldd	r23, Z+4	; 0x04
    d2c0:	85 81       	ldd	r24, Z+5	; 0x05
    d2c2:	96 81       	ldd	r25, Z+6	; 0x06
    d2c4:	0e 94 af 72 	call	0xe55e	; 0xe55e <__addsf3>
    d2c8:	2a c0       	rjmp	.+84     	; 0xd31e <update_player+0x118>
		}
		else if ((p->held & BTN_DOWN))
    d2ca:	85 ff       	sbrs	r24, 5
    d2cc:	16 c0       	rjmp	.+44     	; 0xd2fa <update_player+0xf4>
		{
			player->shared.direction = D_DOWN;
    d2ce:	82 e0       	ldi	r24, 0x02	; 2
    d2d0:	f6 01       	movw	r30, r12
    d2d2:	80 83       	st	Z, r24
			player->shared.y += get_delta(player, &player->shared);
    d2d4:	b6 01       	movw	r22, r12
    d2d6:	c6 01       	movw	r24, r12
    d2d8:	0e 94 b7 51 	call	0xa36e	; 0xa36e <get_delta>
    d2dc:	9b 01       	movw	r18, r22
    d2de:	ac 01       	movw	r20, r24
    d2e0:	f6 01       	movw	r30, r12
    d2e2:	67 81       	ldd	r22, Z+7	; 0x07
    d2e4:	70 85       	ldd	r23, Z+8	; 0x08
    d2e6:	81 85       	ldd	r24, Z+9	; 0x09
    d2e8:	92 85       	ldd	r25, Z+10	; 0x0a
    d2ea:	0e 94 af 72 	call	0xe55e	; 0xe55e <__addsf3>
    d2ee:	f6 01       	movw	r30, r12
    d2f0:	67 83       	std	Z+7, r22	; 0x07
    d2f2:	70 87       	std	Z+8, r23	; 0x08
    d2f4:	81 87       	std	Z+9, r24	; 0x09
    d2f6:	92 87       	std	Z+10, r25	; 0x0a
    d2f8:	1a c0       	rjmp	.+52     	; 0xd32e <update_player+0x128>
		}
		else if ((p->held & BTN_LEFT))
    d2fa:	86 ff       	sbrs	r24, 6
    d2fc:	16 c0       	rjmp	.+44     	; 0xd32a <update_player+0x124>
		{
			player->shared.direction = D_LEFT;
    d2fe:	83 e0       	ldi	r24, 0x03	; 3
    d300:	f6 01       	movw	r30, r12
    d302:	80 83       	st	Z, r24
			player->shared.x -= get_delta(player, &player->shared);
    d304:	b6 01       	movw	r22, r12
    d306:	c6 01       	movw	r24, r12
    d308:	0e 94 b7 51 	call	0xa36e	; 0xa36e <get_delta>
    d30c:	9b 01       	movw	r18, r22
    d30e:	ac 01       	movw	r20, r24
    d310:	f6 01       	movw	r30, r12
    d312:	63 81       	ldd	r22, Z+3	; 0x03
    d314:	74 81       	ldd	r23, Z+4	; 0x04
    d316:	85 81       	ldd	r24, Z+5	; 0x05
    d318:	96 81       	ldd	r25, Z+6	; 0x06
    d31a:	0e 94 ae 72 	call	0xe55c	; 0xe55c <__subsf3>
    d31e:	f6 01       	movw	r30, r12
    d320:	63 83       	std	Z+3, r22	; 0x03
    d322:	74 83       	std	Z+4, r23	; 0x04
    d324:	85 83       	std	Z+5, r24	; 0x05
    d326:	96 83       	std	Z+6, r25	; 0x06
    d328:	02 c0       	rjmp	.+4      	; 0xd32e <update_player+0x128>
		}
		else
		{
			player->shared.speed = 0;
    d32a:	f6 01       	movw	r30, r12
    d32c:	11 82       	std	Z+1, r1	; 0x01
		}
		if (shoot_pressed(p) && (player->active_shots < MAX_SHOTS))
    d32e:	c8 01       	movw	r24, r16
    d330:	0e 94 ad 51 	call	0xa35a	; 0xa35a <shoot_pressed>
    d334:	88 23       	and	r24, r24
    d336:	09 f4       	brne	.+2      	; 0xd33a <update_player+0x134>
    d338:	41 c0       	rjmp	.+130    	; 0xd3bc <update_player+0x1b6>
    d33a:	f6 01       	movw	r30, r12
    d33c:	81 89       	ldd	r24, Z+17	; 0x11
    d33e:	81 11       	cpse	r24, r1
    d340:	3d c0       	rjmp	.+122    	; 0xd3bc <update_player+0x1b6>
		{
			for (u8 i = 0; i < MAX_SHOTS; i++)
			{
				shot = &player->shot[i];
				if (!shot->active)
    d342:	86 ad       	ldd	r24, Z+62	; 0x3e
    d344:	81 11       	cpse	r24, r1
    d346:	3a c0       	rjmp	.+116    	; 0xd3bc <update_player+0x1b6>
		}
		if (shoot_pressed(p) && (player->active_shots < MAX_SHOTS))
		{
			for (u8 i = 0; i < MAX_SHOTS; i++)
			{
				shot = &player->shot[i];
    d348:	76 01       	movw	r14, r12
    d34a:	f0 e3       	ldi	r31, 0x30	; 48
    d34c:	ef 0e       	add	r14, r31
    d34e:	f1 1c       	adc	r15, r1
				if (!shot->active)
				{
					send_smart_net_message(player, p, NETSHOOT);
    d350:	42 e0       	ldi	r20, 0x02	; 2
    d352:	b8 01       	movw	r22, r16
    d354:	c6 01       	movw	r24, r12
    d356:	0e 94 5e 65 	call	0xcabc	; 0xcabc <send_smart_net_message>
					if (player->has_rocket)
    d35a:	f6 01       	movw	r30, r12
    d35c:	80 8d       	ldd	r24, Z+24	; 0x18
    d35e:	88 23       	and	r24, r24
    d360:	51 f0       	breq	.+20     	; 0xd376 <update_player+0x170>
					{
						init_shot_state(shot, ROCKET_SHOT);
    d362:	61 e0       	ldi	r22, 0x01	; 1
    d364:	c7 01       	movw	r24, r14
    d366:	0e 94 a9 4e 	call	0x9d52	; 0x9d52 <init_shot_state>
						set_shot_animations(shot, ROCKET_SHOT);
    d36a:	61 e0       	ldi	r22, 0x01	; 1
    d36c:	c7 01       	movw	r24, r14
    d36e:	0e 94 c6 4e 	call	0x9d8c	; 0x9d8c <set_shot_animations>
						LBPlaySound(game.selection, player1.flags, player2.flags, PATCH_ROCKET);
    d372:	25 e0       	ldi	r18, 0x05	; 5
    d374:	09 c0       	rjmp	.+18     	; 0xd388 <update_player+0x182>
					}
					else
					{
						init_shot_state(shot, BASIC_SHOT);
    d376:	60 e0       	ldi	r22, 0x00	; 0
    d378:	c7 01       	movw	r24, r14
    d37a:	0e 94 a9 4e 	call	0x9d52	; 0x9d52 <init_shot_state>
						set_shot_animations(shot, BASIC_SHOT);
    d37e:	60 e0       	ldi	r22, 0x00	; 0
    d380:	c7 01       	movw	r24, r14
    d382:	0e 94 c6 4e 	call	0x9d8c	; 0x9d8c <set_shot_animations>
						LBPlaySound(game.selection, player1.flags, player2.flags, PATCH_CANNONBALL);
    d386:	21 e0       	ldi	r18, 0x01	; 1
    d388:	40 91 5c 0f 	lds	r20, 0x0F5C
    d38c:	60 91 ea 0b 	lds	r22, 0x0BEA
    d390:	80 91 b6 0b 	lds	r24, 0x0BB6
    d394:	0e 94 31 4e 	call	0x9c62	; 0x9c62 <LBPlaySound>
					}
					player->active_shots++;
    d398:	f6 01       	movw	r30, r12
    d39a:	81 89       	ldd	r24, Z+17	; 0x11
    d39c:	8f 5f       	subi	r24, 0xFF	; 255
    d39e:	81 8b       	std	Z+17, r24	; 0x11
					shot->shared.direction = player->shared.direction;
    d3a0:	80 81       	ld	r24, Z
    d3a2:	80 ab       	std	Z+48, r24	; 0x30
					position_shot(player, shot);
    d3a4:	b7 01       	movw	r22, r14
    d3a6:	c6 01       	movw	r24, r12
    d3a8:	0e 94 a4 50 	call	0xa148	; 0xa148 <position_shot>
					shot->active = 1;
    d3ac:	81 e0       	ldi	r24, 0x01	; 1
    d3ae:	f6 01       	movw	r30, r12
    d3b0:	86 af       	std	Z+62, r24	; 0x3e
					if (player->has_over_speed)
    d3b2:	81 8d       	ldd	r24, Z+25	; 0x19
    d3b4:	88 23       	and	r24, r24
    d3b6:	11 f0       	breq	.+4      	; 0xd3bc <update_player+0x1b6>
					{
						shot->shared.speed = SHOT_OVER_SPEED;
    d3b8:	8a ea       	ldi	r24, 0xAA	; 170
    d3ba:	81 ab       	std	Z+49, r24	; 0x31
				}
			}
		}
	}
	
	if (!game.paused)
    d3bc:	80 91 a5 0b 	lds	r24, 0x0BA5
    d3c0:	81 11       	cpse	r24, r1
    d3c2:	86 c0       	rjmp	.+268    	; 0xd4d0 <update_player+0x2ca>
	{
		/* Update Shot */
		for (u8 i = 0; i < MAX_SHOTS; i++)
		{
			shot = &player->shot[i];
    d3c4:	86 01       	movw	r16, r12
    d3c6:	00 5d       	subi	r16, 0xD0	; 208
    d3c8:	1f 4f       	sbci	r17, 0xFF	; 255
			if (shot->active)
    d3ca:	f6 01       	movw	r30, r12
    d3cc:	86 ad       	ldd	r24, Z+62	; 0x3e
    d3ce:	88 23       	and	r24, r24
    d3d0:	09 f4       	brne	.+2      	; 0xd3d4 <update_player+0x1ce>
    d3d2:	9f c0       	rjmp	.+318    	; 0xd512 <update_player+0x30c>
			{
				switch (shot->shared.direction)
    d3d4:	80 a9       	ldd	r24, Z+48	; 0x30
    d3d6:	81 30       	cpi	r24, 0x01	; 1
    d3d8:	11 f1       	breq	.+68     	; 0xd41e <update_player+0x218>
    d3da:	98 f0       	brcs	.+38     	; 0xd402 <update_player+0x1fc>
    d3dc:	82 30       	cpi	r24, 0x02	; 2
    d3de:	69 f1       	breq	.+90     	; 0xd43a <update_player+0x234>
    d3e0:	83 30       	cpi	r24, 0x03	; 3
    d3e2:	09 f0       	breq	.+2      	; 0xd3e6 <update_player+0x1e0>
    d3e4:	42 c0       	rjmp	.+132    	; 0xd46a <update_player+0x264>
				{
					case D_UP: shot->shared.y -= get_delta(player, &shot->shared); break;
					case D_RIGHT: shot->shared.x += get_delta(player, &shot->shared); break;
					case D_DOWN: shot->shared.y += get_delta(player, &shot->shared); break;
					case D_LEFT: shot->shared.x -= get_delta(player, &shot->shared); break;
    d3e6:	b8 01       	movw	r22, r16
    d3e8:	c6 01       	movw	r24, r12
    d3ea:	0e 94 b7 51 	call	0xa36e	; 0xa36e <get_delta>
    d3ee:	9b 01       	movw	r18, r22
    d3f0:	ac 01       	movw	r20, r24
    d3f2:	f6 01       	movw	r30, r12
    d3f4:	63 a9       	ldd	r22, Z+51	; 0x33
    d3f6:	74 a9       	ldd	r23, Z+52	; 0x34
    d3f8:	85 a9       	ldd	r24, Z+53	; 0x35
    d3fa:	96 a9       	ldd	r25, Z+54	; 0x36
    d3fc:	0e 94 ae 72 	call	0xe55c	; 0xe55c <__subsf3>
    d400:	2f c0       	rjmp	.+94     	; 0xd460 <update_player+0x25a>
			shot = &player->shot[i];
			if (shot->active)
			{
				switch (shot->shared.direction)
				{
					case D_UP: shot->shared.y -= get_delta(player, &shot->shared); break;
    d402:	b8 01       	movw	r22, r16
    d404:	c6 01       	movw	r24, r12
    d406:	0e 94 b7 51 	call	0xa36e	; 0xa36e <get_delta>
    d40a:	9b 01       	movw	r18, r22
    d40c:	ac 01       	movw	r20, r24
    d40e:	f6 01       	movw	r30, r12
    d410:	67 a9       	ldd	r22, Z+55	; 0x37
    d412:	70 ad       	ldd	r23, Z+56	; 0x38
    d414:	81 ad       	ldd	r24, Z+57	; 0x39
    d416:	92 ad       	ldd	r25, Z+58	; 0x3a
    d418:	0e 94 ae 72 	call	0xe55c	; 0xe55c <__subsf3>
    d41c:	1b c0       	rjmp	.+54     	; 0xd454 <update_player+0x24e>
					case D_RIGHT: shot->shared.x += get_delta(player, &shot->shared); break;
    d41e:	b8 01       	movw	r22, r16
    d420:	c6 01       	movw	r24, r12
    d422:	0e 94 b7 51 	call	0xa36e	; 0xa36e <get_delta>
    d426:	9b 01       	movw	r18, r22
    d428:	ac 01       	movw	r20, r24
    d42a:	f6 01       	movw	r30, r12
    d42c:	63 a9       	ldd	r22, Z+51	; 0x33
    d42e:	74 a9       	ldd	r23, Z+52	; 0x34
    d430:	85 a9       	ldd	r24, Z+53	; 0x35
    d432:	96 a9       	ldd	r25, Z+54	; 0x36
    d434:	0e 94 af 72 	call	0xe55e	; 0xe55e <__addsf3>
    d438:	13 c0       	rjmp	.+38     	; 0xd460 <update_player+0x25a>
					case D_DOWN: shot->shared.y += get_delta(player, &shot->shared); break;
    d43a:	b8 01       	movw	r22, r16
    d43c:	c6 01       	movw	r24, r12
    d43e:	0e 94 b7 51 	call	0xa36e	; 0xa36e <get_delta>
    d442:	9b 01       	movw	r18, r22
    d444:	ac 01       	movw	r20, r24
    d446:	f6 01       	movw	r30, r12
    d448:	67 a9       	ldd	r22, Z+55	; 0x37
    d44a:	70 ad       	ldd	r23, Z+56	; 0x38
    d44c:	81 ad       	ldd	r24, Z+57	; 0x39
    d44e:	92 ad       	ldd	r25, Z+58	; 0x3a
    d450:	0e 94 af 72 	call	0xe55e	; 0xe55e <__addsf3>
    d454:	f6 01       	movw	r30, r12
    d456:	67 ab       	std	Z+55, r22	; 0x37
    d458:	70 af       	std	Z+56, r23	; 0x38
    d45a:	81 af       	std	Z+57, r24	; 0x39
    d45c:	92 af       	std	Z+58, r25	; 0x3a
    d45e:	05 c0       	rjmp	.+10     	; 0xd46a <update_player+0x264>
					case D_LEFT: shot->shared.x -= get_delta(player, &shot->shared); break;
    d460:	f6 01       	movw	r30, r12
    d462:	63 ab       	std	Z+51, r22	; 0x33
    d464:	74 ab       	std	Z+52, r23	; 0x34
    d466:	85 ab       	std	Z+53, r24	; 0x35
    d468:	96 ab       	std	Z+54, r25	; 0x36
					default: break;
				}
				shot->distance += (shot->distance <= DISTANCE_TO_ARM) ? get_delta(player, &shot->shared) : 0;
    d46a:	f6 01       	movw	r30, r12
    d46c:	f7 ac       	ldd	r15, Z+63	; 0x3f
    d46e:	f8 e0       	ldi	r31, 0x08	; 8
    d470:	ff 15       	cp	r31, r15
    d472:	38 f0       	brcs	.+14     	; 0xd482 <update_player+0x27c>
    d474:	b8 01       	movw	r22, r16
    d476:	c6 01       	movw	r24, r12
    d478:	0e 94 b7 51 	call	0xa36e	; 0xa36e <get_delta>
    d47c:	9b 01       	movw	r18, r22
    d47e:	ac 01       	movw	r20, r24
    d480:	03 c0       	rjmp	.+6      	; 0xd488 <update_player+0x282>
    d482:	20 e0       	ldi	r18, 0x00	; 0
    d484:	30 e0       	ldi	r19, 0x00	; 0
    d486:	a9 01       	movw	r20, r18
    d488:	6f 2d       	mov	r22, r15
    d48a:	70 e0       	ldi	r23, 0x00	; 0
    d48c:	80 e0       	ldi	r24, 0x00	; 0
    d48e:	90 e0       	ldi	r25, 0x00	; 0
    d490:	29 83       	std	Y+1, r18	; 0x01
    d492:	3a 83       	std	Y+2, r19	; 0x02
    d494:	4b 83       	std	Y+3, r20	; 0x03
    d496:	5c 83       	std	Y+4, r21	; 0x04
    d498:	0e 94 b2 73 	call	0xe764	; 0xe764 <__floatsisf>
    d49c:	29 81       	ldd	r18, Y+1	; 0x01
    d49e:	3a 81       	ldd	r19, Y+2	; 0x02
    d4a0:	4b 81       	ldd	r20, Y+3	; 0x03
    d4a2:	5c 81       	ldd	r21, Y+4	; 0x04
    d4a4:	0e 94 af 72 	call	0xe55e	; 0xe55e <__addsf3>
    d4a8:	0e 94 84 73 	call	0xe708	; 0xe708 <__fixunssfsi>
    d4ac:	f6 01       	movw	r30, r12
    d4ae:	67 af       	std	Z+63, r22	; 0x3f
				collision_detect_shot(player, shot);
    d4b0:	b8 01       	movw	r22, r16
    d4b2:	c6 01       	movw	r24, r12
			LBPlaySound(game.selection, player1.flags, player2.flags, PATCH_NAVIGATE);
			exit_game();
			send_smart_net_message(player, p, NETEXIT);
		}
	}
}
    d4b4:	0f 90       	pop	r0
    d4b6:	0f 90       	pop	r0
    d4b8:	0f 90       	pop	r0
    d4ba:	0f 90       	pop	r0
    d4bc:	df 91       	pop	r29
    d4be:	cf 91       	pop	r28
    d4c0:	1f 91       	pop	r17
    d4c2:	0f 91       	pop	r16
    d4c4:	ff 90       	pop	r15
    d4c6:	ef 90       	pop	r14
    d4c8:	df 90       	pop	r13
    d4ca:	cf 90       	pop	r12
					case D_DOWN: shot->shared.y += get_delta(player, &shot->shared); break;
					case D_LEFT: shot->shared.x -= get_delta(player, &shot->shared); break;
					default: break;
				}
				shot->distance += (shot->distance <= DISTANCE_TO_ARM) ? get_delta(player, &shot->shared) : 0;
				collision_detect_shot(player, shot);
    d4cc:	0c 94 cb 66 	jmp	0xcd96	; 0xcd96 <collision_detect_shot>
			}
		}
	}
	else
	{
		if (p->pressed & BTN_X)
    d4d0:	f8 01       	movw	r30, r16
    d4d2:	80 81       	ld	r24, Z
    d4d4:	91 81       	ldd	r25, Z+1	; 0x01
    d4d6:	91 ff       	sbrs	r25, 1
    d4d8:	1c c0       	rjmp	.+56     	; 0xd512 <update_player+0x30c>
		{
			LBPlaySound(game.selection, player1.flags, player2.flags, PATCH_NAVIGATE);
    d4da:	24 e0       	ldi	r18, 0x04	; 4
    d4dc:	40 91 5c 0f 	lds	r20, 0x0F5C
    d4e0:	60 91 ea 0b 	lds	r22, 0x0BEA
    d4e4:	80 91 b6 0b 	lds	r24, 0x0BB6
    d4e8:	0e 94 31 4e 	call	0x9c62	; 0x9c62 <LBPlaySound>
			exit_game();
    d4ec:	0e 94 55 5b 	call	0xb6aa	; 0xb6aa <exit_game>
			send_smart_net_message(player, p, NETEXIT);
    d4f0:	49 e0       	ldi	r20, 0x09	; 9
    d4f2:	b8 01       	movw	r22, r16
    d4f4:	c6 01       	movw	r24, r12
		}
	}
}
    d4f6:	0f 90       	pop	r0
    d4f8:	0f 90       	pop	r0
    d4fa:	0f 90       	pop	r0
    d4fc:	0f 90       	pop	r0
    d4fe:	df 91       	pop	r29
    d500:	cf 91       	pop	r28
    d502:	1f 91       	pop	r17
    d504:	0f 91       	pop	r16
    d506:	ff 90       	pop	r15
    d508:	ef 90       	pop	r14
    d50a:	df 90       	pop	r13
    d50c:	cf 90       	pop	r12
	{
		if (p->pressed & BTN_X)
		{
			LBPlaySound(game.selection, player1.flags, player2.flags, PATCH_NAVIGATE);
			exit_game();
			send_smart_net_message(player, p, NETEXIT);
    d50e:	0c 94 5e 65 	jmp	0xcabc	; 0xcabc <send_smart_net_message>
		}
	}
}
    d512:	0f 90       	pop	r0
    d514:	0f 90       	pop	r0
    d516:	0f 90       	pop	r0
    d518:	0f 90       	pop	r0
    d51a:	df 91       	pop	r29
    d51c:	cf 91       	pop	r28
    d51e:	1f 91       	pop	r17
    d520:	0f 91       	pop	r16
    d522:	ff 90       	pop	r15
    d524:	ef 90       	pop	r14
    d526:	df 90       	pop	r13
    d528:	cf 90       	pop	r12
    d52a:	08 95       	ret

0000d52c <collision_detect_player>:
			player->shared.y--;
	}
}

char collision_detect_player(Player* player, u8 hud_x)
{
    d52c:	2f 92       	push	r2
    d52e:	3f 92       	push	r3
    d530:	4f 92       	push	r4
    d532:	5f 92       	push	r5
    d534:	6f 92       	push	r6
    d536:	7f 92       	push	r7
    d538:	8f 92       	push	r8
    d53a:	9f 92       	push	r9
    d53c:	af 92       	push	r10
    d53e:	bf 92       	push	r11
    d540:	cf 92       	push	r12
    d542:	df 92       	push	r13
    d544:	ef 92       	push	r14
    d546:	ff 92       	push	r15
    d548:	0f 93       	push	r16
    d54a:	1f 93       	push	r17
    d54c:	cf 93       	push	r28
    d54e:	df 93       	push	r29
    d550:	cd b7       	in	r28, 0x3d	; 61
    d552:	de b7       	in	r29, 0x3e	; 62
    d554:	2a 97       	sbiw	r28, 0x0a	; 10
    d556:	0f b6       	in	r0, 0x3f	; 63
    d558:	f8 94       	cli
    d55a:	de bf       	out	0x3e, r29	; 62
    d55c:	0f be       	out	0x3f, r0	; 63
    d55e:	cd bf       	out	0x3d, r28	; 61
    d560:	4c 01       	movw	r8, r24
    d562:	16 2f       	mov	r17, r22
	int tiles[3] = {0,0,0};
    d564:	1a 82       	std	Y+2, r1	; 0x02
    d566:	19 82       	std	Y+1, r1	; 0x01
    d568:	1c 82       	std	Y+4, r1	; 0x04
    d56a:	1b 82       	std	Y+3, r1	; 0x03
    d56c:	1e 82       	std	Y+6, r1	; 0x06
    d56e:	1d 82       	std	Y+5, r1	; 0x05
	u8 x = player->shared.x / 8;
	u8 y = player->shared.y / 8 - 3;
    d570:	20 e0       	ldi	r18, 0x00	; 0
    d572:	30 e0       	ldi	r19, 0x00	; 0
    d574:	40 e0       	ldi	r20, 0x00	; 0
    d576:	5e e3       	ldi	r21, 0x3E	; 62
    d578:	dc 01       	movw	r26, r24
    d57a:	17 96       	adiw	r26, 0x07	; 7
    d57c:	6d 91       	ld	r22, X+
    d57e:	7d 91       	ld	r23, X+
    d580:	8d 91       	ld	r24, X+
    d582:	9c 91       	ld	r25, X
    d584:	1a 97       	sbiw	r26, 0x0a	; 10
    d586:	0e 94 66 74 	call	0xe8cc	; 0xe8cc <__mulsf3>
    d58a:	20 e0       	ldi	r18, 0x00	; 0
    d58c:	30 e0       	ldi	r19, 0x00	; 0
    d58e:	40 e4       	ldi	r20, 0x40	; 64
    d590:	50 e4       	ldi	r21, 0x40	; 64
    d592:	0e 94 ae 72 	call	0xe55c	; 0xe55c <__subsf3>
    d596:	0e 94 84 73 	call	0xe708	; 0xe708 <__fixunssfsi>
    d59a:	06 2f       	mov	r16, r22
}

char collision_detect_player(Player* player, u8 hud_x)
{
	int tiles[3] = {0,0,0};
	u8 x = player->shared.x / 8;
    d59c:	20 e0       	ldi	r18, 0x00	; 0
    d59e:	30 e0       	ldi	r19, 0x00	; 0
    d5a0:	40 e0       	ldi	r20, 0x00	; 0
    d5a2:	5e e3       	ldi	r21, 0x3E	; 62
    d5a4:	f4 01       	movw	r30, r8
    d5a6:	63 81       	ldd	r22, Z+3	; 0x03
    d5a8:	74 81       	ldd	r23, Z+4	; 0x04
    d5aa:	85 81       	ldd	r24, Z+5	; 0x05
    d5ac:	96 81       	ldd	r25, Z+6	; 0x06
    d5ae:	0e 94 66 74 	call	0xe8cc	; 0xe8cc <__mulsf3>
    d5b2:	0e 94 84 73 	call	0xe708	; 0xe708 <__fixunssfsi>
	u8 collision_tile = 0;
	char collision_count = 0;
	u8 tile_x;
	u8 tile_y;
	
	get_interesting_tile_indexes(tiles, x, y, player->shared.direction);
    d5b6:	d4 01       	movw	r26, r8
    d5b8:	2c 91       	ld	r18, X
    d5ba:	40 2f       	mov	r20, r16
    d5bc:	ce 01       	movw	r24, r28
    d5be:	01 96       	adiw	r24, 0x01	; 1
    d5c0:	0e 94 c8 56 	call	0xad90	; 0xad90 <get_interesting_tile_indexes>
	
	/* Level boundries first */
	if (collision_detect_boundries(&player->shared))
    d5c4:	c4 01       	movw	r24, r8
    d5c6:	0e 94 6d 55 	call	0xaada	; 0xaada <collision_detect_boundries>
    d5ca:	88 23       	and	r24, r24
    d5cc:	39 f0       	breq	.+14     	; 0xd5dc <collision_detect_player+0xb0>
	{
		recoil_sprite(&player->shared);
    d5ce:	c4 01       	movw	r24, r8
    d5d0:	0e 94 50 53 	call	0xa6a0	; 0xa6a0 <recoil_sprite>
		player->shared.speed = 0;
    d5d4:	f4 01       	movw	r30, r8
    d5d6:	11 82       	std	Z+1, r1	; 0x01
		return explode;
    d5d8:	21 2c       	mov	r2, r1
    d5da:	4f c1       	rjmp	.+670    	; 0xd87a <collision_detect_player+0x34e>
    d5dc:	ce 01       	movw	r24, r28
    d5de:	01 96       	adiw	r24, 0x01	; 1
    d5e0:	2c 01       	movw	r4, r24
	u8 tile_y;
	
	get_interesting_tile_indexes(tiles, x, y, player->shared.direction);
	
	/* Level boundries first */
	if (collision_detect_boundries(&player->shared))
    d5e2:	31 2c       	mov	r3, r1
    d5e4:	b1 2c       	mov	r11, r1
    d5e6:	d1 2c       	mov	r13, r1
    d5e8:	21 2c       	mov	r2, r1
    d5ea:	1f 82       	std	Y+7, r1	; 0x07
		else if (level.level_map[tiles[i]] == L_ROCKET && !(player->flags & EXPLODING_FLAG) && !is_net_player(player))
		{
			send_net_message(NETITEMROCKET, tile_x, tile_y);
			level.level_map[tiles[i]] = L_EMPTY;
			player->has_rocket = true;
			DrawMap2(hud_x+11, 1, map_rocket_itm);
    d5ec:	9b e0       	ldi	r25, 0x0B	; 11
    d5ee:	91 0f       	add	r25, r17
    d5f0:	98 87       	std	Y+8, r25	; 0x08
		{
			send_net_message(NETITEMSPEED, tile_x, tile_y);
			level.level_map[tiles[i]] = L_EMPTY;
			player->max_speed = OVER_SPEED;
			player->has_over_speed = true;
			DrawMap2(hud_x+10, 1, map_speed_itm);
    d5f2:	16 5f       	subi	r17, 0xF6	; 246
    d5f4:	19 87       	std	Y+9, r17	; 0x09
	}

	/* Tile interaction */
	for (u8 i = 0; i < 3; i++)
	{
		tile_x = tiles[i] % 30;
    d5f6:	d2 01       	movw	r26, r4
    d5f8:	6d 90       	ld	r6, X+
    d5fa:	7c 90       	ld	r7, X
    d5fc:	c3 01       	movw	r24, r6
    d5fe:	6e e1       	ldi	r22, 0x1E	; 30
    d600:	70 e0       	ldi	r23, 0x00	; 0
    d602:	0e 94 9a 72 	call	0xe534	; 0xe534 <__divmodhi4>
    d606:	f8 2e       	mov	r15, r24
		tile_y = 3 + tiles[i] / 30;
    d608:	13 e0       	ldi	r17, 0x03	; 3
    d60a:	16 0f       	add	r17, r22
		
		if (solid_directional_tile(tiles[i]) && collides_directional_tile(tiles[i], player->shared.x, player->shared.y, 16, 16))
    d60c:	c3 01       	movw	r24, r6
    d60e:	0e 94 f2 53 	call	0xa7e4	; 0xa7e4 <solid_directional_tile>
    d612:	88 23       	and	r24, r24
    d614:	51 f1       	breq	.+84     	; 0xd66a <collision_detect_player+0x13e>
    d616:	f4 01       	movw	r30, r8
    d618:	67 81       	ldd	r22, Z+7	; 0x07
    d61a:	70 85       	ldd	r23, Z+8	; 0x08
    d61c:	81 85       	ldd	r24, Z+9	; 0x09
    d61e:	92 85       	ldd	r25, Z+10	; 0x0a
    d620:	0e 94 84 73 	call	0xe708	; 0xe708 <__fixunssfsi>
    d624:	46 2f       	mov	r20, r22
    d626:	d4 01       	movw	r26, r8
    d628:	13 96       	adiw	r26, 0x03	; 3
    d62a:	6d 91       	ld	r22, X+
    d62c:	7d 91       	ld	r23, X+
    d62e:	8d 91       	ld	r24, X+
    d630:	9c 91       	ld	r25, X
    d632:	16 97       	sbiw	r26, 0x06	; 6
    d634:	4a 87       	std	Y+10, r20	; 0x0a
    d636:	0e 94 84 73 	call	0xe708	; 0xe708 <__fixunssfsi>
    d63a:	00 e1       	ldi	r16, 0x10	; 16
    d63c:	20 e1       	ldi	r18, 0x10	; 16
    d63e:	4a 85       	ldd	r20, Y+10	; 0x0a
    d640:	c3 01       	movw	r24, r6
    d642:	0e 94 1c 54 	call	0xa838	; 0xa838 <collides_directional_tile>
    d646:	88 23       	and	r24, r24
    d648:	81 f0       	breq	.+32     	; 0xd66a <collision_detect_player+0x13e>
		{
			(player->handle_id == 9) ? recoil_sprite(&player->shared) : recoil_sprite_fine(player, &player->shared);
    d64a:	f4 01       	movw	r30, r8
    d64c:	83 85       	ldd	r24, Z+11	; 0x0b
    d64e:	89 30       	cpi	r24, 0x09	; 9
    d650:	21 f4       	brne	.+8      	; 0xd65a <collision_detect_player+0x12e>
    d652:	c4 01       	movw	r24, r8
    d654:	0e 94 50 53 	call	0xa6a0	; 0xa6a0 <recoil_sprite>
    d658:	04 c0       	rjmp	.+8      	; 0xd662 <collision_detect_player+0x136>
    d65a:	b4 01       	movw	r22, r8
    d65c:	c4 01       	movw	r24, r8
    d65e:	0e 94 aa 53 	call	0xa754	; 0xa754 <recoil_sprite_fine>
			player->shared.speed = 0;
    d662:	d4 01       	movw	r26, r8
    d664:	11 96       	adiw	r26, 0x01	; 1
    d666:	1c 92       	st	X, r1
    d668:	df c0       	rjmp	.+446    	; 0xd828 <collision_detect_player+0x2fc>
		}
		else if (solid_square_tile(tiles[i]) && LBCollides(player->shared.x,player->shared.y,16,16,tile_x*8,tile_y*8,8,8))
    d66a:	c3 01       	movw	r24, r6
    d66c:	0e 94 e0 53 	call	0xa7c0	; 0xa7c0 <solid_square_tile>
    d670:	88 23       	and	r24, r24
    d672:	61 f1       	breq	.+88     	; 0xd6cc <collision_detect_player+0x1a0>
    d674:	f4 01       	movw	r30, r8
    d676:	67 81       	ldd	r22, Z+7	; 0x07
    d678:	70 85       	ldd	r23, Z+8	; 0x08
    d67a:	81 85       	ldd	r24, Z+9	; 0x09
    d67c:	92 85       	ldd	r25, Z+10	; 0x0a
    d67e:	0e 94 84 73 	call	0xe708	; 0xe708 <__fixunssfsi>
    d682:	36 2f       	mov	r19, r22
    d684:	d4 01       	movw	r26, r8
    d686:	13 96       	adiw	r26, 0x03	; 3
    d688:	6d 91       	ld	r22, X+
    d68a:	7d 91       	ld	r23, X+
    d68c:	8d 91       	ld	r24, X+
    d68e:	9c 91       	ld	r25, X
    d690:	16 97       	sbiw	r26, 0x06	; 6
    d692:	3a 87       	std	Y+10, r19	; 0x0a
    d694:	0e 94 84 73 	call	0xe708	; 0xe708 <__fixunssfsi>
    d698:	86 2f       	mov	r24, r22
    d69a:	38 e0       	ldi	r19, 0x08	; 8
    d69c:	a3 2e       	mov	r10, r19
    d69e:	48 e0       	ldi	r20, 0x08	; 8
    d6a0:	c4 2e       	mov	r12, r20
    d6a2:	e1 2e       	mov	r14, r17
    d6a4:	ee 0c       	add	r14, r14
    d6a6:	ee 0c       	add	r14, r14
    d6a8:	ee 0c       	add	r14, r14
    d6aa:	0f 2d       	mov	r16, r15
    d6ac:	00 0f       	add	r16, r16
    d6ae:	00 0f       	add	r16, r16
    d6b0:	00 0f       	add	r16, r16
    d6b2:	20 e1       	ldi	r18, 0x10	; 16
    d6b4:	40 e1       	ldi	r20, 0x10	; 16
    d6b6:	3a 85       	ldd	r19, Y+10	; 0x0a
    d6b8:	63 2f       	mov	r22, r19
    d6ba:	0e 94 fd 4c 	call	0x99fa	; 0x99fa <LBCollides>
    d6be:	88 23       	and	r24, r24
    d6c0:	29 f0       	breq	.+10     	; 0xd6cc <collision_detect_player+0x1a0>
		{
			collision_count++;
    d6c2:	b3 94       	inc	r11
			collision_tile = i;
			player->shared.speed = 0;
    d6c4:	f4 01       	movw	r30, r8
    d6c6:	11 82       	std	Z+1, r1	; 0x01
    d6c8:	d3 2c       	mov	r13, r3
    d6ca:	ae c0       	rjmp	.+348    	; 0xd828 <collision_detect_player+0x2fc>
		}
		else if (level.level_map[tiles[i]] == L_WATER && LBCollides(player->shared.x,player->shared.y,16,16,tile_x*8,tile_y*8,8,8))
    d6cc:	f3 01       	movw	r30, r6
    d6ce:	e8 5a       	subi	r30, 0xA8	; 168
    d6d0:	f3 4f       	sbci	r31, 0xF3	; 243
    d6d2:	81 81       	ldd	r24, Z+1	; 0x01
    d6d4:	8d 34       	cpi	r24, 0x4D	; 77
    d6d6:	69 f5       	brne	.+90     	; 0xd732 <collision_detect_player+0x206>
    d6d8:	e1 2e       	mov	r14, r17
    d6da:	ee 0c       	add	r14, r14
    d6dc:	ee 0c       	add	r14, r14
    d6de:	ee 0c       	add	r14, r14
    d6e0:	0f 2d       	mov	r16, r15
    d6e2:	00 0f       	add	r16, r16
    d6e4:	00 0f       	add	r16, r16
    d6e6:	00 0f       	add	r16, r16
    d6e8:	d4 01       	movw	r26, r8
    d6ea:	17 96       	adiw	r26, 0x07	; 7
    d6ec:	6d 91       	ld	r22, X+
    d6ee:	7d 91       	ld	r23, X+
    d6f0:	8d 91       	ld	r24, X+
    d6f2:	9c 91       	ld	r25, X
    d6f4:	1a 97       	sbiw	r26, 0x0a	; 10
    d6f6:	0e 94 84 73 	call	0xe708	; 0xe708 <__fixunssfsi>
    d6fa:	76 2e       	mov	r7, r22
    d6fc:	f4 01       	movw	r30, r8
    d6fe:	63 81       	ldd	r22, Z+3	; 0x03
    d700:	74 81       	ldd	r23, Z+4	; 0x04
    d702:	85 81       	ldd	r24, Z+5	; 0x05
    d704:	96 81       	ldd	r25, Z+6	; 0x06
    d706:	0e 94 84 73 	call	0xe708	; 0xe708 <__fixunssfsi>
    d70a:	86 2f       	mov	r24, r22
    d70c:	98 e0       	ldi	r25, 0x08	; 8
    d70e:	a9 2e       	mov	r10, r25
    d710:	28 e0       	ldi	r18, 0x08	; 8
    d712:	c2 2e       	mov	r12, r18
    d714:	20 e1       	ldi	r18, 0x10	; 16
    d716:	40 e1       	ldi	r20, 0x10	; 16
    d718:	67 2d       	mov	r22, r7
    d71a:	0e 94 fd 4c 	call	0x99fa	; 0x99fa <LBCollides>
    d71e:	88 23       	and	r24, r24
    d720:	09 f4       	brne	.+2      	; 0xd724 <collision_detect_player+0x1f8>
    d722:	82 c0       	rjmp	.+260    	; 0xd828 <collision_detect_player+0x2fc>
		{
			player->max_speed = WATER_SPEED;
    d724:	e9 e1       	ldi	r30, 0x19	; 25
    d726:	d4 01       	movw	r26, r8
    d728:	57 96       	adiw	r26, 0x17	; 23
    d72a:	ec 93       	st	X, r30
    d72c:	f1 e0       	ldi	r31, 0x01	; 1
    d72e:	ff 83       	std	Y+7, r31	; 0x07
    d730:	89 c0       	rjmp	.+274    	; 0xd844 <collision_detect_player+0x318>
			hit_water = 1;
		}
		else if (level.level_map[tiles[i]] == L_SCOPE && LBCollides(player->shared.x,player->shared.y,16,16,tile_x*8,tile_y*8,8,8))
    d732:	8c 32       	cpi	r24, 0x2C	; 44
    d734:	89 f2       	breq	.-94     	; 0xd6d8 <collision_detect_player+0x1ac>
		{
			player->max_speed = WATER_SPEED;
			hit_water = 1;
		}
		else if (level.level_map[tiles[i]] == L_SPEED && !(player->flags & EXPLODING_FLAG) && !is_net_player(player))
    d736:	87 30       	cpi	r24, 0x07	; 7
    d738:	f9 f4       	brne	.+62     	; 0xd778 <collision_detect_player+0x24c>
    d73a:	d4 01       	movw	r26, r8
    d73c:	55 96       	adiw	r26, 0x15	; 21
    d73e:	8c 91       	ld	r24, X
    d740:	80 fd       	sbrc	r24, 0
    d742:	72 c0       	rjmp	.+228    	; 0xd828 <collision_detect_player+0x2fc>
    d744:	c4 01       	movw	r24, r8
    d746:	0e 94 b9 66 	call	0xcd72	; 0xcd72 <is_net_player>
    d74a:	81 11       	cpse	r24, r1
    d74c:	6d c0       	rjmp	.+218    	; 0xd828 <collision_detect_player+0x2fc>
		{
			send_net_message(NETITEMSPEED, tile_x, tile_y);
    d74e:	41 2f       	mov	r20, r17
    d750:	6f 2d       	mov	r22, r15
    d752:	83 e0       	ldi	r24, 0x03	; 3
    d754:	0e 94 cd 64 	call	0xc99a	; 0xc99a <send_net_message>
			level.level_map[tiles[i]] = L_EMPTY;
    d758:	d2 01       	movw	r26, r4
    d75a:	ed 91       	ld	r30, X+
    d75c:	fc 91       	ld	r31, X
    d75e:	e8 5a       	subi	r30, 0xA8	; 168
    d760:	f3 4f       	sbci	r31, 0xF3	; 243
    d762:	11 82       	std	Z+1, r1	; 0x01
			player->max_speed = OVER_SPEED;
    d764:	81 e4       	ldi	r24, 0x41	; 65
    d766:	f4 01       	movw	r30, r8
    d768:	87 8b       	std	Z+23, r24	; 0x17
			player->has_over_speed = true;
    d76a:	91 e0       	ldi	r25, 0x01	; 1
    d76c:	91 8f       	std	Z+25, r25	; 0x19
			DrawMap2(hud_x+10, 1, map_speed_itm);
    d76e:	4f ec       	ldi	r20, 0xCF	; 207
    d770:	5a e6       	ldi	r21, 0x6A	; 106
    d772:	61 e0       	ldi	r22, 0x01	; 1
    d774:	89 85       	ldd	r24, Y+9	; 0x09
    d776:	1e c0       	rjmp	.+60     	; 0xd7b4 <collision_detect_player+0x288>
			SetTile(tile_x, tile_y, 0);
			LBPlaySound(game.selection, player1.flags, player2.flags, PATCH_ITEM);
		}
		else if (level.level_map[tiles[i]] == L_ROCKET && !(player->flags & EXPLODING_FLAG) && !is_net_player(player))
    d778:	89 30       	cpi	r24, 0x09	; 9
    d77a:	71 f5       	brne	.+92     	; 0xd7d8 <collision_detect_player+0x2ac>
    d77c:	d4 01       	movw	r26, r8
    d77e:	55 96       	adiw	r26, 0x15	; 21
    d780:	8c 91       	ld	r24, X
    d782:	80 fd       	sbrc	r24, 0
    d784:	51 c0       	rjmp	.+162    	; 0xd828 <collision_detect_player+0x2fc>
    d786:	c4 01       	movw	r24, r8
    d788:	0e 94 b9 66 	call	0xcd72	; 0xcd72 <is_net_player>
    d78c:	81 11       	cpse	r24, r1
    d78e:	4c c0       	rjmp	.+152    	; 0xd828 <collision_detect_player+0x2fc>
		{
			send_net_message(NETITEMROCKET, tile_x, tile_y);
    d790:	41 2f       	mov	r20, r17
    d792:	6f 2d       	mov	r22, r15
    d794:	84 e0       	ldi	r24, 0x04	; 4
    d796:	0e 94 cd 64 	call	0xc99a	; 0xc99a <send_net_message>
			level.level_map[tiles[i]] = L_EMPTY;
    d79a:	d2 01       	movw	r26, r4
    d79c:	ed 91       	ld	r30, X+
    d79e:	fc 91       	ld	r31, X
    d7a0:	e8 5a       	subi	r30, 0xA8	; 168
    d7a2:	f3 4f       	sbci	r31, 0xF3	; 243
    d7a4:	11 82       	std	Z+1, r1	; 0x01
			player->has_rocket = true;
    d7a6:	81 e0       	ldi	r24, 0x01	; 1
    d7a8:	f4 01       	movw	r30, r8
    d7aa:	80 8f       	std	Z+24, r24	; 0x18
			DrawMap2(hud_x+11, 1, map_rocket_itm);
    d7ac:	49 ec       	ldi	r20, 0xC9	; 201
    d7ae:	5a e6       	ldi	r21, 0x6A	; 106
    d7b0:	61 e0       	ldi	r22, 0x01	; 1
    d7b2:	88 85       	ldd	r24, Y+8	; 0x08
    d7b4:	0e 94 6c 48 	call	0x90d8	; 0x90d8 <DrawMap>
			SetTile(tile_x, tile_y, 0);
    d7b8:	40 e0       	ldi	r20, 0x00	; 0
    d7ba:	50 e0       	ldi	r21, 0x00	; 0
    d7bc:	61 2f       	mov	r22, r17
    d7be:	8f 2d       	mov	r24, r15
    d7c0:	0e 94 37 3a 	call	0x746e	; 0x746e <SetTile>
			LBPlaySound(game.selection, player1.flags, player2.flags, PATCH_ITEM);
    d7c4:	22 e0       	ldi	r18, 0x02	; 2
    d7c6:	40 91 5c 0f 	lds	r20, 0x0F5C
    d7ca:	60 91 ea 0b 	lds	r22, 0x0BEA
    d7ce:	80 91 b6 0b 	lds	r24, 0x0BB6
    d7d2:	0e 94 31 4e 	call	0x9c62	; 0x9c62 <LBPlaySound>
    d7d6:	28 c0       	rjmp	.+80     	; 0xd828 <collision_detect_player+0x2fc>
		}
		else if (level.level_map[tiles[i]] == L_EXPLODE && !(player->flags & EXPLODING_FLAG) && !is_net_player(player))
    d7d8:	88 30       	cpi	r24, 0x08	; 8
    d7da:	31 f5       	brne	.+76     	; 0xd828 <collision_detect_player+0x2fc>
    d7dc:	d4 01       	movw	r26, r8
    d7de:	55 96       	adiw	r26, 0x15	; 21
    d7e0:	8c 91       	ld	r24, X
    d7e2:	80 fd       	sbrc	r24, 0
    d7e4:	21 c0       	rjmp	.+66     	; 0xd828 <collision_detect_player+0x2fc>
    d7e6:	c4 01       	movw	r24, r8
    d7e8:	0e 94 b9 66 	call	0xcd72	; 0xcd72 <is_net_player>
    d7ec:	81 11       	cpse	r24, r1
    d7ee:	1c c0       	rjmp	.+56     	; 0xd828 <collision_detect_player+0x2fc>
		{
			send_net_message(NETITEMBOMB, tile_x, tile_y);
    d7f0:	41 2f       	mov	r20, r17
    d7f2:	6f 2d       	mov	r22, r15
    d7f4:	85 e0       	ldi	r24, 0x05	; 5
    d7f6:	0e 94 cd 64 	call	0xc99a	; 0xc99a <send_net_message>
			level.level_map[tiles[i]] = L_EMPTY;
    d7fa:	d2 01       	movw	r26, r4
    d7fc:	ed 91       	ld	r30, X+
    d7fe:	fc 91       	ld	r31, X
    d800:	e8 5a       	subi	r30, 0xA8	; 168
    d802:	f3 4f       	sbci	r31, 0xF3	; 243
    d804:	11 82       	std	Z+1, r1	; 0x01
			SetTile(tile_x, tile_y, 0);
    d806:	40 e0       	ldi	r20, 0x00	; 0
    d808:	50 e0       	ldi	r21, 0x00	; 0
    d80a:	61 2f       	mov	r22, r17
    d80c:	8f 2d       	mov	r24, r15
    d80e:	0e 94 37 3a 	call	0x746e	; 0x746e <SetTile>
			LBPlaySound(game.selection, player1.flags, player2.flags, PATCH_ITEM);
    d812:	22 e0       	ldi	r18, 0x02	; 2
    d814:	40 91 5c 0f 	lds	r20, 0x0F5C
    d818:	60 91 ea 0b 	lds	r22, 0x0BEA
    d81c:	80 91 b6 0b 	lds	r24, 0x0BB6
    d820:	0e 94 31 4e 	call	0x9c62	; 0x9c62 <LBPlaySound>
			explode = 1;
    d824:	22 24       	eor	r2, r2
    d826:	23 94       	inc	r2
		}
		
		if (!hit_water)
    d828:	bf 81       	ldd	r27, Y+7	; 0x07
    d82a:	b1 11       	cpse	r27, r1
    d82c:	09 c0       	rjmp	.+18     	; 0xd840 <collision_detect_player+0x314>
		{
			player->max_speed = MAX_SPEED;
    d82e:	82 e3       	ldi	r24, 0x32	; 50
    d830:	f4 01       	movw	r30, r8
    d832:	87 8b       	std	Z+23, r24	; 0x17
			if (player->has_over_speed) player->max_speed = OVER_SPEED;
    d834:	81 8d       	ldd	r24, Z+25	; 0x19
    d836:	88 23       	and	r24, r24
    d838:	29 f0       	breq	.+10     	; 0xd844 <collision_detect_player+0x318>
    d83a:	91 e4       	ldi	r25, 0x41	; 65
    d83c:	97 8b       	std	Z+23, r25	; 0x17
    d83e:	02 c0       	rjmp	.+4      	; 0xd844 <collision_detect_player+0x318>
    d840:	a1 e0       	ldi	r26, 0x01	; 1
    d842:	af 83       	std	Y+7, r26	; 0x07
		player->shared.speed = 0;
		return explode;
	}

	/* Tile interaction */
	for (u8 i = 0; i < 3; i++)
    d844:	33 94       	inc	r3
    d846:	b2 e0       	ldi	r27, 0x02	; 2
    d848:	4b 0e       	add	r4, r27
    d84a:	51 1c       	adc	r5, r1
    d84c:	e3 e0       	ldi	r30, 0x03	; 3
    d84e:	3e 12       	cpse	r3, r30
    d850:	d2 ce       	rjmp	.-604    	; 0xd5f6 <collision_detect_player+0xca>
			if (player->has_over_speed) player->max_speed = OVER_SPEED;
		}
	}
	
	// Slide
	if (collision_count) recoil_sprite(&player->shared);
    d852:	bb 20       	and	r11, r11
    d854:	91 f0       	breq	.+36     	; 0xd87a <collision_detect_player+0x34e>
    d856:	c4 01       	movw	r24, r8
    d858:	0e 94 50 53 	call	0xa6a0	; 0xa6a0 <recoil_sprite>
	if (collision_count == 1)
    d85c:	f1 e0       	ldi	r31, 0x01	; 1
    d85e:	bf 12       	cpse	r11, r31
    d860:	0c c0       	rjmp	.+24     	; 0xd87a <collision_detect_player+0x34e>
	{
		slide(player, collision_tile, tiles[collision_tile]);
    d862:	fe 01       	movw	r30, r28
    d864:	31 96       	adiw	r30, 0x01	; 1
    d866:	ed 0d       	add	r30, r13
    d868:	f1 1d       	adc	r31, r1
    d86a:	ed 0d       	add	r30, r13
    d86c:	f1 1d       	adc	r31, r1
    d86e:	40 81       	ld	r20, Z
    d870:	51 81       	ldd	r21, Z+1	; 0x01
    d872:	6d 2d       	mov	r22, r13
    d874:	c4 01       	movw	r24, r8
    d876:	0e 94 19 57 	call	0xae32	; 0xae32 <slide>
	}
	return explode;
}
    d87a:	82 2d       	mov	r24, r2
    d87c:	2a 96       	adiw	r28, 0x0a	; 10
    d87e:	0f b6       	in	r0, 0x3f	; 63
    d880:	f8 94       	cli
    d882:	de bf       	out	0x3e, r29	; 62
    d884:	0f be       	out	0x3f, r0	; 63
    d886:	cd bf       	out	0x3d, r28	; 61
    d888:	df 91       	pop	r29
    d88a:	cf 91       	pop	r28
    d88c:	1f 91       	pop	r17
    d88e:	0f 91       	pop	r16
    d890:	ff 90       	pop	r15
    d892:	ef 90       	pop	r14
    d894:	df 90       	pop	r13
    d896:	cf 90       	pop	r12
    d898:	bf 90       	pop	r11
    d89a:	af 90       	pop	r10
    d89c:	9f 90       	pop	r9
    d89e:	8f 90       	pop	r8
    d8a0:	7f 90       	pop	r7
    d8a2:	6f 90       	pop	r6
    d8a4:	5f 90       	pop	r5
    d8a6:	4f 90       	pop	r4
    d8a8:	3f 90       	pop	r3
    d8aa:	2f 90       	pop	r2
    d8ac:	08 95       	ret

0000d8ae <update_turret_shot>:
		}
	}
}

void update_turret_shot(Turret* t, Shot* s)
{	
    d8ae:	0f 93       	push	r16
    d8b0:	1f 93       	push	r17
    d8b2:	cf 93       	push	r28
    d8b4:	df 93       	push	r29
    d8b6:	8c 01       	movw	r16, r24
    d8b8:	eb 01       	movw	r28, r22
	if (t->lives <= 0)
    d8ba:	fc 01       	movw	r30, r24
    d8bc:	83 85       	ldd	r24, Z+11	; 0x0b
    d8be:	81 11       	cpse	r24, r1
    d8c0:	02 c0       	rjmp	.+4      	; 0xd8c6 <update_turret_shot+0x18>
	{
		s->active = 0;
    d8c2:	1e 86       	std	Y+14, r1	; 0x0e
		return;
    d8c4:	77 c0       	rjmp	.+238    	; 0xd9b4 <update_turret_shot+0x106>
	}
	if (!s->active)
    d8c6:	8e 85       	ldd	r24, Y+14	; 0x0e
    d8c8:	81 11       	cpse	r24, r1
    d8ca:	29 c0       	rjmp	.+82     	; 0xd91e <update_turret_shot+0x70>
	{
		s->active = 1;
    d8cc:	81 e0       	ldi	r24, 0x01	; 1
    d8ce:	8e 87       	std	Y+14, r24	; 0x0e
		s->shared.x = t->shared.x+3;
    d8d0:	20 e0       	ldi	r18, 0x00	; 0
    d8d2:	30 e0       	ldi	r19, 0x00	; 0
    d8d4:	40 e4       	ldi	r20, 0x40	; 64
    d8d6:	50 e4       	ldi	r21, 0x40	; 64
    d8d8:	f8 01       	movw	r30, r16
    d8da:	63 81       	ldd	r22, Z+3	; 0x03
    d8dc:	74 81       	ldd	r23, Z+4	; 0x04
    d8de:	85 81       	ldd	r24, Z+5	; 0x05
    d8e0:	96 81       	ldd	r25, Z+6	; 0x06
    d8e2:	0e 94 af 72 	call	0xe55e	; 0xe55e <__addsf3>
    d8e6:	6b 83       	std	Y+3, r22	; 0x03
    d8e8:	7c 83       	std	Y+4, r23	; 0x04
    d8ea:	8d 83       	std	Y+5, r24	; 0x05
    d8ec:	9e 83       	std	Y+6, r25	; 0x06
		s->shared.y = t->shared.y+3;
    d8ee:	20 e0       	ldi	r18, 0x00	; 0
    d8f0:	30 e0       	ldi	r19, 0x00	; 0
    d8f2:	40 e4       	ldi	r20, 0x40	; 64
    d8f4:	50 e4       	ldi	r21, 0x40	; 64
    d8f6:	f8 01       	movw	r30, r16
    d8f8:	67 81       	ldd	r22, Z+7	; 0x07
    d8fa:	70 85       	ldd	r23, Z+8	; 0x08
    d8fc:	81 85       	ldd	r24, Z+9	; 0x09
    d8fe:	92 85       	ldd	r25, Z+10	; 0x0a
    d900:	0e 94 af 72 	call	0xe55e	; 0xe55e <__addsf3>
    d904:	6f 83       	std	Y+7, r22	; 0x07
    d906:	78 87       	std	Y+8, r23	; 0x08
    d908:	89 87       	std	Y+9, r24	; 0x09
    d90a:	9a 87       	std	Y+10, r25	; 0x0a
		LBPlaySound(game.selection, player1.flags, player2.flags, PATCH_CANNONBALL);
    d90c:	21 e0       	ldi	r18, 0x01	; 1
    d90e:	40 91 5c 0f 	lds	r20, 0x0F5C
    d912:	60 91 ea 0b 	lds	r22, 0x0BEA
    d916:	80 91 b6 0b 	lds	r24, 0x0BB6
    d91a:	0e 94 31 4e 	call	0x9c62	; 0x9c62 <LBPlaySound>
	}
	s->shared.y += FRAME_TIME*BOSS_TURRET_SHOT_SPEED;
    d91e:	23 e3       	ldi	r18, 0x33	; 51
    d920:	35 e5       	ldi	r19, 0x55	; 85
    d922:	45 e8       	ldi	r20, 0x85	; 133
    d924:	50 e4       	ldi	r21, 0x40	; 64
    d926:	6f 81       	ldd	r22, Y+7	; 0x07
    d928:	78 85       	ldd	r23, Y+8	; 0x08
    d92a:	89 85       	ldd	r24, Y+9	; 0x09
    d92c:	9a 85       	ldd	r25, Y+10	; 0x0a
    d92e:	0e 94 af 72 	call	0xe55e	; 0xe55e <__addsf3>
    d932:	6f 83       	std	Y+7, r22	; 0x07
    d934:	78 87       	std	Y+8, r23	; 0x08
    d936:	89 87       	std	Y+9, r24	; 0x09
    d938:	9a 87       	std	Y+10, r25	; 0x0a
	
	/* Level boundries first */
	if (s->shared.y + 8 > 216)
    d93a:	20 e0       	ldi	r18, 0x00	; 0
    d93c:	30 e0       	ldi	r19, 0x00	; 0
    d93e:	40 e0       	ldi	r20, 0x00	; 0
    d940:	51 e4       	ldi	r21, 0x41	; 65
    d942:	0e 94 af 72 	call	0xe55e	; 0xe55e <__addsf3>
    d946:	20 e0       	ldi	r18, 0x00	; 0
    d948:	30 e0       	ldi	r19, 0x00	; 0
    d94a:	48 e5       	ldi	r20, 0x58	; 88
    d94c:	53 e4       	ldi	r21, 0x43	; 67
    d94e:	0e 94 62 74 	call	0xe8c4	; 0xe8c4 <__gesf2>
    d952:	18 16       	cp	r1, r24
    d954:	0c f4       	brge	.+2      	; 0xd958 <update_turret_shot+0xaa>
    d956:	b5 cf       	rjmp	.-150    	; 0xd8c2 <update_turret_shot+0x14>
		s->active = 0;
		return;
	}
	
	/* Player interaction */	
	if (player_shot(game.boss_fight_player, s) && !(game.boss_fight_player->flags & EXPLODING_FLAG) && !is_net_player(game.boss_fight_player))
    d958:	00 91 b2 0b 	lds	r16, 0x0BB2
    d95c:	10 91 b3 0b 	lds	r17, 0x0BB3
    d960:	be 01       	movw	r22, r28
    d962:	c8 01       	movw	r24, r16
    d964:	0e 94 c0 54 	call	0xa980	; 0xa980 <player_shot>
    d968:	88 23       	and	r24, r24
    d96a:	21 f1       	breq	.+72     	; 0xd9b4 <update_turret_shot+0x106>
    d96c:	f8 01       	movw	r30, r16
    d96e:	85 89       	ldd	r24, Z+21	; 0x15
    d970:	80 fd       	sbrc	r24, 0
    d972:	20 c0       	rjmp	.+64     	; 0xd9b4 <update_turret_shot+0x106>
    d974:	c8 01       	movw	r24, r16
    d976:	0e 94 b9 66 	call	0xcd72	; 0xcd72 <is_net_player>
    d97a:	81 11       	cpse	r24, r1
    d97c:	1b c0       	rjmp	.+54     	; 0xd9b4 <update_turret_shot+0x106>
	{
		game.boss_fight_player_lives--;
    d97e:	80 91 a8 0b 	lds	r24, 0x0BA8
    d982:	81 50       	subi	r24, 0x01	; 1
    d984:	80 93 a8 0b 	sts	0x0BA8, r24
		if (game.boss_fight_player_lives <= 0)
    d988:	81 11       	cpse	r24, r1
    d98a:	03 c0       	rjmp	.+6      	; 0xd992 <update_turret_shot+0xe4>
		{
			game.boss_fight_status = BOSS_FIGHT_LOST;
    d98c:	80 e1       	ldi	r24, 0x10	; 16
    d98e:	80 93 a6 0b 	sts	0x0BA6, r24
		}
		kill_player(game.boss_fight_player, game.boss_fight_player_hud);
    d992:	60 91 a7 0b 	lds	r22, 0x0BA7
    d996:	c8 01       	movw	r24, r16
    d998:	0e 94 ef 55 	call	0xabde	; 0xabde <kill_player>
    d99c:	86 e0       	ldi	r24, 0x06	; 6
    d99e:	0e 94 6e 49 	call	0x92dc	; 0x92dc <LBPlaySound.part.6>
		LBPlaySound(game.selection, player1.flags, player2.flags, PATCH_TANK_EXPLODE);
		send_net_message(NETTURRETHIT, 0, 0);
    d9a2:	40 e0       	ldi	r20, 0x00	; 0
    d9a4:	60 e0       	ldi	r22, 0x00	; 0
    d9a6:	81 e0       	ldi	r24, 0x01	; 1
	}
}
    d9a8:	df 91       	pop	r29
    d9aa:	cf 91       	pop	r28
    d9ac:	1f 91       	pop	r17
    d9ae:	0f 91       	pop	r16
		{
			game.boss_fight_status = BOSS_FIGHT_LOST;
		}
		kill_player(game.boss_fight_player, game.boss_fight_player_hud);
		LBPlaySound(game.selection, player1.flags, player2.flags, PATCH_TANK_EXPLODE);
		send_net_message(NETTURRETHIT, 0, 0);
    d9b0:	0c 94 cd 64 	jmp	0xc99a	; 0xc99a <send_net_message>
	}
}
    d9b4:	df 91       	pop	r29
    d9b6:	cf 91       	pop	r28
    d9b8:	1f 91       	pop	r17
    d9ba:	0f 91       	pop	r16
    d9bc:	08 95       	ret

0000d9be <_handle_select_helper>:
#endif
}


void _handle_select_helper(HandleSelectState* ps, JoyPadState* p, Player* player)
{	
    d9be:	7f 92       	push	r7
    d9c0:	8f 92       	push	r8
    d9c2:	9f 92       	push	r9
    d9c4:	af 92       	push	r10
    d9c6:	bf 92       	push	r11
    d9c8:	cf 92       	push	r12
    d9ca:	df 92       	push	r13
    d9cc:	ef 92       	push	r14
    d9ce:	ff 92       	push	r15
    d9d0:	0f 93       	push	r16
    d9d2:	1f 93       	push	r17
    d9d4:	cf 93       	push	r28
    d9d6:	df 93       	push	r29
    d9d8:	ec 01       	movw	r28, r24
    d9da:	7b 01       	movw	r14, r22
    d9dc:	8a 01       	movw	r16, r20
	if ((p->pressed & BTN_UP) && (ps->select_state == SELECTING) && !is_net_player(player))
    d9de:	fb 01       	movw	r30, r22
    d9e0:	c0 80       	ld	r12, Z
    d9e2:	d1 80       	ldd	r13, Z+1	; 0x01
    d9e4:	46 01       	movw	r8, r12
    d9e6:	f0 e1       	ldi	r31, 0x10	; 16
    d9e8:	8f 22       	and	r8, r31
    d9ea:	99 24       	eor	r9, r9
    d9ec:	c4 fe       	sbrs	r12, 4
    d9ee:	0e c0       	rjmp	.+28     	; 0xda0c <_handle_select_helper+0x4e>
    d9f0:	8d 81       	ldd	r24, Y+5	; 0x05
    d9f2:	81 11       	cpse	r24, r1
    d9f4:	0b c0       	rjmp	.+22     	; 0xda0c <_handle_select_helper+0x4e>
    d9f6:	ca 01       	movw	r24, r20
    d9f8:	0e 94 b9 66 	call	0xcd72	; 0xcd72 <is_net_player>
    d9fc:	81 11       	cpse	r24, r1
    d9fe:	06 c0       	rjmp	.+12     	; 0xda0c <_handle_select_helper+0x4e>
	{
		ps->handle_id--;
    da00:	88 81       	ld	r24, Y
    da02:	81 50       	subi	r24, 0x01	; 1
		if (ps->handle_id < 0) ps->handle_id = 0;
    da04:	87 ff       	sbrs	r24, 7
    da06:	15 c0       	rjmp	.+42     	; 0xda32 <_handle_select_helper+0x74>
    da08:	18 82       	st	Y, r1
    da0a:	32 c0       	rjmp	.+100    	; 0xda70 <_handle_select_helper+0xb2>
		LBPlaySound(game.selection, player1.flags, player2.flags, PATCH_NAVIGATE);
		send_smart_net_message(player, p, NETHANDLESELECT);
	}
	else if ((p->pressed & BTN_DOWN) && (ps->select_state == SELECTING) && !is_net_player(player))
    da0c:	56 01       	movw	r10, r12
    da0e:	80 e2       	ldi	r24, 0x20	; 32
    da10:	a8 22       	and	r10, r24
    da12:	bb 24       	eor	r11, r11
    da14:	c5 fe       	sbrs	r12, 5
    da16:	0f c0       	rjmp	.+30     	; 0xda36 <_handle_select_helper+0x78>
    da18:	8d 81       	ldd	r24, Y+5	; 0x05
    da1a:	81 11       	cpse	r24, r1
    da1c:	0c c0       	rjmp	.+24     	; 0xda36 <_handle_select_helper+0x78>
    da1e:	c8 01       	movw	r24, r16
    da20:	0e 94 b9 66 	call	0xcd72	; 0xcd72 <is_net_player>
    da24:	81 11       	cpse	r24, r1
    da26:	07 c0       	rjmp	.+14     	; 0xda36 <_handle_select_helper+0x78>
	{
		ps->handle_id++;
    da28:	88 81       	ld	r24, Y
    da2a:	8f 5f       	subi	r24, 0xFF	; 255
		if (ps->handle_id > 8) ps->handle_id = 8;
    da2c:	89 30       	cpi	r24, 0x09	; 9
    da2e:	0c f0       	brlt	.+2      	; 0xda32 <_handle_select_helper+0x74>
    da30:	88 e0       	ldi	r24, 0x08	; 8
    da32:	88 83       	st	Y, r24
    da34:	1d c0       	rjmp	.+58     	; 0xda70 <_handle_select_helper+0xb2>
		LBPlaySound(game.selection, player1.flags, player2.flags, PATCH_NAVIGATE);
		send_smart_net_message(player, p, NETHANDLESELECT);
	}
	else if (select_pressed(p) && (ps->select_state == SELECTING) && !is_net_player(player))
    da36:	c7 01       	movw	r24, r14
    da38:	0e 94 b0 5a 	call	0xb560	; 0xb560 <select_pressed>
    da3c:	78 2e       	mov	r7, r24
    da3e:	88 23       	and	r24, r24
    da40:	91 f1       	breq	.+100    	; 0xdaa6 <_handle_select_helper+0xe8>
    da42:	8d 81       	ldd	r24, Y+5	; 0x05
    da44:	81 11       	cpse	r24, r1
    da46:	2f c0       	rjmp	.+94     	; 0xdaa6 <_handle_select_helper+0xe8>
    da48:	c8 01       	movw	r24, r16
    da4a:	0e 94 b9 66 	call	0xcd72	; 0xcd72 <is_net_player>
    da4e:	81 11       	cpse	r24, r1
    da50:	2a c0       	rjmp	.+84     	; 0xdaa6 <_handle_select_helper+0xe8>
	{
		ps->select_state = EDITING;
    da52:	81 e0       	ldi	r24, 0x01	; 1
    da54:	8d 83       	std	Y+5, r24	; 0x05
		memcpy(ps->handle, &handles.data[ps->handle_id*3], 3);
    da56:	e8 81       	ld	r30, Y
    da58:	83 e0       	ldi	r24, 0x03	; 3
    da5a:	e8 02       	muls	r30, r24
    da5c:	f0 01       	movw	r30, r0
    da5e:	11 24       	eor	r1, r1
    da60:	eb 57       	subi	r30, 0x7B	; 123
    da62:	f4 4f       	sbci	r31, 0xF4	; 244
    da64:	80 81       	ld	r24, Z
    da66:	91 81       	ldd	r25, Z+1	; 0x01
    da68:	a2 81       	ldd	r26, Z+2	; 0x02
    da6a:	89 83       	std	Y+1, r24	; 0x01
    da6c:	9a 83       	std	Y+2, r25	; 0x02
    da6e:	ab 83       	std	Y+3, r26	; 0x03
		LBPlaySound(game.selection, player1.flags, player2.flags, PATCH_NAVIGATE);
    da70:	24 e0       	ldi	r18, 0x04	; 4
    da72:	40 91 5c 0f 	lds	r20, 0x0F5C
    da76:	60 91 ea 0b 	lds	r22, 0x0BEA
    da7a:	80 91 b6 0b 	lds	r24, 0x0BB6
    da7e:	0e 94 31 4e 	call	0x9c62	; 0x9c62 <LBPlaySound>
		send_smart_net_message(player, p, NETHANDLESELECT);
    da82:	4a e0       	ldi	r20, 0x0A	; 10
    da84:	b7 01       	movw	r22, r14
    da86:	c8 01       	movw	r24, r16
		LBPlaySound(game.selection, player1.flags, player2.flags, PATCH_NAVIGATE);
		fade_through();
		load_splash();
	}
#endif
}
    da88:	df 91       	pop	r29
    da8a:	cf 91       	pop	r28
    da8c:	1f 91       	pop	r17
    da8e:	0f 91       	pop	r16
    da90:	ff 90       	pop	r15
    da92:	ef 90       	pop	r14
    da94:	df 90       	pop	r13
    da96:	cf 90       	pop	r12
    da98:	bf 90       	pop	r11
    da9a:	af 90       	pop	r10
    da9c:	9f 90       	pop	r9
    da9e:	8f 90       	pop	r8
    daa0:	7f 90       	pop	r7
	else if (select_pressed(p) && (ps->select_state == SELECTING) && !is_net_player(player))
	{
		ps->select_state = EDITING;
		memcpy(ps->handle, &handles.data[ps->handle_id*3], 3);
		LBPlaySound(game.selection, player1.flags, player2.flags, PATCH_NAVIGATE);
		send_smart_net_message(player, p, NETHANDLESELECT);
    daa2:	0c 94 5e 65 	jmp	0xcabc	; 0xcabc <send_smart_net_message>
	}
	else if ((p->pressed & BTN_RIGHT) && (ps->select_state == EDITING) && !is_net_player(player))
    daa6:	c7 fe       	sbrs	r12, 7
    daa8:	0f c0       	rjmp	.+30     	; 0xdac8 <_handle_select_helper+0x10a>
    daaa:	8d 81       	ldd	r24, Y+5	; 0x05
    daac:	81 30       	cpi	r24, 0x01	; 1
    daae:	61 f4       	brne	.+24     	; 0xdac8 <_handle_select_helper+0x10a>
    dab0:	c8 01       	movw	r24, r16
    dab2:	0e 94 b9 66 	call	0xcd72	; 0xcd72 <is_net_player>
    dab6:	81 11       	cpse	r24, r1
    dab8:	07 c0       	rjmp	.+14     	; 0xdac8 <_handle_select_helper+0x10a>
	{
		ps->char_index++;
    daba:	8c 81       	ldd	r24, Y+4	; 0x04
    dabc:	8f 5f       	subi	r24, 0xFF	; 255
		if (ps->char_index > 2) ps->char_index = 2;
    dabe:	83 30       	cpi	r24, 0x03	; 3
    dac0:	0c f0       	brlt	.+2      	; 0xdac4 <_handle_select_helper+0x106>
    dac2:	82 e0       	ldi	r24, 0x02	; 2
    dac4:	8c 83       	std	Y+4, r24	; 0x04
    dac6:	d4 cf       	rjmp	.-88     	; 0xda70 <_handle_select_helper+0xb2>
		LBPlaySound(game.selection, player1.flags, player2.flags, PATCH_NAVIGATE);
		send_smart_net_message(player, p, NETHANDLESELECT);
	}
	else if ((p->pressed & BTN_LEFT) && (ps->select_state == EDITING) && !is_net_player(player))
    dac8:	c6 fe       	sbrs	r12, 6
    daca:	0f c0       	rjmp	.+30     	; 0xdaea <_handle_select_helper+0x12c>
    dacc:	8d 81       	ldd	r24, Y+5	; 0x05
    dace:	81 30       	cpi	r24, 0x01	; 1
    dad0:	09 f0       	breq	.+2      	; 0xdad4 <_handle_select_helper+0x116>
    dad2:	90 c0       	rjmp	.+288    	; 0xdbf4 <_handle_select_helper+0x236>
    dad4:	c8 01       	movw	r24, r16
    dad6:	0e 94 b9 66 	call	0xcd72	; 0xcd72 <is_net_player>
    dada:	81 11       	cpse	r24, r1
    dadc:	2f c0       	rjmp	.+94     	; 0xdb3c <_handle_select_helper+0x17e>
	{
		ps->char_index--;
    dade:	8c 81       	ldd	r24, Y+4	; 0x04
    dae0:	81 50       	subi	r24, 0x01	; 1
		if (ps->char_index < 0) ps->char_index = 0;
    dae2:	87 ff       	sbrs	r24, 7
    dae4:	ef cf       	rjmp	.-34     	; 0xdac4 <_handle_select_helper+0x106>
    dae6:	1c 82       	std	Y+4, r1	; 0x04
    dae8:	c3 cf       	rjmp	.-122    	; 0xda70 <_handle_select_helper+0xb2>
		LBPlaySound(game.selection, player1.flags, player2.flags, PATCH_NAVIGATE);
		send_smart_net_message(player, p, NETHANDLESELECT);
	}
	else if ((p->pressed & BTN_UP) && (ps->select_state == EDITING) && !is_net_player(player))
    daea:	89 28       	or	r8, r9
    daec:	91 f0       	breq	.+36     	; 0xdb12 <_handle_select_helper+0x154>
    daee:	8d 81       	ldd	r24, Y+5	; 0x05
    daf0:	81 30       	cpi	r24, 0x01	; 1
    daf2:	09 f0       	breq	.+2      	; 0xdaf6 <_handle_select_helper+0x138>
    daf4:	54 c0       	rjmp	.+168    	; 0xdb9e <_handle_select_helper+0x1e0>
    daf6:	c8 01       	movw	r24, r16
    daf8:	0e 94 b9 66 	call	0xcd72	; 0xcd72 <is_net_player>
    dafc:	81 11       	cpse	r24, r1
    dafe:	20 c0       	rjmp	.+64     	; 0xdb40 <_handle_select_helper+0x182>
	{
		ps->handle[(u8) ps->char_index]--;
    db00:	8c 81       	ldd	r24, Y+4	; 0x04
    db02:	c8 0f       	add	r28, r24
    db04:	d1 1d       	adc	r29, r1
    db06:	89 81       	ldd	r24, Y+1	; 0x01
    db08:	81 50       	subi	r24, 0x01	; 1
		if (ps->handle[(u8) ps->char_index] < 'A') ps->handle[(u8) ps->char_index] = 'A';
    db0a:	81 34       	cpi	r24, 0x41	; 65
    db0c:	a8 f4       	brcc	.+42     	; 0xdb38 <_handle_select_helper+0x17a>
    db0e:	81 e4       	ldi	r24, 0x41	; 65
    db10:	13 c0       	rjmp	.+38     	; 0xdb38 <_handle_select_helper+0x17a>
		LBPlaySound(game.selection, player1.flags, player2.flags, PATCH_NAVIGATE);
		send_smart_net_message(player, p, NETHANDLESELECT);
	}
	else if ((p->pressed & BTN_DOWN) && (ps->select_state == EDITING) && !is_net_player(player))
    db12:	ab 28       	or	r10, r11
    db14:	b9 f0       	breq	.+46     	; 0xdb44 <_handle_select_helper+0x186>
    db16:	8d 81       	ldd	r24, Y+5	; 0x05
    db18:	81 30       	cpi	r24, 0x01	; 1
    db1a:	09 f0       	breq	.+2      	; 0xdb1e <_handle_select_helper+0x160>
    db1c:	40 c0       	rjmp	.+128    	; 0xdb9e <_handle_select_helper+0x1e0>
    db1e:	c8 01       	movw	r24, r16
    db20:	0e 94 b9 66 	call	0xcd72	; 0xcd72 <is_net_player>
    db24:	81 11       	cpse	r24, r1
    db26:	39 c0       	rjmp	.+114    	; 0xdb9a <_handle_select_helper+0x1dc>
	{
		ps->handle[(u8) ps->char_index]++;
    db28:	8c 81       	ldd	r24, Y+4	; 0x04
    db2a:	c8 0f       	add	r28, r24
    db2c:	d1 1d       	adc	r29, r1
    db2e:	89 81       	ldd	r24, Y+1	; 0x01
    db30:	8f 5f       	subi	r24, 0xFF	; 255
		if (ps->handle[(u8) ps->char_index] > 'Z') ps->handle[(u8) ps->char_index] = 'Z';
    db32:	8b 35       	cpi	r24, 0x5B	; 91
    db34:	08 f0       	brcs	.+2      	; 0xdb38 <_handle_select_helper+0x17a>
    db36:	8a e5       	ldi	r24, 0x5A	; 90
    db38:	89 83       	std	Y+1, r24	; 0x01
    db3a:	9a cf       	rjmp	.-204    	; 0xda70 <_handle_select_helper+0xb2>
		ps->char_index--;
		if (ps->char_index < 0) ps->char_index = 0;
		LBPlaySound(game.selection, player1.flags, player2.flags, PATCH_NAVIGATE);
		send_smart_net_message(player, p, NETHANDLESELECT);
	}
	else if ((p->pressed & BTN_UP) && (ps->select_state == EDITING) && !is_net_player(player))
    db3c:	89 28       	or	r8, r9
    db3e:	d9 f6       	brne	.-74     	; 0xdaf6 <_handle_select_helper+0x138>
		ps->handle[(u8) ps->char_index]--;
		if (ps->handle[(u8) ps->char_index] < 'A') ps->handle[(u8) ps->char_index] = 'A';
		LBPlaySound(game.selection, player1.flags, player2.flags, PATCH_NAVIGATE);
		send_smart_net_message(player, p, NETHANDLESELECT);
	}
	else if ((p->pressed & BTN_DOWN) && (ps->select_state == EDITING) && !is_net_player(player))
    db40:	ab 28       	or	r10, r11
    db42:	69 f7       	brne	.-38     	; 0xdb1e <_handle_select_helper+0x160>
		ps->handle[(u8) ps->char_index]++;
		if (ps->handle[(u8) ps->char_index] > 'Z') ps->handle[(u8) ps->char_index] = 'Z';
		LBPlaySound(game.selection, player1.flags, player2.flags, PATCH_NAVIGATE);
		send_smart_net_message(player, p, NETHANDLESELECT);
	}
	else if (select_pressed(p) && (ps->select_state == EDITING))
    db44:	77 20       	and	r7, r7
    db46:	59 f1       	breq	.+86     	; 0xdb9e <_handle_select_helper+0x1e0>
    db48:	8d 81       	ldd	r24, Y+5	; 0x05
    db4a:	81 30       	cpi	r24, 0x01	; 1
    db4c:	41 f5       	brne	.+80     	; 0xdb9e <_handle_select_helper+0x1e0>
	{
		player->handle_id = ps->handle_id;
    db4e:	88 81       	ld	r24, Y
    db50:	f8 01       	movw	r30, r16
    db52:	83 87       	std	Z+11, r24	; 0x0b
		memcpy(player->handle, ps->handle, 3);
    db54:	89 81       	ldd	r24, Y+1	; 0x01
    db56:	9a 81       	ldd	r25, Y+2	; 0x02
    db58:	ab 81       	ldd	r26, Y+3	; 0x03
    db5a:	84 87       	std	Z+12, r24	; 0x0c
    db5c:	95 87       	std	Z+13, r25	; 0x0d
    db5e:	a6 87       	std	Z+14, r26	; 0x0e
		memcpy(&handles.data[ps->handle_id*3], ps->handle, 3);
    db60:	e8 81       	ld	r30, Y
    db62:	83 e0       	ldi	r24, 0x03	; 3
    db64:	e8 02       	muls	r30, r24
    db66:	f0 01       	movw	r30, r0
    db68:	11 24       	eor	r1, r1
    db6a:	eb 57       	subi	r30, 0x7B	; 123
    db6c:	f4 4f       	sbci	r31, 0xF4	; 244
    db6e:	89 81       	ldd	r24, Y+1	; 0x01
    db70:	9a 81       	ldd	r25, Y+2	; 0x02
    db72:	ab 81       	ldd	r26, Y+3	; 0x03
    db74:	80 83       	st	Z, r24
    db76:	91 83       	std	Z+1, r25	; 0x01
    db78:	a2 83       	std	Z+2, r26	; 0x02
		LBPlaySound(game.selection, player1.flags, player2.flags, PATCH_NAVIGATE);
    db7a:	24 e0       	ldi	r18, 0x04	; 4
    db7c:	40 91 5c 0f 	lds	r20, 0x0F5C
    db80:	60 91 ea 0b 	lds	r22, 0x0BEA
    db84:	80 91 b6 0b 	lds	r24, 0x0BB6
    db88:	0e 94 31 4e 	call	0x9c62	; 0x9c62 <LBPlaySound>
void save_eeprom(struct EepromBlockStruct* block)
/*
 * Save to EEPROM
 */
{
	EepromWriteBlock(block);
    db8c:	83 e8       	ldi	r24, 0x83	; 131
    db8e:	9b e0       	ldi	r25, 0x0B	; 11
    db90:	0e 94 b2 3b 	call	0x7764	; 0x7764 <EepromWriteBlock>
		player->handle_id = ps->handle_id;
		memcpy(player->handle, ps->handle, 3);
		memcpy(&handles.data[ps->handle_id*3], ps->handle, 3);
		LBPlaySound(game.selection, player1.flags, player2.flags, PATCH_NAVIGATE);
		save_eeprom(&handles);
		ps->select_state = CONFIRMED;
    db94:	82 e0       	ldi	r24, 0x02	; 2
    db96:	8d 83       	std	Y+5, r24	; 0x05
    db98:	74 cf       	rjmp	.-280    	; 0xda82 <_handle_select_helper+0xc4>
		ps->handle[(u8) ps->char_index]++;
		if (ps->handle[(u8) ps->char_index] > 'Z') ps->handle[(u8) ps->char_index] = 'Z';
		LBPlaySound(game.selection, player1.flags, player2.flags, PATCH_NAVIGATE);
		send_smart_net_message(player, p, NETHANDLESELECT);
	}
	else if (select_pressed(p) && (ps->select_state == EDITING))
    db9a:	71 10       	cpse	r7, r1
    db9c:	d8 cf       	rjmp	.-80     	; 0xdb4e <_handle_select_helper+0x190>
		ps->select_state = CONFIRMED;
		send_smart_net_message(player, p, NETHANDLESELECT);
	}
#if JAMMA
#else
	else if ((p->pressed & BTN_X) && (ps->select_state == EDITING))
    db9e:	d1 fe       	sbrs	r13, 1
    dba0:	2c c0       	rjmp	.+88     	; 0xdbfa <_handle_select_helper+0x23c>
    dba2:	8d 81       	ldd	r24, Y+5	; 0x05
    dba4:	81 30       	cpi	r24, 0x01	; 1
    dba6:	11 f4       	brne	.+4      	; 0xdbac <_handle_select_helper+0x1ee>
	{
		ps->select_state = SELECTING;
    dba8:	1d 82       	std	Y+5, r1	; 0x05
    dbaa:	62 cf       	rjmp	.-316    	; 0xda70 <_handle_select_helper+0xb2>
		LBPlaySound(game.selection, player1.flags, player2.flags, PATCH_NAVIGATE);
		send_smart_net_message(player, p, NETHANDLESELECT);
	}
	else if ((p->pressed & BTN_X) && (ps->select_state == CONFIRMED))
    dbac:	82 30       	cpi	r24, 0x02	; 2
    dbae:	19 f4       	brne	.+6      	; 0xdbb6 <_handle_select_helper+0x1f8>
	{
		ps->select_state = EDITING;
    dbb0:	81 e0       	ldi	r24, 0x01	; 1
    dbb2:	8d 83       	std	Y+5, r24	; 0x05
    dbb4:	5d cf       	rjmp	.-326    	; 0xda70 <_handle_select_helper+0xb2>
		LBPlaySound(game.selection, player1.flags, player2.flags, PATCH_NAVIGATE);
		send_smart_net_message(player, p, NETHANDLESELECT);
	}
	else if ((p->pressed & BTN_X))
	{
		send_smart_net_message(player, p, NETHANDLESELECT);
    dbb6:	4a e0       	ldi	r20, 0x0A	; 10
    dbb8:	b7 01       	movw	r22, r14
    dbba:	c8 01       	movw	r24, r16
    dbbc:	0e 94 5e 65 	call	0xcabc	; 0xcabc <send_smart_net_message>
		LBPlaySound(game.selection, player1.flags, player2.flags, PATCH_NAVIGATE);
    dbc0:	24 e0       	ldi	r18, 0x04	; 4
    dbc2:	40 91 5c 0f 	lds	r20, 0x0F5C
    dbc6:	60 91 ea 0b 	lds	r22, 0x0BEA
    dbca:	80 91 b6 0b 	lds	r24, 0x0BB6
    dbce:	0e 94 31 4e 	call	0x9c62	; 0x9c62 <LBPlaySound>
		fade_through();
    dbd2:	0e 94 0c 50 	call	0xa018	; 0xa018 <fade_through>
		load_splash();
	}
#endif
}
    dbd6:	df 91       	pop	r29
    dbd8:	cf 91       	pop	r28
    dbda:	1f 91       	pop	r17
    dbdc:	0f 91       	pop	r16
    dbde:	ff 90       	pop	r15
    dbe0:	ef 90       	pop	r14
    dbe2:	df 90       	pop	r13
    dbe4:	cf 90       	pop	r12
    dbe6:	bf 90       	pop	r11
    dbe8:	af 90       	pop	r10
    dbea:	9f 90       	pop	r9
    dbec:	8f 90       	pop	r8
    dbee:	7f 90       	pop	r7
	else if ((p->pressed & BTN_X))
	{
		send_smart_net_message(player, p, NETHANDLESELECT);
		LBPlaySound(game.selection, player1.flags, player2.flags, PATCH_NAVIGATE);
		fade_through();
		load_splash();
    dbf0:	0c 94 66 5a 	jmp	0xb4cc	; 0xb4cc <load_splash>
		ps->handle[(u8) ps->char_index]--;
		if (ps->handle[(u8) ps->char_index] < 'A') ps->handle[(u8) ps->char_index] = 'A';
		LBPlaySound(game.selection, player1.flags, player2.flags, PATCH_NAVIGATE);
		send_smart_net_message(player, p, NETHANDLESELECT);
	}
	else if ((p->pressed & BTN_DOWN) && (ps->select_state == EDITING) && !is_net_player(player))
    dbf4:	ab 28       	or	r10, r11
    dbf6:	99 f6       	brne	.-90     	; 0xdb9e <_handle_select_helper+0x1e0>
    dbf8:	a5 cf       	rjmp	.-182    	; 0xdb44 <_handle_select_helper+0x186>
		LBPlaySound(game.selection, player1.flags, player2.flags, PATCH_NAVIGATE);
		fade_through();
		load_splash();
	}
#endif
}
    dbfa:	df 91       	pop	r29
    dbfc:	cf 91       	pop	r28
    dbfe:	1f 91       	pop	r17
    dc00:	0f 91       	pop	r16
    dc02:	ff 90       	pop	r15
    dc04:	ef 90       	pop	r14
    dc06:	df 90       	pop	r13
    dc08:	cf 90       	pop	r12
    dc0a:	bf 90       	pop	r11
    dc0c:	af 90       	pop	r10
    dc0e:	9f 90       	pop	r9
    dc10:	8f 90       	pop	r8
    dc12:	7f 90       	pop	r7
    dc14:	08 95       	ret

0000dc16 <update_handle_select>:
	Print(5, 24, (char*) strChangeHandle);
#endif
}

void update_handle_select(JoyPadState* p1, JoyPadState* p2)
{
    dc16:	0f 93       	push	r16
    dc18:	1f 93       	push	r17
    dc1a:	cf 93       	push	r28
    dc1c:	df 93       	push	r29
    dc1e:	ec 01       	movw	r28, r24
    dc20:	8b 01       	movw	r16, r22
	u8 start_game = 0;

	// Render
	_handle_select_render_helper(&p1s, p1, 2, 6);
    dc22:	26 e0       	ldi	r18, 0x06	; 6
    dc24:	42 e0       	ldi	r20, 0x02	; 2
    dc26:	bc 01       	movw	r22, r24
    dc28:	8b ef       	ldi	r24, 0xFB	; 251
    dc2a:	9f e0       	ldi	r25, 0x0F	; 15
    dc2c:	0e 94 84 5c 	call	0xb908	; 0xb908 <_handle_select_render_helper>
	if (game.selection != PVCPU && game.selection != CPUVCPU)
    dc30:	80 91 b6 0b 	lds	r24, 0x0BB6
    dc34:	88 23       	and	r24, r24
    dc36:	49 f0       	breq	.+18     	; 0xdc4a <update_handle_select+0x34>
    dc38:	86 30       	cpi	r24, 0x06	; 6
    dc3a:	39 f0       	breq	.+14     	; 0xdc4a <update_handle_select+0x34>
	{
		_handle_select_render_helper(&p2s, p2, 19, 8);
    dc3c:	28 e0       	ldi	r18, 0x08	; 8
    dc3e:	43 e1       	ldi	r20, 0x13	; 19
    dc40:	b8 01       	movw	r22, r16
    dc42:	8d e7       	ldi	r24, 0x7D	; 125
    dc44:	9b e0       	ldi	r25, 0x0B	; 11
    dc46:	0e 94 84 5c 	call	0xb908	; 0xb908 <_handle_select_render_helper>
	}

	// Update
	_handle_select_helper(&p1s, p1, &player1);
    dc4a:	45 ed       	ldi	r20, 0xD5	; 213
    dc4c:	5b e0       	ldi	r21, 0x0B	; 11
    dc4e:	be 01       	movw	r22, r28
    dc50:	8b ef       	ldi	r24, 0xFB	; 251
    dc52:	9f e0       	ldi	r25, 0x0F	; 15
    dc54:	0e 94 df 6c 	call	0xd9be	; 0xd9be <_handle_select_helper>
	if (p1s.select_state == CONFIRMED) start_game = 1;
    dc58:	c1 e0       	ldi	r28, 0x01	; 1
    dc5a:	80 91 00 10 	lds	r24, 0x1000
    dc5e:	82 30       	cpi	r24, 0x02	; 2
    dc60:	09 f0       	breq	.+2      	; 0xdc64 <update_handle_select+0x4e>
    dc62:	c0 e0       	ldi	r28, 0x00	; 0
	if (game.selection != PVCPU && game.selection != CPUVCPU)
    dc64:	80 91 b6 0b 	lds	r24, 0x0BB6
    dc68:	88 23       	and	r24, r24
    dc6a:	49 f1       	breq	.+82     	; 0xdcbe <update_handle_select+0xa8>
    dc6c:	86 30       	cpi	r24, 0x06	; 6
    dc6e:	51 f1       	breq	.+84     	; 0xdcc4 <update_handle_select+0xae>
	{
		_handle_select_helper(&p2s, p2, &player2);
    dc70:	47 e4       	ldi	r20, 0x47	; 71
    dc72:	5f e0       	ldi	r21, 0x0F	; 15
    dc74:	b8 01       	movw	r22, r16
    dc76:	8d e7       	ldi	r24, 0x7D	; 125
    dc78:	9b e0       	ldi	r25, 0x0B	; 11
    dc7a:	0e 94 df 6c 	call	0xd9be	; 0xd9be <_handle_select_helper>
		if (p2s.select_state != CONFIRMED) start_game = 0;
    dc7e:	80 91 82 0b 	lds	r24, 0x0B82
    dc82:	82 30       	cpi	r24, 0x02	; 2
    dc84:	09 f5       	brne	.+66     	; 0xdcc8 <update_handle_select+0xb2>
	}
	if (start_game)
    dc86:	cc 23       	and	r28, r28
    dc88:	f9 f0       	breq	.+62     	; 0xdcc8 <update_handle_select+0xb2>
	{
		if (game.selection == PVCPU)
    dc8a:	80 91 b6 0b 	lds	r24, 0x0BB6
    dc8e:	81 11       	cpse	r24, r1
    dc90:	0f c0       	rjmp	.+30     	; 0xdcb0 <update_handle_select+0x9a>
		{
			player2.handle_id = 9;
    dc92:	89 e0       	ldi	r24, 0x09	; 9
    dc94:	80 93 52 0f 	sts	0x0F52, r24
			memcpy(player2.handle, &handles.data[9*3], 3);
    dc98:	80 91 a0 0b 	lds	r24, 0x0BA0
    dc9c:	90 91 a1 0b 	lds	r25, 0x0BA1
    dca0:	a0 91 a2 0b 	lds	r26, 0x0BA2
    dca4:	80 93 53 0f 	sts	0x0F53, r24
    dca8:	90 93 54 0f 	sts	0x0F54, r25
    dcac:	a0 93 55 0f 	sts	0x0F55, r26
		}
		level_transition(0);
    dcb0:	80 e0       	ldi	r24, 0x00	; 0
	}
}
    dcb2:	df 91       	pop	r29
    dcb4:	cf 91       	pop	r28
    dcb6:	1f 91       	pop	r17
    dcb8:	0f 91       	pop	r16
		if (game.selection == PVCPU)
		{
			player2.handle_id = 9;
			memcpy(player2.handle, &handles.data[9*3], 3);
		}
		level_transition(0);
    dcba:	0c 94 fd 58 	jmp	0xb1fa	; 0xb1fa <level_transition>
	if (game.selection != PVCPU && game.selection != CPUVCPU)
	{
		_handle_select_helper(&p2s, p2, &player2);
		if (p2s.select_state != CONFIRMED) start_game = 0;
	}
	if (start_game)
    dcbe:	c1 11       	cpse	r28, r1
    dcc0:	e8 cf       	rjmp	.-48     	; 0xdc92 <update_handle_select+0x7c>
    dcc2:	02 c0       	rjmp	.+4      	; 0xdcc8 <update_handle_select+0xb2>
    dcc4:	c1 11       	cpse	r28, r1
    dcc6:	f4 cf       	rjmp	.-24     	; 0xdcb0 <update_handle_select+0x9a>
			player2.handle_id = 9;
			memcpy(player2.handle, &handles.data[9*3], 3);
		}
		level_transition(0);
	}
}
    dcc8:	df 91       	pop	r29
    dcca:	cf 91       	pop	r28
    dccc:	1f 91       	pop	r17
    dcce:	0f 91       	pop	r16
    dcd0:	08 95       	ret

0000dcd2 <record_player_posture>:
	if (game.selection == JOINNETGAME && player == &player1) return 1;
	return 0;
}

void record_player_posture(Player* player)
{
    dcd2:	fc 01       	movw	r30, r24
	player->old_direction = player->shared.direction;
    dcd4:	80 81       	ld	r24, Z
    dcd6:	85 a3       	std	Z+37, r24	; 0x25
	player->old_speed = player->shared.speed;
    dcd8:	81 81       	ldd	r24, Z+1	; 0x01
    dcda:	86 a3       	std	Z+38, r24	; 0x26
	player->old_recoiled = player->shared.recoiled;
    dcdc:	82 81       	ldd	r24, Z+2	; 0x02
    dcde:	87 a3       	std	Z+39, r24	; 0x27
    dce0:	08 95       	ret

0000dce2 <player_posture_changed>:
}

u8 player_posture_changed(Player* player)
{
    dce2:	fc 01       	movw	r30, r24
	if (player->old_direction != player->shared.direction) return 1;
    dce4:	95 a1       	ldd	r25, Z+37	; 0x25
    dce6:	80 81       	ld	r24, Z
    dce8:	98 13       	cpse	r25, r24
    dcea:	0b c0       	rjmp	.+22     	; 0xdd02 <player_posture_changed+0x20>
	if (player->old_speed != player->shared.speed) return 1;
    dcec:	96 a1       	ldd	r25, Z+38	; 0x26
    dcee:	81 81       	ldd	r24, Z+1	; 0x01
    dcf0:	98 13       	cpse	r25, r24
    dcf2:	07 c0       	rjmp	.+14     	; 0xdd02 <player_posture_changed+0x20>
	if (player->old_recoiled != player->shared.recoiled) return 1;
    dcf4:	81 e0       	ldi	r24, 0x01	; 1
    dcf6:	27 a1       	ldd	r18, Z+39	; 0x27
    dcf8:	92 81       	ldd	r25, Z+2	; 0x02
    dcfa:	29 13       	cpse	r18, r25
    dcfc:	03 c0       	rjmp	.+6      	; 0xdd04 <player_posture_changed+0x22>
    dcfe:	80 e0       	ldi	r24, 0x00	; 0
    dd00:	08 95       	ret
	player->old_recoiled = player->shared.recoiled;
}

u8 player_posture_changed(Player* player)
{
	if (player->old_direction != player->shared.direction) return 1;
    dd02:	81 e0       	ldi	r24, 0x01	; 1
	if (player->old_speed != player->shared.speed) return 1;
	if (player->old_recoiled != player->shared.recoiled) return 1;
	return 0;
}
    dd04:	08 95       	ret

0000dd06 <update_level>:
	if (t->lives <= 0) return (char*) map_none;
	return (char*) map_sub_shot;
}

void update_level(JoyPadState* p1, JoyPadState* p2)
{
    dd06:	df 92       	push	r13
    dd08:	ef 92       	push	r14
    dd0a:	ff 92       	push	r15
    dd0c:	0f 93       	push	r16
    dd0e:	1f 93       	push	r17
    dd10:	cf 93       	push	r28
    dd12:	df 93       	push	r29
    dd14:	8c 01       	movw	r16, r24
    dd16:	eb 01       	movw	r28, r22
	char t2_index = 0;
	char t1_shot_index = 0;
	char t2_shot_index = 0;
	u16 held = 0;

	if (game.paused)
    dd18:	80 91 a5 0b 	lds	r24, 0x0BA5
    dd1c:	88 23       	and	r24, r24
    dd1e:	19 f1       	breq	.+70     	; 0xdd66 <update_level+0x60>
	{
		// Render
		LBHideAllSprites();
    dd20:	0e 94 27 4e 	call	0x9c4e	; 0x9c4e <LBHideAllSprites>
		DrawMap2(8, 12, (const char*) map_pause);
    dd24:	4e e2       	ldi	r20, 0x2E	; 46
    dd26:	5b e6       	ldi	r21, 0x6B	; 107
    dd28:	6c e0       	ldi	r22, 0x0C	; 12
    dd2a:	88 e0       	ldi	r24, 0x08	; 8
    dd2c:	0e 94 6c 48 	call	0x90d8	; 0x90d8 <DrawMap>
		Print(12, 13, (char*) strPaused);
    dd30:	48 ef       	ldi	r20, 0xF8	; 248
    dd32:	53 e0       	ldi	r21, 0x03	; 3
    dd34:	6d e0       	ldi	r22, 0x0D	; 13
    dd36:	70 e0       	ldi	r23, 0x00	; 0
    dd38:	8c e0       	ldi	r24, 0x0C	; 12
    dd3a:	90 e0       	ldi	r25, 0x00	; 0
    dd3c:	0e 94 ec 48 	call	0x91d8	; 0x91d8 <Print>
		Print(11, 14, (char*) strExit);
    dd40:	4f ef       	ldi	r20, 0xFF	; 255
    dd42:	53 e0       	ldi	r21, 0x03	; 3
    dd44:	6e e0       	ldi	r22, 0x0E	; 14
    dd46:	70 e0       	ldi	r23, 0x00	; 0
    dd48:	8b e0       	ldi	r24, 0x0B	; 11
    dd4a:	90 e0       	ldi	r25, 0x00	; 0
    dd4c:	0e 94 ec 48 	call	0x91d8	; 0x91d8 <Print>
		
		// Update
		update_player(p1, &player1);
    dd50:	65 ed       	ldi	r22, 0xD5	; 213
    dd52:	7b e0       	ldi	r23, 0x0B	; 11
    dd54:	c8 01       	movw	r24, r16
    dd56:	0e 94 03 69 	call	0xd206	; 0xd206 <update_player>
		update_player(p2, &player2);
    dd5a:	67 e4       	ldi	r22, 0x47	; 71
    dd5c:	7f e0       	ldi	r23, 0x0F	; 15
    dd5e:	ce 01       	movw	r24, r28
    dd60:	0e 94 03 69 	call	0xd206	; 0xd206 <update_player>
    dd64:	5b c2       	rjmp	.+1206   	; 0xe21c <update_level+0x516>
	}
	else if (game.boss_fight_status == BOSS_FIGHT_SCOPE_LOADING)
    dd66:	90 91 a6 0b 	lds	r25, 0x0BA6
    dd6a:	91 30       	cpi	r25, 0x01	; 1
    dd6c:	09 f0       	breq	.+2      	; 0xdd70 <update_level+0x6a>
    dd6e:	54 c0       	rjmp	.+168    	; 0xde18 <update_level+0x112>
	{
		// Render
		record_player_posture(game.boss_fight_player);
    dd70:	80 91 b2 0b 	lds	r24, 0x0BB2
    dd74:	90 91 b3 0b 	lds	r25, 0x0BB3
    dd78:	0e 94 69 6e 	call	0xdcd2	; 0xdcd2 <record_player_posture>
		render_boss_fight_scope_load();
    dd7c:	0e 94 2d 59 	call	0xb25a	; 0xb25a <render_boss_fight_scope_load>
		p2_index = tank_map(game.boss_fight_player, p1_index);
    dd80:	60 e0       	ldi	r22, 0x00	; 0
    dd82:	80 91 b2 0b 	lds	r24, 0x0BB2
    dd86:	90 91 b3 0b 	lds	r25, 0x0BB3
    dd8a:	0e 94 b5 52 	call	0xa56a	; 0xa56a <tank_map>
    dd8e:	c8 2f       	mov	r28, r24
		MapSprite2(p2_index, map_tank_blank, 0);
    dd90:	40 e0       	ldi	r20, 0x00	; 0
    dd92:	61 e6       	ldi	r22, 0x61	; 97
    dd94:	71 e3       	ldi	r23, 0x31	; 49
    dd96:	0e 94 e6 47 	call	0x8fcc	; 0x8fcc <MapSprite2>
		p1_shot_index = p2_index + 4;
    dd9a:	cc 5f       	subi	r28, 0xFC	; 252
		p2_shot_index = shot_map(game.boss_fight_player, p1_shot_index);
    dd9c:	6c 2f       	mov	r22, r28
    dd9e:	80 91 b2 0b 	lds	r24, 0x0BB2
    dda2:	90 91 b3 0b 	lds	r25, 0x0BB3
    dda6:	0e 94 1e 53 	call	0xa63c	; 0xa63c <shot_map>
    ddaa:	d8 2f       	mov	r29, r24
		MapSprite2(p2_shot_index, map_none, 0);
    ddac:	40 e0       	ldi	r20, 0x00	; 0
    ddae:	67 e6       	ldi	r22, 0x67	; 103
    ddb0:	71 e3       	ldi	r23, 0x31	; 49
    ddb2:	0e 94 e6 47 	call	0x8fcc	; 0x8fcc <MapSprite2>
		shot_map(game.boss_fight_player, p1_shot_index);
    ddb6:	6c 2f       	mov	r22, r28
    ddb8:	80 91 b2 0b 	lds	r24, 0x0BB2
    ddbc:	90 91 b3 0b 	lds	r25, 0x0BB3
    ddc0:	0e 94 1e 53 	call	0xa63c	; 0xa63c <shot_map>
		render_player(game.boss_fight_player, p1_index);
    ddc4:	60 e0       	ldi	r22, 0x00	; 0
    ddc6:	80 91 b2 0b 	lds	r24, 0x0BB2
    ddca:	90 91 b3 0b 	lds	r25, 0x0BB3
    ddce:	0e 94 11 52 	call	0xa422	; 0xa422 <render_player>
		render_shot(game.boss_fight_player, p1_shot_index);
    ddd2:	6c 2f       	mov	r22, r28
    ddd4:	80 91 b2 0b 	lds	r24, 0x0BB2
    ddd8:	90 91 b3 0b 	lds	r25, 0x0BB3
    dddc:	0e 94 3a 52 	call	0xa474	; 0xa474 <render_shot>
		render_shot(&player2, p2_shot_index);
    dde0:	6d 2f       	mov	r22, r29
    dde2:	87 e4       	ldi	r24, 0x47	; 71
    dde4:	9f e0       	ldi	r25, 0x0F	; 15
    dde6:	0e 94 3a 52 	call	0xa474	; 0xa474 <render_shot>
		render_tile_explosions(&tile_animations);
    ddea:	87 eb       	ldi	r24, 0xB7	; 183
    ddec:	9b e0       	ldi	r25, 0x0B	; 11
    ddee:	0e 94 66 52 	call	0xa4cc	; 0xa4cc <render_tile_explosions>
		
		// Update
		update_player(game.boss_fight_joypad, game.boss_fight_player);
    ddf2:	60 91 b2 0b 	lds	r22, 0x0BB2
    ddf6:	70 91 b3 0b 	lds	r23, 0x0BB3
    ddfa:	80 91 b4 0b 	lds	r24, 0x0BB4
    ddfe:	90 91 b5 0b 	lds	r25, 0x0BB5
    de02:	0e 94 03 69 	call	0xd206	; 0xd206 <update_player>
		collision_detect_player(game.boss_fight_player, game.boss_fight_player_hud);
    de06:	60 91 a7 0b 	lds	r22, 0x0BA7
    de0a:	80 91 b2 0b 	lds	r24, 0x0BB2
    de0e:	90 91 b3 0b 	lds	r25, 0x0BB3
    de12:	0e 94 96 6a 	call	0xd52c	; 0xd52c <collision_detect_player>
    de16:	02 c2       	rjmp	.+1028   	; 0xe21c <update_level+0x516>
		
	}
	else if (game.boss_fight_status == BOSS_FIGHT_SUB_LOADING)
    de18:	92 30       	cpi	r25, 0x02	; 2
    de1a:	09 f0       	breq	.+2      	; 0xde1e <update_level+0x118>
    de1c:	42 c0       	rjmp	.+132    	; 0xdea2 <update_level+0x19c>
	{
		// Render
		record_player_posture(game.boss_fight_player);
    de1e:	80 91 b2 0b 	lds	r24, 0x0BB2
    de22:	90 91 b3 0b 	lds	r25, 0x0BB3
    de26:	0e 94 69 6e 	call	0xdcd2	; 0xdcd2 <record_player_posture>
		render_boss_fight_sub_load();
    de2a:	0e 94 40 59 	call	0xb280	; 0xb280 <render_boss_fight_sub_load>
		p2_index = tank_map(game.boss_fight_player, p1_index);
    de2e:	60 e0       	ldi	r22, 0x00	; 0
    de30:	80 91 b2 0b 	lds	r24, 0x0BB2
    de34:	90 91 b3 0b 	lds	r25, 0x0BB3
    de38:	0e 94 b5 52 	call	0xa56a	; 0xa56a <tank_map>
    de3c:	c8 2f       	mov	r28, r24
		MapSprite2(p2_index, map_tank_blank, 0);
    de3e:	40 e0       	ldi	r20, 0x00	; 0
    de40:	61 e6       	ldi	r22, 0x61	; 97
    de42:	71 e3       	ldi	r23, 0x31	; 49
    de44:	0e 94 e6 47 	call	0x8fcc	; 0x8fcc <MapSprite2>
		p1_shot_index = p2_index + 4;
    de48:	cc 5f       	subi	r28, 0xFC	; 252
		p2_shot_index = shot_map(game.boss_fight_player, p1_shot_index);
    de4a:	6c 2f       	mov	r22, r28
    de4c:	80 91 b2 0b 	lds	r24, 0x0BB2
    de50:	90 91 b3 0b 	lds	r25, 0x0BB3
    de54:	0e 94 1e 53 	call	0xa63c	; 0xa63c <shot_map>
    de58:	d8 2f       	mov	r29, r24
		MapSprite2(p2_shot_index, map_none, 0);
    de5a:	40 e0       	ldi	r20, 0x00	; 0
    de5c:	67 e6       	ldi	r22, 0x67	; 103
    de5e:	71 e3       	ldi	r23, 0x31	; 49
    de60:	0e 94 e6 47 	call	0x8fcc	; 0x8fcc <MapSprite2>
		shot_map(game.boss_fight_player, p1_shot_index);
    de64:	6c 2f       	mov	r22, r28
    de66:	80 91 b2 0b 	lds	r24, 0x0BB2
    de6a:	90 91 b3 0b 	lds	r25, 0x0BB3
    de6e:	0e 94 1e 53 	call	0xa63c	; 0xa63c <shot_map>
		render_player(game.boss_fight_player, p1_index);
    de72:	60 e0       	ldi	r22, 0x00	; 0
    de74:	80 91 b2 0b 	lds	r24, 0x0BB2
    de78:	90 91 b3 0b 	lds	r25, 0x0BB3
    de7c:	0e 94 11 52 	call	0xa422	; 0xa422 <render_player>
		render_shot(game.boss_fight_player, p1_shot_index);
    de80:	6c 2f       	mov	r22, r28
    de82:	80 91 b2 0b 	lds	r24, 0x0BB2
    de86:	90 91 b3 0b 	lds	r25, 0x0BB3
    de8a:	0e 94 3a 52 	call	0xa474	; 0xa474 <render_shot>
		render_shot(&player2, p2_shot_index);
    de8e:	6d 2f       	mov	r22, r29
    de90:	87 e4       	ldi	r24, 0x47	; 71
    de92:	9f e0       	ldi	r25, 0x0F	; 15
    de94:	0e 94 3a 52 	call	0xa474	; 0xa474 <render_shot>
		render_tile_explosions(&tile_animations);
    de98:	87 eb       	ldi	r24, 0xB7	; 183
    de9a:	9b e0       	ldi	r25, 0x0B	; 11
    de9c:	0e 94 66 52 	call	0xa4cc	; 0xa4cc <render_tile_explosions>
    dea0:	9c c0       	rjmp	.+312    	; 0xdfda <update_level+0x2d4>
		// Update
		update_player(game.boss_fight_joypad, game.boss_fight_player);
		collision_detect_player(game.boss_fight_player, game.boss_fight_player_hud);
		if (player_posture_changed(game.boss_fight_player)) send_smart_net_message(game.boss_fight_player, game.boss_fight_joypad, NETPOSCHANGE);
	}
	else if (game.boss_fight_status == BOSS_FIGHT)
    dea2:	94 30       	cpi	r25, 0x04	; 4
    dea4:	09 f0       	breq	.+2      	; 0xdea8 <update_level+0x1a2>
    dea6:	ac c0       	rjmp	.+344    	; 0xe000 <update_level+0x2fa>
	{
		
		record_player_posture(game.boss_fight_player);
    dea8:	80 91 b2 0b 	lds	r24, 0x0BB2
    deac:	90 91 b3 0b 	lds	r25, 0x0BB3
    deb0:	0e 94 69 6e 	call	0xdcd2	; 0xdcd2 <record_player_posture>
		if ((turret1.lives <= 0) && (turret2.lives <= 0))
    deb4:	80 91 40 10 	lds	r24, 0x1040
    deb8:	81 11       	cpse	r24, r1
    deba:	07 c0       	rjmp	.+14     	; 0xdeca <update_level+0x1c4>
    debc:	80 91 0c 10 	lds	r24, 0x100C
    dec0:	81 11       	cpse	r24, r1
    dec2:	03 c0       	rjmp	.+6      	; 0xdeca <update_level+0x1c4>
		{
			game.boss_fight_status = BOSS_FIGHT_SUB_SINKING;
    dec4:	80 e2       	ldi	r24, 0x20	; 32
    dec6:	80 93 a6 0b 	sts	0x0BA6, r24
		}
		
		// Render
		p1_shot_index = tank_map(game.boss_fight_player, p1_index);
    deca:	60 e0       	ldi	r22, 0x00	; 0
    decc:	80 91 b2 0b 	lds	r24, 0x0BB2
    ded0:	90 91 b3 0b 	lds	r25, 0x0BB3
    ded4:	0e 94 b5 52 	call	0xa56a	; 0xa56a <tank_map>
    ded8:	f8 2e       	mov	r15, r24
		t1_index = shot_map(game.boss_fight_player, p1_shot_index);
    deda:	68 2f       	mov	r22, r24
    dedc:	80 91 b2 0b 	lds	r24, 0x0BB2
    dee0:	90 91 b3 0b 	lds	r25, 0x0BB3
    dee4:	0e 94 1e 53 	call	0xa63c	; 0xa63c <shot_map>
    dee8:	c8 2f       	mov	r28, r24
		t1_shot_index = t1_index+1;
    deea:	01 e0       	ldi	r16, 0x01	; 1
    deec:	08 0f       	add	r16, r24
		t2_index = t1_index+2;
    deee:	12 e0       	ldi	r17, 0x02	; 2
    def0:	18 0f       	add	r17, r24
		t2_shot_index = t1_index+3;
    def2:	d3 e0       	ldi	r29, 0x03	; 3
    def4:	d8 0f       	add	r29, r24
	}
}

char* turret_map(Turret* t)
{
	if (t->lives <= 0) return (char*) map_none;
    def6:	80 91 40 10 	lds	r24, 0x1040
    defa:	88 23       	and	r24, r24
    defc:	19 f0       	breq	.+6      	; 0xdf04 <update_level+0x1fe>
	return (char*) map_sub_turret;
    defe:	69 e1       	ldi	r22, 0x19	; 25
    df00:	71 e3       	ldi	r23, 0x31	; 49
    df02:	02 c0       	rjmp	.+4      	; 0xdf08 <update_level+0x202>
	}
}

char* turret_map(Turret* t)
{
	if (t->lives <= 0) return (char*) map_none;
    df04:	67 e6       	ldi	r22, 0x67	; 103
    df06:	71 e3       	ldi	r23, 0x31	; 49
		p1_shot_index = tank_map(game.boss_fight_player, p1_index);
		t1_index = shot_map(game.boss_fight_player, p1_shot_index);
		t1_shot_index = t1_index+1;
		t2_index = t1_index+2;
		t2_shot_index = t1_index+3;
		MapSprite2(t1_index, turret_map(&turret1), 0);
    df08:	40 e0       	ldi	r20, 0x00	; 0
    df0a:	8c 2f       	mov	r24, r28
    df0c:	0e 94 e6 47 	call	0x8fcc	; 0x8fcc <MapSprite2>
	return (char*) map_sub_turret;
}

char* turret_shot_map(Turret* t)
{
	if (t->lives <= 0) return (char*) map_none;
    df10:	80 91 40 10 	lds	r24, 0x1040
    df14:	88 23       	and	r24, r24
    df16:	19 f0       	breq	.+6      	; 0xdf1e <update_level+0x218>
	return (char*) map_sub_shot;
    df18:	6c e1       	ldi	r22, 0x1C	; 28
    df1a:	71 e3       	ldi	r23, 0x31	; 49
    df1c:	02 c0       	rjmp	.+4      	; 0xdf22 <update_level+0x21c>
	return (char*) map_sub_turret;
}

char* turret_shot_map(Turret* t)
{
	if (t->lives <= 0) return (char*) map_none;
    df1e:	67 e6       	ldi	r22, 0x67	; 103
    df20:	71 e3       	ldi	r23, 0x31	; 49
		t1_index = shot_map(game.boss_fight_player, p1_shot_index);
		t1_shot_index = t1_index+1;
		t2_index = t1_index+2;
		t2_shot_index = t1_index+3;
		MapSprite2(t1_index, turret_map(&turret1), 0);
		MapSprite2(t1_shot_index, turret_shot_map(&turret1), 0);
    df22:	40 e0       	ldi	r20, 0x00	; 0
    df24:	80 2f       	mov	r24, r16
    df26:	0e 94 e6 47 	call	0x8fcc	; 0x8fcc <MapSprite2>
	}
}

char* turret_map(Turret* t)
{
	if (t->lives <= 0) return (char*) map_none;
    df2a:	80 91 0c 10 	lds	r24, 0x100C
    df2e:	88 23       	and	r24, r24
    df30:	19 f0       	breq	.+6      	; 0xdf38 <update_level+0x232>
	return (char*) map_sub_turret;
    df32:	69 e1       	ldi	r22, 0x19	; 25
    df34:	71 e3       	ldi	r23, 0x31	; 49
    df36:	02 c0       	rjmp	.+4      	; 0xdf3c <update_level+0x236>
	}
}

char* turret_map(Turret* t)
{
	if (t->lives <= 0) return (char*) map_none;
    df38:	67 e6       	ldi	r22, 0x67	; 103
    df3a:	71 e3       	ldi	r23, 0x31	; 49
		t1_shot_index = t1_index+1;
		t2_index = t1_index+2;
		t2_shot_index = t1_index+3;
		MapSprite2(t1_index, turret_map(&turret1), 0);
		MapSprite2(t1_shot_index, turret_shot_map(&turret1), 0);
		MapSprite2(t2_index, turret_map(&turret2), 0);
    df3c:	40 e0       	ldi	r20, 0x00	; 0
    df3e:	81 2f       	mov	r24, r17
    df40:	0e 94 e6 47 	call	0x8fcc	; 0x8fcc <MapSprite2>
	return (char*) map_sub_turret;
}

char* turret_shot_map(Turret* t)
{
	if (t->lives <= 0) return (char*) map_none;
    df44:	80 91 0c 10 	lds	r24, 0x100C
    df48:	88 23       	and	r24, r24
    df4a:	19 f0       	breq	.+6      	; 0xdf52 <update_level+0x24c>
	return (char*) map_sub_shot;
    df4c:	6c e1       	ldi	r22, 0x1C	; 28
    df4e:	71 e3       	ldi	r23, 0x31	; 49
    df50:	02 c0       	rjmp	.+4      	; 0xdf56 <update_level+0x250>
	return (char*) map_sub_turret;
}

char* turret_shot_map(Turret* t)
{
	if (t->lives <= 0) return (char*) map_none;
    df52:	67 e6       	ldi	r22, 0x67	; 103
    df54:	71 e3       	ldi	r23, 0x31	; 49
		t2_index = t1_index+2;
		t2_shot_index = t1_index+3;
		MapSprite2(t1_index, turret_map(&turret1), 0);
		MapSprite2(t1_shot_index, turret_shot_map(&turret1), 0);
		MapSprite2(t2_index, turret_map(&turret2), 0);
		MapSprite2(t2_shot_index, turret_shot_map(&turret2), 0);
    df56:	40 e0       	ldi	r20, 0x00	; 0
    df58:	8d 2f       	mov	r24, r29
    df5a:	0e 94 e6 47 	call	0x8fcc	; 0x8fcc <MapSprite2>
		
		render_player(game.boss_fight_player, p1_index);
    df5e:	60 e0       	ldi	r22, 0x00	; 0
    df60:	80 91 b2 0b 	lds	r24, 0x0BB2
    df64:	90 91 b3 0b 	lds	r25, 0x0BB3
    df68:	0e 94 11 52 	call	0xa422	; 0xa422 <render_player>
		render_shot(game.boss_fight_player, p1_shot_index);
    df6c:	6f 2d       	mov	r22, r15
    df6e:	80 91 b2 0b 	lds	r24, 0x0BB2
    df72:	90 91 b3 0b 	lds	r25, 0x0BB3
    df76:	0e 94 3a 52 	call	0xa474	; 0xa474 <render_shot>
		render_tile_explosions(&tile_animations);
    df7a:	87 eb       	ldi	r24, 0xB7	; 183
    df7c:	9b e0       	ldi	r25, 0x0B	; 11
    df7e:	0e 94 66 52 	call	0xa4cc	; 0xa4cc <render_tile_explosions>
		render_boss_turret(&turret1, t1_index);
    df82:	6c 2f       	mov	r22, r28
    df84:	85 e3       	ldi	r24, 0x35	; 53
    df86:	90 e1       	ldi	r25, 0x10	; 16
    df88:	0e 94 82 59 	call	0xb304	; 0xb304 <render_boss_turret>
		render_boss_turret_shot(&turret1, t1_shot_index);
    df8c:	60 2f       	mov	r22, r16
    df8e:	85 e3       	ldi	r24, 0x35	; 53
    df90:	90 e1       	ldi	r25, 0x10	; 16
    df92:	0e 94 ab 59 	call	0xb356	; 0xb356 <render_boss_turret_shot>
		render_boss_turret(&turret2, t2_index);
    df96:	61 2f       	mov	r22, r17
    df98:	81 e0       	ldi	r24, 0x01	; 1
    df9a:	90 e1       	ldi	r25, 0x10	; 16
    df9c:	0e 94 82 59 	call	0xb304	; 0xb304 <render_boss_turret>
		render_boss_turret_shot(&turret2, t2_shot_index);
    dfa0:	6d 2f       	mov	r22, r29
    dfa2:	81 e0       	ldi	r24, 0x01	; 1
    dfa4:	90 e1       	ldi	r25, 0x10	; 16
    dfa6:	0e 94 ab 59 	call	0xb356	; 0xb356 <render_boss_turret_shot>
		
		// Update
		update_turret(&turret1, BOSS_TURRET_1_LEFT_LIMIT, BOSS_TURRET_1_RIGHT_LIMIT);
    dfaa:	40 e6       	ldi	r20, 0x60	; 96
    dfac:	68 e2       	ldi	r22, 0x28	; 40
    dfae:	85 e3       	ldi	r24, 0x35	; 53
    dfb0:	90 e1       	ldi	r25, 0x10	; 16
    dfb2:	0e 94 d4 59 	call	0xb3a8	; 0xb3a8 <update_turret>
		update_turret(&turret2, BOSS_TURRET_2_LEFT_LIMIT, BOSS_TURRET_2_RIGHT_LIMIT);
    dfb6:	40 ec       	ldi	r20, 0xC0	; 192
    dfb8:	68 e8       	ldi	r22, 0x88	; 136
    dfba:	81 e0       	ldi	r24, 0x01	; 1
    dfbc:	90 e1       	ldi	r25, 0x10	; 16
    dfbe:	0e 94 d4 59 	call	0xb3a8	; 0xb3a8 <update_turret>
		update_turret_shot(&turret1, &turret1.shot[0]);
    dfc2:	61 e4       	ldi	r22, 0x41	; 65
    dfc4:	70 e1       	ldi	r23, 0x10	; 16
    dfc6:	85 e3       	ldi	r24, 0x35	; 53
    dfc8:	90 e1       	ldi	r25, 0x10	; 16
    dfca:	0e 94 57 6c 	call	0xd8ae	; 0xd8ae <update_turret_shot>
		update_turret_shot(&turret2, &turret2.shot[0]);
    dfce:	6d e0       	ldi	r22, 0x0D	; 13
    dfd0:	70 e1       	ldi	r23, 0x10	; 16
    dfd2:	81 e0       	ldi	r24, 0x01	; 1
    dfd4:	90 e1       	ldi	r25, 0x10	; 16
    dfd6:	0e 94 57 6c 	call	0xd8ae	; 0xd8ae <update_turret_shot>
		update_player(game.boss_fight_joypad, game.boss_fight_player);
    dfda:	60 91 b2 0b 	lds	r22, 0x0BB2
    dfde:	70 91 b3 0b 	lds	r23, 0x0BB3
    dfe2:	80 91 b4 0b 	lds	r24, 0x0BB4
    dfe6:	90 91 b5 0b 	lds	r25, 0x0BB5
    dfea:	0e 94 03 69 	call	0xd206	; 0xd206 <update_player>
		collision_detect_player(game.boss_fight_player, game.boss_fight_player_hud);
    dfee:	60 91 a7 0b 	lds	r22, 0x0BA7
    dff2:	80 91 b2 0b 	lds	r24, 0x0BB2
    dff6:	90 91 b3 0b 	lds	r25, 0x0BB3
    dffa:	0e 94 96 6a 	call	0xd52c	; 0xd52c <collision_detect_player>
    dffe:	5c c0       	rjmp	.+184    	; 0xe0b8 <update_level+0x3b2>
		if (player_posture_changed(game.boss_fight_player)) send_smart_net_message(game.boss_fight_player, game.boss_fight_joypad, NETPOSCHANGE);
	}
	else if (game.boss_fight_status == BOSS_FIGHT_SUB_SINKING)
    e000:	90 32       	cpi	r25, 0x20	; 32
    e002:	09 f0       	breq	.+2      	; 0xe006 <update_level+0x300>
    e004:	6a c0       	rjmp	.+212    	; 0xe0da <update_level+0x3d4>
	{
		// Render
		record_player_posture(game.boss_fight_player);
    e006:	80 91 b2 0b 	lds	r24, 0x0BB2
    e00a:	90 91 b3 0b 	lds	r25, 0x0BB3
    e00e:	0e 94 69 6e 	call	0xdcd2	; 0xdcd2 <record_player_posture>
		render_boss_fight_sub_sinking();
    e012:	0e 94 6d 59 	call	0xb2da	; 0xb2da <render_boss_fight_sub_sinking>
		p2_index = tank_map(game.boss_fight_player, p1_index);
    e016:	60 e0       	ldi	r22, 0x00	; 0
    e018:	80 91 b2 0b 	lds	r24, 0x0BB2
    e01c:	90 91 b3 0b 	lds	r25, 0x0BB3
    e020:	0e 94 b5 52 	call	0xa56a	; 0xa56a <tank_map>
    e024:	c8 2f       	mov	r28, r24
		MapSprite2(p2_index, map_tank_blank, 0);
    e026:	40 e0       	ldi	r20, 0x00	; 0
    e028:	61 e6       	ldi	r22, 0x61	; 97
    e02a:	71 e3       	ldi	r23, 0x31	; 49
    e02c:	0e 94 e6 47 	call	0x8fcc	; 0x8fcc <MapSprite2>
		p1_shot_index = p2_index + 4;
    e030:	cc 5f       	subi	r28, 0xFC	; 252
		p2_shot_index = shot_map(game.boss_fight_player, p1_shot_index);
    e032:	6c 2f       	mov	r22, r28
    e034:	80 91 b2 0b 	lds	r24, 0x0BB2
    e038:	90 91 b3 0b 	lds	r25, 0x0BB3
    e03c:	0e 94 1e 53 	call	0xa63c	; 0xa63c <shot_map>
    e040:	d8 2f       	mov	r29, r24
		MapSprite2(p2_shot_index, map_none, 0);
    e042:	40 e0       	ldi	r20, 0x00	; 0
    e044:	67 e6       	ldi	r22, 0x67	; 103
    e046:	71 e3       	ldi	r23, 0x31	; 49
    e048:	0e 94 e6 47 	call	0x8fcc	; 0x8fcc <MapSprite2>
		shot_map(game.boss_fight_player, p1_shot_index);
    e04c:	6c 2f       	mov	r22, r28
    e04e:	80 91 b2 0b 	lds	r24, 0x0BB2
    e052:	90 91 b3 0b 	lds	r25, 0x0BB3
    e056:	0e 94 1e 53 	call	0xa63c	; 0xa63c <shot_map>
		render_player(game.boss_fight_player, p1_index);
    e05a:	60 e0       	ldi	r22, 0x00	; 0
    e05c:	80 91 b2 0b 	lds	r24, 0x0BB2
    e060:	90 91 b3 0b 	lds	r25, 0x0BB3
    e064:	0e 94 11 52 	call	0xa422	; 0xa422 <render_player>
		render_shot(game.boss_fight_player, p1_shot_index);
    e068:	6c 2f       	mov	r22, r28
    e06a:	80 91 b2 0b 	lds	r24, 0x0BB2
    e06e:	90 91 b3 0b 	lds	r25, 0x0BB3
    e072:	0e 94 3a 52 	call	0xa474	; 0xa474 <render_shot>
		render_shot(&player2, p2_shot_index);
    e076:	6d 2f       	mov	r22, r29
    e078:	87 e4       	ldi	r24, 0x47	; 71
    e07a:	9f e0       	ldi	r25, 0x0F	; 15
    e07c:	0e 94 3a 52 	call	0xa474	; 0xa474 <render_shot>
		render_tile_explosions(&tile_animations);
    e080:	87 eb       	ldi	r24, 0xB7	; 183
    e082:	9b e0       	ldi	r25, 0x0B	; 11
    e084:	0e 94 66 52 	call	0xa4cc	; 0xa4cc <render_tile_explosions>
		
		// Update
		update_player(game.boss_fight_joypad, game.boss_fight_player);
    e088:	60 91 b2 0b 	lds	r22, 0x0BB2
    e08c:	70 91 b3 0b 	lds	r23, 0x0BB3
    e090:	80 91 b4 0b 	lds	r24, 0x0BB4
    e094:	90 91 b5 0b 	lds	r25, 0x0BB5
    e098:	0e 94 03 69 	call	0xd206	; 0xd206 <update_player>
		collision_detect_player(game.boss_fight_player, game.boss_fight_player_hud);
    e09c:	60 91 a7 0b 	lds	r22, 0x0BA7
    e0a0:	80 91 b2 0b 	lds	r24, 0x0BB2
    e0a4:	90 91 b3 0b 	lds	r25, 0x0BB3
    e0a8:	0e 94 96 6a 	call	0xd52c	; 0xd52c <collision_detect_player>
		if (game.boss_fight_status != BOSS_FIGHT_SUB_SINKING)
    e0ac:	80 91 a6 0b 	lds	r24, 0x0BA6
    e0b0:	80 32       	cpi	r24, 0x20	; 32
    e0b2:	11 f0       	breq	.+4      	; 0xe0b8 <update_level+0x3b2>
		{
			resolve_scoring();
    e0b4:	0e 94 5d 5b 	call	0xb6ba	; 0xb6ba <resolve_scoring>
		}
		if (player_posture_changed(game.boss_fight_player)) send_smart_net_message(game.boss_fight_player, game.boss_fight_joypad, NETPOSCHANGE);
    e0b8:	c0 91 b2 0b 	lds	r28, 0x0BB2
    e0bc:	d0 91 b3 0b 	lds	r29, 0x0BB3
    e0c0:	ce 01       	movw	r24, r28
    e0c2:	0e 94 71 6e 	call	0xdce2	; 0xdce2 <player_posture_changed>
    e0c6:	88 23       	and	r24, r24
    e0c8:	09 f4       	brne	.+2      	; 0xe0cc <update_level+0x3c6>
    e0ca:	a8 c0       	rjmp	.+336    	; 0xe21c <update_level+0x516>
    e0cc:	60 91 b4 0b 	lds	r22, 0x0BB4
    e0d0:	70 91 b5 0b 	lds	r23, 0x0BB5
    e0d4:	46 e0       	ldi	r20, 0x06	; 6
    e0d6:	ce 01       	movw	r24, r28
    e0d8:	9f c0       	rjmp	.+318    	; 0xe218 <update_level+0x512>
	}
	else if (game.boss_fight_status == BOSS_FIGHT_LOST)
    e0da:	90 31       	cpi	r25, 0x10	; 16
    e0dc:	19 f4       	brne	.+6      	; 0xe0e4 <update_level+0x3de>
	{
		resolve_scoring();
    e0de:	0e 94 5d 5b 	call	0xb6ba	; 0xb6ba <resolve_scoring>
    e0e2:	9c c0       	rjmp	.+312    	; 0xe21c <update_level+0x516>
	}
	else if (game.boss_fight_status == 0)
    e0e4:	91 11       	cpse	r25, r1
    e0e6:	9a c0       	rjmp	.+308    	; 0xe21c <update_level+0x516>
	{
		record_player_posture(&player1);
    e0e8:	85 ed       	ldi	r24, 0xD5	; 213
    e0ea:	9b e0       	ldi	r25, 0x0B	; 11
    e0ec:	0e 94 69 6e 	call	0xdcd2	; 0xdcd2 <record_player_posture>
		record_player_posture(&player2);
    e0f0:	87 e4       	ldi	r24, 0x47	; 71
    e0f2:	9f e0       	ldi	r25, 0x0F	; 15
    e0f4:	0e 94 69 6e 	call	0xdcd2	; 0xdcd2 <record_player_posture>
		p2_index = tank_map(&player1, p1_index);
    e0f8:	60 e0       	ldi	r22, 0x00	; 0
    e0fa:	85 ed       	ldi	r24, 0xD5	; 213
    e0fc:	9b e0       	ldi	r25, 0x0B	; 11
    e0fe:	0e 94 b5 52 	call	0xa56a	; 0xa56a <tank_map>
    e102:	d8 2e       	mov	r13, r24
		p1_shot_index = tank_map(&player2, p2_index);
    e104:	68 2f       	mov	r22, r24
    e106:	87 e4       	ldi	r24, 0x47	; 71
    e108:	9f e0       	ldi	r25, 0x0F	; 15
    e10a:	0e 94 b5 52 	call	0xa56a	; 0xa56a <tank_map>
    e10e:	e8 2e       	mov	r14, r24
		p2_shot_index = shot_map(&player1, p1_shot_index);
    e110:	68 2f       	mov	r22, r24
    e112:	85 ed       	ldi	r24, 0xD5	; 213
    e114:	9b e0       	ldi	r25, 0x0B	; 11
    e116:	0e 94 1e 53 	call	0xa63c	; 0xa63c <shot_map>
    e11a:	f8 2e       	mov	r15, r24
		shot_map(&player2, p2_shot_index);
    e11c:	68 2f       	mov	r22, r24
    e11e:	87 e4       	ldi	r24, 0x47	; 71
    e120:	9f e0       	ldi	r25, 0x0F	; 15
    e122:	0e 94 1e 53 	call	0xa63c	; 0xa63c <shot_map>
		render_player(&player1, p1_index);
    e126:	60 e0       	ldi	r22, 0x00	; 0
    e128:	85 ed       	ldi	r24, 0xD5	; 213
    e12a:	9b e0       	ldi	r25, 0x0B	; 11
    e12c:	0e 94 11 52 	call	0xa422	; 0xa422 <render_player>
		render_player(&player2, p2_index);
    e130:	6d 2d       	mov	r22, r13
    e132:	87 e4       	ldi	r24, 0x47	; 71
    e134:	9f e0       	ldi	r25, 0x0F	; 15
    e136:	0e 94 11 52 	call	0xa422	; 0xa422 <render_player>
		render_shot(&player1, p1_shot_index);
    e13a:	6e 2d       	mov	r22, r14
    e13c:	85 ed       	ldi	r24, 0xD5	; 213
    e13e:	9b e0       	ldi	r25, 0x0B	; 11
    e140:	0e 94 3a 52 	call	0xa474	; 0xa474 <render_shot>
		render_shot(&player2, p2_shot_index);
    e144:	6f 2d       	mov	r22, r15
    e146:	87 e4       	ldi	r24, 0x47	; 71
    e148:	9f e0       	ldi	r25, 0x0F	; 15
    e14a:	0e 94 3a 52 	call	0xa474	; 0xa474 <render_shot>
		render_tile_explosions(&tile_animations);
    e14e:	87 eb       	ldi	r24, 0xB7	; 183
    e150:	9b e0       	ldi	r25, 0x0B	; 11
    e152:	0e 94 66 52 	call	0xa4cc	; 0xa4cc <render_tile_explosions>
		if (game.scope_counter > SCOPE_REVEAL && scope_animation.tile_index > 0)
    e156:	80 91 ae 0b 	lds	r24, 0x0BAE
    e15a:	90 91 af 0b 	lds	r25, 0x0BAF
    e15e:	89 3e       	cpi	r24, 0xE9	; 233
    e160:	93 40       	sbci	r25, 0x03	; 3
    e162:	88 f0       	brcs	.+34     	; 0xe186 <update_level+0x480>
    e164:	80 91 dd 0f 	lds	r24, 0x0FDD
    e168:	90 91 de 0f 	lds	r25, 0x0FDE
    e16c:	18 16       	cp	r1, r24
    e16e:	19 06       	cpc	r1, r25
    e170:	54 f4       	brge	.+20     	; 0xe186 <update_level+0x480>
		{
			if (render_scope(&scope_animation)) game.scope_counter = 0;
    e172:	81 ed       	ldi	r24, 0xD1	; 209
    e174:	9f e0       	ldi	r25, 0x0F	; 15
    e176:	0e 94 9b 52 	call	0xa536	; 0xa536 <render_scope>
    e17a:	88 23       	and	r24, r24
    e17c:	21 f0       	breq	.+8      	; 0xe186 <update_level+0x480>
    e17e:	10 92 af 0b 	sts	0x0BAF, r1
    e182:	10 92 ae 0b 	sts	0x0BAE, r1
		}
		game.scope_counter++;
    e186:	80 91 ae 0b 	lds	r24, 0x0BAE
    e18a:	90 91 af 0b 	lds	r25, 0x0BAF
    e18e:	01 96       	adiw	r24, 0x01	; 1
    e190:	90 93 af 0b 	sts	0x0BAF, r25
    e194:	80 93 ae 0b 	sts	0x0BAE, r24
		
		// Update
		update_player(p1, &player1);
    e198:	65 ed       	ldi	r22, 0xD5	; 213
    e19a:	7b e0       	ldi	r23, 0x0B	; 11
    e19c:	c8 01       	movw	r24, r16
    e19e:	0e 94 03 69 	call	0xd206	; 0xd206 <update_player>
		update_player(p2, &player2);
    e1a2:	67 e4       	ldi	r22, 0x47	; 71
    e1a4:	7f e0       	ldi	r23, 0x0F	; 15
    e1a6:	ce 01       	movw	r24, r28
    e1a8:	0e 94 03 69 	call	0xd206	; 0xd206 <update_player>
		resolve_scoring();
    e1ac:	0e 94 5d 5b 	call	0xb6ba	; 0xb6ba <resolve_scoring>
		if (collision_detect_player(&player1, 0)) explode_player(&player1, &player2, 0, 15);
    e1b0:	60 e0       	ldi	r22, 0x00	; 0
    e1b2:	85 ed       	ldi	r24, 0xD5	; 213
    e1b4:	9b e0       	ldi	r25, 0x0B	; 11
    e1b6:	0e 94 96 6a 	call	0xd52c	; 0xd52c <collision_detect_player>
    e1ba:	88 23       	and	r24, r24
    e1bc:	41 f0       	breq	.+16     	; 0xe1ce <update_level+0x4c8>
    e1be:	2f e0       	ldi	r18, 0x0F	; 15
    e1c0:	40 e0       	ldi	r20, 0x00	; 0
    e1c2:	67 e4       	ldi	r22, 0x47	; 71
    e1c4:	7f e0       	ldi	r23, 0x0F	; 15
    e1c6:	85 ed       	ldi	r24, 0xD5	; 213
    e1c8:	9b e0       	ldi	r25, 0x0B	; 11
    e1ca:	0e 94 f8 56 	call	0xadf0	; 0xadf0 <explode_player>
		if (collision_detect_player(&player2, 15)) explode_player(&player2, &player1, 15, 0);
    e1ce:	6f e0       	ldi	r22, 0x0F	; 15
    e1d0:	87 e4       	ldi	r24, 0x47	; 71
    e1d2:	9f e0       	ldi	r25, 0x0F	; 15
    e1d4:	0e 94 96 6a 	call	0xd52c	; 0xd52c <collision_detect_player>
    e1d8:	88 23       	and	r24, r24
    e1da:	41 f0       	breq	.+16     	; 0xe1ec <update_level+0x4e6>
    e1dc:	20 e0       	ldi	r18, 0x00	; 0
    e1de:	4f e0       	ldi	r20, 0x0F	; 15
    e1e0:	65 ed       	ldi	r22, 0xD5	; 213
    e1e2:	7b e0       	ldi	r23, 0x0B	; 11
    e1e4:	87 e4       	ldi	r24, 0x47	; 71
    e1e6:	9f e0       	ldi	r25, 0x0F	; 15
    e1e8:	0e 94 f8 56 	call	0xadf0	; 0xadf0 <explode_player>
		if (player_posture_changed(&player1)) send_smart_net_message(&player1, p1, NETPOSCHANGE);
    e1ec:	85 ed       	ldi	r24, 0xD5	; 213
    e1ee:	9b e0       	ldi	r25, 0x0B	; 11
    e1f0:	0e 94 71 6e 	call	0xdce2	; 0xdce2 <player_posture_changed>
    e1f4:	88 23       	and	r24, r24
    e1f6:	31 f0       	breq	.+12     	; 0xe204 <update_level+0x4fe>
    e1f8:	46 e0       	ldi	r20, 0x06	; 6
    e1fa:	b8 01       	movw	r22, r16
    e1fc:	85 ed       	ldi	r24, 0xD5	; 213
    e1fe:	9b e0       	ldi	r25, 0x0B	; 11
    e200:	0e 94 5e 65 	call	0xcabc	; 0xcabc <send_smart_net_message>
		if (player_posture_changed(&player2)) send_smart_net_message(&player2, p2, NETPOSCHANGE);
    e204:	87 e4       	ldi	r24, 0x47	; 71
    e206:	9f e0       	ldi	r25, 0x0F	; 15
    e208:	0e 94 71 6e 	call	0xdce2	; 0xdce2 <player_posture_changed>
    e20c:	88 23       	and	r24, r24
    e20e:	31 f0       	breq	.+12     	; 0xe21c <update_level+0x516>
    e210:	46 e0       	ldi	r20, 0x06	; 6
    e212:	be 01       	movw	r22, r28
    e214:	87 e4       	ldi	r24, 0x47	; 71
    e216:	9f e0       	ldi	r25, 0x0F	; 15
    e218:	0e 94 5e 65 	call	0xcabc	; 0xcabc <send_smart_net_message>
	}
	
	if (game.selection == CPUVCPU) 
    e21c:	80 91 b6 0b 	lds	r24, 0x0BB6
    e220:	86 30       	cpi	r24, 0x06	; 6
    e222:	71 f5       	brne	.+92     	; 0xe280 <update_level+0x57a>
	{
		game.demo_counter++;
    e224:	80 91 ac 0b 	lds	r24, 0x0BAC
    e228:	90 91 ad 0b 	lds	r25, 0x0BAD
    e22c:	01 96       	adiw	r24, 0x01	; 1
    e22e:	90 93 ad 0b 	sts	0x0BAD, r25
    e232:	80 93 ac 0b 	sts	0x0BAC, r24
		held = ReadJoypad(0);
    e236:	80 e0       	ldi	r24, 0x00	; 0
    e238:	0e 94 61 3a 	call	0x74c2	; 0x74c2 <ReadJoypad>
		if (ReadJoypad(0) || ReadJoypad(1) || (game.demo_counter >= DEMO_LENGTH))
    e23c:	80 e0       	ldi	r24, 0x00	; 0
    e23e:	0e 94 61 3a 	call	0x74c2	; 0x74c2 <ReadJoypad>
    e242:	89 2b       	or	r24, r25
    e244:	89 f0       	breq	.+34     	; 0xe268 <update_level+0x562>
				load_splash();
			} else {
				exit_game();
			}
#else
			game.demo_counter = 0;
    e246:	10 92 ad 0b 	sts	0x0BAD, r1
    e24a:	10 92 ac 0b 	sts	0x0BAC, r1
			fade_through();
    e24e:	0e 94 0c 50 	call	0xa018	; 0xa018 <fade_through>
			init_game_state();
    e252:	0e 94 a3 4f 	call	0x9f46	; 0x9f46 <init_game_state>
			load_splash();
#endif
		}
	}
}
    e256:	df 91       	pop	r29
    e258:	cf 91       	pop	r28
    e25a:	1f 91       	pop	r17
    e25c:	0f 91       	pop	r16
    e25e:	ff 90       	pop	r15
    e260:	ef 90       	pop	r14
    e262:	df 90       	pop	r13
			}
#else
			game.demo_counter = 0;
			fade_through();
			init_game_state();
			load_splash();
    e264:	0c 94 66 5a 	jmp	0xb4cc	; 0xb4cc <load_splash>
	
	if (game.selection == CPUVCPU) 
	{
		game.demo_counter++;
		held = ReadJoypad(0);
		if (ReadJoypad(0) || ReadJoypad(1) || (game.demo_counter >= DEMO_LENGTH))
    e268:	81 e0       	ldi	r24, 0x01	; 1
    e26a:	0e 94 61 3a 	call	0x74c2	; 0x74c2 <ReadJoypad>
    e26e:	89 2b       	or	r24, r25
    e270:	51 f7       	brne	.-44     	; 0xe246 <update_level+0x540>
    e272:	80 91 ac 0b 	lds	r24, 0x0BAC
    e276:	90 91 ad 0b 	lds	r25, 0x0BAD
    e27a:	88 30       	cpi	r24, 0x08	; 8
    e27c:	97 40       	sbci	r25, 0x07	; 7
    e27e:	18 f7       	brcc	.-58     	; 0xe246 <update_level+0x540>
			init_game_state();
			load_splash();
#endif
		}
	}
}
    e280:	df 91       	pop	r29
    e282:	cf 91       	pop	r28
    e284:	1f 91       	pop	r17
    e286:	0f 91       	pop	r16
    e288:	ff 90       	pop	r15
    e28a:	ef 90       	pop	r14
    e28c:	df 90       	pop	r13
    e28e:	08 95       	ret

0000e290 <main>:
}

int main()
{
	// Initialize
    GetPrngNumber(GetTrueRandomSeed());
    e290:	0e 94 af 3a 	call	0x755e	; 0x755e <GetTrueRandomSeed>
    e294:	0e 94 6a 3c 	call	0x78d4	; 0x78d4 <GetPrngNumber>
	InitMusicPlayer(my_patches);
    e298:	85 e5       	ldi	r24, 0x55	; 85
    e29a:	95 e0       	ldi	r25, 0x05	; 5
    e29c:	0e 94 44 3d 	call	0x7a88	; 0x7a88 <InitMusicPlayer>
	SetMasterVolume(0xff);
    e2a0:	8f ef       	ldi	r24, 0xFF	; 255
    e2a2:	0e 94 92 40 	call	0x8124	; 0x8124 <SetMasterVolume>
	SetTileTable(tiles_data);
    e2a6:	8a e6       	ldi	r24, 0x6A	; 106
    e2a8:	91 e3       	ldi	r25, 0x31	; 49
    e2aa:	0e 94 48 3a 	call	0x7490	; 0x7490 <SetTileTable>
	SetSpritesTileTable(sprites_data);
    e2ae:	89 ed       	ldi	r24, 0xD9	; 217
    e2b0:	97 e2       	ldi	r25, 0x27	; 39
    e2b2:	0e 94 24 3a 	call	0x7448	; 0x7448 <SetSpritesTileTable>
	SetFontTilesIndex(TILES_DATA_SIZE);
    e2b6:	8b e9       	ldi	r24, 0x9B	; 155
    e2b8:	0e 94 45 3a 	call	0x748a	; 0x748a <SetFontTilesIndex>
	FadeIn(FRAMES_PER_FADE, false);
    e2bc:	60 e0       	ldi	r22, 0x00	; 0
    e2be:	83 e0       	ldi	r24, 0x03	; 3
    e2c0:	0e 94 2f 49 	call	0x925e	; 0x925e <FadeIn>
	ClearVram();
    e2c4:	0e 94 29 3a 	call	0x7452	; 0x7452 <ClearVram>
#if JAMMA
	read_dip_switches();
#endif
	init_scores(&scores);
    e2c8:	86 e5       	ldi	r24, 0x56	; 86
    e2ca:	9b e0       	ldi	r25, 0x0B	; 11
    e2cc:	0e 94 3e 4e 	call	0x9c7c	; 0x9c7c <init_scores>
	init_handles(&handles);
    e2d0:	83 e8       	ldi	r24, 0x83	; 131
    e2d2:	9b e0       	ldi	r25, 0x0B	; 11
    e2d4:	0e 94 4a 4e 	call	0x9c94	; 0x9c94 <init_handles>
	init_game_state();
    e2d8:	0e 94 a3 4f 	call	0x9f46	; 0x9f46 <init_game_state>
	load_credits();
    e2dc:	0e 94 bb 64 	call	0xc976	; 0xc976 <load_credits>
	load_splash();
    e2e0:	0e 94 66 5a 	call	0xb4cc	; 0xb4cc <load_splash>
	
	while (1)
	{
		waitForVSync();
    e2e4:	0e 94 f2 4f 	call	0x9fe4	; 0x9fe4 <waitForVSync>
		get_net_message();
    e2e8:	0e 94 71 65 	call	0xcae2	; 0xcae2 <get_net_message>
		switch (game.current_screen)
    e2ec:	80 91 a3 0b 	lds	r24, 0x0BA3
    e2f0:	82 30       	cpi	r24, 0x02	; 2
    e2f2:	71 f1       	breq	.+92     	; 0xe350 <main+0xc0>
    e2f4:	78 f4       	brcc	.+30     	; 0xe314 <main+0x84>
    e2f6:	88 23       	and	r24, r24
    e2f8:	f9 f0       	breq	.+62     	; 0xe338 <main+0xa8>
    e2fa:	81 30       	cpi	r24, 0x01	; 1
    e2fc:	09 f0       	breq	.+2      	; 0xe300 <main+0x70>
    e2fe:	e2 c0       	rjmp	.+452    	; 0xe4c4 <main+0x234>
			case SPLASH:
				LBGetJoyPadState(&p1, 0);
				update_splash(&p1, &p2);
				break;
			case TANK_RANK:
				LBGetJoyPadState(&p1, 0);
    e300:	60 e0       	ldi	r22, 0x00	; 0
    e302:	81 e5       	ldi	r24, 0x51	; 81
    e304:	9c e0       	ldi	r25, 0x0C	; 12
    e306:	0e 94 4b 4c 	call	0x9896	; 0x9896 <LBGetJoyPadState>
				update_tank_rank(&p1);
    e30a:	81 e5       	ldi	r24, 0x51	; 81
    e30c:	9c e0       	ldi	r25, 0x0C	; 12
    e30e:	0e 94 22 5c 	call	0xb844	; 0xb844 <update_tank_rank>
				break;
    e312:	d8 c0       	rjmp	.+432    	; 0xe4c4 <main+0x234>
	
	while (1)
	{
		waitForVSync();
		get_net_message();
		switch (game.current_screen)
    e314:	84 30       	cpi	r24, 0x04	; 4
    e316:	09 f4       	brne	.+2      	; 0xe31a <main+0x8a>
    e318:	66 c0       	rjmp	.+204    	; 0xe3e6 <main+0x156>
    e31a:	08 f4       	brcc	.+2      	; 0xe31e <main+0x8e>
    e31c:	6e c0       	rjmp	.+220    	; 0xe3fa <main+0x16a>
    e31e:	85 30       	cpi	r24, 0x05	; 5
    e320:	09 f0       	breq	.+2      	; 0xe324 <main+0x94>
    e322:	d0 c0       	rjmp	.+416    	; 0xe4c4 <main+0x234>
			case HOST_NET_GAME:
				LBGetJoyPadState(&p1, 0);
				update_host_net_game(&p1);
				break;
			case JOIN_NET_GAME:
				LBGetJoyPadState(&p1, 0);
    e324:	60 e0       	ldi	r22, 0x00	; 0
    e326:	81 e5       	ldi	r24, 0x51	; 81
    e328:	9c e0       	ldi	r25, 0x0C	; 12
    e32a:	0e 94 4b 4c 	call	0x9896	; 0x9896 <LBGetJoyPadState>
				update_join_net_game(&p1);
    e32e:	81 e5       	ldi	r24, 0x51	; 81
    e330:	9c e0       	ldi	r25, 0x0C	; 12
    e332:	0e 94 a1 5f 	call	0xbf42	; 0xbf42 <update_join_net_game>
				break;
    e336:	c6 c0       	rjmp	.+396    	; 0xe4c4 <main+0x234>
		waitForVSync();
		get_net_message();
		switch (game.current_screen)
		{
			case SPLASH:
				LBGetJoyPadState(&p1, 0);
    e338:	60 e0       	ldi	r22, 0x00	; 0
    e33a:	81 e5       	ldi	r24, 0x51	; 81
    e33c:	9c e0       	ldi	r25, 0x0C	; 12
    e33e:	0e 94 4b 4c 	call	0x9896	; 0x9896 <LBGetJoyPadState>
				update_splash(&p1, &p2);
    e342:	66 e7       	ldi	r22, 0x76	; 118
    e344:	7b e0       	ldi	r23, 0x0B	; 11
    e346:	81 e5       	ldi	r24, 0x51	; 81
    e348:	9c e0       	ldi	r25, 0x0C	; 12
    e34a:	0e 94 69 5e 	call	0xbcd2	; 0xbcd2 <update_splash>
				break;
    e34e:	ba c0       	rjmp	.+372    	; 0xe4c4 <main+0x234>
			case TANK_RANK:
				LBGetJoyPadState(&p1, 0);
				update_tank_rank(&p1);
				break;
			case HANDLE_SELECT:
				if (game.selection == HOSTNETGAME)
    e350:	80 91 b6 0b 	lds	r24, 0x0BB6
    e354:	82 30       	cpi	r24, 0x02	; 2
    e356:	e1 f4       	brne	.+56     	; 0xe390 <main+0x100>
				{
					LBGetJoyPadState(&p1, 0);
    e358:	60 e0       	ldi	r22, 0x00	; 0
    e35a:	81 e5       	ldi	r24, 0x51	; 81
    e35c:	9c e0       	ldi	r25, 0x0C	; 12
    e35e:	0e 94 4b 4c 	call	0x9896	; 0x9896 <LBGetJoyPadState>
void LBGetJoyPadStateNet(JoyPadState* p, unsigned char index, NetMessage* netMessage)
/*
 * Get the current joy pad button state for index controller
 */
{
	p->held = netMessage->held;
    e362:	80 91 e0 0f 	lds	r24, 0x0FE0
    e366:	90 91 e1 0f 	lds	r25, 0x0FE1
    e36a:	90 93 7b 0b 	sts	0x0B7B, r25
    e36e:	80 93 7a 0b 	sts	0x0B7A, r24
	p->pressed = netMessage->pressed;
    e372:	80 91 e2 0f 	lds	r24, 0x0FE2
    e376:	90 91 e3 0f 	lds	r25, 0x0FE3
    e37a:	90 93 77 0b 	sts	0x0B77, r25
    e37e:	80 93 76 0b 	sts	0x0B76, r24
	p->held_cycles = 0;
    e382:	10 92 7c 0b 	sts	0x0B7C, r1
	p->released = 0;
    e386:	10 92 79 0b 	sts	0x0B79, r1
    e38a:	10 92 78 0b 	sts	0x0B78, r1
    e38e:	24 c0       	rjmp	.+72     	; 0xe3d8 <main+0x148>
					LBGetJoyPadStateNet(&p2, 1, &netMessage);
				}
				else if (game.selection == JOINNETGAME)
    e390:	83 30       	cpi	r24, 0x03	; 3
    e392:	c1 f4       	brne	.+48     	; 0xe3c4 <main+0x134>
void LBGetJoyPadStateNet(JoyPadState* p, unsigned char index, NetMessage* netMessage)
/*
 * Get the current joy pad button state for index controller
 */
{
	p->held = netMessage->held;
    e394:	80 91 e0 0f 	lds	r24, 0x0FE0
    e398:	90 91 e1 0f 	lds	r25, 0x0FE1
    e39c:	90 93 56 0c 	sts	0x0C56, r25
    e3a0:	80 93 55 0c 	sts	0x0C55, r24
	p->pressed = netMessage->pressed;
    e3a4:	80 91 e2 0f 	lds	r24, 0x0FE2
    e3a8:	90 91 e3 0f 	lds	r25, 0x0FE3
    e3ac:	90 93 52 0c 	sts	0x0C52, r25
    e3b0:	80 93 51 0c 	sts	0x0C51, r24
	p->held_cycles = 0;
    e3b4:	10 92 57 0c 	sts	0x0C57, r1
	p->released = 0;
    e3b8:	10 92 54 0c 	sts	0x0C54, r1
    e3bc:	10 92 53 0c 	sts	0x0C53, r1
				{
					LBGetJoyPadStateNet(&p1, 1, &netMessage);
					LBGetJoyPadState(&p2, 0);
    e3c0:	60 e0       	ldi	r22, 0x00	; 0
    e3c2:	06 c0       	rjmp	.+12     	; 0xe3d0 <main+0x140>
				}
				else
				{
					LBGetJoyPadState(&p1, 0);
    e3c4:	60 e0       	ldi	r22, 0x00	; 0
    e3c6:	81 e5       	ldi	r24, 0x51	; 81
    e3c8:	9c e0       	ldi	r25, 0x0C	; 12
    e3ca:	0e 94 4b 4c 	call	0x9896	; 0x9896 <LBGetJoyPadState>
					LBGetJoyPadState(&p2, 1);
    e3ce:	61 e0       	ldi	r22, 0x01	; 1
    e3d0:	86 e7       	ldi	r24, 0x76	; 118
    e3d2:	9b e0       	ldi	r25, 0x0B	; 11
    e3d4:	0e 94 4b 4c 	call	0x9896	; 0x9896 <LBGetJoyPadState>
				}
				update_handle_select(&p1, &p2);
    e3d8:	66 e7       	ldi	r22, 0x76	; 118
    e3da:	7b e0       	ldi	r23, 0x0B	; 11
    e3dc:	81 e5       	ldi	r24, 0x51	; 81
    e3de:	9c e0       	ldi	r25, 0x0C	; 12
    e3e0:	0e 94 0b 6e 	call	0xdc16	; 0xdc16 <update_handle_select>
				break;
    e3e4:	6f c0       	rjmp	.+222    	; 0xe4c4 <main+0x234>
#if JAMMA
#else
			case HOST_NET_GAME:
				LBGetJoyPadState(&p1, 0);
    e3e6:	60 e0       	ldi	r22, 0x00	; 0
    e3e8:	81 e5       	ldi	r24, 0x51	; 81
    e3ea:	9c e0       	ldi	r25, 0x0C	; 12
    e3ec:	0e 94 4b 4c 	call	0x9896	; 0x9896 <LBGetJoyPadState>
				update_host_net_game(&p1);
    e3f0:	81 e5       	ldi	r24, 0x51	; 81
    e3f2:	9c e0       	ldi	r25, 0x0C	; 12
    e3f4:	0e 94 05 5e 	call	0xbc0a	; 0xbc0a <update_host_net_game>
				break;
    e3f8:	65 c0       	rjmp	.+202    	; 0xe4c4 <main+0x234>
				LBGetJoyPadState(&p1, 0);
				update_join_net_game(&p1);
				break;
#endif
			case LEVEL:
				if (game.selection == PVCPU)
    e3fa:	80 91 b6 0b 	lds	r24, 0x0BB6
    e3fe:	81 11       	cpse	r24, r1
    e400:	06 c0       	rjmp	.+12     	; 0xe40e <main+0x17e>
				{
					LBGetJoyPadState(&p1, 0);
    e402:	60 e0       	ldi	r22, 0x00	; 0
    e404:	81 e5       	ldi	r24, 0x51	; 81
    e406:	9c e0       	ldi	r25, 0x0C	; 12
    e408:	0e 94 4b 4c 	call	0x9896	; 0x9896 <LBGetJoyPadState>
    e40c:	0a c0       	rjmp	.+20     	; 0xe422 <main+0x192>
					get_cpu_joypad_state(&player2, &player1, &p2);
				}
				else if (game.selection == CPUVCPU)
    e40e:	86 30       	cpi	r24, 0x06	; 6
    e410:	89 f4       	brne	.+34     	; 0xe434 <main+0x1a4>
				{
					get_cpu_joypad_state(&player1, &player2, &p1);
    e412:	41 e5       	ldi	r20, 0x51	; 81
    e414:	5c e0       	ldi	r21, 0x0C	; 12
    e416:	67 e4       	ldi	r22, 0x47	; 71
    e418:	7f e0       	ldi	r23, 0x0F	; 15
    e41a:	85 ed       	ldi	r24, 0xD5	; 213
    e41c:	9b e0       	ldi	r25, 0x0B	; 11
    e41e:	0e 94 c7 61 	call	0xc38e	; 0xc38e <get_cpu_joypad_state>
					get_cpu_joypad_state(&player2, &player1, &p2);
    e422:	46 e7       	ldi	r20, 0x76	; 118
    e424:	5b e0       	ldi	r21, 0x0B	; 11
    e426:	65 ed       	ldi	r22, 0xD5	; 213
    e428:	7b e0       	ldi	r23, 0x0B	; 11
    e42a:	87 e4       	ldi	r24, 0x47	; 71
    e42c:	9f e0       	ldi	r25, 0x0F	; 15
    e42e:	0e 94 c7 61 	call	0xc38e	; 0xc38e <get_cpu_joypad_state>
    e432:	42 c0       	rjmp	.+132    	; 0xe4b8 <main+0x228>
				}
				else if (game.selection == HOSTNETGAME)
    e434:	82 30       	cpi	r24, 0x02	; 2
    e436:	e1 f4       	brne	.+56     	; 0xe470 <main+0x1e0>
				{
					LBGetJoyPadState(&p1, 0);
    e438:	60 e0       	ldi	r22, 0x00	; 0
    e43a:	81 e5       	ldi	r24, 0x51	; 81
    e43c:	9c e0       	ldi	r25, 0x0C	; 12
    e43e:	0e 94 4b 4c 	call	0x9896	; 0x9896 <LBGetJoyPadState>
void LBGetJoyPadStateNet(JoyPadState* p, unsigned char index, NetMessage* netMessage)
/*
 * Get the current joy pad button state for index controller
 */
{
	p->held = netMessage->held;
    e442:	80 91 e0 0f 	lds	r24, 0x0FE0
    e446:	90 91 e1 0f 	lds	r25, 0x0FE1
    e44a:	90 93 7b 0b 	sts	0x0B7B, r25
    e44e:	80 93 7a 0b 	sts	0x0B7A, r24
	p->pressed = netMessage->pressed;
    e452:	80 91 e2 0f 	lds	r24, 0x0FE2
    e456:	90 91 e3 0f 	lds	r25, 0x0FE3
    e45a:	90 93 77 0b 	sts	0x0B77, r25
    e45e:	80 93 76 0b 	sts	0x0B76, r24
	p->held_cycles = 0;
    e462:	10 92 7c 0b 	sts	0x0B7C, r1
	p->released = 0;
    e466:	10 92 79 0b 	sts	0x0B79, r1
    e46a:	10 92 78 0b 	sts	0x0B78, r1
    e46e:	24 c0       	rjmp	.+72     	; 0xe4b8 <main+0x228>
					LBGetJoyPadStateNet(&p2, 1, &netMessage);
				}
				else if (game.selection == JOINNETGAME)
    e470:	83 30       	cpi	r24, 0x03	; 3
    e472:	c1 f4       	brne	.+48     	; 0xe4a4 <main+0x214>
void LBGetJoyPadStateNet(JoyPadState* p, unsigned char index, NetMessage* netMessage)
/*
 * Get the current joy pad button state for index controller
 */
{
	p->held = netMessage->held;
    e474:	80 91 e0 0f 	lds	r24, 0x0FE0
    e478:	90 91 e1 0f 	lds	r25, 0x0FE1
    e47c:	90 93 56 0c 	sts	0x0C56, r25
    e480:	80 93 55 0c 	sts	0x0C55, r24
	p->pressed = netMessage->pressed;
    e484:	80 91 e2 0f 	lds	r24, 0x0FE2
    e488:	90 91 e3 0f 	lds	r25, 0x0FE3
    e48c:	90 93 52 0c 	sts	0x0C52, r25
    e490:	80 93 51 0c 	sts	0x0C51, r24
	p->held_cycles = 0;
    e494:	10 92 57 0c 	sts	0x0C57, r1
	p->released = 0;
    e498:	10 92 54 0c 	sts	0x0C54, r1
    e49c:	10 92 53 0c 	sts	0x0C53, r1
				{
					LBGetJoyPadStateNet(&p1, 1, &netMessage);
					LBGetJoyPadState(&p2, 0);
    e4a0:	60 e0       	ldi	r22, 0x00	; 0
    e4a2:	06 c0       	rjmp	.+12     	; 0xe4b0 <main+0x220>
				}
				else
				{
					LBGetJoyPadState(&p1, 0);
    e4a4:	60 e0       	ldi	r22, 0x00	; 0
    e4a6:	81 e5       	ldi	r24, 0x51	; 81
    e4a8:	9c e0       	ldi	r25, 0x0C	; 12
    e4aa:	0e 94 4b 4c 	call	0x9896	; 0x9896 <LBGetJoyPadState>
					LBGetJoyPadState(&p2, 1);
    e4ae:	61 e0       	ldi	r22, 0x01	; 1
    e4b0:	86 e7       	ldi	r24, 0x76	; 118
    e4b2:	9b e0       	ldi	r25, 0x0B	; 11
    e4b4:	0e 94 4b 4c 	call	0x9896	; 0x9896 <LBGetJoyPadState>
				}
				update_level(&p1, &p2);
    e4b8:	66 e7       	ldi	r22, 0x76	; 118
    e4ba:	7b e0       	ldi	r23, 0x0B	; 11
    e4bc:	81 e5       	ldi	r24, 0x51	; 81
    e4be:	9c e0       	ldi	r25, 0x0C	; 12
    e4c0:	0e 94 83 6e 	call	0xdd06	; 0xdd06 <update_level>
				break;
			default:
				break;
		}
		global_frame_counter++;
    e4c4:	80 91 01 01 	lds	r24, 0x0101
    e4c8:	90 91 02 01 	lds	r25, 0x0102
    e4cc:	01 96       	adiw	r24, 0x01	; 1
    e4ce:	90 93 02 01 	sts	0x0102, r25
    e4d2:	80 93 01 01 	sts	0x0101, r24
	}
    e4d6:	06 cf       	rjmp	.-500    	; 0xe2e4 <main+0x54>

0000e4d8 <__udivmodqi4>:
    e4d8:	99 1b       	sub	r25, r25
    e4da:	79 e0       	ldi	r23, 0x09	; 9
    e4dc:	04 c0       	rjmp	.+8      	; 0xe4e6 <__udivmodqi4_ep>

0000e4de <__udivmodqi4_loop>:
    e4de:	99 1f       	adc	r25, r25
    e4e0:	96 17       	cp	r25, r22
    e4e2:	08 f0       	brcs	.+2      	; 0xe4e6 <__udivmodqi4_ep>
    e4e4:	96 1b       	sub	r25, r22

0000e4e6 <__udivmodqi4_ep>:
    e4e6:	88 1f       	adc	r24, r24
    e4e8:	7a 95       	dec	r23
    e4ea:	c9 f7       	brne	.-14     	; 0xe4de <__udivmodqi4_loop>
    e4ec:	80 95       	com	r24
    e4ee:	08 95       	ret

0000e4f0 <__divmodqi4>:
    e4f0:	87 fb       	bst	r24, 7
    e4f2:	08 2e       	mov	r0, r24
    e4f4:	06 26       	eor	r0, r22
    e4f6:	87 fd       	sbrc	r24, 7
    e4f8:	81 95       	neg	r24
    e4fa:	67 fd       	sbrc	r22, 7
    e4fc:	61 95       	neg	r22
    e4fe:	0e 94 6c 72 	call	0xe4d8	; 0xe4d8 <__udivmodqi4>
    e502:	0e f4       	brtc	.+2      	; 0xe506 <__divmodqi4_1>
    e504:	91 95       	neg	r25

0000e506 <__divmodqi4_1>:
    e506:	07 fc       	sbrc	r0, 7
    e508:	81 95       	neg	r24

0000e50a <__divmodqi4_exit>:
    e50a:	08 95       	ret

0000e50c <__udivmodhi4>:
    e50c:	aa 1b       	sub	r26, r26
    e50e:	bb 1b       	sub	r27, r27
    e510:	51 e1       	ldi	r21, 0x11	; 17
    e512:	07 c0       	rjmp	.+14     	; 0xe522 <__udivmodhi4_ep>

0000e514 <__udivmodhi4_loop>:
    e514:	aa 1f       	adc	r26, r26
    e516:	bb 1f       	adc	r27, r27
    e518:	a6 17       	cp	r26, r22
    e51a:	b7 07       	cpc	r27, r23
    e51c:	10 f0       	brcs	.+4      	; 0xe522 <__udivmodhi4_ep>
    e51e:	a6 1b       	sub	r26, r22
    e520:	b7 0b       	sbc	r27, r23

0000e522 <__udivmodhi4_ep>:
    e522:	88 1f       	adc	r24, r24
    e524:	99 1f       	adc	r25, r25
    e526:	5a 95       	dec	r21
    e528:	a9 f7       	brne	.-22     	; 0xe514 <__udivmodhi4_loop>
    e52a:	80 95       	com	r24
    e52c:	90 95       	com	r25
    e52e:	bc 01       	movw	r22, r24
    e530:	cd 01       	movw	r24, r26
    e532:	08 95       	ret

0000e534 <__divmodhi4>:
    e534:	97 fb       	bst	r25, 7
    e536:	07 2e       	mov	r0, r23
    e538:	16 f4       	brtc	.+4      	; 0xe53e <__divmodhi4+0xa>
    e53a:	00 94       	com	r0
    e53c:	07 d0       	rcall	.+14     	; 0xe54c <__divmodhi4_neg1>
    e53e:	77 fd       	sbrc	r23, 7
    e540:	09 d0       	rcall	.+18     	; 0xe554 <__divmodhi4_neg2>
    e542:	0e 94 86 72 	call	0xe50c	; 0xe50c <__udivmodhi4>
    e546:	07 fc       	sbrc	r0, 7
    e548:	05 d0       	rcall	.+10     	; 0xe554 <__divmodhi4_neg2>
    e54a:	3e f4       	brtc	.+14     	; 0xe55a <__divmodhi4_exit>

0000e54c <__divmodhi4_neg1>:
    e54c:	90 95       	com	r25
    e54e:	81 95       	neg	r24
    e550:	9f 4f       	sbci	r25, 0xFF	; 255
    e552:	08 95       	ret

0000e554 <__divmodhi4_neg2>:
    e554:	70 95       	com	r23
    e556:	61 95       	neg	r22
    e558:	7f 4f       	sbci	r23, 0xFF	; 255

0000e55a <__divmodhi4_exit>:
    e55a:	08 95       	ret

0000e55c <__subsf3>:
    e55c:	50 58       	subi	r21, 0x80	; 128

0000e55e <__addsf3>:
    e55e:	bb 27       	eor	r27, r27
    e560:	aa 27       	eor	r26, r26
    e562:	0e d0       	rcall	.+28     	; 0xe580 <__addsf3x>
    e564:	75 c1       	rjmp	.+746    	; 0xe850 <__fp_round>
    e566:	66 d1       	rcall	.+716    	; 0xe834 <__fp_pscA>
    e568:	30 f0       	brcs	.+12     	; 0xe576 <__addsf3+0x18>
    e56a:	6b d1       	rcall	.+726    	; 0xe842 <__fp_pscB>
    e56c:	20 f0       	brcs	.+8      	; 0xe576 <__addsf3+0x18>
    e56e:	31 f4       	brne	.+12     	; 0xe57c <__addsf3+0x1e>
    e570:	9f 3f       	cpi	r25, 0xFF	; 255
    e572:	11 f4       	brne	.+4      	; 0xe578 <__addsf3+0x1a>
    e574:	1e f4       	brtc	.+6      	; 0xe57c <__addsf3+0x1e>
    e576:	5b c1       	rjmp	.+694    	; 0xe82e <__fp_nan>
    e578:	0e f4       	brtc	.+2      	; 0xe57c <__addsf3+0x1e>
    e57a:	e0 95       	com	r30
    e57c:	e7 fb       	bst	r30, 7
    e57e:	51 c1       	rjmp	.+674    	; 0xe822 <__fp_inf>

0000e580 <__addsf3x>:
    e580:	e9 2f       	mov	r30, r25
    e582:	77 d1       	rcall	.+750    	; 0xe872 <__fp_split3>
    e584:	80 f3       	brcs	.-32     	; 0xe566 <__addsf3+0x8>
    e586:	ba 17       	cp	r27, r26
    e588:	62 07       	cpc	r22, r18
    e58a:	73 07       	cpc	r23, r19
    e58c:	84 07       	cpc	r24, r20
    e58e:	95 07       	cpc	r25, r21
    e590:	18 f0       	brcs	.+6      	; 0xe598 <__addsf3x+0x18>
    e592:	71 f4       	brne	.+28     	; 0xe5b0 <__addsf3x+0x30>
    e594:	9e f5       	brtc	.+102    	; 0xe5fc <__addsf3x+0x7c>
    e596:	8f c1       	rjmp	.+798    	; 0xe8b6 <__fp_zero>
    e598:	0e f4       	brtc	.+2      	; 0xe59c <__addsf3x+0x1c>
    e59a:	e0 95       	com	r30
    e59c:	0b 2e       	mov	r0, r27
    e59e:	ba 2f       	mov	r27, r26
    e5a0:	a0 2d       	mov	r26, r0
    e5a2:	0b 01       	movw	r0, r22
    e5a4:	b9 01       	movw	r22, r18
    e5a6:	90 01       	movw	r18, r0
    e5a8:	0c 01       	movw	r0, r24
    e5aa:	ca 01       	movw	r24, r20
    e5ac:	a0 01       	movw	r20, r0
    e5ae:	11 24       	eor	r1, r1
    e5b0:	ff 27       	eor	r31, r31
    e5b2:	59 1b       	sub	r21, r25
    e5b4:	99 f0       	breq	.+38     	; 0xe5dc <__addsf3x+0x5c>
    e5b6:	59 3f       	cpi	r21, 0xF9	; 249
    e5b8:	50 f4       	brcc	.+20     	; 0xe5ce <__addsf3x+0x4e>
    e5ba:	50 3e       	cpi	r21, 0xE0	; 224
    e5bc:	68 f1       	brcs	.+90     	; 0xe618 <__addsf3x+0x98>
    e5be:	1a 16       	cp	r1, r26
    e5c0:	f0 40       	sbci	r31, 0x00	; 0
    e5c2:	a2 2f       	mov	r26, r18
    e5c4:	23 2f       	mov	r18, r19
    e5c6:	34 2f       	mov	r19, r20
    e5c8:	44 27       	eor	r20, r20
    e5ca:	58 5f       	subi	r21, 0xF8	; 248
    e5cc:	f3 cf       	rjmp	.-26     	; 0xe5b4 <__addsf3x+0x34>
    e5ce:	46 95       	lsr	r20
    e5d0:	37 95       	ror	r19
    e5d2:	27 95       	ror	r18
    e5d4:	a7 95       	ror	r26
    e5d6:	f0 40       	sbci	r31, 0x00	; 0
    e5d8:	53 95       	inc	r21
    e5da:	c9 f7       	brne	.-14     	; 0xe5ce <__addsf3x+0x4e>
    e5dc:	7e f4       	brtc	.+30     	; 0xe5fc <__addsf3x+0x7c>
    e5de:	1f 16       	cp	r1, r31
    e5e0:	ba 0b       	sbc	r27, r26
    e5e2:	62 0b       	sbc	r22, r18
    e5e4:	73 0b       	sbc	r23, r19
    e5e6:	84 0b       	sbc	r24, r20
    e5e8:	ba f0       	brmi	.+46     	; 0xe618 <__addsf3x+0x98>
    e5ea:	91 50       	subi	r25, 0x01	; 1
    e5ec:	a1 f0       	breq	.+40     	; 0xe616 <__addsf3x+0x96>
    e5ee:	ff 0f       	add	r31, r31
    e5f0:	bb 1f       	adc	r27, r27
    e5f2:	66 1f       	adc	r22, r22
    e5f4:	77 1f       	adc	r23, r23
    e5f6:	88 1f       	adc	r24, r24
    e5f8:	c2 f7       	brpl	.-16     	; 0xe5ea <__addsf3x+0x6a>
    e5fa:	0e c0       	rjmp	.+28     	; 0xe618 <__addsf3x+0x98>
    e5fc:	ba 0f       	add	r27, r26
    e5fe:	62 1f       	adc	r22, r18
    e600:	73 1f       	adc	r23, r19
    e602:	84 1f       	adc	r24, r20
    e604:	48 f4       	brcc	.+18     	; 0xe618 <__addsf3x+0x98>
    e606:	87 95       	ror	r24
    e608:	77 95       	ror	r23
    e60a:	67 95       	ror	r22
    e60c:	b7 95       	ror	r27
    e60e:	f7 95       	ror	r31
    e610:	9e 3f       	cpi	r25, 0xFE	; 254
    e612:	08 f0       	brcs	.+2      	; 0xe616 <__addsf3x+0x96>
    e614:	b3 cf       	rjmp	.-154    	; 0xe57c <__addsf3+0x1e>
    e616:	93 95       	inc	r25
    e618:	88 0f       	add	r24, r24
    e61a:	08 f0       	brcs	.+2      	; 0xe61e <__addsf3x+0x9e>
    e61c:	99 27       	eor	r25, r25
    e61e:	ee 0f       	add	r30, r30
    e620:	97 95       	ror	r25
    e622:	87 95       	ror	r24
    e624:	08 95       	ret

0000e626 <__cmpsf2>:
    e626:	d9 d0       	rcall	.+434    	; 0xe7da <__fp_cmp>
    e628:	08 f4       	brcc	.+2      	; 0xe62c <__cmpsf2+0x6>
    e62a:	81 e0       	ldi	r24, 0x01	; 1
    e62c:	08 95       	ret

0000e62e <__divsf3>:
    e62e:	0c d0       	rcall	.+24     	; 0xe648 <__divsf3x>
    e630:	0f c1       	rjmp	.+542    	; 0xe850 <__fp_round>
    e632:	07 d1       	rcall	.+526    	; 0xe842 <__fp_pscB>
    e634:	40 f0       	brcs	.+16     	; 0xe646 <__divsf3+0x18>
    e636:	fe d0       	rcall	.+508    	; 0xe834 <__fp_pscA>
    e638:	30 f0       	brcs	.+12     	; 0xe646 <__divsf3+0x18>
    e63a:	21 f4       	brne	.+8      	; 0xe644 <__divsf3+0x16>
    e63c:	5f 3f       	cpi	r21, 0xFF	; 255
    e63e:	19 f0       	breq	.+6      	; 0xe646 <__divsf3+0x18>
    e640:	f0 c0       	rjmp	.+480    	; 0xe822 <__fp_inf>
    e642:	51 11       	cpse	r21, r1
    e644:	39 c1       	rjmp	.+626    	; 0xe8b8 <__fp_szero>
    e646:	f3 c0       	rjmp	.+486    	; 0xe82e <__fp_nan>

0000e648 <__divsf3x>:
    e648:	14 d1       	rcall	.+552    	; 0xe872 <__fp_split3>
    e64a:	98 f3       	brcs	.-26     	; 0xe632 <__divsf3+0x4>

0000e64c <__divsf3_pse>:
    e64c:	99 23       	and	r25, r25
    e64e:	c9 f3       	breq	.-14     	; 0xe642 <__divsf3+0x14>
    e650:	55 23       	and	r21, r21
    e652:	b1 f3       	breq	.-20     	; 0xe640 <__divsf3+0x12>
    e654:	95 1b       	sub	r25, r21
    e656:	55 0b       	sbc	r21, r21
    e658:	bb 27       	eor	r27, r27
    e65a:	aa 27       	eor	r26, r26
    e65c:	62 17       	cp	r22, r18
    e65e:	73 07       	cpc	r23, r19
    e660:	84 07       	cpc	r24, r20
    e662:	38 f0       	brcs	.+14     	; 0xe672 <__divsf3_pse+0x26>
    e664:	9f 5f       	subi	r25, 0xFF	; 255
    e666:	5f 4f       	sbci	r21, 0xFF	; 255
    e668:	22 0f       	add	r18, r18
    e66a:	33 1f       	adc	r19, r19
    e66c:	44 1f       	adc	r20, r20
    e66e:	aa 1f       	adc	r26, r26
    e670:	a9 f3       	breq	.-22     	; 0xe65c <__divsf3_pse+0x10>
    e672:	33 d0       	rcall	.+102    	; 0xe6da <__divsf3_pse+0x8e>
    e674:	0e 2e       	mov	r0, r30
    e676:	3a f0       	brmi	.+14     	; 0xe686 <__divsf3_pse+0x3a>
    e678:	e0 e8       	ldi	r30, 0x80	; 128
    e67a:	30 d0       	rcall	.+96     	; 0xe6dc <__divsf3_pse+0x90>
    e67c:	91 50       	subi	r25, 0x01	; 1
    e67e:	50 40       	sbci	r21, 0x00	; 0
    e680:	e6 95       	lsr	r30
    e682:	00 1c       	adc	r0, r0
    e684:	ca f7       	brpl	.-14     	; 0xe678 <__divsf3_pse+0x2c>
    e686:	29 d0       	rcall	.+82     	; 0xe6da <__divsf3_pse+0x8e>
    e688:	fe 2f       	mov	r31, r30
    e68a:	27 d0       	rcall	.+78     	; 0xe6da <__divsf3_pse+0x8e>
    e68c:	66 0f       	add	r22, r22
    e68e:	77 1f       	adc	r23, r23
    e690:	88 1f       	adc	r24, r24
    e692:	bb 1f       	adc	r27, r27
    e694:	26 17       	cp	r18, r22
    e696:	37 07       	cpc	r19, r23
    e698:	48 07       	cpc	r20, r24
    e69a:	ab 07       	cpc	r26, r27
    e69c:	b0 e8       	ldi	r27, 0x80	; 128
    e69e:	09 f0       	breq	.+2      	; 0xe6a2 <__divsf3_pse+0x56>
    e6a0:	bb 0b       	sbc	r27, r27
    e6a2:	80 2d       	mov	r24, r0
    e6a4:	bf 01       	movw	r22, r30
    e6a6:	ff 27       	eor	r31, r31
    e6a8:	93 58       	subi	r25, 0x83	; 131
    e6aa:	5f 4f       	sbci	r21, 0xFF	; 255
    e6ac:	2a f0       	brmi	.+10     	; 0xe6b8 <__divsf3_pse+0x6c>
    e6ae:	9e 3f       	cpi	r25, 0xFE	; 254
    e6b0:	51 05       	cpc	r21, r1
    e6b2:	68 f0       	brcs	.+26     	; 0xe6ce <__divsf3_pse+0x82>
    e6b4:	b6 c0       	rjmp	.+364    	; 0xe822 <__fp_inf>
    e6b6:	00 c1       	rjmp	.+512    	; 0xe8b8 <__fp_szero>
    e6b8:	5f 3f       	cpi	r21, 0xFF	; 255
    e6ba:	ec f3       	brlt	.-6      	; 0xe6b6 <__divsf3_pse+0x6a>
    e6bc:	98 3e       	cpi	r25, 0xE8	; 232
    e6be:	dc f3       	brlt	.-10     	; 0xe6b6 <__divsf3_pse+0x6a>
    e6c0:	86 95       	lsr	r24
    e6c2:	77 95       	ror	r23
    e6c4:	67 95       	ror	r22
    e6c6:	b7 95       	ror	r27
    e6c8:	f7 95       	ror	r31
    e6ca:	9f 5f       	subi	r25, 0xFF	; 255
    e6cc:	c9 f7       	brne	.-14     	; 0xe6c0 <__divsf3_pse+0x74>
    e6ce:	88 0f       	add	r24, r24
    e6d0:	91 1d       	adc	r25, r1
    e6d2:	96 95       	lsr	r25
    e6d4:	87 95       	ror	r24
    e6d6:	97 f9       	bld	r25, 7
    e6d8:	08 95       	ret
    e6da:	e1 e0       	ldi	r30, 0x01	; 1
    e6dc:	66 0f       	add	r22, r22
    e6de:	77 1f       	adc	r23, r23
    e6e0:	88 1f       	adc	r24, r24
    e6e2:	bb 1f       	adc	r27, r27
    e6e4:	62 17       	cp	r22, r18
    e6e6:	73 07       	cpc	r23, r19
    e6e8:	84 07       	cpc	r24, r20
    e6ea:	ba 07       	cpc	r27, r26
    e6ec:	20 f0       	brcs	.+8      	; 0xe6f6 <__divsf3_pse+0xaa>
    e6ee:	62 1b       	sub	r22, r18
    e6f0:	73 0b       	sbc	r23, r19
    e6f2:	84 0b       	sbc	r24, r20
    e6f4:	ba 0b       	sbc	r27, r26
    e6f6:	ee 1f       	adc	r30, r30
    e6f8:	88 f7       	brcc	.-30     	; 0xe6dc <__divsf3_pse+0x90>
    e6fa:	e0 95       	com	r30
    e6fc:	08 95       	ret

0000e6fe <__fixsfsi>:
    e6fe:	04 d0       	rcall	.+8      	; 0xe708 <__fixunssfsi>
    e700:	68 94       	set
    e702:	b1 11       	cpse	r27, r1
    e704:	d9 c0       	rjmp	.+434    	; 0xe8b8 <__fp_szero>
    e706:	08 95       	ret

0000e708 <__fixunssfsi>:
    e708:	bc d0       	rcall	.+376    	; 0xe882 <__fp_splitA>
    e70a:	88 f0       	brcs	.+34     	; 0xe72e <__fixunssfsi+0x26>
    e70c:	9f 57       	subi	r25, 0x7F	; 127
    e70e:	90 f0       	brcs	.+36     	; 0xe734 <__fixunssfsi+0x2c>
    e710:	b9 2f       	mov	r27, r25
    e712:	99 27       	eor	r25, r25
    e714:	b7 51       	subi	r27, 0x17	; 23
    e716:	a0 f0       	brcs	.+40     	; 0xe740 <__fixunssfsi+0x38>
    e718:	d1 f0       	breq	.+52     	; 0xe74e <__fixunssfsi+0x46>
    e71a:	66 0f       	add	r22, r22
    e71c:	77 1f       	adc	r23, r23
    e71e:	88 1f       	adc	r24, r24
    e720:	99 1f       	adc	r25, r25
    e722:	1a f0       	brmi	.+6      	; 0xe72a <__fixunssfsi+0x22>
    e724:	ba 95       	dec	r27
    e726:	c9 f7       	brne	.-14     	; 0xe71a <__fixunssfsi+0x12>
    e728:	12 c0       	rjmp	.+36     	; 0xe74e <__fixunssfsi+0x46>
    e72a:	b1 30       	cpi	r27, 0x01	; 1
    e72c:	81 f0       	breq	.+32     	; 0xe74e <__fixunssfsi+0x46>
    e72e:	c3 d0       	rcall	.+390    	; 0xe8b6 <__fp_zero>
    e730:	b1 e0       	ldi	r27, 0x01	; 1
    e732:	08 95       	ret
    e734:	c0 c0       	rjmp	.+384    	; 0xe8b6 <__fp_zero>
    e736:	67 2f       	mov	r22, r23
    e738:	78 2f       	mov	r23, r24
    e73a:	88 27       	eor	r24, r24
    e73c:	b8 5f       	subi	r27, 0xF8	; 248
    e73e:	39 f0       	breq	.+14     	; 0xe74e <__fixunssfsi+0x46>
    e740:	b9 3f       	cpi	r27, 0xF9	; 249
    e742:	cc f3       	brlt	.-14     	; 0xe736 <__fixunssfsi+0x2e>
    e744:	86 95       	lsr	r24
    e746:	77 95       	ror	r23
    e748:	67 95       	ror	r22
    e74a:	b3 95       	inc	r27
    e74c:	d9 f7       	brne	.-10     	; 0xe744 <__fixunssfsi+0x3c>
    e74e:	3e f4       	brtc	.+14     	; 0xe75e <__fixunssfsi+0x56>
    e750:	90 95       	com	r25
    e752:	80 95       	com	r24
    e754:	70 95       	com	r23
    e756:	61 95       	neg	r22
    e758:	7f 4f       	sbci	r23, 0xFF	; 255
    e75a:	8f 4f       	sbci	r24, 0xFF	; 255
    e75c:	9f 4f       	sbci	r25, 0xFF	; 255
    e75e:	08 95       	ret

0000e760 <__floatunsisf>:
    e760:	e8 94       	clt
    e762:	09 c0       	rjmp	.+18     	; 0xe776 <__floatsisf+0x12>

0000e764 <__floatsisf>:
    e764:	97 fb       	bst	r25, 7
    e766:	3e f4       	brtc	.+14     	; 0xe776 <__floatsisf+0x12>
    e768:	90 95       	com	r25
    e76a:	80 95       	com	r24
    e76c:	70 95       	com	r23
    e76e:	61 95       	neg	r22
    e770:	7f 4f       	sbci	r23, 0xFF	; 255
    e772:	8f 4f       	sbci	r24, 0xFF	; 255
    e774:	9f 4f       	sbci	r25, 0xFF	; 255
    e776:	99 23       	and	r25, r25
    e778:	a9 f0       	breq	.+42     	; 0xe7a4 <__floatsisf+0x40>
    e77a:	f9 2f       	mov	r31, r25
    e77c:	96 e9       	ldi	r25, 0x96	; 150
    e77e:	bb 27       	eor	r27, r27
    e780:	93 95       	inc	r25
    e782:	f6 95       	lsr	r31
    e784:	87 95       	ror	r24
    e786:	77 95       	ror	r23
    e788:	67 95       	ror	r22
    e78a:	b7 95       	ror	r27
    e78c:	f1 11       	cpse	r31, r1
    e78e:	f8 cf       	rjmp	.-16     	; 0xe780 <__floatsisf+0x1c>
    e790:	fa f4       	brpl	.+62     	; 0xe7d0 <__floatsisf+0x6c>
    e792:	bb 0f       	add	r27, r27
    e794:	11 f4       	brne	.+4      	; 0xe79a <__floatsisf+0x36>
    e796:	60 ff       	sbrs	r22, 0
    e798:	1b c0       	rjmp	.+54     	; 0xe7d0 <__floatsisf+0x6c>
    e79a:	6f 5f       	subi	r22, 0xFF	; 255
    e79c:	7f 4f       	sbci	r23, 0xFF	; 255
    e79e:	8f 4f       	sbci	r24, 0xFF	; 255
    e7a0:	9f 4f       	sbci	r25, 0xFF	; 255
    e7a2:	16 c0       	rjmp	.+44     	; 0xe7d0 <__floatsisf+0x6c>
    e7a4:	88 23       	and	r24, r24
    e7a6:	11 f0       	breq	.+4      	; 0xe7ac <__floatsisf+0x48>
    e7a8:	96 e9       	ldi	r25, 0x96	; 150
    e7aa:	11 c0       	rjmp	.+34     	; 0xe7ce <__floatsisf+0x6a>
    e7ac:	77 23       	and	r23, r23
    e7ae:	21 f0       	breq	.+8      	; 0xe7b8 <__floatsisf+0x54>
    e7b0:	9e e8       	ldi	r25, 0x8E	; 142
    e7b2:	87 2f       	mov	r24, r23
    e7b4:	76 2f       	mov	r23, r22
    e7b6:	05 c0       	rjmp	.+10     	; 0xe7c2 <__floatsisf+0x5e>
    e7b8:	66 23       	and	r22, r22
    e7ba:	71 f0       	breq	.+28     	; 0xe7d8 <__floatsisf+0x74>
    e7bc:	96 e8       	ldi	r25, 0x86	; 134
    e7be:	86 2f       	mov	r24, r22
    e7c0:	70 e0       	ldi	r23, 0x00	; 0
    e7c2:	60 e0       	ldi	r22, 0x00	; 0
    e7c4:	2a f0       	brmi	.+10     	; 0xe7d0 <__floatsisf+0x6c>
    e7c6:	9a 95       	dec	r25
    e7c8:	66 0f       	add	r22, r22
    e7ca:	77 1f       	adc	r23, r23
    e7cc:	88 1f       	adc	r24, r24
    e7ce:	da f7       	brpl	.-10     	; 0xe7c6 <__floatsisf+0x62>
    e7d0:	88 0f       	add	r24, r24
    e7d2:	96 95       	lsr	r25
    e7d4:	87 95       	ror	r24
    e7d6:	97 f9       	bld	r25, 7
    e7d8:	08 95       	ret

0000e7da <__fp_cmp>:
    e7da:	99 0f       	add	r25, r25
    e7dc:	00 08       	sbc	r0, r0
    e7de:	55 0f       	add	r21, r21
    e7e0:	aa 0b       	sbc	r26, r26
    e7e2:	e0 e8       	ldi	r30, 0x80	; 128
    e7e4:	fe ef       	ldi	r31, 0xFE	; 254
    e7e6:	16 16       	cp	r1, r22
    e7e8:	17 06       	cpc	r1, r23
    e7ea:	e8 07       	cpc	r30, r24
    e7ec:	f9 07       	cpc	r31, r25
    e7ee:	c0 f0       	brcs	.+48     	; 0xe820 <__fp_cmp+0x46>
    e7f0:	12 16       	cp	r1, r18
    e7f2:	13 06       	cpc	r1, r19
    e7f4:	e4 07       	cpc	r30, r20
    e7f6:	f5 07       	cpc	r31, r21
    e7f8:	98 f0       	brcs	.+38     	; 0xe820 <__fp_cmp+0x46>
    e7fa:	62 1b       	sub	r22, r18
    e7fc:	73 0b       	sbc	r23, r19
    e7fe:	84 0b       	sbc	r24, r20
    e800:	95 0b       	sbc	r25, r21
    e802:	39 f4       	brne	.+14     	; 0xe812 <__fp_cmp+0x38>
    e804:	0a 26       	eor	r0, r26
    e806:	61 f0       	breq	.+24     	; 0xe820 <__fp_cmp+0x46>
    e808:	23 2b       	or	r18, r19
    e80a:	24 2b       	or	r18, r20
    e80c:	25 2b       	or	r18, r21
    e80e:	21 f4       	brne	.+8      	; 0xe818 <__fp_cmp+0x3e>
    e810:	08 95       	ret
    e812:	0a 26       	eor	r0, r26
    e814:	09 f4       	brne	.+2      	; 0xe818 <__fp_cmp+0x3e>
    e816:	a1 40       	sbci	r26, 0x01	; 1
    e818:	a6 95       	lsr	r26
    e81a:	8f ef       	ldi	r24, 0xFF	; 255
    e81c:	81 1d       	adc	r24, r1
    e81e:	81 1d       	adc	r24, r1
    e820:	08 95       	ret

0000e822 <__fp_inf>:
    e822:	97 f9       	bld	r25, 7
    e824:	9f 67       	ori	r25, 0x7F	; 127
    e826:	80 e8       	ldi	r24, 0x80	; 128
    e828:	70 e0       	ldi	r23, 0x00	; 0
    e82a:	60 e0       	ldi	r22, 0x00	; 0
    e82c:	08 95       	ret

0000e82e <__fp_nan>:
    e82e:	9f ef       	ldi	r25, 0xFF	; 255
    e830:	80 ec       	ldi	r24, 0xC0	; 192
    e832:	08 95       	ret

0000e834 <__fp_pscA>:
    e834:	00 24       	eor	r0, r0
    e836:	0a 94       	dec	r0
    e838:	16 16       	cp	r1, r22
    e83a:	17 06       	cpc	r1, r23
    e83c:	18 06       	cpc	r1, r24
    e83e:	09 06       	cpc	r0, r25
    e840:	08 95       	ret

0000e842 <__fp_pscB>:
    e842:	00 24       	eor	r0, r0
    e844:	0a 94       	dec	r0
    e846:	12 16       	cp	r1, r18
    e848:	13 06       	cpc	r1, r19
    e84a:	14 06       	cpc	r1, r20
    e84c:	05 06       	cpc	r0, r21
    e84e:	08 95       	ret

0000e850 <__fp_round>:
    e850:	09 2e       	mov	r0, r25
    e852:	03 94       	inc	r0
    e854:	00 0c       	add	r0, r0
    e856:	11 f4       	brne	.+4      	; 0xe85c <__fp_round+0xc>
    e858:	88 23       	and	r24, r24
    e85a:	52 f0       	brmi	.+20     	; 0xe870 <__fp_round+0x20>
    e85c:	bb 0f       	add	r27, r27
    e85e:	40 f4       	brcc	.+16     	; 0xe870 <__fp_round+0x20>
    e860:	bf 2b       	or	r27, r31
    e862:	11 f4       	brne	.+4      	; 0xe868 <__fp_round+0x18>
    e864:	60 ff       	sbrs	r22, 0
    e866:	04 c0       	rjmp	.+8      	; 0xe870 <__fp_round+0x20>
    e868:	6f 5f       	subi	r22, 0xFF	; 255
    e86a:	7f 4f       	sbci	r23, 0xFF	; 255
    e86c:	8f 4f       	sbci	r24, 0xFF	; 255
    e86e:	9f 4f       	sbci	r25, 0xFF	; 255
    e870:	08 95       	ret

0000e872 <__fp_split3>:
    e872:	57 fd       	sbrc	r21, 7
    e874:	90 58       	subi	r25, 0x80	; 128
    e876:	44 0f       	add	r20, r20
    e878:	55 1f       	adc	r21, r21
    e87a:	59 f0       	breq	.+22     	; 0xe892 <__fp_splitA+0x10>
    e87c:	5f 3f       	cpi	r21, 0xFF	; 255
    e87e:	71 f0       	breq	.+28     	; 0xe89c <__fp_splitA+0x1a>
    e880:	47 95       	ror	r20

0000e882 <__fp_splitA>:
    e882:	88 0f       	add	r24, r24
    e884:	97 fb       	bst	r25, 7
    e886:	99 1f       	adc	r25, r25
    e888:	61 f0       	breq	.+24     	; 0xe8a2 <__fp_splitA+0x20>
    e88a:	9f 3f       	cpi	r25, 0xFF	; 255
    e88c:	79 f0       	breq	.+30     	; 0xe8ac <__fp_splitA+0x2a>
    e88e:	87 95       	ror	r24
    e890:	08 95       	ret
    e892:	12 16       	cp	r1, r18
    e894:	13 06       	cpc	r1, r19
    e896:	14 06       	cpc	r1, r20
    e898:	55 1f       	adc	r21, r21
    e89a:	f2 cf       	rjmp	.-28     	; 0xe880 <__fp_split3+0xe>
    e89c:	46 95       	lsr	r20
    e89e:	f1 df       	rcall	.-30     	; 0xe882 <__fp_splitA>
    e8a0:	08 c0       	rjmp	.+16     	; 0xe8b2 <__fp_splitA+0x30>
    e8a2:	16 16       	cp	r1, r22
    e8a4:	17 06       	cpc	r1, r23
    e8a6:	18 06       	cpc	r1, r24
    e8a8:	99 1f       	adc	r25, r25
    e8aa:	f1 cf       	rjmp	.-30     	; 0xe88e <__fp_splitA+0xc>
    e8ac:	86 95       	lsr	r24
    e8ae:	71 05       	cpc	r23, r1
    e8b0:	61 05       	cpc	r22, r1
    e8b2:	08 94       	sec
    e8b4:	08 95       	ret

0000e8b6 <__fp_zero>:
    e8b6:	e8 94       	clt

0000e8b8 <__fp_szero>:
    e8b8:	bb 27       	eor	r27, r27
    e8ba:	66 27       	eor	r22, r22
    e8bc:	77 27       	eor	r23, r23
    e8be:	cb 01       	movw	r24, r22
    e8c0:	97 f9       	bld	r25, 7
    e8c2:	08 95       	ret

0000e8c4 <__gesf2>:
    e8c4:	8a df       	rcall	.-236    	; 0xe7da <__fp_cmp>
    e8c6:	08 f4       	brcc	.+2      	; 0xe8ca <__gesf2+0x6>
    e8c8:	8f ef       	ldi	r24, 0xFF	; 255
    e8ca:	08 95       	ret

0000e8cc <__mulsf3>:
    e8cc:	0b d0       	rcall	.+22     	; 0xe8e4 <__mulsf3x>
    e8ce:	c0 cf       	rjmp	.-128    	; 0xe850 <__fp_round>
    e8d0:	b1 df       	rcall	.-158    	; 0xe834 <__fp_pscA>
    e8d2:	28 f0       	brcs	.+10     	; 0xe8de <__mulsf3+0x12>
    e8d4:	b6 df       	rcall	.-148    	; 0xe842 <__fp_pscB>
    e8d6:	18 f0       	brcs	.+6      	; 0xe8de <__mulsf3+0x12>
    e8d8:	95 23       	and	r25, r21
    e8da:	09 f0       	breq	.+2      	; 0xe8de <__mulsf3+0x12>
    e8dc:	a2 cf       	rjmp	.-188    	; 0xe822 <__fp_inf>
    e8de:	a7 cf       	rjmp	.-178    	; 0xe82e <__fp_nan>
    e8e0:	11 24       	eor	r1, r1
    e8e2:	ea cf       	rjmp	.-44     	; 0xe8b8 <__fp_szero>

0000e8e4 <__mulsf3x>:
    e8e4:	c6 df       	rcall	.-116    	; 0xe872 <__fp_split3>
    e8e6:	a0 f3       	brcs	.-24     	; 0xe8d0 <__mulsf3+0x4>

0000e8e8 <__mulsf3_pse>:
    e8e8:	95 9f       	mul	r25, r21
    e8ea:	d1 f3       	breq	.-12     	; 0xe8e0 <__mulsf3+0x14>
    e8ec:	95 0f       	add	r25, r21
    e8ee:	50 e0       	ldi	r21, 0x00	; 0
    e8f0:	55 1f       	adc	r21, r21
    e8f2:	62 9f       	mul	r22, r18
    e8f4:	f0 01       	movw	r30, r0
    e8f6:	72 9f       	mul	r23, r18
    e8f8:	bb 27       	eor	r27, r27
    e8fa:	f0 0d       	add	r31, r0
    e8fc:	b1 1d       	adc	r27, r1
    e8fe:	63 9f       	mul	r22, r19
    e900:	aa 27       	eor	r26, r26
    e902:	f0 0d       	add	r31, r0
    e904:	b1 1d       	adc	r27, r1
    e906:	aa 1f       	adc	r26, r26
    e908:	64 9f       	mul	r22, r20
    e90a:	66 27       	eor	r22, r22
    e90c:	b0 0d       	add	r27, r0
    e90e:	a1 1d       	adc	r26, r1
    e910:	66 1f       	adc	r22, r22
    e912:	82 9f       	mul	r24, r18
    e914:	22 27       	eor	r18, r18
    e916:	b0 0d       	add	r27, r0
    e918:	a1 1d       	adc	r26, r1
    e91a:	62 1f       	adc	r22, r18
    e91c:	73 9f       	mul	r23, r19
    e91e:	b0 0d       	add	r27, r0
    e920:	a1 1d       	adc	r26, r1
    e922:	62 1f       	adc	r22, r18
    e924:	83 9f       	mul	r24, r19
    e926:	a0 0d       	add	r26, r0
    e928:	61 1d       	adc	r22, r1
    e92a:	22 1f       	adc	r18, r18
    e92c:	74 9f       	mul	r23, r20
    e92e:	33 27       	eor	r19, r19
    e930:	a0 0d       	add	r26, r0
    e932:	61 1d       	adc	r22, r1
    e934:	23 1f       	adc	r18, r19
    e936:	84 9f       	mul	r24, r20
    e938:	60 0d       	add	r22, r0
    e93a:	21 1d       	adc	r18, r1
    e93c:	82 2f       	mov	r24, r18
    e93e:	76 2f       	mov	r23, r22
    e940:	6a 2f       	mov	r22, r26
    e942:	11 24       	eor	r1, r1
    e944:	9f 57       	subi	r25, 0x7F	; 127
    e946:	50 40       	sbci	r21, 0x00	; 0
    e948:	8a f0       	brmi	.+34     	; 0xe96c <__mulsf3_pse+0x84>
    e94a:	e1 f0       	breq	.+56     	; 0xe984 <__mulsf3_pse+0x9c>
    e94c:	88 23       	and	r24, r24
    e94e:	4a f0       	brmi	.+18     	; 0xe962 <__mulsf3_pse+0x7a>
    e950:	ee 0f       	add	r30, r30
    e952:	ff 1f       	adc	r31, r31
    e954:	bb 1f       	adc	r27, r27
    e956:	66 1f       	adc	r22, r22
    e958:	77 1f       	adc	r23, r23
    e95a:	88 1f       	adc	r24, r24
    e95c:	91 50       	subi	r25, 0x01	; 1
    e95e:	50 40       	sbci	r21, 0x00	; 0
    e960:	a9 f7       	brne	.-22     	; 0xe94c <__mulsf3_pse+0x64>
    e962:	9e 3f       	cpi	r25, 0xFE	; 254
    e964:	51 05       	cpc	r21, r1
    e966:	70 f0       	brcs	.+28     	; 0xe984 <__mulsf3_pse+0x9c>
    e968:	5c cf       	rjmp	.-328    	; 0xe822 <__fp_inf>
    e96a:	a6 cf       	rjmp	.-180    	; 0xe8b8 <__fp_szero>
    e96c:	5f 3f       	cpi	r21, 0xFF	; 255
    e96e:	ec f3       	brlt	.-6      	; 0xe96a <__mulsf3_pse+0x82>
    e970:	98 3e       	cpi	r25, 0xE8	; 232
    e972:	dc f3       	brlt	.-10     	; 0xe96a <__mulsf3_pse+0x82>
    e974:	86 95       	lsr	r24
    e976:	77 95       	ror	r23
    e978:	67 95       	ror	r22
    e97a:	b7 95       	ror	r27
    e97c:	f7 95       	ror	r31
    e97e:	e7 95       	ror	r30
    e980:	9f 5f       	subi	r25, 0xFF	; 255
    e982:	c1 f7       	brne	.-16     	; 0xe974 <__mulsf3_pse+0x8c>
    e984:	fe 2b       	or	r31, r30
    e986:	88 0f       	add	r24, r24
    e988:	91 1d       	adc	r25, r1
    e98a:	96 95       	lsr	r25
    e98c:	87 95       	ror	r24
    e98e:	97 f9       	bld	r25, 7
    e990:	08 95       	ret

0000e992 <memcpy_P>:
    e992:	fb 01       	movw	r30, r22
    e994:	dc 01       	movw	r26, r24
    e996:	02 c0       	rjmp	.+4      	; 0xe99c <memcpy_P+0xa>
    e998:	05 90       	lpm	r0, Z+
    e99a:	0d 92       	st	X+, r0
    e99c:	41 50       	subi	r20, 0x01	; 1
    e99e:	50 40       	sbci	r21, 0x00	; 0
    e9a0:	d8 f7       	brcc	.-10     	; 0xe998 <memcpy_P+0x6>
    e9a2:	08 95       	ret

0000e9a4 <strnlen_P>:
    e9a4:	fc 01       	movw	r30, r24
    e9a6:	05 90       	lpm	r0, Z+
    e9a8:	61 50       	subi	r22, 0x01	; 1
    e9aa:	70 40       	sbci	r23, 0x00	; 0
    e9ac:	01 10       	cpse	r0, r1
    e9ae:	d8 f7       	brcc	.-10     	; 0xe9a6 <strnlen_P+0x2>
    e9b0:	80 95       	com	r24
    e9b2:	90 95       	com	r25
    e9b4:	8e 0f       	add	r24, r30
    e9b6:	9f 1f       	adc	r25, r31
    e9b8:	08 95       	ret

0000e9ba <strupr>:
    e9ba:	dc 01       	movw	r26, r24
    e9bc:	6c 91       	ld	r22, X
    e9be:	61 56       	subi	r22, 0x61	; 97
    e9c0:	6a 31       	cpi	r22, 0x1A	; 26
    e9c2:	08 f0       	brcs	.+2      	; 0xe9c6 <strupr+0xc>
    e9c4:	60 5e       	subi	r22, 0xE0	; 224
    e9c6:	6f 5b       	subi	r22, 0xBF	; 191
    e9c8:	6d 93       	st	X+, r22
    e9ca:	c1 f7       	brne	.-16     	; 0xe9bc <strupr+0x2>
    e9cc:	08 95       	ret

0000e9ce <sprintf>:
    e9ce:	ae e0       	ldi	r26, 0x0E	; 14
    e9d0:	b0 e0       	ldi	r27, 0x00	; 0
    e9d2:	ed ee       	ldi	r30, 0xED	; 237
    e9d4:	f4 e7       	ldi	r31, 0x74	; 116
    e9d6:	0c 94 8b 77 	jmp	0xef16	; 0xef16 <__prologue_saves__+0x1c>
    e9da:	0d 89       	ldd	r16, Y+21	; 0x15
    e9dc:	1e 89       	ldd	r17, Y+22	; 0x16
    e9de:	86 e0       	ldi	r24, 0x06	; 6
    e9e0:	8c 83       	std	Y+4, r24	; 0x04
    e9e2:	1a 83       	std	Y+2, r17	; 0x02
    e9e4:	09 83       	std	Y+1, r16	; 0x01
    e9e6:	8f ef       	ldi	r24, 0xFF	; 255
    e9e8:	9f e7       	ldi	r25, 0x7F	; 127
    e9ea:	9e 83       	std	Y+6, r25	; 0x06
    e9ec:	8d 83       	std	Y+5, r24	; 0x05
    e9ee:	ae 01       	movw	r20, r28
    e9f0:	47 5e       	subi	r20, 0xE7	; 231
    e9f2:	5f 4f       	sbci	r21, 0xFF	; 255
    e9f4:	6f 89       	ldd	r22, Y+23	; 0x17
    e9f6:	78 8d       	ldd	r23, Y+24	; 0x18
    e9f8:	ce 01       	movw	r24, r28
    e9fa:	01 96       	adiw	r24, 0x01	; 1
    e9fc:	0e 94 0a 75 	call	0xea14	; 0xea14 <vfprintf>
    ea00:	2f 81       	ldd	r18, Y+7	; 0x07
    ea02:	38 85       	ldd	r19, Y+8	; 0x08
    ea04:	f8 01       	movw	r30, r16
    ea06:	e2 0f       	add	r30, r18
    ea08:	f3 1f       	adc	r31, r19
    ea0a:	10 82       	st	Z, r1
    ea0c:	2e 96       	adiw	r28, 0x0e	; 14
    ea0e:	e4 e0       	ldi	r30, 0x04	; 4
    ea10:	0c 94 a7 77 	jmp	0xef4e	; 0xef4e <__epilogue_restores__+0x1c>

0000ea14 <vfprintf>:
    ea14:	ac e0       	ldi	r26, 0x0C	; 12
    ea16:	b0 e0       	ldi	r27, 0x00	; 0
    ea18:	e0 e1       	ldi	r30, 0x10	; 16
    ea1a:	f5 e7       	ldi	r31, 0x75	; 117
    ea1c:	0c 94 7d 77 	jmp	0xeefa	; 0xeefa <__prologue_saves__>
    ea20:	7c 01       	movw	r14, r24
    ea22:	6b 01       	movw	r12, r22
    ea24:	8a 01       	movw	r16, r20
    ea26:	fc 01       	movw	r30, r24
    ea28:	17 82       	std	Z+7, r1	; 0x07
    ea2a:	16 82       	std	Z+6, r1	; 0x06
    ea2c:	83 81       	ldd	r24, Z+3	; 0x03
    ea2e:	81 ff       	sbrs	r24, 1
    ea30:	bd c1       	rjmp	.+890    	; 0xedac <vfprintf+0x398>
    ea32:	ce 01       	movw	r24, r28
    ea34:	01 96       	adiw	r24, 0x01	; 1
    ea36:	4c 01       	movw	r8, r24
    ea38:	f7 01       	movw	r30, r14
    ea3a:	93 81       	ldd	r25, Z+3	; 0x03
    ea3c:	f6 01       	movw	r30, r12
    ea3e:	93 fd       	sbrc	r25, 3
    ea40:	85 91       	lpm	r24, Z+
    ea42:	93 ff       	sbrs	r25, 3
    ea44:	81 91       	ld	r24, Z+
    ea46:	6f 01       	movw	r12, r30
    ea48:	88 23       	and	r24, r24
    ea4a:	09 f4       	brne	.+2      	; 0xea4e <vfprintf+0x3a>
    ea4c:	ab c1       	rjmp	.+854    	; 0xeda4 <vfprintf+0x390>
    ea4e:	85 32       	cpi	r24, 0x25	; 37
    ea50:	39 f4       	brne	.+14     	; 0xea60 <vfprintf+0x4c>
    ea52:	93 fd       	sbrc	r25, 3
    ea54:	85 91       	lpm	r24, Z+
    ea56:	93 ff       	sbrs	r25, 3
    ea58:	81 91       	ld	r24, Z+
    ea5a:	6f 01       	movw	r12, r30
    ea5c:	85 32       	cpi	r24, 0x25	; 37
    ea5e:	29 f4       	brne	.+10     	; 0xea6a <vfprintf+0x56>
    ea60:	b7 01       	movw	r22, r14
    ea62:	90 e0       	ldi	r25, 0x00	; 0
    ea64:	0e 94 e7 76 	call	0xedce	; 0xedce <fputc>
    ea68:	e7 cf       	rjmp	.-50     	; 0xea38 <vfprintf+0x24>
    ea6a:	51 2c       	mov	r5, r1
    ea6c:	31 2c       	mov	r3, r1
    ea6e:	20 e0       	ldi	r18, 0x00	; 0
    ea70:	20 32       	cpi	r18, 0x20	; 32
    ea72:	a0 f4       	brcc	.+40     	; 0xea9c <vfprintf+0x88>
    ea74:	8b 32       	cpi	r24, 0x2B	; 43
    ea76:	69 f0       	breq	.+26     	; 0xea92 <vfprintf+0x7e>
    ea78:	30 f4       	brcc	.+12     	; 0xea86 <vfprintf+0x72>
    ea7a:	80 32       	cpi	r24, 0x20	; 32
    ea7c:	59 f0       	breq	.+22     	; 0xea94 <vfprintf+0x80>
    ea7e:	83 32       	cpi	r24, 0x23	; 35
    ea80:	69 f4       	brne	.+26     	; 0xea9c <vfprintf+0x88>
    ea82:	20 61       	ori	r18, 0x10	; 16
    ea84:	2c c0       	rjmp	.+88     	; 0xeade <vfprintf+0xca>
    ea86:	8d 32       	cpi	r24, 0x2D	; 45
    ea88:	39 f0       	breq	.+14     	; 0xea98 <vfprintf+0x84>
    ea8a:	80 33       	cpi	r24, 0x30	; 48
    ea8c:	39 f4       	brne	.+14     	; 0xea9c <vfprintf+0x88>
    ea8e:	21 60       	ori	r18, 0x01	; 1
    ea90:	26 c0       	rjmp	.+76     	; 0xeade <vfprintf+0xca>
    ea92:	22 60       	ori	r18, 0x02	; 2
    ea94:	24 60       	ori	r18, 0x04	; 4
    ea96:	23 c0       	rjmp	.+70     	; 0xeade <vfprintf+0xca>
    ea98:	28 60       	ori	r18, 0x08	; 8
    ea9a:	21 c0       	rjmp	.+66     	; 0xeade <vfprintf+0xca>
    ea9c:	27 fd       	sbrc	r18, 7
    ea9e:	27 c0       	rjmp	.+78     	; 0xeaee <vfprintf+0xda>
    eaa0:	30 ed       	ldi	r19, 0xD0	; 208
    eaa2:	38 0f       	add	r19, r24
    eaa4:	3a 30       	cpi	r19, 0x0A	; 10
    eaa6:	78 f4       	brcc	.+30     	; 0xeac6 <vfprintf+0xb2>
    eaa8:	26 ff       	sbrs	r18, 6
    eaaa:	06 c0       	rjmp	.+12     	; 0xeab8 <vfprintf+0xa4>
    eaac:	fa e0       	ldi	r31, 0x0A	; 10
    eaae:	5f 9e       	mul	r5, r31
    eab0:	30 0d       	add	r19, r0
    eab2:	11 24       	eor	r1, r1
    eab4:	53 2e       	mov	r5, r19
    eab6:	13 c0       	rjmp	.+38     	; 0xeade <vfprintf+0xca>
    eab8:	8a e0       	ldi	r24, 0x0A	; 10
    eaba:	38 9e       	mul	r3, r24
    eabc:	30 0d       	add	r19, r0
    eabe:	11 24       	eor	r1, r1
    eac0:	33 2e       	mov	r3, r19
    eac2:	20 62       	ori	r18, 0x20	; 32
    eac4:	0c c0       	rjmp	.+24     	; 0xeade <vfprintf+0xca>
    eac6:	8e 32       	cpi	r24, 0x2E	; 46
    eac8:	21 f4       	brne	.+8      	; 0xead2 <vfprintf+0xbe>
    eaca:	26 fd       	sbrc	r18, 6
    eacc:	6b c1       	rjmp	.+726    	; 0xeda4 <vfprintf+0x390>
    eace:	20 64       	ori	r18, 0x40	; 64
    ead0:	06 c0       	rjmp	.+12     	; 0xeade <vfprintf+0xca>
    ead2:	8c 36       	cpi	r24, 0x6C	; 108
    ead4:	11 f4       	brne	.+4      	; 0xeada <vfprintf+0xc6>
    ead6:	20 68       	ori	r18, 0x80	; 128
    ead8:	02 c0       	rjmp	.+4      	; 0xeade <vfprintf+0xca>
    eada:	88 36       	cpi	r24, 0x68	; 104
    eadc:	41 f4       	brne	.+16     	; 0xeaee <vfprintf+0xda>
    eade:	f6 01       	movw	r30, r12
    eae0:	93 fd       	sbrc	r25, 3
    eae2:	85 91       	lpm	r24, Z+
    eae4:	93 ff       	sbrs	r25, 3
    eae6:	81 91       	ld	r24, Z+
    eae8:	6f 01       	movw	r12, r30
    eaea:	81 11       	cpse	r24, r1
    eaec:	c1 cf       	rjmp	.-126    	; 0xea70 <vfprintf+0x5c>
    eaee:	98 2f       	mov	r25, r24
    eaf0:	9f 7d       	andi	r25, 0xDF	; 223
    eaf2:	95 54       	subi	r25, 0x45	; 69
    eaf4:	93 30       	cpi	r25, 0x03	; 3
    eaf6:	28 f4       	brcc	.+10     	; 0xeb02 <vfprintf+0xee>
    eaf8:	0c 5f       	subi	r16, 0xFC	; 252
    eafa:	1f 4f       	sbci	r17, 0xFF	; 255
    eafc:	ff e3       	ldi	r31, 0x3F	; 63
    eafe:	f9 83       	std	Y+1, r31	; 0x01
    eb00:	0d c0       	rjmp	.+26     	; 0xeb1c <vfprintf+0x108>
    eb02:	83 36       	cpi	r24, 0x63	; 99
    eb04:	31 f0       	breq	.+12     	; 0xeb12 <vfprintf+0xfe>
    eb06:	83 37       	cpi	r24, 0x73	; 115
    eb08:	71 f0       	breq	.+28     	; 0xeb26 <vfprintf+0x112>
    eb0a:	83 35       	cpi	r24, 0x53	; 83
    eb0c:	09 f0       	breq	.+2      	; 0xeb10 <vfprintf+0xfc>
    eb0e:	5b c0       	rjmp	.+182    	; 0xebc6 <vfprintf+0x1b2>
    eb10:	22 c0       	rjmp	.+68     	; 0xeb56 <vfprintf+0x142>
    eb12:	f8 01       	movw	r30, r16
    eb14:	80 81       	ld	r24, Z
    eb16:	89 83       	std	Y+1, r24	; 0x01
    eb18:	0e 5f       	subi	r16, 0xFE	; 254
    eb1a:	1f 4f       	sbci	r17, 0xFF	; 255
    eb1c:	44 24       	eor	r4, r4
    eb1e:	43 94       	inc	r4
    eb20:	51 2c       	mov	r5, r1
    eb22:	54 01       	movw	r10, r8
    eb24:	15 c0       	rjmp	.+42     	; 0xeb50 <vfprintf+0x13c>
    eb26:	38 01       	movw	r6, r16
    eb28:	f2 e0       	ldi	r31, 0x02	; 2
    eb2a:	6f 0e       	add	r6, r31
    eb2c:	71 1c       	adc	r7, r1
    eb2e:	f8 01       	movw	r30, r16
    eb30:	a0 80       	ld	r10, Z
    eb32:	b1 80       	ldd	r11, Z+1	; 0x01
    eb34:	26 ff       	sbrs	r18, 6
    eb36:	03 c0       	rjmp	.+6      	; 0xeb3e <vfprintf+0x12a>
    eb38:	65 2d       	mov	r22, r5
    eb3a:	70 e0       	ldi	r23, 0x00	; 0
    eb3c:	02 c0       	rjmp	.+4      	; 0xeb42 <vfprintf+0x12e>
    eb3e:	6f ef       	ldi	r22, 0xFF	; 255
    eb40:	7f ef       	ldi	r23, 0xFF	; 255
    eb42:	c5 01       	movw	r24, r10
    eb44:	2c 87       	std	Y+12, r18	; 0x0c
    eb46:	0e 94 dc 76 	call	0xedb8	; 0xedb8 <strnlen>
    eb4a:	2c 01       	movw	r4, r24
    eb4c:	83 01       	movw	r16, r6
    eb4e:	2c 85       	ldd	r18, Y+12	; 0x0c
    eb50:	2f 77       	andi	r18, 0x7F	; 127
    eb52:	22 2e       	mov	r2, r18
    eb54:	17 c0       	rjmp	.+46     	; 0xeb84 <vfprintf+0x170>
    eb56:	38 01       	movw	r6, r16
    eb58:	f2 e0       	ldi	r31, 0x02	; 2
    eb5a:	6f 0e       	add	r6, r31
    eb5c:	71 1c       	adc	r7, r1
    eb5e:	f8 01       	movw	r30, r16
    eb60:	a0 80       	ld	r10, Z
    eb62:	b1 80       	ldd	r11, Z+1	; 0x01
    eb64:	26 ff       	sbrs	r18, 6
    eb66:	03 c0       	rjmp	.+6      	; 0xeb6e <vfprintf+0x15a>
    eb68:	65 2d       	mov	r22, r5
    eb6a:	70 e0       	ldi	r23, 0x00	; 0
    eb6c:	02 c0       	rjmp	.+4      	; 0xeb72 <vfprintf+0x15e>
    eb6e:	6f ef       	ldi	r22, 0xFF	; 255
    eb70:	7f ef       	ldi	r23, 0xFF	; 255
    eb72:	c5 01       	movw	r24, r10
    eb74:	2c 87       	std	Y+12, r18	; 0x0c
    eb76:	0e 94 d2 74 	call	0xe9a4	; 0xe9a4 <strnlen_P>
    eb7a:	2c 01       	movw	r4, r24
    eb7c:	2c 85       	ldd	r18, Y+12	; 0x0c
    eb7e:	20 68       	ori	r18, 0x80	; 128
    eb80:	22 2e       	mov	r2, r18
    eb82:	83 01       	movw	r16, r6
    eb84:	23 fc       	sbrc	r2, 3
    eb86:	1b c0       	rjmp	.+54     	; 0xebbe <vfprintf+0x1aa>
    eb88:	83 2d       	mov	r24, r3
    eb8a:	90 e0       	ldi	r25, 0x00	; 0
    eb8c:	48 16       	cp	r4, r24
    eb8e:	59 06       	cpc	r5, r25
    eb90:	b0 f4       	brcc	.+44     	; 0xebbe <vfprintf+0x1aa>
    eb92:	b7 01       	movw	r22, r14
    eb94:	80 e2       	ldi	r24, 0x20	; 32
    eb96:	90 e0       	ldi	r25, 0x00	; 0
    eb98:	0e 94 e7 76 	call	0xedce	; 0xedce <fputc>
    eb9c:	3a 94       	dec	r3
    eb9e:	f4 cf       	rjmp	.-24     	; 0xeb88 <vfprintf+0x174>
    eba0:	f5 01       	movw	r30, r10
    eba2:	27 fc       	sbrc	r2, 7
    eba4:	85 91       	lpm	r24, Z+
    eba6:	27 fe       	sbrs	r2, 7
    eba8:	81 91       	ld	r24, Z+
    ebaa:	5f 01       	movw	r10, r30
    ebac:	b7 01       	movw	r22, r14
    ebae:	90 e0       	ldi	r25, 0x00	; 0
    ebb0:	0e 94 e7 76 	call	0xedce	; 0xedce <fputc>
    ebb4:	31 10       	cpse	r3, r1
    ebb6:	3a 94       	dec	r3
    ebb8:	f1 e0       	ldi	r31, 0x01	; 1
    ebba:	4f 1a       	sub	r4, r31
    ebbc:	51 08       	sbc	r5, r1
    ebbe:	41 14       	cp	r4, r1
    ebc0:	51 04       	cpc	r5, r1
    ebc2:	71 f7       	brne	.-36     	; 0xeba0 <vfprintf+0x18c>
    ebc4:	e5 c0       	rjmp	.+458    	; 0xed90 <vfprintf+0x37c>
    ebc6:	84 36       	cpi	r24, 0x64	; 100
    ebc8:	11 f0       	breq	.+4      	; 0xebce <vfprintf+0x1ba>
    ebca:	89 36       	cpi	r24, 0x69	; 105
    ebcc:	39 f5       	brne	.+78     	; 0xec1c <vfprintf+0x208>
    ebce:	f8 01       	movw	r30, r16
    ebd0:	27 ff       	sbrs	r18, 7
    ebd2:	07 c0       	rjmp	.+14     	; 0xebe2 <vfprintf+0x1ce>
    ebd4:	60 81       	ld	r22, Z
    ebd6:	71 81       	ldd	r23, Z+1	; 0x01
    ebd8:	82 81       	ldd	r24, Z+2	; 0x02
    ebda:	93 81       	ldd	r25, Z+3	; 0x03
    ebdc:	0c 5f       	subi	r16, 0xFC	; 252
    ebde:	1f 4f       	sbci	r17, 0xFF	; 255
    ebe0:	08 c0       	rjmp	.+16     	; 0xebf2 <vfprintf+0x1de>
    ebe2:	60 81       	ld	r22, Z
    ebe4:	71 81       	ldd	r23, Z+1	; 0x01
    ebe6:	88 27       	eor	r24, r24
    ebe8:	77 fd       	sbrc	r23, 7
    ebea:	80 95       	com	r24
    ebec:	98 2f       	mov	r25, r24
    ebee:	0e 5f       	subi	r16, 0xFE	; 254
    ebf0:	1f 4f       	sbci	r17, 0xFF	; 255
    ebf2:	2f 76       	andi	r18, 0x6F	; 111
    ebf4:	72 2e       	mov	r7, r18
    ebf6:	97 ff       	sbrs	r25, 7
    ebf8:	09 c0       	rjmp	.+18     	; 0xec0c <vfprintf+0x1f8>
    ebfa:	90 95       	com	r25
    ebfc:	80 95       	com	r24
    ebfe:	70 95       	com	r23
    ec00:	61 95       	neg	r22
    ec02:	7f 4f       	sbci	r23, 0xFF	; 255
    ec04:	8f 4f       	sbci	r24, 0xFF	; 255
    ec06:	9f 4f       	sbci	r25, 0xFF	; 255
    ec08:	20 68       	ori	r18, 0x80	; 128
    ec0a:	72 2e       	mov	r7, r18
    ec0c:	2a e0       	ldi	r18, 0x0A	; 10
    ec0e:	30 e0       	ldi	r19, 0x00	; 0
    ec10:	a4 01       	movw	r20, r8
    ec12:	0e 94 1f 77 	call	0xee3e	; 0xee3e <__ultoa_invert>
    ec16:	a8 2e       	mov	r10, r24
    ec18:	a8 18       	sub	r10, r8
    ec1a:	44 c0       	rjmp	.+136    	; 0xeca4 <vfprintf+0x290>
    ec1c:	85 37       	cpi	r24, 0x75	; 117
    ec1e:	29 f4       	brne	.+10     	; 0xec2a <vfprintf+0x216>
    ec20:	2f 7e       	andi	r18, 0xEF	; 239
    ec22:	b2 2e       	mov	r11, r18
    ec24:	2a e0       	ldi	r18, 0x0A	; 10
    ec26:	30 e0       	ldi	r19, 0x00	; 0
    ec28:	25 c0       	rjmp	.+74     	; 0xec74 <vfprintf+0x260>
    ec2a:	f2 2f       	mov	r31, r18
    ec2c:	f9 7f       	andi	r31, 0xF9	; 249
    ec2e:	bf 2e       	mov	r11, r31
    ec30:	8f 36       	cpi	r24, 0x6F	; 111
    ec32:	c1 f0       	breq	.+48     	; 0xec64 <vfprintf+0x250>
    ec34:	18 f4       	brcc	.+6      	; 0xec3c <vfprintf+0x228>
    ec36:	88 35       	cpi	r24, 0x58	; 88
    ec38:	79 f0       	breq	.+30     	; 0xec58 <vfprintf+0x244>
    ec3a:	b4 c0       	rjmp	.+360    	; 0xeda4 <vfprintf+0x390>
    ec3c:	80 37       	cpi	r24, 0x70	; 112
    ec3e:	19 f0       	breq	.+6      	; 0xec46 <vfprintf+0x232>
    ec40:	88 37       	cpi	r24, 0x78	; 120
    ec42:	21 f0       	breq	.+8      	; 0xec4c <vfprintf+0x238>
    ec44:	af c0       	rjmp	.+350    	; 0xeda4 <vfprintf+0x390>
    ec46:	2f 2f       	mov	r18, r31
    ec48:	20 61       	ori	r18, 0x10	; 16
    ec4a:	b2 2e       	mov	r11, r18
    ec4c:	b4 fe       	sbrs	r11, 4
    ec4e:	0d c0       	rjmp	.+26     	; 0xec6a <vfprintf+0x256>
    ec50:	8b 2d       	mov	r24, r11
    ec52:	84 60       	ori	r24, 0x04	; 4
    ec54:	b8 2e       	mov	r11, r24
    ec56:	09 c0       	rjmp	.+18     	; 0xec6a <vfprintf+0x256>
    ec58:	24 ff       	sbrs	r18, 4
    ec5a:	0a c0       	rjmp	.+20     	; 0xec70 <vfprintf+0x25c>
    ec5c:	9f 2f       	mov	r25, r31
    ec5e:	96 60       	ori	r25, 0x06	; 6
    ec60:	b9 2e       	mov	r11, r25
    ec62:	06 c0       	rjmp	.+12     	; 0xec70 <vfprintf+0x25c>
    ec64:	28 e0       	ldi	r18, 0x08	; 8
    ec66:	30 e0       	ldi	r19, 0x00	; 0
    ec68:	05 c0       	rjmp	.+10     	; 0xec74 <vfprintf+0x260>
    ec6a:	20 e1       	ldi	r18, 0x10	; 16
    ec6c:	30 e0       	ldi	r19, 0x00	; 0
    ec6e:	02 c0       	rjmp	.+4      	; 0xec74 <vfprintf+0x260>
    ec70:	20 e1       	ldi	r18, 0x10	; 16
    ec72:	32 e0       	ldi	r19, 0x02	; 2
    ec74:	f8 01       	movw	r30, r16
    ec76:	b7 fe       	sbrs	r11, 7
    ec78:	07 c0       	rjmp	.+14     	; 0xec88 <vfprintf+0x274>
    ec7a:	60 81       	ld	r22, Z
    ec7c:	71 81       	ldd	r23, Z+1	; 0x01
    ec7e:	82 81       	ldd	r24, Z+2	; 0x02
    ec80:	93 81       	ldd	r25, Z+3	; 0x03
    ec82:	0c 5f       	subi	r16, 0xFC	; 252
    ec84:	1f 4f       	sbci	r17, 0xFF	; 255
    ec86:	06 c0       	rjmp	.+12     	; 0xec94 <vfprintf+0x280>
    ec88:	60 81       	ld	r22, Z
    ec8a:	71 81       	ldd	r23, Z+1	; 0x01
    ec8c:	80 e0       	ldi	r24, 0x00	; 0
    ec8e:	90 e0       	ldi	r25, 0x00	; 0
    ec90:	0e 5f       	subi	r16, 0xFE	; 254
    ec92:	1f 4f       	sbci	r17, 0xFF	; 255
    ec94:	a4 01       	movw	r20, r8
    ec96:	0e 94 1f 77 	call	0xee3e	; 0xee3e <__ultoa_invert>
    ec9a:	a8 2e       	mov	r10, r24
    ec9c:	a8 18       	sub	r10, r8
    ec9e:	fb 2d       	mov	r31, r11
    eca0:	ff 77       	andi	r31, 0x7F	; 127
    eca2:	7f 2e       	mov	r7, r31
    eca4:	76 fe       	sbrs	r7, 6
    eca6:	0b c0       	rjmp	.+22     	; 0xecbe <vfprintf+0x2aa>
    eca8:	37 2d       	mov	r19, r7
    ecaa:	3e 7f       	andi	r19, 0xFE	; 254
    ecac:	a5 14       	cp	r10, r5
    ecae:	50 f4       	brcc	.+20     	; 0xecc4 <vfprintf+0x2b0>
    ecb0:	74 fe       	sbrs	r7, 4
    ecb2:	0a c0       	rjmp	.+20     	; 0xecc8 <vfprintf+0x2b4>
    ecb4:	72 fc       	sbrc	r7, 2
    ecb6:	08 c0       	rjmp	.+16     	; 0xecc8 <vfprintf+0x2b4>
    ecb8:	37 2d       	mov	r19, r7
    ecba:	3e 7e       	andi	r19, 0xEE	; 238
    ecbc:	05 c0       	rjmp	.+10     	; 0xecc8 <vfprintf+0x2b4>
    ecbe:	ba 2c       	mov	r11, r10
    ecc0:	37 2d       	mov	r19, r7
    ecc2:	03 c0       	rjmp	.+6      	; 0xecca <vfprintf+0x2b6>
    ecc4:	ba 2c       	mov	r11, r10
    ecc6:	01 c0       	rjmp	.+2      	; 0xecca <vfprintf+0x2b6>
    ecc8:	b5 2c       	mov	r11, r5
    ecca:	34 ff       	sbrs	r19, 4
    eccc:	0d c0       	rjmp	.+26     	; 0xece8 <vfprintf+0x2d4>
    ecce:	fe 01       	movw	r30, r28
    ecd0:	ea 0d       	add	r30, r10
    ecd2:	f1 1d       	adc	r31, r1
    ecd4:	80 81       	ld	r24, Z
    ecd6:	80 33       	cpi	r24, 0x30	; 48
    ecd8:	11 f4       	brne	.+4      	; 0xecde <vfprintf+0x2ca>
    ecda:	39 7e       	andi	r19, 0xE9	; 233
    ecdc:	09 c0       	rjmp	.+18     	; 0xecf0 <vfprintf+0x2dc>
    ecde:	32 ff       	sbrs	r19, 2
    ece0:	06 c0       	rjmp	.+12     	; 0xecee <vfprintf+0x2da>
    ece2:	b3 94       	inc	r11
    ece4:	b3 94       	inc	r11
    ece6:	04 c0       	rjmp	.+8      	; 0xecf0 <vfprintf+0x2dc>
    ece8:	83 2f       	mov	r24, r19
    ecea:	86 78       	andi	r24, 0x86	; 134
    ecec:	09 f0       	breq	.+2      	; 0xecf0 <vfprintf+0x2dc>
    ecee:	b3 94       	inc	r11
    ecf0:	33 fd       	sbrc	r19, 3
    ecf2:	13 c0       	rjmp	.+38     	; 0xed1a <vfprintf+0x306>
    ecf4:	30 ff       	sbrs	r19, 0
    ecf6:	06 c0       	rjmp	.+12     	; 0xed04 <vfprintf+0x2f0>
    ecf8:	5a 2c       	mov	r5, r10
    ecfa:	b3 14       	cp	r11, r3
    ecfc:	18 f4       	brcc	.+6      	; 0xed04 <vfprintf+0x2f0>
    ecfe:	53 0c       	add	r5, r3
    ed00:	5b 18       	sub	r5, r11
    ed02:	b3 2c       	mov	r11, r3
    ed04:	b3 14       	cp	r11, r3
    ed06:	68 f4       	brcc	.+26     	; 0xed22 <vfprintf+0x30e>
    ed08:	b7 01       	movw	r22, r14
    ed0a:	80 e2       	ldi	r24, 0x20	; 32
    ed0c:	90 e0       	ldi	r25, 0x00	; 0
    ed0e:	3c 87       	std	Y+12, r19	; 0x0c
    ed10:	0e 94 e7 76 	call	0xedce	; 0xedce <fputc>
    ed14:	b3 94       	inc	r11
    ed16:	3c 85       	ldd	r19, Y+12	; 0x0c
    ed18:	f5 cf       	rjmp	.-22     	; 0xed04 <vfprintf+0x2f0>
    ed1a:	b3 14       	cp	r11, r3
    ed1c:	10 f4       	brcc	.+4      	; 0xed22 <vfprintf+0x30e>
    ed1e:	3b 18       	sub	r3, r11
    ed20:	01 c0       	rjmp	.+2      	; 0xed24 <vfprintf+0x310>
    ed22:	31 2c       	mov	r3, r1
    ed24:	34 ff       	sbrs	r19, 4
    ed26:	12 c0       	rjmp	.+36     	; 0xed4c <vfprintf+0x338>
    ed28:	b7 01       	movw	r22, r14
    ed2a:	80 e3       	ldi	r24, 0x30	; 48
    ed2c:	90 e0       	ldi	r25, 0x00	; 0
    ed2e:	3c 87       	std	Y+12, r19	; 0x0c
    ed30:	0e 94 e7 76 	call	0xedce	; 0xedce <fputc>
    ed34:	3c 85       	ldd	r19, Y+12	; 0x0c
    ed36:	32 ff       	sbrs	r19, 2
    ed38:	17 c0       	rjmp	.+46     	; 0xed68 <vfprintf+0x354>
    ed3a:	31 fd       	sbrc	r19, 1
    ed3c:	03 c0       	rjmp	.+6      	; 0xed44 <vfprintf+0x330>
    ed3e:	88 e7       	ldi	r24, 0x78	; 120
    ed40:	90 e0       	ldi	r25, 0x00	; 0
    ed42:	02 c0       	rjmp	.+4      	; 0xed48 <vfprintf+0x334>
    ed44:	88 e5       	ldi	r24, 0x58	; 88
    ed46:	90 e0       	ldi	r25, 0x00	; 0
    ed48:	b7 01       	movw	r22, r14
    ed4a:	0c c0       	rjmp	.+24     	; 0xed64 <vfprintf+0x350>
    ed4c:	83 2f       	mov	r24, r19
    ed4e:	86 78       	andi	r24, 0x86	; 134
    ed50:	59 f0       	breq	.+22     	; 0xed68 <vfprintf+0x354>
    ed52:	31 ff       	sbrs	r19, 1
    ed54:	02 c0       	rjmp	.+4      	; 0xed5a <vfprintf+0x346>
    ed56:	8b e2       	ldi	r24, 0x2B	; 43
    ed58:	01 c0       	rjmp	.+2      	; 0xed5c <vfprintf+0x348>
    ed5a:	80 e2       	ldi	r24, 0x20	; 32
    ed5c:	37 fd       	sbrc	r19, 7
    ed5e:	8d e2       	ldi	r24, 0x2D	; 45
    ed60:	b7 01       	movw	r22, r14
    ed62:	90 e0       	ldi	r25, 0x00	; 0
    ed64:	0e 94 e7 76 	call	0xedce	; 0xedce <fputc>
    ed68:	a5 14       	cp	r10, r5
    ed6a:	38 f4       	brcc	.+14     	; 0xed7a <vfprintf+0x366>
    ed6c:	b7 01       	movw	r22, r14
    ed6e:	80 e3       	ldi	r24, 0x30	; 48
    ed70:	90 e0       	ldi	r25, 0x00	; 0
    ed72:	0e 94 e7 76 	call	0xedce	; 0xedce <fputc>
    ed76:	5a 94       	dec	r5
    ed78:	f7 cf       	rjmp	.-18     	; 0xed68 <vfprintf+0x354>
    ed7a:	aa 94       	dec	r10
    ed7c:	f4 01       	movw	r30, r8
    ed7e:	ea 0d       	add	r30, r10
    ed80:	f1 1d       	adc	r31, r1
    ed82:	80 81       	ld	r24, Z
    ed84:	b7 01       	movw	r22, r14
    ed86:	90 e0       	ldi	r25, 0x00	; 0
    ed88:	0e 94 e7 76 	call	0xedce	; 0xedce <fputc>
    ed8c:	a1 10       	cpse	r10, r1
    ed8e:	f5 cf       	rjmp	.-22     	; 0xed7a <vfprintf+0x366>
    ed90:	33 20       	and	r3, r3
    ed92:	09 f4       	brne	.+2      	; 0xed96 <vfprintf+0x382>
    ed94:	51 ce       	rjmp	.-862    	; 0xea38 <vfprintf+0x24>
    ed96:	b7 01       	movw	r22, r14
    ed98:	80 e2       	ldi	r24, 0x20	; 32
    ed9a:	90 e0       	ldi	r25, 0x00	; 0
    ed9c:	0e 94 e7 76 	call	0xedce	; 0xedce <fputc>
    eda0:	3a 94       	dec	r3
    eda2:	f6 cf       	rjmp	.-20     	; 0xed90 <vfprintf+0x37c>
    eda4:	f7 01       	movw	r30, r14
    eda6:	86 81       	ldd	r24, Z+6	; 0x06
    eda8:	97 81       	ldd	r25, Z+7	; 0x07
    edaa:	02 c0       	rjmp	.+4      	; 0xedb0 <vfprintf+0x39c>
    edac:	8f ef       	ldi	r24, 0xFF	; 255
    edae:	9f ef       	ldi	r25, 0xFF	; 255
    edb0:	2c 96       	adiw	r28, 0x0c	; 12
    edb2:	e2 e1       	ldi	r30, 0x12	; 18
    edb4:	0c 94 99 77 	jmp	0xef32	; 0xef32 <__epilogue_restores__>

0000edb8 <strnlen>:
    edb8:	fc 01       	movw	r30, r24
    edba:	61 50       	subi	r22, 0x01	; 1
    edbc:	70 40       	sbci	r23, 0x00	; 0
    edbe:	01 90       	ld	r0, Z+
    edc0:	01 10       	cpse	r0, r1
    edc2:	d8 f7       	brcc	.-10     	; 0xedba <strnlen+0x2>
    edc4:	80 95       	com	r24
    edc6:	90 95       	com	r25
    edc8:	8e 0f       	add	r24, r30
    edca:	9f 1f       	adc	r25, r31
    edcc:	08 95       	ret

0000edce <fputc>:
    edce:	0f 93       	push	r16
    edd0:	1f 93       	push	r17
    edd2:	cf 93       	push	r28
    edd4:	df 93       	push	r29
    edd6:	fb 01       	movw	r30, r22
    edd8:	23 81       	ldd	r18, Z+3	; 0x03
    edda:	21 fd       	sbrc	r18, 1
    eddc:	03 c0       	rjmp	.+6      	; 0xede4 <fputc+0x16>
    edde:	8f ef       	ldi	r24, 0xFF	; 255
    ede0:	9f ef       	ldi	r25, 0xFF	; 255
    ede2:	28 c0       	rjmp	.+80     	; 0xee34 <fputc+0x66>
    ede4:	22 ff       	sbrs	r18, 2
    ede6:	16 c0       	rjmp	.+44     	; 0xee14 <fputc+0x46>
    ede8:	46 81       	ldd	r20, Z+6	; 0x06
    edea:	57 81       	ldd	r21, Z+7	; 0x07
    edec:	24 81       	ldd	r18, Z+4	; 0x04
    edee:	35 81       	ldd	r19, Z+5	; 0x05
    edf0:	42 17       	cp	r20, r18
    edf2:	53 07       	cpc	r21, r19
    edf4:	44 f4       	brge	.+16     	; 0xee06 <fputc+0x38>
    edf6:	a0 81       	ld	r26, Z
    edf8:	b1 81       	ldd	r27, Z+1	; 0x01
    edfa:	9d 01       	movw	r18, r26
    edfc:	2f 5f       	subi	r18, 0xFF	; 255
    edfe:	3f 4f       	sbci	r19, 0xFF	; 255
    ee00:	31 83       	std	Z+1, r19	; 0x01
    ee02:	20 83       	st	Z, r18
    ee04:	8c 93       	st	X, r24
    ee06:	26 81       	ldd	r18, Z+6	; 0x06
    ee08:	37 81       	ldd	r19, Z+7	; 0x07
    ee0a:	2f 5f       	subi	r18, 0xFF	; 255
    ee0c:	3f 4f       	sbci	r19, 0xFF	; 255
    ee0e:	37 83       	std	Z+7, r19	; 0x07
    ee10:	26 83       	std	Z+6, r18	; 0x06
    ee12:	10 c0       	rjmp	.+32     	; 0xee34 <fputc+0x66>
    ee14:	eb 01       	movw	r28, r22
    ee16:	09 2f       	mov	r16, r25
    ee18:	18 2f       	mov	r17, r24
    ee1a:	00 84       	ldd	r0, Z+8	; 0x08
    ee1c:	f1 85       	ldd	r31, Z+9	; 0x09
    ee1e:	e0 2d       	mov	r30, r0
    ee20:	09 95       	icall
    ee22:	89 2b       	or	r24, r25
    ee24:	e1 f6       	brne	.-72     	; 0xedde <fputc+0x10>
    ee26:	8e 81       	ldd	r24, Y+6	; 0x06
    ee28:	9f 81       	ldd	r25, Y+7	; 0x07
    ee2a:	01 96       	adiw	r24, 0x01	; 1
    ee2c:	9f 83       	std	Y+7, r25	; 0x07
    ee2e:	8e 83       	std	Y+6, r24	; 0x06
    ee30:	81 2f       	mov	r24, r17
    ee32:	90 2f       	mov	r25, r16
    ee34:	df 91       	pop	r29
    ee36:	cf 91       	pop	r28
    ee38:	1f 91       	pop	r17
    ee3a:	0f 91       	pop	r16
    ee3c:	08 95       	ret

0000ee3e <__ultoa_invert>:
    ee3e:	fa 01       	movw	r30, r20
    ee40:	aa 27       	eor	r26, r26
    ee42:	28 30       	cpi	r18, 0x08	; 8
    ee44:	51 f1       	breq	.+84     	; 0xee9a <__ultoa_invert+0x5c>
    ee46:	20 31       	cpi	r18, 0x10	; 16
    ee48:	81 f1       	breq	.+96     	; 0xeeaa <__ultoa_invert+0x6c>
    ee4a:	e8 94       	clt
    ee4c:	6f 93       	push	r22
    ee4e:	6e 7f       	andi	r22, 0xFE	; 254
    ee50:	6e 5f       	subi	r22, 0xFE	; 254
    ee52:	7f 4f       	sbci	r23, 0xFF	; 255
    ee54:	8f 4f       	sbci	r24, 0xFF	; 255
    ee56:	9f 4f       	sbci	r25, 0xFF	; 255
    ee58:	af 4f       	sbci	r26, 0xFF	; 255
    ee5a:	b1 e0       	ldi	r27, 0x01	; 1
    ee5c:	3e d0       	rcall	.+124    	; 0xeeda <__ultoa_invert+0x9c>
    ee5e:	b4 e0       	ldi	r27, 0x04	; 4
    ee60:	3c d0       	rcall	.+120    	; 0xeeda <__ultoa_invert+0x9c>
    ee62:	67 0f       	add	r22, r23
    ee64:	78 1f       	adc	r23, r24
    ee66:	89 1f       	adc	r24, r25
    ee68:	9a 1f       	adc	r25, r26
    ee6a:	a1 1d       	adc	r26, r1
    ee6c:	68 0f       	add	r22, r24
    ee6e:	79 1f       	adc	r23, r25
    ee70:	8a 1f       	adc	r24, r26
    ee72:	91 1d       	adc	r25, r1
    ee74:	a1 1d       	adc	r26, r1
    ee76:	6a 0f       	add	r22, r26
    ee78:	71 1d       	adc	r23, r1
    ee7a:	81 1d       	adc	r24, r1
    ee7c:	91 1d       	adc	r25, r1
    ee7e:	a1 1d       	adc	r26, r1
    ee80:	20 d0       	rcall	.+64     	; 0xeec2 <__ultoa_invert+0x84>
    ee82:	09 f4       	brne	.+2      	; 0xee86 <__ultoa_invert+0x48>
    ee84:	68 94       	set
    ee86:	3f 91       	pop	r19
    ee88:	2a e0       	ldi	r18, 0x0A	; 10
    ee8a:	26 9f       	mul	r18, r22
    ee8c:	11 24       	eor	r1, r1
    ee8e:	30 19       	sub	r19, r0
    ee90:	30 5d       	subi	r19, 0xD0	; 208
    ee92:	31 93       	st	Z+, r19
    ee94:	de f6       	brtc	.-74     	; 0xee4c <__ultoa_invert+0xe>
    ee96:	cf 01       	movw	r24, r30
    ee98:	08 95       	ret
    ee9a:	46 2f       	mov	r20, r22
    ee9c:	47 70       	andi	r20, 0x07	; 7
    ee9e:	40 5d       	subi	r20, 0xD0	; 208
    eea0:	41 93       	st	Z+, r20
    eea2:	b3 e0       	ldi	r27, 0x03	; 3
    eea4:	0f d0       	rcall	.+30     	; 0xeec4 <__ultoa_invert+0x86>
    eea6:	c9 f7       	brne	.-14     	; 0xee9a <__ultoa_invert+0x5c>
    eea8:	f6 cf       	rjmp	.-20     	; 0xee96 <__ultoa_invert+0x58>
    eeaa:	46 2f       	mov	r20, r22
    eeac:	4f 70       	andi	r20, 0x0F	; 15
    eeae:	40 5d       	subi	r20, 0xD0	; 208
    eeb0:	4a 33       	cpi	r20, 0x3A	; 58
    eeb2:	18 f0       	brcs	.+6      	; 0xeeba <__ultoa_invert+0x7c>
    eeb4:	49 5d       	subi	r20, 0xD9	; 217
    eeb6:	31 fd       	sbrc	r19, 1
    eeb8:	40 52       	subi	r20, 0x20	; 32
    eeba:	41 93       	st	Z+, r20
    eebc:	02 d0       	rcall	.+4      	; 0xeec2 <__ultoa_invert+0x84>
    eebe:	a9 f7       	brne	.-22     	; 0xeeaa <__ultoa_invert+0x6c>
    eec0:	ea cf       	rjmp	.-44     	; 0xee96 <__ultoa_invert+0x58>
    eec2:	b4 e0       	ldi	r27, 0x04	; 4
    eec4:	a6 95       	lsr	r26
    eec6:	97 95       	ror	r25
    eec8:	87 95       	ror	r24
    eeca:	77 95       	ror	r23
    eecc:	67 95       	ror	r22
    eece:	ba 95       	dec	r27
    eed0:	c9 f7       	brne	.-14     	; 0xeec4 <__ultoa_invert+0x86>
    eed2:	00 97       	sbiw	r24, 0x00	; 0
    eed4:	61 05       	cpc	r22, r1
    eed6:	71 05       	cpc	r23, r1
    eed8:	08 95       	ret
    eeda:	9b 01       	movw	r18, r22
    eedc:	ac 01       	movw	r20, r24
    eede:	0a 2e       	mov	r0, r26
    eee0:	06 94       	lsr	r0
    eee2:	57 95       	ror	r21
    eee4:	47 95       	ror	r20
    eee6:	37 95       	ror	r19
    eee8:	27 95       	ror	r18
    eeea:	ba 95       	dec	r27
    eeec:	c9 f7       	brne	.-14     	; 0xeee0 <__ultoa_invert+0xa2>
    eeee:	62 0f       	add	r22, r18
    eef0:	73 1f       	adc	r23, r19
    eef2:	84 1f       	adc	r24, r20
    eef4:	95 1f       	adc	r25, r21
    eef6:	a0 1d       	adc	r26, r0
    eef8:	08 95       	ret

0000eefa <__prologue_saves__>:
    eefa:	2f 92       	push	r2
    eefc:	3f 92       	push	r3
    eefe:	4f 92       	push	r4
    ef00:	5f 92       	push	r5
    ef02:	6f 92       	push	r6
    ef04:	7f 92       	push	r7
    ef06:	8f 92       	push	r8
    ef08:	9f 92       	push	r9
    ef0a:	af 92       	push	r10
    ef0c:	bf 92       	push	r11
    ef0e:	cf 92       	push	r12
    ef10:	df 92       	push	r13
    ef12:	ef 92       	push	r14
    ef14:	ff 92       	push	r15
    ef16:	0f 93       	push	r16
    ef18:	1f 93       	push	r17
    ef1a:	cf 93       	push	r28
    ef1c:	df 93       	push	r29
    ef1e:	cd b7       	in	r28, 0x3d	; 61
    ef20:	de b7       	in	r29, 0x3e	; 62
    ef22:	ca 1b       	sub	r28, r26
    ef24:	db 0b       	sbc	r29, r27
    ef26:	0f b6       	in	r0, 0x3f	; 63
    ef28:	f8 94       	cli
    ef2a:	de bf       	out	0x3e, r29	; 62
    ef2c:	0f be       	out	0x3f, r0	; 63
    ef2e:	cd bf       	out	0x3d, r28	; 61
    ef30:	09 94       	ijmp

0000ef32 <__epilogue_restores__>:
    ef32:	2a 88       	ldd	r2, Y+18	; 0x12
    ef34:	39 88       	ldd	r3, Y+17	; 0x11
    ef36:	48 88       	ldd	r4, Y+16	; 0x10
    ef38:	5f 84       	ldd	r5, Y+15	; 0x0f
    ef3a:	6e 84       	ldd	r6, Y+14	; 0x0e
    ef3c:	7d 84       	ldd	r7, Y+13	; 0x0d
    ef3e:	8c 84       	ldd	r8, Y+12	; 0x0c
    ef40:	9b 84       	ldd	r9, Y+11	; 0x0b
    ef42:	aa 84       	ldd	r10, Y+10	; 0x0a
    ef44:	b9 84       	ldd	r11, Y+9	; 0x09
    ef46:	c8 84       	ldd	r12, Y+8	; 0x08
    ef48:	df 80       	ldd	r13, Y+7	; 0x07
    ef4a:	ee 80       	ldd	r14, Y+6	; 0x06
    ef4c:	fd 80       	ldd	r15, Y+5	; 0x05
    ef4e:	0c 81       	ldd	r16, Y+4	; 0x04
    ef50:	1b 81       	ldd	r17, Y+3	; 0x03
    ef52:	aa 81       	ldd	r26, Y+2	; 0x02
    ef54:	b9 81       	ldd	r27, Y+1	; 0x01
    ef56:	ce 0f       	add	r28, r30
    ef58:	d1 1d       	adc	r29, r1
    ef5a:	0f b6       	in	r0, 0x3f	; 63
    ef5c:	f8 94       	cli
    ef5e:	de bf       	out	0x3e, r29	; 62
    ef60:	0f be       	out	0x3f, r0	; 63
    ef62:	cd bf       	out	0x3d, r28	; 61
    ef64:	ed 01       	movw	r28, r26
    ef66:	08 95       	ret

0000ef68 <_exit>:
    ef68:	f8 94       	cli

0000ef6a <__stop_program>:
    ef6a:	ff cf       	rjmp	.-2      	; 0xef6a <__stop_program>
