
TankFu.elf:     file format elf32-avr

Sections:
Idx Name          Size      VMA       LMA       File off  Algn
  0 .data         00000016  00800100  00006ea4  00006fa4  2**0
                  CONTENTS, ALLOC, LOAD, DATA
  1 .text         00006ea4  00000000  00000000  00000100  2**8
                  CONTENTS, ALLOC, LOAD, READONLY, CODE
  2 .bss          00000d34  00800120  00800120  00006fc0  2**5
                  ALLOC
  3 .stab         000004f8  00000000  00000000  00006fbc  2**2
                  CONTENTS, READONLY, DEBUGGING
  4 .stabstr      0000024c  00000000  00000000  000074b4  2**0
                  CONTENTS, READONLY, DEBUGGING
  5 .comment      00000011  00000000  00000000  00007700  2**0
                  CONTENTS, READONLY
  6 .debug_aranges 000003e0  00000000  00000000  00007718  2**3
                  CONTENTS, READONLY, DEBUGGING
  7 .debug_info   00004553  00000000  00000000  00007af8  2**0
                  CONTENTS, READONLY, DEBUGGING
  8 .debug_abbrev 000011b7  00000000  00000000  0000c04b  2**0
                  CONTENTS, READONLY, DEBUGGING
  9 .debug_line   000012d9  00000000  00000000  0000d202  2**0
                  CONTENTS, READONLY, DEBUGGING
 10 .debug_frame  0000095c  00000000  00000000  0000e4dc  2**2
                  CONTENTS, READONLY, DEBUGGING
 11 .debug_str    00001183  00000000  00000000  0000ee38  2**0
                  CONTENTS, READONLY, DEBUGGING
 12 .debug_loc    0000376b  00000000  00000000  0000ffbb  2**0
                  CONTENTS, READONLY, DEBUGGING
 13 .debug_ranges 00000420  00000000  00000000  00013728  2**3
                  CONTENTS, READONLY, DEBUGGING

Disassembly of section .text:

00000000 <__vectors>:
       0:	0c 94 ea 24 	jmp	0x49d4	; 0x49d4 <__ctors_end>
       4:	0c 94 5d 25 	jmp	0x4aba	; 0x4aba <__bad_interrupt>
       8:	0c 94 5d 25 	jmp	0x4aba	; 0x4aba <__bad_interrupt>
       c:	0c 94 5d 25 	jmp	0x4aba	; 0x4aba <__bad_interrupt>
      10:	0c 94 5d 25 	jmp	0x4aba	; 0x4aba <__bad_interrupt>
      14:	0c 94 5d 25 	jmp	0x4aba	; 0x4aba <__bad_interrupt>
      18:	0c 94 5d 25 	jmp	0x4aba	; 0x4aba <__bad_interrupt>
      1c:	0c 94 5d 25 	jmp	0x4aba	; 0x4aba <__bad_interrupt>
      20:	0c 94 5d 25 	jmp	0x4aba	; 0x4aba <__bad_interrupt>
      24:	0c 94 5d 25 	jmp	0x4aba	; 0x4aba <__bad_interrupt>
      28:	0c 94 5d 25 	jmp	0x4aba	; 0x4aba <__bad_interrupt>
      2c:	0c 94 5d 25 	jmp	0x4aba	; 0x4aba <__bad_interrupt>
      30:	0c 94 5d 25 	jmp	0x4aba	; 0x4aba <__bad_interrupt>
      34:	0c 94 32 27 	jmp	0x4e64	; 0x4e64 <__vector_13>
      38:	0c 94 72 27 	jmp	0x4ee4	; 0x4ee4 <__vector_14>
      3c:	0c 94 5d 25 	jmp	0x4aba	; 0x4aba <__bad_interrupt>
      40:	0c 94 5d 25 	jmp	0x4aba	; 0x4aba <__bad_interrupt>
      44:	0c 94 5d 25 	jmp	0x4aba	; 0x4aba <__bad_interrupt>
      48:	0c 94 5d 25 	jmp	0x4aba	; 0x4aba <__bad_interrupt>
      4c:	0c 94 5d 25 	jmp	0x4aba	; 0x4aba <__bad_interrupt>
      50:	0c 94 5d 25 	jmp	0x4aba	; 0x4aba <__bad_interrupt>
      54:	0c 94 5d 25 	jmp	0x4aba	; 0x4aba <__bad_interrupt>
      58:	0c 94 5d 25 	jmp	0x4aba	; 0x4aba <__bad_interrupt>
      5c:	0c 94 5d 25 	jmp	0x4aba	; 0x4aba <__bad_interrupt>
      60:	0c 94 5d 25 	jmp	0x4aba	; 0x4aba <__bad_interrupt>
      64:	0c 94 5d 25 	jmp	0x4aba	; 0x4aba <__bad_interrupt>
      68:	0c 94 5d 25 	jmp	0x4aba	; 0x4aba <__bad_interrupt>
      6c:	0c 94 5d 25 	jmp	0x4aba	; 0x4aba <__bad_interrupt>

00000070 <__trampolines_end>:
      70:	81 00       	.word	0x0081	; ????
      72:	45 00       	.word	0x0045	; ????
      74:	27 ff       	sbrs	r18, 7
      76:	24 ff       	sbrs	r18, 4
      78:	2a 90       	ld	r2, -Y
      7a:	2b 1c       	adc	r2, r11
      7c:	21 0c       	add	r2, r1
      7e:	22 fb       	bst	r18, 2
      80:	85 00       	.word	0x0085	; ????
      82:	84 00       	.word	0x0084	; ????
      84:	89 03       	fmulsu	r16, r17
      86:	88 8d       	ldd	r24, Y+24	; 0x18
      88:	81 09       	sbc	r24, r1
      8a:	6f 02       	muls	r22, r31
      8c:	44 42       	sbci	r20, 0x24	; 36
      8e:	47 00       	.word	0x0047	; ????
      90:	45 01       	movw	r8, r10
      92:	b0 83       	st	Z, r27
      94:	b3 00       	.word	0x00b3	; ????
      96:	b1 01       	movw	r22, r2
      98:	25 11       	cpse	r18, r5
      9a:	8a 4f       	sbci	r24, 0xFA	; 250
      9c:	8b 03       	fmulsu	r16, r19

0000009e <eeprom_format_table>:
      9e:	5a 55 01 20 01 01 00 38 08 00 00 00 00 00 00 00     ZU. ...8........
	...

000000be <patchCommands>:
      be:	13 2a 16 2a 6a 2a 6e 2a 76 2a 17 2a 1c 2a 21 2a     .*.*j*n*v*.*.*!*
      ce:	7e 2a 24 2a 27 2a 2a 2a 67 2a                       ~*$*'***g*

000000d8 <fader>:
      d8:	00 40 88 91 d2 e4 ad b5 b6 be bf ff                 .@..........

000000e4 <map_uzeboxlogo2>:
      e4:	05 03 00 13 14 15 16 17 18 19 1a 1b 1c 1d 1e 1f     ................
	...

000000f5 <map_uzeboxlogo>:
      f5:	05 04 00 01 02 03 04 05 06 07 08 09 0a 0b 0c 0d     ................
     105:	00 0e 0f 10 11 12                                   ......

0000010b <logo_tileset>:
	...
     167:	00 00 00 49 00 00 00 00 00 49 52 52 00 00 00 49     ...I.....IRR...I
     177:	52 53 1c 25 00 49 52 52 24 25 25 1b 52 52 5c 2d     RS.%.IRR$%%.RR\-
     187:	2d 1c 12 12 00 00 00 00 00 00 00 00 00 00 00 00     -...............
     197:	40 49 49 49 00 40 49 49 52 5b 5b 5b 4a 52 52 5b     @III.@IIR[[[JRR[
     1a7:	1c 1c 13 12 5b 1c 24 1c 12 09 09 09 24 1b 12 09     ....[.$.....$...
     1b7:	09 09 09 0a 0a 0a 0a 0a 0a 0a 0a 13 0a 0a 12 0a     ................
     1c7:	0a 12 13 0a 00 00 00 00 00 00 00 00 92 52 52 52     .............RRR
     1d7:	52 52 52 49 13 12 13 09 00 1c 1b 13 0a 12 12 40     RRRI...........@
     1e7:	1b 65 64 1c 09 0a 00 09 24 1b 1c 65 12 00 00 25     .ed.....$..e...%
     1f7:	1c 1c 1c 1c 01 00 25 24 1c 1c 1c 1c 00 24 25 24     ......%$.....$%$
     207:	24 24 1c 1c 00 00 00 00 00 00 00 00 49 40 00 00     $$..........I@..
     217:	00 00 00 00 52 49 49 00 00 00 00 00 1c 5b 4a 48     ....RII......[JH
     227:	00 00 00 00 1c 25 52 49 00 00 00 00 65 24 64 49     .....%RI....e$dI
     237:	00 00 00 00 65 25 64 49 00 00 00 00 6d 2e 5c 49     ....e%dI....m.\I
	...
     24f:	00 00 40 52 00 00 00 00 00 49 52 5c 00 00 00 00     ..@R.....IR\....
     25f:	53 52 24 25 00 00 00 53 52 25 25 25 00 00 4a 52     SR$%...SR%%%..JR
     26f:	25 25 1b 00 00 00 5b 25 13 00 00 1b 00 5b 53 00     %%....[%.....[S.
     27f:	0a 1c 37 37 09 5b 1c 65 7f 37 2e 2e 52 2e 2e 1c     ..77.[.e.7..R...
     28f:	13 13 12 00 2e 25 1b 13 12 00 00 12 1c 1c 12 00     .....%..........
     29f:	00 12 25 1c 12 00 00 12 2e 37 1c 13 00 13 2e 37     ..%......7.....7
     2af:	36 1c 13 1b 37 37 2e 2e 25 13 1c 1c 2e 2e 2e 2e     6...77..%.......
     2bf:	1b 1c 1c 1c 6e 6e 6e 1c 1c 1c 1c 1c 09 13 13 12     ....nnn.........
     2cf:	12 13 13 00 13 13 13 13 13 1c 00 09 13 13 13 13     ................
     2df:	1c 01 00 37 13 13 13 1c 13 00 2e 2e 1b 1b 1c 1c     ...7............
     2ef:	00 1c 77 2e 1b 1b 25 00 13 7f 25 1c 1c 1c 01 0a     ..w...%...%.....
     2ff:	37 24 1c 1c 1c 13 0a 2e 25 25 09 00 13 2e 24 25     7$......%%....$%
     30f:	25 25 25 25 2e 25 25 25 25 25 25 25 25 25 2d 2e     %%%%.%%%%%%%%%-.
     31f:	25 1b 1c 1c 2e 2e 25 1c 13 25 1b 13 25 1c 1c 1c     %.....%..%..%...
     32f:	1c 01 09 52 1c 1c 13 00 01 1c 5b 5c 0a 00 01 65     ...R......[\...e
     33f:	77 5c 1b 00 01 6e 7f 6e 52 1b 00 00 6d 1c 52 49     w\...n.nR...m.RI
     34f:	00 00 00 00 1c 13 53 00 00 00 00 00 1c 52 4a 00     ......S......RJ.
     35f:	00 00 00 00 5b 5b 00 00 00 00 00 00 5c 00 00 00     ....[[......\...
	...
     38b:	13 5b 7f 77 6e 6e 6e 6e 13 65 77 76 6e 6e 6e 6e     .[.wnnnn.ewvnnnn
     39b:	1b 65 77 76 76 76 6e 77 1b 5b bf 76 b6 76 76 76     .ewvvvnw.[.v.vvv
     3ab:	09 13 6d bf b7 b6 b7 65 00 1b 12 5c 76 bf 76 6d     ..m....e...\v.vm
     3bb:	00 00 12 1b 12 5b 5b 5c 00 00 00 00 09 0a 12 13     .....[[\........
     3cb:	6e 77 24 1c 1c 1c 1c 1c 77 25 1c 1c 1c 1c 24 25     nw$.....w%....$%
     3db:	6e 1c 1c 1c 24 25 25 1b 1c 1c 24 25 25 13 00 00     n...$%%...$%%...
     3eb:	64 6d 6d 1b 00 09 6e bf 6d 5b 09 12 6e bf 6d 5b     dmm...n.m[..n.m[
     3fb:	5b 12 5b 64 5b 12 13 12 13 1b 12 12 09 01 00 00     [.[d[...........
     40b:	1c 24 2e 1c 09 00 09 6e 25 24 01 00 09 76 7f 7f     .$.....n%$...v..
     41b:	00 00 12 77 7f 7f 64 12 64 bf bf 77 5b 12 1b 09     ...w..d.d..w[...
     42b:	bf 6d 5b 12 1b 09 00 00 12 13 1b 09 00 00 00 00     .m[.............
     43b:	09 00 00 00 00 00 00 00 00 00 00 00 00 00 00 00     ................
     44b:	7f 7f 53 13 13 00 00 00 64 12 1b 01 00 00 00 00     ..S.....d.......
     45b:	1b 12 00 00 00 00 00 00 00 00 00 00 00 00 00 00     ................
	...
     493:	26 00 00 00 26 00 26 26 2f 00 00 00 2f 00 00 00     &...&.&&/.../...
     4a3:	37 00 00 00 37 00 00 00 ff 00 00 00 ff 00 00 00     7...7...........
     4b3:	bf 00 00 00 bf 00 00 bf 37 00 00 37 00 00 37 00     ........7..7..7.
     4c3:	00 26 26 00 00 00 26 26 00 00 00 00 00 00 00 00     .&&...&&........
     4d3:	26 26 26 00 26 26 26 26 00 00 2f 00 2f 00 00 00     &&&.&&&&.././...
     4e3:	00 37 00 00 37 00 00 00 ff 00 00 00 ff ff ff ff     .7..7...........
     4f3:	00 00 00 00 bf 00 00 00 00 00 00 00 37 00 00 00     ............7...
     503:	26 26 26 00 26 26 26 26 00 00 00 00 00 00 00 00     &&&.&&&&........
     513:	26 00 26 26 26 26 00 00 00 00 2f 00 00 00 2f 00     &.&&&&..../.../.
     523:	00 00 37 00 00 00 37 00 00 00 ff ff ff ff 00 00     ..7...7.........
     533:	00 00 bf 00 00 00 bf 00 00 00 37 00 00 00 37 00     ..........7...7.
     543:	26 00 26 26 26 26 00 00 00 00 00 00 00 00 00 00     &.&&&&..........
     553:	00 00 26 26 26 00 26 00 00 2f 00 00 2f 00 2f 00     ..&&&.&../.././.
     563:	37 00 00 00 37 00 00 37 ff 00 00 00 ff 00 00 00     7...7..7........
     573:	bf 00 00 00 bf 00 00 bf 37 00 00 37 00 00 37 00     ........7..7..7.
     583:	26 26 26 00 00 00 26 00 00 00 00 00 00 00 00 00     &&&...&.........
     593:	00 00 26 00 00 00 00 00 00 00 2f 00 00 00 00 00     ..&......./.....
     5a3:	00 37 00 00 00 00 00 00 ff 00 00 00 00 00 00 00     .7..............
     5b3:	00 bf 00 00 00 00 00 00 00 00 37 00 00 00 00 00     ..........7.....
     5c3:	00 00 26 00 00 00 00 00 00 00 00 00 00 00 00 00     ..&.............
	...
     5e7:	00 00 00 e4 00 00 00 00 09 9b ed f6 00 00 00 9b     ................
     5f7:	a4 ad bf bf 00 52 9b a4 76 7f 7f b7 5b 9b 6d 77     .....R..v...[.mw
     607:	7f 76 6e b7 00 00 00 00 00 00 00 00 00 00 00 00     .vn.............
     617:	5b b6 f6 f6 00 5b f6 ff ff ff ff bf f6 ff ff ff     [....[..........
     627:	ff bf bf ae ff bf ff ff ff b7 ad 65 bf bf ff ff     ...........e....
     637:	b7 b6 ad 65 b7 bf ff ff bf b7 ae 6e b7 bf ff ff     ...e.......n....
     647:	bf b7 b7 65 00 00 00 00 00 00 00 00 f6 f6 ed ed     ...e............
     657:	ad a4 a4 9b b6 6d 6d 5c 52 6e 65 64 65 65 65 52     .....mm\RnedeeeR
     667:	65 76 6d 25 5c 5c 52 53 6e 24 65 6e 65 52 52 6e     evm%\\RSn$eneRRn
     677:	25 25 24 25 5b 52 77 2d 25 25 25 24 52 6e 6e 2d     %%$%[Rw-%%%$Rnn-
     687:	25 25 25 25 00 00 00 00 00 00 00 00 9b 49 00 00     %%%%.........I..
     697:	00 00 00 00 a4 9b 92 00 00 00 00 00 25 64 93 49     ............%d.I
     6a7:	00 00 00 00 65 2e 9b 52 00 00 00 00 6d 25 65 52     ....e..R....m%eR
     6b7:	00 00 00 00 6d 2d 65 52 00 00 00 00 6e 2e 64 52     ....m-eR....n.dR
	...
     6cf:	00 00 49 5b 00 00 00 00 00 4a 5b 65 00 00 00 00     ..I[.....J[e....
     6df:	5b 9b 6d 2d 00 00 00 5b 5b 2d 2e 25 00 00 52 5b     [.m-...[[-.%..R[
     6ef:	2e 2e 1c 09 00 01 5b 2d 1c 01 09 1c 00 5c 5b 01     ......[-.....\[.
     6ff:	4a 65 77 7f 4a 5b 1c 6e 7f 77 77 76 9b 77 77 6d     Jew.J[.n.wwv.wwm
     70f:	65 6e 6e a4 77 6e 65 65 65 5b a4 b7 25 25 5c 52     enn.wneee[..%%\R
     71f:	52 6d bf bf 13 09 49 64 7f bf bf bf 09 5c 7f 7f     Rm....Id.....\..
     72f:	bf bf b7 bf 7f 7f 77 7f 7f b7 bf bf 77 77 7f 7f     ......w.....ww..
     73f:	6e b7 bf bf 77 7f 7f 6e 77 bf bf bf b6 ff ff ff     n...w..nw.......
     74f:	bf bf b7 5b bf ff ff ff bf bf a4 64 bf ff ff ff     ...[.......d....
     75f:	bf ad a4 7f bf ff ff ff bf a4 bf 7f ff ff ff bf     ................
     76f:	ad bf bf bf ff ff ff b6 bf bf bf 77 ff ff f7 bf     ...........w....
     77f:	bf bf 77 77 ff ff ff bf bf bf 64 52 6d 7f 6e 2e     ..ww......dRm.n.
     78f:	2d 2d 25 6e 7f 76 6e 6e 6e 2e 25 65 77 77 77 76     --%n.vnnn.%ewwwv
     79f:	2e 1c 25 24 7f 77 6e 25 1c 25 1c 1b 77 65 25 25     ..%$.wn%.%..we%%
     7af:	1c 09 0a 5b 6e 6e 1c 09 49 25 64 64 5b 49 4a 6e     ...[nn..I%dd[IJn
     7bf:	7f 64 5c 00 53 77 bf 77 5b 5c 00 00 6e 25 5b 4a     .d\.Sw.w[\..n%[J
     7cf:	00 00 00 00 1c 1b 5b 00 00 00 00 00 24 5b 53 00     ......[.....$[S.
     7df:	00 00 00 00 5b 5c 00 00 00 00 00 00 64 00 00 00     ....[\......d...
	...
     80b:	5b 5c 7f bf 77 76 77 77 5c 6d 7f b7 77 77 77 77     [\..wvww\m..wwww
     81b:	5c 6d 7f bf 77 77 77 bf 5c 64 bf bf bf bf bf 7f     \m..www.\d......
     82b:	0a 5c 6e bf bf bf bf 76 00 65 64 6d bf bf bf bf     .\n....v.edm....
     83b:	00 00 5b 6d 64 6d ad b6 00 00 00 00 12 5b 64 6d     ..[mdm.......[dm
     84b:	77 7f 6e 6e 77 bf bf bf 7f 76 6d 76 77 bf bf bf     w.nnw....vmvw...
     85b:	77 6d 6e 76 7f bf bf bf 6d 6e 76 7f bf b7 ad f6     wmnv....mnv.....
     86b:	76 bf bf 76 a4 ad ff ff bf b6 64 ad ff ff ff ff     v..v......d.....
     87b:	b6 ad bf ff ff ff ff f6 ad b6 ad 64 5b 52 00 00     ...........d[R..
     88b:	ff ff bf bf ad 5b 64 bf ff ff b6 ad ad bf ff bf     .....[d.........
     89b:	ff f6 ff ff ff ff bf 64 ff ff ff ff bf b6 76 5b     .......d......v[
     8ab:	ff ff ff bf bf 5b 00 00 ff ff ff 5c 00 00 00 00     .....[.....\....
     8bb:	a4 00 00 00 00 00 00 00 00 00 00 00 00 00 00 00     ................
     8cb:	bf bf 64 5c 5c 00 00 00 6e 5c 65 49 00 00 00 00     ..d\\...n\eI....
     8db:	6d 5b 00 00 00 00 00 00 00 00 00 00 00 00 00 00     m[..............
	...

0000090b <logoInitPatches>:
     90b:	00 14 09 00 00 80 0f 80 0f                          .........

00000914 <voice>:
	...
     930:	00 00 01 01 01 02 03 04 05 06 07 09 0a 0c 0e 10     ................
     940:	11 12 14 15 16 17 17 18 17 16 14 10 0a 05 f9 f3     ................
     950:	ed e7 e5 e2 e1 e0 e0 e1 e1 e3 e4 e6 e8 ea ec ee     ................
     960:	f0 f2 f4 f6 f8 fb fd 01 04 06 09 0b 0e 10 12 15     ................
     970:	18 1a 1d 1f 22 24 27 29 2b 2d 2d 2d 2d 2a 24 1e     ...."$')+----*$.
     980:	0f 01 f6 e3 dd d6 d0 d0 cf d0 d1 d3 d6 d9 dd e1     ................
     990:	e7 ec f2 f7 fe 03 08 0e 0d 11 0c 08 0b 08 0b 0d     ................
     9a0:	10 12 15 17 1a 1c 1d 1e 19 18 11 05 06 00 00 ff     ................
     9b0:	ff fd f6 f6 ee ee ee e9 e9 e6 da dd db db e2 e6     ................
     9c0:	eb f2 f9 01 08 10 18 1f 28 2d 32 36 30 2c 25 18     ........(-260,%.
     9d0:	10 0a fd f3 f4 ee f0 f1 f1 ec ed e3 db de dc df     ................
     9e0:	e7 e9 ed f3 ea f2 ef ec f5 f7 ff 07 10 18 1f 26     ...............&
     9f0:	2c 31 36 38 38 39 30 2a 23 1c 09 fb f3 da d3 cc     ,168890*#.......
     a00:	c4 c9 c9 c8 cd c6 c7 cd cf d8 e1 e9 f4 fd 0c 16     ................
     a10:	21 2c 35 3d 42 4a 47 47 4c 3e 3e 35 2e 21 0c 01     !,5=BJGGL>>5.!..
     a20:	ec e5 cf cc c4 bf bc b5 b9 bb c0 c8 ce d4 de dd     ................
     a30:	e8 ee f0 fc 03 0d 1a 24 2f 37 3f 46 4b 4c 51 46     .......$/7?FKLQF
     a40:	44 3d 30 2f 29 17 0e ff e4 d4 c0 b8 ac ae af b5     D=0/)...........
     a50:	ba c4 cb d3 dc e4 ed f7 00 0d 15 20 28 32 33 37     ........... (237
     a60:	37 26 2c 21 16 1b 14 15 10 0b 03 ff f9 f0 f3 e9     7&,!............
     a70:	eb e3 d9 e0 de e4 ec f1 f5 fc f9 ff 02 05 07 04     ................
     a80:	08 0b 05 07 0c 04 0a 0a 0a 0a 06 09 04 07 0b 0b     ................
     a90:	0b 0c 06 02 fb fb f7 f0 f4 e9 e5 eb eb f1 f8 fd     ................
     aa0:	03 05 0a 0b 06 0c 0c 07 0a 08 04 ff fc f9 f8 f9     ................
     ab0:	fd fa f9 fd fd 02 09 0c 11 11 15 13 0e 15 11 0f     ................
     ac0:	11 04 fe fd f2 ed ec ed ea e1 e3 e2 db e0 e3 e0     ................
     ad0:	e7 eb ef f6 fc 04 0a 12 1a 1f 25 2a 2a 2f 2b 2e     ..........%**/+.
     ae0:	2f 2b 2c 22 15 15 06 fd fa ea e4 da d7 d1 ce d3     /+,"............
     af0:	d1 d0 d6 d6 d9 dd dd e5 ea f2 fb fe 06 0f 13 1d     ................
     b00:	24 2b 30 35 39 38 3b 3b 30 32 28 1f 19 0c fd f4     $+0598;;02(.....
     b10:	e5 d4 d0 ca c8 c9 ca c6 cb ce d3 db e3 ea f4 fc     ................
     b20:	04 0d 16 1d 24 28 2c 2a 2b 27 25 28 25 20 1a 0f     ....$(,*+'%(% ..
     b30:	06 02 f7 f2 ed ea e5 e5 e0 d8 dc dc df e7 eb ef     ................
     b40:	f4 fa fa ff 07 0c 15 18 1b 1b 15 12 15 17 15 19     ................
     b50:	12 09 0c 07 07 05 00 fc fa f0 e9 ec ec ec ee ef     ................
     b60:	e4 e3 e6 e6 ed f3 f9 00 05 08 0c 11 0d 12 17 16     ................
     b70:	18 18 0a 09 05 ff 02 fe 01 03 03 05 00 ff 01 ff     ................
     b80:	03 fe ff 02 04 06 08 08 fd fc fa f1 f5 f2 f0 f6     ................
     b90:	f6 f7 f5 f1 ea ec ec ee ef ed f2 f6 fc 02 07 0d     ................
     ba0:	12 17 1b 1f 21 25 20 20 1e 19 1e 20 1d 1b 15 fe     ....!%  ... ....
     bb0:	f3 ef ea e8 e5 e3 de dd dd dd d8 d9 d9 d9 df e3     ................
     bc0:	eb f3 f9 02 07 0b 12 17 1d 21 27 2c 30 30 30 2e     .........!',000.
     bd0:	1e 1a 1b 15 18 0e 08 fe e4 dc d9 d2 d0 d7 da db     ................
     be0:	e0 e0 de e4 e9 ef f6 fd 03 0b 12 18 1f 22 20 1f     ............." .
     bf0:	21 1d 1a 1f 1c 1e 1a 09 07 01 f6 f6 f4 ea e7 e0     !...............
     c00:	d7 da d9 dd e1 e7 ed f4 f7 fd ff ff 07 0d 13 1c     ................
     c10:	21 24 26 20 1a 15 17 13 10 12 14 10 07 05 fd e9     !$& ............
     c20:	e2 e2 e0 e3 e8 eb ec e5 e3 e3 e4 e9 ef f6 fb 02     ................
     c30:	08 0d 10 16 13 0e 11 13 13 15 18 19 19 0a 03 05     ................
     c40:	00 fd 05 06 05 06 00 f1 f3 f4 f7 fb fe 01 02 f6     ................
     c50:	f7 f5 f1 f4 f6 f7 f2 f4 f7 f7 f9 fb fc ff 03 fb     ................
     c60:	f8 fd f5 f7 fc fd fe 04 09 0f 15 1b 1d 1c 11 0b     ................
     c70:	0f 11 18 1e 22 21 1d 06 fc f6 e7 e1 e4 e7 e9 ed     ...."!..........
     c80:	ef e4 e4 dc d0 d4 d7 db e5 f0 f8 01 08 0b 0e 16     ................
     c90:	1c 24 29 2f 32 2e 28 29 22 17 16 16 0a 09 01 f6     .$)/2.()".......
     ca0:	f0 e5 e3 d5 d6 d2 cf d8 db e3 e8 ef ed ed f5 fc     ................
     cb0:	03 0d 15 1d 1f 1f 25 28 29 2d 23 1e 1b 09 04 06     ......%()-#.....
     cc0:	02 04 06 06 fe ee de ca c6 c3 c3 ca d2 da e4 ed     ................
     cd0:	f5 fe 01 02 0b 12 1c 27 32 39 40 3d 32 32 29 1a     .......'29@=22).
     ce0:	18 1b 16 18 0d 05 f5 e2 dc d0 d0 ce d0 d2 cb cc     ................
     cf0:	d0 d3 d7 de e8 f0 fa 04 0e 17 1c 1f 21 18 1a 19     ............!...
     d00:	15 1b 1e 21 23 20 20 21 18 0e 07 fd f6 f4 f7 f7     ...!#  !........
     d10:	fa fc f6 f6 f6 f0 e8 e8 e3 e5 ea ef f3 f7 f4 f1     ................
     d20:	f4 ee f3 f8 fb 00 0a 0f 12 13 0e 04 ff fd fe 01     ................
     d30:	06 0a 0e 0c 0b 0e 0f 0b 10 14 18 1b 1d 19 12 0b     ................
     d40:	ff fa f0 ee eb e5 ea ed f1 f2 ee ee e6 de dc de     ................
     d50:	e1 e8 f1 f9 01 09 10 13 18 1c 1d 1b 1f 1f 21 21     ..............!!
     d60:	20 16 10 07 01 f9 f0 f0 f0 ec ef f1 f1 f1 eb e6      ...............
     d70:	e7 e9 ee f4 fa ff 04 04 04 09 0d 0e 10 16 19 1d     ................
     d80:	1d 1c 12 08 01 fc fa fb fe fe 01 03 02 fb f3 ee     ................
     d90:	e2 d9 d8 d9 dc e2 ea f0 f6 fc 01 02 08 0e 14 1a     ................
     da0:	20 26 2a 2b 26 20 1c 19 16 11 07 04 04 ff fe fd      &*+& ..........
     db0:	fb f5 e9 e2 df d8 d7 d9 dd e1 e6 e9 ed f4 fa ff     ................
     dc0:	05 0c 10 13 15 12 0b 08 08 0a 0c 0f 12 12 14 16     ................
     dd0:	15 11 0d 07 fc fa fa fc fe 00 01 00 fb f1 ee ea     ................
     de0:	eb ed f2 f6 fa fc fe f8 f5 f5 f7 fa fe 01 03 09     ................
     df0:	0d 10 11 12 11 0a 01 ff fc f9 fa fc fe 01 03 03     ................
     e00:	06 08 0a 0c 0b 08 07 06 00 f8 f7 f7 f7 f8 fb fa     ................
     e10:	f8 f9 fb fd fe fe fe f8 f4 f6 f8 fb fe 02 05 06     ................
     e20:	04 06 07 0a 0c 0f 11 11 0f 0b 01 fb f5 f1 ef f0     ................
     e30:	f1 f1 f5 f9 fd 00 03 05 04 00 ff 00 01 03 06 09     ................
     e40:	0b 0b 09 08 09 09 0a 08 06 04 02 fb f7 f7 f6 f7     ................
     e50:	f8 fa f9 fa f8 f8 f8 f9 f9 f8 f6 f3 f3 f5 f7 fa     ................
     e60:	fd 00 03 05 07 0b 0e 11 14 16 16 15 11 0c 0a 06     ................
     e70:	04 03 02 01 ff fe fd fd fd fc fa f7 f1 ed eb eb     ................
     e80:	ec ee f2 f5 f8 fb ff 02 05 08 09 0a 0a 08 04 04     ................
     e90:	04 04 04 05 05 05 04 04 05 06 07 07 07 06 04 02     ................
     ea0:	01 00 00 fe fd fb fa fa f9 f9 fa fb fc fc fb f9     ................
     eb0:	f9 f9 f9 fa fc fe ff 01 03 05 06 07 08 07 06 04     ................
     ec0:	02 00 00 00 00 01 01 01 02 02 02 02 02 01 00 ff     ................
     ed0:	fe fd fc fd fd fd fe fe ff ff 00 00 00 01 01 02     ................
     ee0:	01 01 00 ff ff ff fe ff ff 00 01 02 03 03 04 04     ................
     ef0:	03 01 ff fd fb fb fb fb fb fb fc fd ff 00 01 02     ................
     f00:	03 04 03 03 03 03 03 03 03 03 04 04 03 02 01 01     ................
     f10:	01 00 ff fe fc fc fc fd fd fd fd fc fb fc fd fe     ................
     f20:	ff 00 01 01 01 00 ff fe ff 00 00 ff 00 01 03 05     ................
     f30:	06 08 08 06 02 ff fe ff 00 00 ff fe 00 02 03 03     ................
     f40:	02 01 00 fe fd fc fb fb f9 f7 f8 fb fd fd fd fe     ................
     f50:	01 04 06 07 06 02 ff fc fe 01 04 03 ff f9 f8 fb     ................
     f60:	00 04 06 08 0a 0b 0c 0d 0f 0c 01 f4 ee f0 f6 fe     ................
     f70:	04 07 05 fe fd fb f8 f4 ee ee f1 f3 f7 fc 01 04     ................
     f80:	04 05 08 06 04 07 0b 0f 0f 0c 0d 0a 04 03 05 02     ................
     f90:	ff ff fc fa fd ff 00 fa f6 ef ef f4 f4 ee e9 ee     ................
     fa0:	f7 02 0c 16 18 0c 06 0f 1a 1d 0f 00 fa f5 ed f1     ................
     fb0:	fd 05 04 fe 07 13 1b 1e 15 06 e8 cc cc d8 ea f6     ................
     fc0:	f9 ed df df e9 fa 08 0f 16 1d 24 24 25 30 31 17     ..........$$%01.
     fd0:	f9 f4 f3 f8 06 1b 2c 25 07 f0 ee ed db d3 dd ed     ......,%........
     fe0:	f8 f4 e9 df db d2 e1 f8 0a 10 12 14 19 13 12 1f     ................
     ff0:	2b 21 06 f1 e2 ef 09 25 30 1f fb ea ef ec e9 f5     +!.....%0.......
    1000:	f5 e0 d6 e1 f6 0b 1c 34 4b 41 10 d9 e0 fb 06 f4     .......4KA......
    1010:	f4 ff 01 ee e1 f2 fc f2 f1 09 19 11 08 0d 11 fd     ................
    1020:	ea e0 e1 f0 f5 e8 d3 dd eb fe 0e 1c 23 33 4c 62     ............#3Lb
    1030:	5a 2d 07 df dd d2 d6 e9 f5 02 1b 36 28 f4 d6 dd     Z-.........6(...
    1040:	cd b5 ba ca e0 f6 10 26 1c ef c6 dd 04 1f 27 34     .......&......'4
    1050:	3d 3a 25 21 48 67 61 18 d3 bd b7 cd eb f9 e6 ea     =:%!Hga.........
    1060:	f0 f1 d6 cc bd b1 c4 d8 ef 02 0c 10 28 55 77 5f     ............(Uw_
    1070:	17 ee f2 fd f6 05 22 31 2b 0b 03 ff f4 0c 2b 23     ......"1+.....+#
    1080:	0f f1 d6 b8 af c6 e2 f7 f0 ce b0 c5 da eb f9 0d     ................
    1090:	16 1c 34 54 64 47 0b fd 01 0e 0e f4 ed 06 1e 31     ..4TdG.........1
    10a0:	2e 31 29 ef ca b9 d9 f2 e7 c1 b6 d8 ff 03 db c9     .1).............
    10b0:	e7 02 10 19 2d 34 33 18 1f 40 54 40 04 e2 e9 ee     ....-43..@T@....
    10c0:	e8 d9 d8 f5 11 15 e6 bb ab c9 df f2 fe 14 29 30     ..............)0
    10d0:	15 f5 08 30 3a 1d ed fb fe f5 f9 10 21 30 20 04     ...0:.......!0 .
    10e0:	fb e4 e3 eb 18 2b 16 ce ac c5 e4 00 06 fe d5 d8     .....+..........
    10f0:	e9 fa 04 0f 1d 29 48 5c 3e f7 c7 dc f7 0a 14 19     .....)H\>.......
    1100:	07 f4 03 f5 e6 06 2b 37 ef a4 b8 dd fd f7 db d4     ......+7........
    1110:	f7 0b 07 e1 e9 0b 1c 22 2b 3d 45 3e 27 3d 54 4b     ......."+=E>'=TK
    1120:	00 e7 d9 d4 cc b8 cf e9 03 07 db 9e a5 c5 dc e3     ................
    1130:	ef fd 0e 1c 29 19 00 00 29 41 42 13 0b 12 0c 19     ....)...)AB.....
    1140:	18 20 3d 4f 32 ee d6 e7 f0 f3 f2 eb c3 ca d6 ed     . =O2...........
    1150:	f1 f4 cd cf e0 ed f6 fb 03 13 2b 3c 2d fc f1 eb     ..........+<-...
    1160:	fa 02 06 1c 34 3c 14 e5 ea ff 23 37 43 12 d0 cf     ....4<....#7C...
    1170:	d3 d2 cf d6 e8 01 08 f7 da ee fd 0f 15 1f 2b 38     ..............+8
    1180:	2f 25 2b 2a f9 fb 04 08 ce c2 d7 f3 0d 14 ee b3     /%+*............
    1190:	c4 d9 ec f0 fb 0d 1d 11 01 ee f1 fd 10 24 2f 39     .............$/9
    11a0:	21 04 00 f9 06 0a 1e 36 47 23 d2 d1 e5 ef f5 fb     !......6G#......
    11b0:	e4 dc eb f6 fe f7 db e3 f3 00 05 07 10 21 2f 16     .............!/.
    11c0:	e8 e4 f9 fe ee f2 00 0d 1c 25 1c f6 e3 ee 09 1a     .........%......
    11d0:	28 20 05 dd c6 cd d9 e4 f0 02 0e 13 fd f4 03 11     ( ..............
    11e0:	20 26 31 3d 48 3e 23 0f ea e9 fd 02 f5 e2 da ea      &1=H>#.........
    11f0:	f8 e8 cb bd c5 d3 dc e7 f1 fe 00 f7 f1 f8 fe 02     ................
    1200:	0d 1c 27 33 3e 38 18 05 09 17 26 32 39 2e 0f df     ..'3>8....&29...
    1210:	cd e0 f2 f4 e5 e3 ed f3 f4 f5 e4 e0 ed f6 01 08     ................
    1220:	0d 0b 06 f2 e9 f3 fa fe fb f8 03 11 19 14 0c 0e     ................
    1230:	13 0b 0a 18 20 17 03 f8 e3 d5 dc e5 f0 f9 00 06     .... ...........
    1240:	04 f6 f4 00 0d 17 1e 26 29 23 12 08 00 f8 f9 f3     .......&)#......
    1250:	f6 fd ff f7 f2 eb e4 db de e6 ed f4 fb fc f5 f0     ................
    1260:	f0 f7 fe 01 05 0f 19 1f 22 26 29 1b 09 0e 1a 1e     ........"&).....
    1270:	14 0a 02 f6 ef eb ed f4 f0 ec f2 f8 fc ff f4 ec     ................
    1280:	f4 fb 01 08 0b 07 fc ef eb ef f3 f9 ff fe fe 05     ................
    1290:	09 05 05 0b 10 16 18 10 0a 05 f7 f5 fc f8 ea e8     ................
    12a0:	f0 f6 fc 03 0a 07 00 04 0e 15 1c 21 24 21 1c 0e     ...........!$!..
    12b0:	f8 f5 f7 f2 f6 fa fe 02 f4 e0 e3 e3 db e0 e7 e7     ................
    12c0:	e5 e4 e4 ea f0 f6 fd 04 0a 0f 16 1f 27 2c 31 38     ............',18
    12d0:	2e 17 19 20 16 0f 0e 01 f4 f9 f7 f0 f3 f0 ee f2     ... ............
    12e0:	f8 f9 ef ea f0 f5 f7 f7 f7 ed e0 de e3 e7 ed f3     ................
    12f0:	fc 02 ff 03 0d 0a 0b 14 19 1d 25 28 1e 10 05 f9     ..........%(....
    1300:	f9 01 04 f9 ee f5 fc fd 06 0c 03 02 0c 0f 0f 13     ................
    1310:	0f 0b 14 12 f9 f0 f3 ef f1 f9 fe f9 f2 f1 eb e1     ................
    1320:	dd e0 e3 e7 ea e8 e5 e7 ef f7 00 07 0e 15 18 1c     ................
    1330:	27 30 34 38 3d 33 17 04 fe fc 00 04 fe f5 fa 00     '048=3..........
    1340:	f5 ee f3 f7 fb 00 f6 f0 f8 f9 fa 03 00 eb e1 e2     ................
    1350:	e2 e7 f0 f6 f8 fb 00 00 ff 01 06 0b 0f 11 0e 08     ................
    1360:	08 0a fe f8 ff 01 03 07 05 ff 02 09 0b 10 11 0a     ................
    1370:	0c 13 18 1d 1d 16 11 13 0a f8 f4 f7 f4 f5 f4 ed     ................
    1380:	ec ed ec e7 dd d7 d3 d1 d5 db e3 ea ef f6 fd 03     ................
    1390:	0a 10 16 1c 21 26 2b 2d 2e 2e 2b 1e 12 0f 09 05     ....!&+-..+.....
    13a0:	07 01 fd 00 01 fa f6 f6 f7 f9 f7 f2 f0 ee ea ea     ................
    13b0:	e9 e5 e7 ea ea ed f2 f5 f9 fd 01 02 01 03 07 09     ................
    13c0:	0c 10 14 13 10 10 0c 06 05 06 06 05 06 08 05 02     ................
    13d0:	03 05 04 01 fe fe fe ff 01 02 02 05 03 fb fa fc     ................
    13e0:	fc fc fb f9 fa f9 f9 f9 f8 f7 f6 f6 f5 f5 f5 f7     ................
    13f0:	fa fc fe 00 02 04 07 08 0a 0c 0e 0e 0d 0c 08 07     ................
    1400:	07 04 02 03 03 02 00 00 03 03 01 ff fe 00 fe fc     ................
    1410:	fe ff ff fe f9 f7 f7 f8 f8 f9 f9 fa fc fd fe fe     ................
    1420:	fe fe ff ff ff ff 00 01 02 04 04 02 03 04 02 04     ................
    1430:	04 06 07 07 03 03 05 05 03 04 06 05 04 02 02 05     ................
    1440:	02 fd fd fd fe fc f9 fa fc fc fb f9 f6 f3 f8 f6     ................
    1450:	f5 f8 f8 f9 fb fd fe 00 02 04 05 06 07 08 0a 0d     ................
    1460:	0e 0e 0c 0a 08 06 05 01 02 04 02 fe 01 01 fd 00     ................
    1470:	04 01 fa f6 f6 f8 fa f5 f5 f6 f7 f8 f8 f8 fa fc     ................
    1480:	ff 01 01 fe 00 02 00 04 06 08 08 06 05 03 05 00     ................
    1490:	02 08 08 01 01 04 06 09 0a 02 fc fe fc fa fa 00     ................
    14a0:	00 00 04 06 ff fb 01 00 fc fa fb fb fc fd fe 00     ................
    14b0:	fb fb ff ff fd f3 f7 fa fa fc fd fe 00 03 05 07     ................
    14c0:	08 05 04 04 07 01 02 09 0a 05 07 0a 01 01 06 01     ................
    14d0:	00 02 fb fe 04 0c 0c fd fd 05 fc f6 f8 f4 f6 f7     ................
    14e0:	f7 f7 f8 fa fb ff fb fd ff ff f9 f5 fc fd ff 01     ................
    14f0:	04 04 06 00 ff 06 09 0c 08 03 06 07 09 0d 0c 03     ................
    1500:	09 0a fd 01 03 fc 03 03 02 fd fe 04 fb f6 fd fc     ................
    1510:	f7 f7 f3 f5 f7 f0 f3 f9 fc ff fc f6 fa fc fe ff     ................
    1520:	00 03 05 07 08 0a 0b 0d 0b 0b 06 0b 0b 05 06 06     ................
    1530:	09 04 01 04 fe 00 01 f8 fd 01 ff fd f9 f7 f5 f5     ................
    1540:	f9 f7 f7 f9 f9 fa fb fb fd fe fb ff 02 04 06 04     ................
    1550:	03 05 01 07 01 02 05 05 fe 02 04 06 07 09 04 ff     ................
    1560:	05 00 00 03 ff fe ff fc 00 ff 01 ff 01 fc 00 00     ................
    1570:	fe fc fc fd ff 00 ff fe 03 fd f8 00 f9 fe fe 00     ................
    1580:	fb fd ff fe ff 02 00 01 03 ff 01 03 01 00 04 04     ................
    1590:	05 06 06 01 06 05 06 02 03 00 02 fe 03 03 05 ff     ................
    15a0:	05 ff fa fc f9 fa fa fb fb fc fc fc fe fd f8 fe     ................
    15b0:	fb fd fe ff fe fe 01 01 01 02 02 04 00 01 04 04     ................
    15c0:	06 05 08 08 03 06 07 04 07 03 02 ff ff 01 00 fd     ................
    15d0:	01 fd ff fd ff fc fa fa fa fb fa fb fc f9 fa fd     ................
    15e0:	fc fd fe ff 00 01 fd 02 01 01 03 04 04 05 06 06     ................
    15f0:	03 03 05 03 04 05 05 04 03 05 03 05 02 fe fe fa     ................
    1600:	fe fe fe ff fc fc fe fc f9 fc fb fb fc fd fd ff     ................
    1610:	fe fc ff ff 01 02 02 04 03 ff 03 00 01 02 02 03     ................
    1620:	00 01 03 02 01 04 02 01 05 01 00 02 01 01 04 ff     ................
    1630:	fd 00 fc ff 00 00 fe ff ff 00 ff fd ff 00 ff 00     ................
    1640:	00 fc fd fb fc fd fe 00 ff 00 02 ff fd 01 fd ff     ................
    1650:	00 00 01 ff 00 01 01 02 04 03 04 06 03 03 05 04     ................
    1660:	05 06 01 ff 01 02 02 03 fe fe 00 fc ff fc fa fd     ................
    1670:	fc fc fd fc fa fb fa fb fb fe fe ff ff 00 ff 01     ................
    1680:	01 01 01 03 03 00 02 03 03 05 06 06 06 07 08 04     ................
    1690:	02 05 03 02 02 fd fe 00 00 fd fb fc fd fb fd fc     ................
    16a0:	fa fc fc fc fc fe fb fa fd fc fd ff 00 00 01 02     ................
    16b0:	04 01 02 03 03 04 05 02 01 04 01 01 05 04 03 04     ................
    16c0:	05 02 01 03 02 00 03 fd fa ff ff fb fb fe fd fd     ................
    16d0:	fe fe fe fc fd fe fe ff fd fe ff ff ff 00 02 01     ................
    16e0:	01 03 00 00 02 01 01 02 03 fe ff 02 ff 00 02 02     ................
    16f0:	02 03 03 03 03 01 01 02 02 ff fd 00 01 fc fe 00     ................
    1700:	ff ff 00 01 ff ff 01 fe ff 00 fb fd fe fd fe ff     ................
    1710:	00 ff 00 00 ff 02 00 fe 00 01 ff fe 01 00 01 01     ................
    1720:	02 02 03 03 04 04 03 03 04 03 04 01 00 01 00 fe     ................
    1730:	fe fe fd ff ff ff fe 01 fd fb fe fa fb fd fc fd     ................
    1740:	fe fe fe ff 00 00 01 01 00 01 01 02 01 00 02 02     ................
    1750:	02 03 03 04 04 05 05 03 04 05 01 02 01 ff 00 00     ................
    1760:	fc fe fc fc fd fd fd fe fe fc fd fd fd fe fc fc     ................
    1770:	fe fd fe ff 00 01 02 02 03 03 04 05 02 01 02 00     ................
    1780:	02 02 00 03 02 02 03 03 02 03 01 01 01 00 01 01     ................
    1790:	fc ff fd fc fd fd fd fe fe fe ff ff ff 01 fd fd     ................
    17a0:	00 fe ff 00 00 01 01 ff 03 00 00 03 01 00 02 ff     ................
    17b0:	02 ff fd 00 ff ff 01 01 01 03 02 02 03 02 03 03     ................
    17c0:	ff 01 01 ff 01 ff fe 00 ff 00 00 00 00 02 fe fe     ................
    17d0:	00 fd fe fd fd fe fd fd ff fd fe 00 ff 00 00 00     ................
    17e0:	02 00 fe 00 00 00 01 01 02 03 03 04 04 04 05 04     ................
    17f0:	03 04 03 03 02 00 00 00 fd fe fe fd fe ff fd fe     ................
    1800:	fe fd fe fc fb fd fc fd fe fe fe ff 00 00 00 01     ................
    1810:	01 01 01 02 02 02 01 02 02 02 03 03 03 03 03 03     ................
    1820:	03 02 03 02 01 01 ff ff fe fe fd fd fe fd fe fe     ................
    1830:	fe ff fe fe fe fe ff fe fe ff ff 00 00 00 01 01     ................
    1840:	01 02 02 02 02 01 02 01 00 01 01 00 01 01 01 01     ................
    1850:	01 01 01 01 00 00 00 00 ff fe ff ff ff ff ff ff     ................
    1860:	ff ff 00 00 00 00 ff 00 00 ff 00 00 00 00 00 00     ................
	...
    1878:	00 00 ff 00 00 00 00 00 00 00 01 01 01 01 01 00     ................
    1888:	01 01 01 00 00 00 00 00 00 00 00 00                 ............

00001894 <strB10>:
    1894:	52 65 61 64 20 74 68 65 20 6d 61 6e 75 61 6c 00     Read the manual.

000018a4 <strB9>:
    18a4:	4e 65 65 64 20 68 65 6c 70 3f 00                    Need help?.

000018af <strB8>:
    18af:	54 68 61 74 27 73 20 69 74 3f 00                    That's it?.

000018ba <strB7>:
    18ba:	41 20 74 75 72 6b 65 79 20 73 68 6f 6f 74 00        A turkey shoot.

000018c9 <strB6>:
    18c9:	2a 59 41 57 4e 2a 00                                *YAWN*.

000018d0 <strB5>:
    18d0:	54 6f 6f 20 65 61 73 79 00                          Too easy.

000018d9 <strB4>:
    18d9:	41 74 20 6c 65 61 73 74 20 74 72 79 00              At least try.

000018e6 <strB3>:
    18e6:	42 72 6f 6b 65 6e 20 62 75 74 74 6f 6e 3f 00        Broken button?.

000018f5 <strB2>:
    18f5:	4c 4f 4c 00                                         LOL.

000018f9 <strB1>:
    18f9:	59 6f 75 20 73 75 63 6b 20 62 72 6f 00              You suck bro.

00001906 <strHighscores>:
    1906:	54 61 6e 6b 20 52 61 6e 6b 00                       Tank Rank.

00001910 <str2Player>:
    1910:	50 6c 61 79 65 72 20 76 73 20 50 6c 61 79 65 72     Player vs Player
	...

00001921 <str1Player>:
    1921:	50 6c 61 79 65 72 20 76 73 20 43 50 55 00           Player vs CPU.

0000192f <strCopyright>:
    192f:	28 43 29 20 32 30 31 34 20 4c 61 77 72 65 6e 63     (C) 2014 Lawrenc
    193f:	65 20 42 72 6f 6f 6b 73 00                          e Brooks.

00001948 <map_rocket_right_1>:
    1948:	01 01 26                                            ..&

0000194b <map_rocket_right_0>:
    194b:	01 01 25                                            ..%

0000194e <map_rocket_up_1>:
    194e:	01 01 24                                            ..$

00001951 <map_rocket_up_0>:
    1951:	01 01 23                                            ..#

00001954 <map_ball>:
    1954:	01 01 22                                            .."

00001957 <map_explosion_2>:
    1957:	02 02 0c 0d 0d 0c                                   ......

0000195d <map_explosion_1>:
    195d:	02 02 0a 0b 18 19                                   ......

00001963 <map_explosion_0>:
    1963:	02 02 08 09 16 17                                   ......

00001969 <map_tank2_right_1>:
    1969:	02 02 14 15 20 21                                   .... !

0000196f <map_tank2_right_0>:
    196f:	02 02 12 13 1e 1f                                   ......

00001975 <map_tank2_up_1>:
    1975:	02 02 10 11 1c 1d                                   ......

0000197b <map_tank2_up_0>:
    197b:	02 02 0e 0f 1a 1b                                   ......

00001981 <map_tank1_right_1>:
    1981:	02 02 06 07 14 15                                   ......

00001987 <map_tank1_right_0>:
    1987:	02 02 04 05 12 13                                   ......

0000198d <map_tank1_up_1>:
    198d:	02 02 02 03 10 11                                   ......

00001993 <map_tank1_up_0>:
    1993:	02 02 00 01 0e 0f                                   ......

00001999 <map_metal_bl>:
    1999:	01 01 09                                            ...

0000199c <map_metal_tr>:
    199c:	01 01 0b                                            ...

0000199f <map_metal_br>:
    199f:	01 01 0a                                            ...

000019a2 <map_metal_tl>:
    19a2:	01 01 09                                            ...

000019a5 <map_tile_exp_2>:
    19a5:	01 01 08                                            ...

000019a8 <map_tile_exp_1>:
    19a8:	01 01 07                                            ...

000019ab <map_tile_exp_0>:
    19ab:	01 01 06                                            ...

000019ae <map_rocket_itm>:
    19ae:	01 01 04                                            ...

000019b1 <map_explode_itm>:
    19b1:	01 01 03                                            ...

000019b4 <map_speed_itm>:
    19b4:	01 01 02                                            ...

000019b7 <map_metal>:
    19b7:	01 01 05                                            ...

000019ba <map_brick>:
    19ba:	01 01 01                                            ...

000019bd <map_splash>:
    19bd:	15 04 0d 0e 0f 10 11 12 13 14 15 16 00 17 00 00     ................
    19cd:	00 10 11 0f 16 00 18 00 19 00 1a 00 1b 1c 1d 1e     ................
    19dd:	1f 20 00 00 00 00 21 22 00 1a 00 1b 00 19 00 23     . ....!".......#
    19ed:	11 24 1a 00 1b 25 26 00 00 00 00 27 28 00 1a 00     .$...%&....'(...
    19fd:	1b 00 29 00 2a 00 2b 2a 00 2b 2a 00 17 00 00 00     ..).*.+*.+*.....
    1a0d:	2a 00 00 2c 2d 2e                                   *..,-.

00001a13 <sprites_data>:
    1a13:	fe fe fe fe fe fe 2b 2b fe fe fe fe fe fe fe 2b     ......++.......+
    1a23:	fe fe fe fe fe fe fe 2b 2b 2b 2b fe fe fe fe 2b     .......++++....+
    1a33:	12 12 12 fe fe 20 20 2b 2b 2b 2b 20 20 20 20 2b     .....  ++++    +
    1a43:	12 12 12 20 20 20 20 2b 2b 2b 2b 20 20 20 29 29     ...    ++++   ))
    1a53:	2b 2b fe fe fe fe fe fe 2b fe fe fe fe fe fe fe     ++......+.......
    1a63:	2b fe fe fe fe fe fe fe 2b fe fe fe fe 2b 2b 2b     +.......+....+++
    1a73:	2b 20 20 fe fe 12 12 12 2b 20 20 20 20 2b 2b 2b     +  .....+    +++
    1a83:	2b 20 20 20 20 12 12 12 29 29 20 20 20 2b 2b 2b     +    ...))   +++
    1a93:	fe fe fe fe fe fe 2b 2b fe fe fe fe fe fe fe 2b     ......++.......+
    1aa3:	fe fe fe fe fe fe fe 2b 12 12 12 fe fe fe fe 2b     .......+.......+
    1ab3:	2b 2b 2b fe fe 20 20 2b 12 12 12 20 20 20 20 2b     +++..  +...    +
    1ac3:	2b 2b 2b 20 20 20 20 2b 12 12 12 20 20 20 29 29     +++    +...   ))
    1ad3:	2b 2b fe fe fe fe fe fe 2b fe fe fe fe fe fe fe     ++......+.......
    1ae3:	2b fe fe fe fe fe fe fe 2b fe fe fe fe 12 12 12     +.......+.......
    1af3:	2b 20 20 fe fe 2b 2b 2b 2b 20 20 20 20 12 12 12     +  ..++++    ...
    1b03:	2b 20 20 20 20 2b 2b 2b 29 29 20 20 20 12 12 12     +    +++))   ...
    1b13:	2b 12 2b 12 2b 12 2b 12 2b 12 2b 12 2b 12 2b 12     +.+.+.+.+.+.+.+.
    1b23:	2b 12 2b 12 2b 12 2b 12 fe fe 20 20 20 20 20 20     +.+.+.+...      
    1b33:	fe fe 20 20 20 20 20 20 fe fe fe 20 20 20 20 20     ..      ...     
    1b43:	fe fe fe fe 20 20 29 29 fe fe fe fe 20 20 29 2b     ....  ))....  )+
    1b53:	2b 12 2b 12 2b fe fe fe 2b 12 2b 12 2b fe fe fe     +.+.+...+.+.+...
    1b63:	2b 12 2b 12 2b fe fe fe 20 20 20 fe fe fe fe fe     +.+.+...   .....
    1b73:	20 20 20 fe fe fe fe fe 20 20 20 20 fe fe fe fe        .....    ....
    1b83:	29 20 20 20 fe fe fe 2b 29 2b 2b 2b 2b 2b 2b 2b     )   ...+)+++++++
    1b93:	12 2b 12 2b 12 2b 12 2b 12 2b 12 2b 12 2b 12 2b     .+.+.+.+.+.+.+.+
    1ba3:	12 2b 12 2b 12 2b 12 2b fe fe 20 20 20 20 20 20     .+.+.+.+..      
    1bb3:	fe fe 20 20 20 20 20 20 fe fe fe 20 20 20 20 20     ..      ...     
    1bc3:	fe fe fe fe 20 20 29 29 fe fe fe fe 20 20 29 2b     ....  ))....  )+
    1bd3:	12 2b 12 2b 12 fe fe fe 12 2b 12 2b 12 fe fe fe     .+.+.....+.+....
    1be3:	12 2b 12 2b 12 fe fe fe 20 20 20 fe fe fe fe fe     .+.+....   .....
    1bf3:	20 20 20 fe fe fe fe fe 20 20 20 20 fe fe fe fe        .....    ....
    1c03:	29 20 20 20 fe fe fe 2b 29 2b 2b 2b 2b 2b 2b 2b     )   ...+)+++++++
    1c13:	fe fe fe fe fe fe fe fe fe fe fe fe fe fe fe fe     ................
    1c23:	fe fe ff ff fe fe 3f 3f fe fe ff ff fe fe 3f 3f     ......??......??
    1c33:	fe fe fe fe ff ff 3f 3f fe fe fe fe ff ff 3f 3f     ......??......??
    1c43:	fe fe fe fe 3f 3f 3f 3f fe fe fe fe 3f 3f 3f 3f     ....????....????
    1c53:	fe fe fe fe fe fe fe fe fe fe fe fe fe fe fe fe     ................
    1c63:	fe fe fe fe ff ff fe fe fe fe fe fe ff ff fe fe     ................
    1c73:	fe fe ff ff fe fe fe fe fe fe ff ff fe fe fe fe     ................
    1c83:	3f 3f 3f 3f 3f 3f fe fe 3f 3f 3f 3f 3f 3f fe fe     ??????..??????..
    1c93:	3f 3f 3f 3f fe fe fe fe 3f 3f 3f 3f fe fe fe fe     ????....????....
    1ca3:	3f 3f ff ff 1f 1f 3f 3f 3f 3f ff ff 1f 1f 3f 3f     ??....????....??
    1cb3:	fe fe 1f 1f ff ff 3f 3f fe fe 1f 1f ff ff 3f 3f     ......??......??
    1cc3:	fe fe fe fe 3f 3f 3f 3f fe fe fe fe 3f 3f 3f 3f     ....????....????
    1cd3:	fe fe fe fe 3f 3f 3f 3f fe fe fe fe 3f 3f 3f 3f     ....????....????
    1ce3:	fe fe 1f 1f ff ff 3f 3f fe fe 1f 1f ff ff 3f 3f     ......??......??
    1cf3:	fe fe ff ff 3f 3f fe fe fe fe ff ff 3f 3f fe fe     ....??......??..
    1d03:	3f 3f 3f 3f 3f 3f fe fe 3f 3f 3f 3f 3f 3f fe fe     ??????..??????..
    1d13:	fe fe fe fe fe fe fe fe fe fe fe fe fe fe fe fe     ................
    1d23:	fe fe ff ff fe fe fe fe fe fe ff ff fe fe fe fe     ................
    1d33:	fe fe fe fe ff ff fe fe fe fe fe fe ff ff fe fe     ................
    1d43:	fe fe fe fe fe fe fe fe fe fe fe fe fe fe fe fe     ................
    1d53:	fe fe fe fe fe fe fe fe fe fe fe fe fe fe fe fe     ................
    1d63:	fe fe fe fe ff ff fe fe fe fe fe fe ff ff fe fe     ................
    1d73:	fe fe ff ff fe fe fe fe fe fe ff ff fe fe fe fe     ................
    1d83:	fe fe fe fe fe fe fe fe fe fe fe fe fe fe fe fe     ................
    1d93:	12 12 12 20 20 20 29 2b 2b 2b 2b 20 20 20 29 29     ...   )++++   ))
    1da3:	12 12 12 20 20 20 20 20 2b 2b 2b 20 20 20 20 20     ...     +++     
    1db3:	12 12 12 20 20 20 fe fe 2b 2b 2b 20 20 fe fe fe     ...   ..+++  ...
    1dc3:	12 12 12 fe fe fe fe fe 2b 2b 2b fe fe fe fe fe     ........+++.....
    1dd3:	2b 29 20 20 20 12 12 12 29 29 20 20 20 2b 2b 2b     +)   ...))   +++
    1de3:	20 20 20 20 20 12 12 12 20 20 20 20 20 2b 2b 2b          ...     +++
    1df3:	fe fe 20 20 20 12 12 12 fe fe fe 20 20 2b 2b 2b     ..   ......  +++
    1e03:	fe fe fe fe fe 12 12 12 fe fe fe fe fe 2b 2b 2b     .............+++
    1e13:	2b 2b 2b 20 20 20 29 2b 12 12 12 20 20 20 29 29     +++   )+...   ))
    1e23:	2b 2b 2b 20 20 20 20 20 12 12 12 20 20 20 20 20     +++     ...     
    1e33:	2b 2b 2b 20 20 20 fe fe 12 12 12 20 20 fe fe fe     +++   .....  ...
    1e43:	2b 2b 2b fe fe fe fe fe 12 12 12 fe fe fe fe fe     +++.............
    1e53:	2b 29 20 20 20 2b 2b 2b 29 29 20 20 20 12 12 12     +)   +++))   ...
    1e63:	20 20 20 20 20 2b 2b 2b 20 20 20 20 20 12 12 12          +++     ...
    1e73:	fe fe 20 20 20 2b 2b 2b fe fe fe 20 20 12 12 12     ..   +++...  ...
    1e83:	fe fe fe fe fe 2b 2b 2b fe fe fe fe fe 12 12 12     .....+++........
    1e93:	fe fe fe fe 20 20 29 2b fe fe fe fe 20 20 29 29     ....  )+....  ))
    1ea3:	fe fe fe 20 20 20 20 20 fe fe 20 20 20 20 20 20     ...     ..      
    1eb3:	fe fe 20 20 20 20 20 20 2b 12 2b 12 2b 12 2b 12     ..      +.+.+.+.
    1ec3:	2b 12 2b 12 2b 12 2b 12 2b 12 2b 12 2b 12 2b 12     +.+.+.+.+.+.+.+.
    1ed3:	29 2b 2b 2b 2b 2b 2b 2b 29 20 20 20 fe fe fe 2b     )+++++++)   ...+
    1ee3:	20 20 20 20 fe fe fe fe 20 20 20 fe fe fe fe fe         ....   .....
    1ef3:	20 20 20 fe fe fe fe fe 2b 12 2b 12 2b fe fe fe        .....+.+.+...
    1f03:	2b 12 2b 12 2b fe fe fe 2b 12 2b 12 2b fe fe fe     +.+.+...+.+.+...
    1f13:	fe fe fe fe 20 20 29 2b fe fe fe fe 20 20 29 29     ....  )+....  ))
    1f23:	fe fe fe 20 20 20 20 20 fe fe 20 20 20 20 20 20     ...     ..      
    1f33:	fe fe 20 20 20 20 20 20 12 2b 12 2b 12 2b 12 2b     ..      .+.+.+.+
    1f43:	12 2b 12 2b 12 2b 12 2b 12 2b 12 2b 12 2b 12 2b     .+.+.+.+.+.+.+.+
    1f53:	29 2b 2b 2b 2b 2b 2b 2b 29 20 20 20 fe fe fe 2b     )+++++++)   ...+
    1f63:	20 20 20 20 fe fe fe fe 20 20 20 fe fe fe fe fe         ....   .....
    1f73:	20 20 20 fe fe fe fe fe 12 2b 12 2b 12 fe fe fe        ......+.+....
    1f83:	12 2b 12 2b 12 fe fe fe 12 2b 12 2b 12 fe fe fe     .+.+.....+.+....
    1f93:	fe fe 3f 3f 3f 3f 3f 3f fe fe 3f 3f 3f 3f 3f 3f     ..??????..??????
    1fa3:	fe fe fe fe ff ff fe fe fe fe fe fe ff ff fe fe     ................
    1fb3:	fe fe ff ff fe fe fe fe fe fe ff ff fe fe fe fe     ................
    1fc3:	fe fe fe fe fe fe fe fe fe fe fe fe fe fe fe fe     ................
    1fd3:	3f 3f 3f 3f fe fe fe fe 3f 3f 3f 3f fe fe fe fe     ????....????....
    1fe3:	3f 3f ff ff fe fe fe fe 3f 3f ff ff fe fe fe fe     ??......??......
    1ff3:	3f 3f fe fe ff ff fe fe 3f 3f fe fe ff ff fe fe     ??......??......
    2003:	fe fe fe fe fe fe fe fe fe fe fe fe fe fe fe fe     ................
    2013:	fe fe 3f 3f 3f 3f 3f 3f fe fe 3f 3f 3f 3f 3f 3f     ..??????..??????
    2023:	fe fe 1f 1f ff ff fe fe fe fe 1f 1f ff ff fe fe     ................
    2033:	3f 3f ff ff 1f 1f fe fe 3f 3f ff ff 1f 1f fe fe     ??......??......
    2043:	3f 3f 3f 3f fe fe fe fe 3f 3f 3f 3f fe fe fe fe     ????....????....
    2053:	3f 3f 3f 3f fe fe fe fe 3f 3f 3f 3f fe fe fe fe     ????....????....
    2063:	3f 3f ff ff 1f 1f fe fe 3f 3f ff ff 1f 1f fe fe     ??......??......
    2073:	3f 3f 1f 1f ff ff 3f 3f 3f 3f 1f 1f ff ff 3f 3f     ??....????....??
    2083:	fe fe fe fe 3f 3f 3f 3f fe fe fe fe 3f 3f 3f 3f     ....????....????
    2093:	fe fe fe fe fe fe f5 f5 fe fe fe fe fe fe fe f5     ................
    20a3:	fe fe fe fe fe fe fe f5 f5 f5 f5 fe fe fe fe f5     ................
    20b3:	90 90 90 fe fe e1 e1 f5 f5 f5 f5 e1 e1 e1 e1 f5     ................
    20c3:	90 90 90 e1 e1 e1 e1 f5 f5 f5 f5 e1 e1 e1 f0 f0     ................
    20d3:	f5 f5 fe fe fe fe fe fe f5 fe fe fe fe fe fe fe     ................
    20e3:	f5 fe fe fe fe fe fe fe f5 fe fe fe fe f5 f5 f5     ................
    20f3:	f5 e1 e1 fe fe 90 90 90 f5 e1 e1 e1 e1 f5 f5 f5     ................
    2103:	f5 e1 e1 e1 e1 90 90 90 f0 f0 e1 e1 e1 f5 f5 f5     ................
    2113:	fe fe fe fe fe fe f5 f5 fe fe fe fe fe fe fe f5     ................
    2123:	fe fe fe fe fe fe fe f5 90 90 90 fe fe fe fe f5     ................
    2133:	f5 f5 f5 fe fe e1 e1 f5 90 90 90 e1 e1 e1 e1 f5     ................
    2143:	f5 f5 f5 e1 e1 e1 e1 f5 90 90 90 e1 e1 e1 f0 f0     ................
    2153:	f5 f5 fe fe fe fe fe fe f5 fe fe fe fe fe fe fe     ................
    2163:	f5 fe fe fe fe fe fe fe f5 fe fe fe fe 90 90 90     ................
    2173:	f5 e1 e1 fe fe f5 f5 f5 f5 e1 e1 e1 e1 90 90 90     ................
    2183:	f5 e1 e1 e1 e1 f5 f5 f5 f0 f0 e1 e1 e1 90 90 90     ................
    2193:	f5 90 f5 90 f5 90 f5 90 f5 90 f5 90 f5 90 f5 90     ................
    21a3:	f5 90 f5 90 f5 90 f5 90 fe fe e1 e1 e1 e1 e1 e1     ................
    21b3:	fe fe e1 e1 e1 e1 e1 e1 fe fe fe e1 e1 e1 e1 e1     ................
    21c3:	fe fe fe fe e1 e1 f0 f0 fe fe fe fe e1 e1 f0 f5     ................
    21d3:	f5 90 f5 90 f5 fe fe fe f5 90 f5 90 f5 fe fe fe     ................
    21e3:	f5 90 f5 90 f5 fe fe fe e1 e1 e1 fe fe fe fe fe     ................
    21f3:	e1 e1 e1 fe fe fe fe fe e1 e1 e1 e1 fe fe fe fe     ................
    2203:	f0 e1 e1 e1 fe fe fe f5 f0 f5 f5 f5 f5 f5 f5 f5     ................
    2213:	90 f5 90 f5 90 f5 90 f5 90 f5 90 f5 90 f5 90 f5     ................
    2223:	90 f5 90 f5 90 f5 90 f5 fe fe e1 e1 e1 e1 e1 e1     ................
    2233:	fe fe e1 e1 e1 e1 e1 e1 fe fe fe e1 e1 e1 e1 e1     ................
    2243:	fe fe fe fe e1 e1 f0 f0 fe fe fe fe e1 e1 f0 f5     ................
    2253:	90 f5 90 f5 90 fe fe fe 90 f5 90 f5 90 fe fe fe     ................
    2263:	90 f5 90 f5 90 fe fe fe e1 e1 e1 fe fe fe fe fe     ................
    2273:	e1 e1 e1 fe fe fe fe fe e1 e1 e1 e1 fe fe fe fe     ................
    2283:	f0 e1 e1 e1 fe fe fe f5 f0 f5 f5 f5 f5 f5 f5 f5     ................
    2293:	fe fe fe fe fe fe fe fe fe fe fe fe fe fe fe fe     ................
    22a3:	fe fe fe ad ad fe fe fe fe fe ad ad ad ad fe fe     ................
    22b3:	fe fe ad ad ad ad fe fe fe fe fe ad ad fe fe fe     ................
    22c3:	fe fe fe fe fe fe fe fe fe fe fe fe fe fe fe fe     ................
    22d3:	fe fe fe ad ad fe fe fe fe fe fe ad ad fe fe fe     ................
    22e3:	fe fe ad ad ad ad fe fe fe fe ad ad ad ad fe fe     ................
    22f3:	fe ad ad ad ad ad ad fe fe fe 3f 3f 3f 3f fe fe     ..........????..
    2303:	fe fe fe 3f 3f fe fe fe fe fe fe fe fe fe fe fe     ...??...........
    2313:	fe fe fe ad ad fe fe fe fe fe fe ad ad fe fe fe     ................
    2323:	fe fe ad ad ad ad fe fe fe fe ad ad ad ad fe fe     ................
    2333:	fe ad ad ad ad ad ad fe fe fe fe 3f 3f fe fe fe     ...........??...
    2343:	fe fe fe fe fe fe fe fe fe fe fe fe fe fe fe fe     ................
    2353:	fe fe fe fe fe fe fe fe fe fe fe ad fe fe fe fe     ................
    2363:	fe fe 3f ad ad ad fe fe fe 3f 3f ad ad ad ad ad     ..?......??.....
    2373:	fe 3f 3f ad ad ad ad ad fe fe 3f ad ad ad fe fe     .??.......?.....
    2383:	fe fe fe ad fe fe fe fe fe fe fe fe fe fe fe fe     ................
    2393:	fe fe fe fe fe fe fe fe fe fe fe ad fe fe fe fe     ................
    23a3:	fe fe fe ad ad ad fe fe fe fe 3f ad ad ad ad ad     ..........?.....
    23b3:	fe fe 3f ad ad ad ad ad fe fe fe ad ad ad fe fe     ..?.............
    23c3:	fe fe fe ad fe fe fe fe fe fe fe fe fe fe fe fe     ................
    23d3:	fe fe fe fe fe fe fe fe fe fe fe fe fe fe fe fe     ................
    23e3:	fe fe fe fe fe fe fe fe fe fe fe fe fe fe fe fe     ................
    23f3:	fe fe fe fe fe fe fe fe fe fe fe fe fe fe fe fe     ................
    2403:	fe fe fe fe fe fe fe fe fe fe fe fe fe fe fe fe     ................
    2413:	90 90 90 e1 e1 e1 f0 f5 f5 f5 f5 e1 e1 e1 f0 f0     ................
    2423:	90 90 90 e1 e1 e1 e1 e1 f5 f5 f5 e1 e1 e1 e1 e1     ................
    2433:	90 90 90 e1 e1 e1 fe fe f5 f5 f5 e1 e1 fe fe fe     ................
    2443:	90 90 90 fe fe fe fe fe f5 f5 f5 fe fe fe fe fe     ................
    2453:	f5 f0 e1 e1 e1 90 90 90 f0 f0 e1 e1 e1 f5 f5 f5     ................
    2463:	e1 e1 e1 e1 e1 90 90 90 e1 e1 e1 e1 e1 f5 f5 f5     ................
    2473:	fe fe e1 e1 e1 90 90 90 fe fe fe e1 e1 f5 f5 f5     ................
    2483:	fe fe fe fe fe 90 90 90 fe fe fe fe fe f5 f5 f5     ................
    2493:	f5 f5 f5 e1 e1 e1 f0 f5 90 90 90 e1 e1 e1 f0 f0     ................
    24a3:	f5 f5 f5 e1 e1 e1 e1 e1 90 90 90 e1 e1 e1 e1 e1     ................
    24b3:	f5 f5 f5 e1 e1 e1 fe fe 90 90 90 e1 e1 fe fe fe     ................
    24c3:	f5 f5 f5 fe fe fe fe fe 90 90 90 fe fe fe fe fe     ................
    24d3:	f5 f0 e1 e1 e1 f5 f5 f5 f0 f0 e1 e1 e1 90 90 90     ................
    24e3:	e1 e1 e1 e1 e1 f5 f5 f5 e1 e1 e1 e1 e1 90 90 90     ................
    24f3:	fe fe e1 e1 e1 f5 f5 f5 fe fe fe e1 e1 90 90 90     ................
    2503:	fe fe fe fe fe f5 f5 f5 fe fe fe fe fe 90 90 90     ................
    2513:	fe fe fe fe e1 e1 f0 f5 fe fe fe fe e1 e1 f0 f0     ................
    2523:	fe fe fe e1 e1 e1 e1 e1 fe fe e1 e1 e1 e1 e1 e1     ................
    2533:	fe fe e1 e1 e1 e1 e1 e1 f5 90 f5 90 f5 90 f5 90     ................
    2543:	f5 90 f5 90 f5 90 f5 90 f5 90 f5 90 f5 90 f5 90     ................
    2553:	f0 f5 f5 f5 f5 f5 f5 f5 f0 e1 e1 e1 fe fe fe f5     ................
    2563:	e1 e1 e1 e1 fe fe fe fe e1 e1 e1 fe fe fe fe fe     ................
    2573:	e1 e1 e1 fe fe fe fe fe f5 90 f5 90 f5 fe fe fe     ................
    2583:	f5 90 f5 90 f5 fe fe fe f5 90 f5 90 f5 fe fe fe     ................
    2593:	fe fe fe fe e1 e1 f0 f5 fe fe fe fe e1 e1 f0 f0     ................
    25a3:	fe fe fe e1 e1 e1 e1 e1 fe fe e1 e1 e1 e1 e1 e1     ................
    25b3:	fe fe e1 e1 e1 e1 e1 e1 90 f5 90 f5 90 f5 90 f5     ................
    25c3:	90 f5 90 f5 90 f5 90 f5 90 f5 90 f5 90 f5 90 f5     ................
    25d3:	f0 f5 f5 f5 f5 f5 f5 f5 f0 e1 e1 e1 fe fe fe f5     ................
    25e3:	e1 e1 e1 e1 fe fe fe fe e1 e1 e1 fe fe fe fe fe     ................
    25f3:	e1 e1 e1 fe fe fe fe fe 90 f5 90 f5 90 fe fe fe     ................
    2603:	90 f5 90 f5 90 fe fe fe 90 f5 90 f5 90 fe fe fe     ................

00002613 <tiles_data>:
	...
    2653:	66 66 66 26 66 66 66 66 77 77 77 26 77 77 77 77     fff&ffffwww&wwww
    2663:	77 77 77 26 77 77 77 77 77 77 77 26 77 77 77 77     www&wwwwwww&wwww
    2673:	26 26 26 26 26 26 26 26 77 77 77 77 77 77 77 26     &&&&&&&&wwwwwww&
    2683:	77 77 77 77 77 77 77 26 77 77 77 77 77 77 77 26     wwwwwww&wwwwwww&
    2693:	00 ec ec ec ec ec ec 00 ec ff ff ff ff ff ff ec     ................
    26a3:	ec ed ff ff ff ff ed ec ec ed ee ff ff ee ed ec     ................
    26b3:	ec ed ee ff ef ee ed ec ec ed ff ee ee ee ed ec     ................
    26c3:	ec ff ed ed ed ed ed ec 00 ec ec ec ec ec ec 00     ................
    26d3:	00 ec ec ec ec ec ec 00 ec ff ed ed ed ed ff ec     ................
    26e3:	ec ed ff ee ee ff ed ec ec ed ee ff ff ee ed ec     ................
    26f3:	ec ed ee ff ff ee ed ec ec ed ff ee ee ff ed ec     ................
    2703:	ec ff ed ed ed ed ff ec 00 ec ec ec ec ec ec 00     ................
    2713:	00 ec ec ec ec ec ec 00 ec ed ed ed ed ed ff ec     ................
    2723:	ec ed ee ee ff ff ed ec ec ed ee ff ff ff ed ec     ................
    2733:	ec ff ee ff ff ee ed ec ec ed ff ee ee ee ed ec     ................
    2743:	ec ff ed ff ed ed ed ec 00 ec ec ec ec ec ec 00     ................
    2753:	05 05 05 05 05 05 05 05 05 05 05 05 05 05 05 04     ................
    2763:	05 05 05 05 05 05 04 04 05 05 05 07 07 04 04 04     ................
    2773:	05 05 05 07 07 04 04 04 05 05 05 04 04 04 04 04     ................
    2783:	05 05 04 04 04 04 04 04 05 04 04 04 04 04 04 04     ................
	...
    279b:	00 ff 00 3f 00 00 ff 00 00 00 ff 3f 00 ff 00 00     ...?.......?....
    27ab:	00 00 3f 3f 3f 3f 3f 00 00 3f 3f 3f 3f 3f 00 00     ..?????..?????..
    27bb:	00 00 ff 00 3f ff 00 00 00 ff 00 00 3f 00 ff 00     ....?.......?...
	...
    27d3:	3f 3f 00 00 00 00 3f 3f 3f ff 1f 3f 00 1f ff 3f     ??....???..?...?
    27e3:	00 1f ff 3f 00 ff 3f 00 00 00 3f 3f 3f 3f 3f 00     ...?..?...?????.
    27f3:	00 3f 3f 3f 3f 3f 00 00 00 1f ff 00 3f ff 1f 00     .?????......?...
    2803:	3f ff 1f 00 3f 1f ff 3f 3f 3f 00 00 00 00 3f 3f     ?...?..???....??
	...
    281b:	00 ff 00 00 00 00 ff 00 00 00 ff 00 00 ff 00 00     ................
	...
    283b:	00 00 ff 00 00 ff 00 00 00 ff 00 00 00 00 ff 00     ................
	...
    2853:	05 05 05 05 05 05 05 05 05 05 05 05 05 05 05 00     ................
    2863:	05 05 05 05 05 05 00 00 05 05 05 07 07 00 00 00     ................
    2873:	05 05 05 07 00 00 00 00 05 05 05 00 00 00 00 00     ................
    2883:	05 05 00 00 00 00 00 00 05 00 00 00 00 00 00 00     ................
    2893:	00 00 00 00 00 00 00 04 00 00 00 00 00 00 04 04     ................
    28a3:	00 00 00 00 00 04 04 04 00 00 00 00 07 04 04 04     ................
    28b3:	00 00 00 07 07 04 04 04 00 00 04 04 04 04 04 04     ................
    28c3:	00 04 04 04 04 04 04 04 04 04 04 04 04 04 04 04     ................
    28d3:	05 05 05 05 05 05 05 05 00 05 05 05 05 05 05 05     ................
    28e3:	00 00 05 05 05 05 05 05 00 00 00 07 07 05 05 05     ................
    28f3:	00 00 00 00 07 05 05 05 00 00 00 00 00 05 05 05     ................
    2903:	00 00 00 00 00 00 05 05 00 00 00 00 00 00 00 05     ................
    2913:	04 00 00 00 00 00 00 00 04 04 00 00 00 00 00 00     ................
    2923:	04 04 04 00 00 00 00 00 04 04 04 07 00 00 00 00     ................
    2933:	04 04 04 07 07 00 00 00 04 04 04 04 04 04 00 00     ................
    2943:	04 04 04 04 04 04 04 00 04 04 04 04 04 04 04 04     ................
    2953:	ad ad ad ad ad ad ad ad ad 81 81 81 82 82 83 83     ................
    2963:	ad 81 81 81 82 82 83 83 ad 81 81 81 82 82 83 83     ................
    2973:	ad 81 81 81 82 82 83 83 ad 81 81 81 82 82 83 83     ................
    2983:	ad 81 81 81 82 82 83 83 ad ad ad ad ad ad ad ad     ................
    2993:	ad ad ad ad ad ad ad ad 85 85 86 87 87 86 85 85     ................
    29a3:	85 85 86 87 87 86 85 85 85 85 86 87 87 86 85 85     ................
    29b3:	85 85 86 87 87 86 85 85 85 85 86 87 87 86 85 85     ................
    29c3:	85 85 86 87 87 86 85 85 ad 85 86 87 87 86 85 ad     ................
    29d3:	ad ad ad ad ad ad ad ad 83 83 82 82 81 81 81 ad     ................
    29e3:	83 83 82 82 81 81 81 ad 83 83 82 82 81 81 81 ad     ................
    29f3:	83 83 82 82 81 81 81 ad 83 83 82 82 81 81 81 ad     ................
    2a03:	83 83 82 82 81 81 81 ad ad ad ad ad ad ad ad ad     ................
    2a13:	ad ad ad ad ad ad ad ad ad 81 81 81 82 82 83 83     ................
    2a23:	ad 81 81 81 82 82 83 83 ad 81 81 81 82 82 83 83     ................
    2a33:	ad 81 81 81 82 82 83 83 ad 81 81 81 82 82 83 83     ................
    2a43:	ad 81 81 81 82 82 83 83 ad 81 81 81 82 82 83 ad     ................
    2a53:	ad ad ad ad ad ad ad ad 85 85 86 87 87 86 85 85     ................
    2a63:	85 85 86 87 87 86 85 85 85 85 86 87 87 86 85 85     ................
    2a73:	85 85 86 87 87 86 85 85 85 85 86 87 87 86 85 85     ................
    2a83:	85 85 86 87 87 86 85 85 ad ad ad ad ad ad ad ad     ................
    2a93:	ad ad ad ad ad ad ad ad 83 83 82 82 81 81 81 ad     ................
    2aa3:	83 83 82 82 81 81 81 ad 83 83 82 82 81 81 81 ad     ................
    2ab3:	83 83 82 82 81 81 81 ad 83 83 82 82 81 81 81 ad     ................
    2ac3:	83 83 82 82 81 81 81 ad ad 83 82 82 81 81 81 ad     ................
    2ad3:	ad ad ad ad ad ad ad ad ad 81 81 81 82 82 83 ad     ................
    2ae3:	ad 81 81 81 82 82 83 ad ad 81 81 81 82 82 83 ad     ................
    2af3:	ad 81 81 81 82 82 83 ad ad 81 81 81 82 82 83 83     ................
    2b03:	ad 81 81 81 82 82 83 83 ad 81 81 81 82 82 83 83     ................
	...
    2b33:	ad ad ad ad ad ad ad ad 85 85 86 87 87 86 85 85     ................
    2b43:	85 85 86 87 87 86 85 85 85 85 86 87 87 86 85 85     ................
	...
    2b73:	ad ad ad ad ad ad ad ad 83 83 82 82 81 81 81 ad     ................
    2b83:	83 83 82 82 81 81 81 ad 83 83 82 82 81 81 81 ad     ................
    2b93:	ad ad ad ad ad ad ad ad ad 81 81 81 82 82 83 ad     ................
    2ba3:	ad 81 81 81 82 82 83 ad ad 81 81 81 82 82 83 ad     ................
    2bb3:	ad 81 81 81 82 82 83 ad ad 81 81 81 82 82 83 ad     ................
    2bc3:	ad 81 81 81 82 82 83 ad ad 81 81 81 82 82 83 ad     ................
    2bd3:	ad ad ad ad ad ad ad ad ad 83 82 82 81 81 81 ad     ................
    2be3:	ad 83 82 82 81 81 81 ad ad 83 82 82 81 81 81 ad     ................
    2bf3:	ad 83 82 82 81 81 81 ad ad 83 82 82 81 81 81 ad     ................
    2c03:	ad 83 82 82 81 81 81 ad ad ad ad ad ad ad ad ad     ................
    2c13:	ad ad ad ad ad ad ad ad ad 83 82 82 81 81 81 ad     ................
    2c23:	ad 83 82 82 81 81 81 ad ad 83 82 82 81 81 81 ad     ................
    2c33:	ad 83 82 82 81 81 81 ad ad 83 82 82 81 81 81 ad     ................
    2c43:	ad 83 82 82 81 81 81 ad ad 83 82 82 81 81 81 ad     ................
    2c53:	ad 85 86 87 87 86 85 ad ad 85 86 87 87 86 85 ad     ................
    2c63:	ad 85 86 87 87 86 85 ad ad 85 86 87 87 86 85 ad     ................
    2c73:	ad 85 86 87 87 86 85 ad ad 85 86 87 87 86 85 ad     ................
    2c83:	ad 85 86 87 87 86 85 ad ad 85 86 87 87 86 85 ad     ................
    2c93:	ad 81 81 81 82 82 83 ad ad 81 81 81 82 82 83 ad     ................
    2ca3:	ad 81 81 81 82 82 83 ad ad 81 81 81 82 82 83 ad     ................
    2cb3:	ad 81 81 81 82 82 83 ad ad 81 81 81 82 82 83 ad     ................
    2cc3:	ad 81 81 81 82 82 83 ad ad 81 81 81 82 82 83 ad     ................
    2cd3:	ad 83 82 82 81 81 81 ad ad 83 82 82 81 81 81 ad     ................
    2ce3:	ad 83 82 82 81 81 81 ad ad 83 82 82 81 81 81 ad     ................
    2cf3:	ad 83 82 82 81 81 81 ad ad 83 82 82 81 81 81 ad     ................
    2d03:	ad 83 82 82 81 81 81 ad ad 83 82 82 81 81 81 ad     ................
    2d13:	ad 81 81 81 82 82 83 83 ad 81 81 81 82 82 83 83     ................
    2d23:	ad 81 81 81 82 82 83 83 ad 81 81 81 82 82 83 ad     ................
    2d33:	ad 81 81 81 82 82 83 ad ad 81 81 81 82 82 83 ad     ................
    2d43:	ad 81 81 81 82 82 83 ad ad 81 81 81 82 82 83 ad     ................
    2d53:	85 85 86 87 87 86 85 85 85 85 86 87 87 86 85 85     ................
    2d63:	85 85 86 87 87 86 85 85 ad ad ad ad ad ad ad ad     ................
	...
    2d93:	83 83 82 82 81 81 81 ad 83 83 82 82 81 81 81 ad     ................
    2da3:	83 83 82 82 81 81 81 ad ad 83 82 82 81 81 81 ad     ................
    2db3:	ad 83 82 82 81 81 81 ad ad 83 82 82 81 81 81 ad     ................
    2dc3:	ad 83 82 82 81 81 81 ad ad 83 82 82 81 81 81 ad     ................
    2dd3:	ad 81 81 81 82 82 83 ad ad 81 81 81 82 82 83 83     ................
    2de3:	ad 81 81 81 82 82 83 83 ad 81 81 81 82 82 83 83     ................
    2df3:	ad 81 81 81 82 82 83 83 ad 81 81 81 82 82 83 83     ................
    2e03:	ad 81 81 81 82 82 83 83 ad 81 81 81 82 82 83 83     ................
    2e13:	ad ad ad ad ad ad ad ad 85 85 86 87 87 86 85 ad     ................
    2e23:	85 85 86 87 87 86 85 ad 85 85 86 87 87 86 85 ad     ................
    2e33:	85 85 86 87 87 86 85 ad 85 85 86 87 87 86 85 ad     ................
    2e43:	85 85 86 87 87 86 85 ad 85 85 86 87 87 86 85 ad     ................
    2e53:	ad 81 81 81 82 82 83 ad ad 81 81 81 82 82 83 ad     ................
    2e63:	ad 81 81 81 82 82 83 ad ad 81 81 81 82 82 83 ad     ................
    2e73:	ad 81 81 81 82 82 83 ad ad 81 81 81 82 82 83 ad     ................
    2e83:	ad 81 81 81 82 82 83 83 ad 81 81 81 82 82 83 83     ................
	...
    2ebb:	ad ad ad ad ad ad ad ad 85 85 86 87 87 86 85 ad     ................
    2ecb:	85 85 86 87 87 86 85 ad ad 81 81 81 82 82 83 ad     ................
    2edb:	ad 81 81 81 82 82 83 83 ad 81 81 81 82 82 83 83     ................
    2eeb:	ad 81 81 81 82 82 83 83 ad 81 81 81 82 82 83 83     ................
    2efb:	ad 81 81 81 82 82 83 83 ad 81 81 81 82 82 83 83     ................
    2f0b:	ad 81 81 81 82 82 83 ad ad 83 82 82 81 81 81 ad     ................
    2f1b:	83 83 82 82 81 81 81 ad 83 83 82 82 81 81 81 ad     ................
    2f2b:	83 83 82 82 81 81 81 ad 83 83 82 82 81 81 81 ad     ................
    2f3b:	83 83 82 82 81 81 81 ad 83 83 82 82 81 81 81 ad     ................
    2f4b:	ad 83 82 82 81 81 81 ad ad 81 81 81 82 82 83 83     ................
    2f5b:	ad 81 81 81 82 82 83 83 ad 81 81 81 82 82 83 83     ................
    2f6b:	ad 81 81 81 82 82 83 83 ad 81 81 81 82 82 83 83     ................
    2f7b:	ad 81 81 81 82 82 83 83 ad 81 81 81 82 82 83 83     ................
    2f8b:	ad 81 81 81 82 82 83 ad 85 85 86 87 87 86 85 ad     ................
    2f9b:	85 85 86 87 87 86 85 ad 85 85 86 87 87 86 85 ad     ................
    2fab:	85 85 86 87 87 86 85 ad 85 85 86 87 87 86 85 ad     ................
    2fbb:	85 85 86 87 87 86 85 ad 85 85 86 87 87 86 85 ad     ................
    2fcb:	ad ad ad ad ad ad ad ad ad 81 81 81 82 82 83 83     ................
    2fdb:	ad 81 81 81 82 82 83 83 ad 81 81 81 82 82 83 83     ................
    2feb:	ad 81 81 81 82 82 83 83 ad 81 81 81 82 82 83 ad     ................
    2ffb:	ad 81 81 81 82 82 83 ad ad 81 81 81 82 82 83 ad     ................
    300b:	ad 81 81 81 82 82 83 ad 85 85 86 87 87 86 85 ad     ................
    301b:	85 85 86 87 87 86 85 ad 85 85 86 87 87 86 85 ad     ................
    302b:	85 85 86 87 87 86 85 ad ad ad ad ad ad ad ad ad     ................
	...
    3053:	ad 85 86 87 87 86 85 ad ad 85 86 87 87 86 85 ad     ................
    3063:	ad 85 86 87 87 86 85 ad ad 85 86 87 87 86 85 ad     ................
    3073:	ad 85 86 87 87 86 85 ad ad 85 86 87 87 86 85 ad     ................
    3083:	ad 85 86 87 87 86 85 ad ad ad ad ad ad ad ad ad     ................
    3093:	ad 81 81 81 82 82 83 ad ad 81 81 81 82 82 83 ad     ................
    30a3:	ad 81 81 81 82 82 83 ad ad 81 81 81 82 82 83 ad     ................
    30b3:	ad 81 81 81 82 82 83 ad ad 81 81 81 82 82 83 ad     ................
    30c3:	ad 81 81 81 82 82 83 ad ad ad ad ad ad ad ad ad     ................
    30d3:	ad 83 82 82 81 81 81 ad ad 83 82 82 81 81 81 ad     ................
    30e3:	ad 83 82 82 81 81 81 ad ad 83 82 82 81 81 81 ad     ................
    30f3:	ad 83 82 82 81 81 81 ad ad 83 82 82 81 81 81 ad     ................
    3103:	ad 83 82 82 81 81 81 ad ad ad ad ad ad ad ad ad     ................
    3113:	ad 81 81 81 82 82 83 ad ad 81 81 81 82 82 83 ad     ................
    3123:	ad 81 81 81 82 82 83 83 ad 81 81 81 82 82 83 83     ................
    3133:	ad 81 81 81 82 82 83 83 ad 81 81 81 82 82 83 83     ................
    3143:	ad 81 81 81 82 82 83 83 ad ad ad ad ad ad ad ad     ................
	...
    315b:	ad ad ad ad ad ad ad ad 85 85 86 87 87 86 85 85     ................
    316b:	85 85 86 87 87 86 85 85 85 85 86 87 87 86 85 85     ................
    317b:	85 85 86 87 87 86 85 85 85 85 86 87 87 86 85 85     ................
    318b:	ad ad ad ad ad ad ad ad ad 83 82 82 81 81 81 ad     ................
    319b:	ad 83 82 82 81 81 81 ad 83 83 82 82 81 81 81 ad     ................
    31ab:	83 83 82 82 81 81 81 ad 83 83 82 82 81 81 81 ad     ................
    31bb:	83 83 82 82 81 81 81 ad 83 83 82 82 81 81 81 ad     ................
    31cb:	ad ad ad ad ad ad ad ad 00 00 00 00 00 00 00 00     ................
	...
    321b:	00 00 00 ff ff 00 00 00 00 00 00 ff ff 00 00 00     ................
    322b:	00 00 00 ff ff 00 00 00 00 00 00 ff ff 00 00 00     ................
	...
    3243:	00 00 00 ff ff 00 00 00 00 00 00 00 00 00 00 00     ................
	...
    325b:	00 ff ff 00 00 ff ff 00 00 ff ff 00 00 ff ff 00     ................
    326b:	00 ff ff 00 00 ff ff 00 00 00 00 00 00 00 00 00     ................
	...
    329b:	00 ff ff 00 00 ff ff 00 ff ff ff ff ff ff ff ff     ................
    32ab:	00 ff ff 00 00 ff ff 00 00 ff ff 00 00 ff ff 00     ................
    32bb:	ff ff ff ff ff ff ff ff 00 ff ff 00 00 ff ff 00     ................
	...
    32d3:	00 00 00 ff ff 00 00 00 00 00 ff ff ff ff ff 00     ................
    32e3:	00 ff ff 00 00 00 00 00 00 00 ff ff ff ff 00 00     ................
    32f3:	00 00 00 00 00 ff ff 00 00 ff ff ff ff ff 00 00     ................
    3303:	00 00 00 ff ff 00 00 00 00 00 00 00 00 00 00 00     ................
	...
    331b:	00 ff ff 00 00 ff ff 00 00 ff ff 00 ff ff 00 00     ................
    332b:	00 00 00 ff ff 00 00 00 00 00 ff ff 00 00 00 00     ................
    333b:	00 ff ff 00 00 ff ff 00 00 ff 00 00 00 ff ff 00     ................
	...
    3353:	00 00 00 ff ff ff 00 00 00 00 ff ff 00 ff ff 00     ................
    3363:	00 00 00 ff ff ff 00 00 00 00 ff ff ff 00 00 00     ................
    3373:	00 ff ff 00 ff ff ff ff 00 ff ff 00 00 ff ff 00     ................
    3383:	00 00 ff ff ff 00 ff ff 00 00 00 00 00 00 00 00     ................
	...
    339b:	00 00 00 ff ff 00 00 00 00 00 00 ff ff 00 00 00     ................
    33ab:	00 00 00 ff ff 00 00 00 00 00 00 00 00 00 00 00     ................
	...
    33df:	ff ff ff 00 00 00 00 ff ff ff 00 00 00 00 00 ff     ................
    33ef:	ff 00 00 00 00 00 00 ff ff 00 00 00 00 00 00 ff     ................
    33ff:	ff ff 00 00 00 00 00 00 ff ff ff 00 00 00 00 00     ................
	...
    341b:	00 ff ff ff 00 00 00 00 00 00 ff ff ff 00 00 00     ................
    342b:	00 00 00 ff ff 00 00 00 00 00 00 ff ff 00 00 00     ................
    343b:	00 00 ff ff ff 00 00 00 00 ff ff ff 00 00 00 00     ................
	...
    345b:	00 ff ff 00 00 ff ff 00 00 00 ff ff ff ff 00 00     ................
    346b:	ff ff ff ff ff ff ff ff 00 00 ff ff ff ff 00 00     ................
    347b:	00 ff ff 00 00 ff ff 00 00 00 00 00 00 00 00 00     ................
	...
    349b:	00 00 00 ff ff 00 00 00 00 00 00 ff ff 00 00 00     ................
    34ab:	00 ff ff ff ff ff ff 00 00 00 00 ff ff 00 00 00     ................
    34bb:	00 00 00 ff ff 00 00 00 00 00 00 00 00 00 00 00     ................
	...
    34fb:	00 00 00 ff ff 00 00 00 00 00 00 ff ff 00 00 00     ................
    350b:	00 00 ff ff 00 00 00 00 00 00 00 00 00 00 00 00     ................
	...
    352b:	00 ff ff ff ff ff ff 00 00 00 00 00 00 00 00 00     ................
	...
    357b:	00 00 00 ff ff 00 00 00 00 00 00 ff ff 00 00 00     ................
	...
    359f:	00 ff ff 00 00 00 00 00 ff ff 00 00 00 00 00 ff     ................
    35af:	ff 00 00 00 00 00 ff ff 00 00 00 00 00 ff ff 00     ................
    35bf:	00 00 00 00 00 ff 00 00 00 00 00 00 00 00 00 00     ................
	...
    35db:	00 00 ff ff ff ff 00 00 00 ff ff 00 00 ff ff 00     ................
    35eb:	00 ff ff 00 ff ff ff 00 00 ff ff ff 00 ff ff 00     ................
    35fb:	00 ff ff 00 00 ff ff 00 00 00 ff ff ff ff 00 00     ................
	...
    361b:	00 00 00 ff ff 00 00 00 00 00 ff ff ff 00 00 00     ................
    362b:	00 00 00 ff ff 00 00 00 00 00 00 ff ff 00 00 00     ................
    363b:	00 00 00 ff ff 00 00 00 00 ff ff ff ff ff ff 00     ................
	...
    365b:	00 00 ff ff ff ff 00 00 00 ff ff 00 00 ff ff 00     ................
    366b:	00 00 00 00 ff ff 00 00 00 00 00 ff ff 00 00 00     ................
    367b:	00 00 ff ff 00 00 00 00 00 ff ff ff ff ff ff 00     ................
	...
    369b:	00 ff ff ff ff ff ff 00 00 00 00 00 ff ff 00 00     ................
    36ab:	00 00 00 ff ff 00 00 00 00 00 00 00 ff ff 00 00     ................
    36bb:	00 ff ff 00 00 ff ff 00 00 00 ff ff ff ff 00 00     ................
	...
    36df:	ff ff 00 00 00 00 00 ff ff ff 00 00 00 00 ff ff     ................
    36ef:	ff ff 00 00 00 ff ff 00 ff ff 00 00 00 ff ff ff     ................
    36ff:	ff ff ff 00 00 00 00 00 ff ff 00 00 00 00 00 00     ................
	...
    371b:	00 ff ff ff ff ff ff 00 00 ff ff 00 00 00 00 00     ................
    372b:	00 ff ff ff ff ff 00 00 00 00 00 00 00 ff ff 00     ................
    373b:	00 ff ff 00 00 ff ff 00 00 00 ff ff ff ff 00 00     ................
	...
    375b:	00 00 ff ff ff ff 00 00 00 ff ff 00 00 00 00 00     ................
    376b:	00 ff ff ff ff ff 00 00 00 ff ff 00 00 ff ff 00     ................
    377b:	00 ff ff 00 00 ff ff 00 00 00 ff ff ff ff 00 00     ................
	...
    379b:	00 ff ff ff ff ff ff 00 00 00 00 00 00 ff ff 00     ................
    37ab:	00 00 00 00 ff ff 00 00 00 00 00 ff ff 00 00 00     ................
    37bb:	00 00 ff ff 00 00 00 00 00 00 ff ff 00 00 00 00     ................
	...
    37db:	00 00 ff ff ff ff 00 00 00 ff ff 00 00 ff ff 00     ................
    37eb:	00 00 ff ff ff ff 00 00 00 ff ff 00 00 ff ff 00     ................
    37fb:	00 ff ff 00 00 ff ff 00 00 00 ff ff ff ff 00 00     ................
	...
    381b:	00 00 ff ff ff ff 00 00 00 ff ff 00 00 ff ff 00     ................
    382b:	00 00 ff ff ff ff ff 00 00 00 00 00 00 ff ff 00     ................
    383b:	00 00 00 00 ff ff 00 00 00 00 ff ff ff 00 00 00     ................
	...
    3863:	00 00 00 ff ff 00 00 00 00 00 00 ff ff 00 00 00     ................
	...
    387b:	00 00 00 ff ff 00 00 00 00 00 00 ff ff 00 00 00     ................
	...
    38a3:	00 00 00 ff ff 00 00 00 00 00 00 ff ff 00 00 00     ................
	...
    38bb:	00 00 00 ff ff 00 00 00 00 00 00 ff ff 00 00 00     ................
    38cb:	00 00 ff ff 00 00 00 00 00 00 00 00 00 ff ff 00     ................
    38db:	00 00 00 00 ff ff 00 00 00 00 00 ff ff 00 00 00     ................
    38eb:	00 00 ff ff 00 00 00 00 00 00 00 ff ff 00 00 00     ................
    38fb:	00 00 00 00 ff ff 00 00 00 00 00 00 00 ff ff 00     ................
	...
    3923:	00 ff ff ff ff ff ff 00 00 00 00 00 00 00 00 00     ................
	...
    393b:	00 ff ff ff ff ff ff 00 00 00 00 00 00 00 00 00     ................
	...
    3953:	00 ff ff 00 00 00 00 00 00 00 ff ff 00 00 00 00     ................
    3963:	00 00 00 ff ff 00 00 00 00 00 00 00 ff ff 00 00     ................
    3973:	00 00 00 ff ff 00 00 00 00 00 ff ff 00 00 00 00     ................
    3983:	00 ff ff 00 00 00 00 00 00 00 00 00 00 00 00 00     ................
	...
    399b:	00 00 ff ff ff ff 00 00 00 ff ff 00 00 ff ff 00     ................
    39ab:	00 00 00 00 ff ff 00 00 00 00 00 ff ff 00 00 00     ................
	...
    39c3:	00 00 00 ff ff 00 00 00 00 00 00 00 00 00 00 00     ................
	...
    39db:	00 00 ff ff ff ff 00 00 00 ff ff 00 00 ff ff 00     ................
    39eb:	00 ff ff 00 ff ff ff 00 00 ff ff 00 ff ff ff 00     ................
    39fb:	00 ff ff 00 00 00 00 00 00 00 ff ff ff ff ff 00     ................
	...
    3a1b:	00 00 00 ff ff 00 00 00 00 00 ff ff ff ff 00 00     ................
    3a2b:	00 ff ff 00 00 ff ff 00 00 ff ff 00 00 ff ff 00     ................
    3a3b:	00 ff ff ff ff ff ff 00 00 ff ff 00 00 ff ff 00     ................
	...
    3a5b:	00 ff ff ff ff ff 00 00 00 ff ff 00 00 ff ff 00     ................
    3a6b:	00 ff ff ff ff ff 00 00 00 ff ff 00 00 ff ff 00     ................
    3a7b:	00 ff ff 00 00 ff ff 00 00 ff ff ff ff ff 00 00     ................
	...
    3a9b:	00 00 ff ff ff ff 00 00 00 ff ff 00 00 ff ff 00     ................
    3aab:	00 ff ff 00 00 00 00 00 00 ff ff 00 00 00 00 00     ................
    3abb:	00 ff ff 00 00 ff ff 00 00 00 ff ff ff ff 00 00     ................
	...
    3adb:	00 ff ff ff ff 00 00 00 00 ff ff 00 ff ff 00 00     ................
    3aeb:	00 ff ff 00 00 ff ff 00 00 ff ff 00 00 ff ff 00     ................
    3afb:	00 ff ff 00 ff ff 00 00 00 ff ff ff ff 00 00 00     ................
	...
    3b1b:	00 ff ff ff ff ff ff 00 00 ff ff 00 00 00 00 00     ................
    3b2b:	00 ff ff ff ff ff 00 00 00 ff ff 00 00 00 00 00     ................
    3b3b:	00 ff ff 00 00 00 00 00 00 ff ff ff ff ff ff 00     ................
	...
    3b5b:	00 ff ff ff ff ff ff 00 00 ff ff 00 00 00 00 00     ................
    3b6b:	00 ff ff ff ff ff 00 00 00 ff ff 00 00 00 00 00     ................
    3b7b:	00 ff ff 00 00 00 00 00 00 ff ff 00 00 00 00 00     ................
	...
    3b9b:	00 00 ff ff ff ff ff 00 00 ff ff 00 00 00 00 00     ................
    3bab:	00 ff ff 00 00 00 00 00 00 ff ff 00 ff ff ff 00     ................
    3bbb:	00 ff ff 00 00 ff ff 00 00 00 ff ff ff ff ff 00     ................
	...
    3bdb:	00 ff ff 00 00 ff ff 00 00 ff ff 00 00 ff ff 00     ................
    3beb:	00 ff ff ff ff ff ff 00 00 ff ff 00 00 ff ff 00     ................
    3bfb:	00 ff ff 00 00 ff ff 00 00 ff ff 00 00 ff ff 00     ................
	...
    3c1b:	00 ff ff ff ff ff ff 00 00 00 00 ff ff 00 00 00     ................
    3c2b:	00 00 00 ff ff 00 00 00 00 00 00 ff ff 00 00 00     ................
    3c3b:	00 00 00 ff ff 00 00 00 00 ff ff ff ff ff ff 00     ................
	...
    3c5f:	ff ff ff 00 00 00 00 00 00 ff ff 00 00 00 00 00     ................
    3c6f:	00 ff ff 00 00 00 00 00 00 ff ff 00 00 ff ff 00     ................
    3c7f:	00 ff ff 00 00 00 ff ff ff ff 00 00 00 00 00 00     ................
	...
    3c9b:	00 ff ff 00 00 ff ff 00 00 ff ff 00 ff ff 00 00     ................
    3cab:	00 ff ff ff ff 00 00 00 00 ff ff ff ff 00 00 00     ................
    3cbb:	00 ff ff 00 ff ff 00 00 00 ff ff 00 00 ff ff 00     ................
	...
    3cdb:	00 ff ff 00 00 00 00 00 00 ff ff 00 00 00 00 00     ................
    3ceb:	00 ff ff 00 00 00 00 00 00 ff ff 00 00 00 00 00     ................
    3cfb:	00 ff ff 00 00 00 00 00 00 ff ff ff ff ff ff 00     ................
	...
    3d1b:	00 ff ff 00 00 00 ff ff 00 ff ff ff 00 ff ff ff     ................
    3d2b:	00 ff ff ff ff ff ff ff 00 ff ff 00 ff 00 ff ff     ................
    3d3b:	00 ff ff 00 00 00 ff ff 00 ff ff 00 00 00 ff ff     ................
	...
    3d5b:	00 ff ff 00 00 ff ff 00 00 ff ff ff 00 ff ff 00     ................
    3d6b:	00 ff ff ff ff ff ff 00 00 ff ff ff ff ff ff 00     ................
    3d7b:	00 ff ff 00 ff ff ff 00 00 ff ff 00 00 ff ff 00     ................
	...
    3d9b:	00 00 ff ff ff ff 00 00 00 ff ff 00 00 ff ff 00     ................
    3dab:	00 ff ff 00 00 ff ff 00 00 ff ff 00 00 ff ff 00     ................
    3dbb:	00 ff ff 00 00 ff ff 00 00 00 ff ff ff ff 00 00     ................
	...
    3ddb:	00 ff ff ff ff ff 00 00 00 ff ff 00 00 ff ff 00     ................
    3deb:	00 ff ff 00 00 ff ff 00 00 ff ff ff ff ff 00 00     ................
    3dfb:	00 ff ff 00 00 00 00 00 00 ff ff 00 00 00 00 00     ................
	...
    3e1b:	00 00 ff ff ff ff 00 00 00 ff ff 00 00 ff ff 00     ................
    3e2b:	00 ff ff 00 00 ff ff 00 00 ff ff 00 00 ff ff 00     ................
    3e3b:	00 ff ff 00 ff ff 00 00 00 00 ff ff 00 ff ff 00     ................
	...
    3e5b:	00 ff ff ff ff ff 00 00 00 ff ff 00 00 ff ff 00     ................
    3e6b:	00 ff ff 00 00 ff ff 00 00 ff ff ff ff ff 00 00     ................
    3e7b:	00 ff ff 00 ff ff 00 00 00 ff ff 00 00 ff ff 00     ................
	...
    3e9b:	00 00 ff ff ff ff 00 00 00 ff ff 00 00 00 00 00     ................
    3eab:	00 00 ff ff ff ff 00 00 00 00 00 00 00 ff ff 00     ................
    3ebb:	00 00 00 00 00 ff ff 00 00 00 ff ff ff ff 00 00     ................
	...
    3edb:	00 ff ff ff ff ff ff 00 00 00 00 ff ff 00 00 00     ................
    3eeb:	00 00 00 ff ff 00 00 00 00 00 00 ff ff 00 00 00     ................
    3efb:	00 00 00 ff ff 00 00 00 00 00 00 ff ff 00 00 00     ................
	...
    3f1b:	00 ff ff 00 00 ff ff 00 00 ff ff 00 00 ff ff 00     ................
    3f2b:	00 ff ff 00 00 ff ff 00 00 ff ff 00 00 ff ff 00     ................
    3f3b:	00 ff ff 00 00 ff ff 00 00 ff ff ff ff ff ff 00     ................
	...
    3f5b:	00 ff ff 00 00 ff ff 00 00 ff ff 00 00 ff ff 00     ................
    3f6b:	00 ff ff 00 00 ff ff 00 00 ff ff 00 00 ff ff 00     ................
    3f7b:	00 00 ff ff ff ff 00 00 00 00 00 ff ff 00 00 00     ................
	...
    3f9b:	00 ff ff 00 00 00 ff ff 00 ff ff 00 00 00 ff ff     ................
    3fab:	00 ff ff 00 ff 00 ff ff 00 ff ff ff ff ff ff ff     ................
    3fbb:	00 ff ff ff 00 ff ff ff 00 ff ff 00 00 00 ff ff     ................
	...
    3fdb:	00 ff ff 00 00 ff ff 00 00 ff ff 00 00 ff ff 00     ................
    3feb:	00 00 ff ff ff ff 00 00 00 00 ff ff ff ff 00 00     ................
    3ffb:	00 ff ff 00 00 ff ff 00 00 ff ff 00 00 ff ff 00     ................
	...
    401b:	00 ff ff 00 00 ff ff 00 00 ff ff 00 00 ff ff 00     ................
    402b:	00 00 ff ff ff ff 00 00 00 00 00 ff ff 00 00 00     ................
    403b:	00 00 00 ff ff 00 00 00 00 00 00 ff ff 00 00 00     ................
	...
    405b:	00 ff ff ff ff ff ff 00 00 00 00 00 ff ff 00 00     ................
    406b:	00 00 00 ff ff 00 00 00 00 00 ff ff 00 00 00 00     ................
    407b:	00 ff ff 00 00 00 00 00 00 ff ff ff ff ff ff 00     ................
	...
    409b:	00 00 00 ff ff ff ff 00 00 00 00 ff ff 00 00 00     ................
    40ab:	00 00 00 ff ff 00 00 00 00 00 00 ff ff 00 00 00     ................
    40bb:	00 00 00 ff ff 00 00 00 00 00 00 ff ff ff ff 00     ................
	...
    40db:	00 ff 00 00 00 00 00 00 00 ff ff 00 00 00 00 00     ................
    40eb:	00 00 ff ff 00 00 00 00 00 00 00 ff ff 00 00 00     ................
    40fb:	00 00 00 00 ff ff 00 00 00 00 00 00 00 ff ff 00     ................
	...
    411b:	00 ff ff ff ff 00 00 00 00 00 00 ff ff 00 00 00     ................
    412b:	00 00 00 ff ff 00 00 00 00 00 00 ff ff 00 00 00     ................
    413b:	00 00 00 ff ff 00 00 00 00 ff ff ff ff 00 00 00     ................
	...
    415f:	ff 00 00 00 00 00 00 ff ff ff 00 00 00 00 ff ff     ................
    416f:	00 ff ff 00 00 ff ff 00 00 00 ff ff 00 00 00 00     ................
	...
    41c3:	ff ff ff ff ff ff ff ff 00 00 00 00 00 00 00 00     ................
	...
    41db:	00 00 00 ff ff 00 00 00 00 00 ff ff ff ff 00 00     ................
    41eb:	00 ff ff ff ff ff ff 00 00 ff ff ff ff ff ff 00     ................
    41fb:	00 00 ff ff ff ff 00 00 00 00 00 ff ff 00 00 00     ................
	...
    4223:	00 00 ff ff ff ff 00 00 00 00 00 00 00 ff ff 00     ................
    4233:	00 00 ff ff ff ff ff 00 00 ff ff 00 00 ff ff 00     ................
    4243:	00 00 ff ff ff ff ff 00 00 00 00 00 00 00 00 00     ................
	...
    425b:	00 ff ff 00 00 00 00 00 00 ff ff 00 00 00 00 00     ................
    426b:	00 ff ff ff ff ff 00 00 00 ff ff 00 00 ff ff 00     ................
    427b:	00 ff ff 00 00 ff ff 00 00 ff ff ff ff ff 00 00     ................
	...
    42a3:	00 00 ff ff ff ff 00 00 00 ff ff 00 00 00 00 00     ................
    42b3:	00 ff ff 00 00 00 00 00 00 ff ff 00 00 00 00 00     ................
    42c3:	00 00 ff ff ff ff 00 00 00 00 00 00 00 00 00 00     ................
	...
    42df:	00 ff ff 00 00 00 00 00 00 ff ff 00 00 00 ff ff     ................
    42ef:	ff ff ff 00 00 ff ff 00 00 ff ff 00 00 ff ff 00     ................
    42ff:	00 ff ff 00 00 00 ff ff ff ff ff 00 00 00 00 00     ................
	...
    4323:	00 00 ff ff ff ff 00 00 00 ff ff 00 00 ff ff 00     ................
    4333:	00 ff ff ff ff ff ff 00 00 ff ff 00 00 00 00 00     ................
    4343:	00 00 ff ff ff ff 00 00 00 00 00 00 00 00 00 00     ................
	...
    435f:	ff ff ff 00 00 00 00 ff ff 00 00 00 00 00 ff ff     ................
    436f:	ff ff ff 00 00 00 00 ff ff 00 00 00 00 00 00 ff     ................
    437f:	ff 00 00 00 00 00 00 ff ff 00 00 00 00 00 00 00     ................
	...
    43a3:	00 00 ff ff ff ff ff 00 00 ff ff 00 00 ff ff 00     ................
    43b3:	00 ff ff 00 00 ff ff 00 00 00 ff ff ff ff ff 00     ................
    43c3:	00 00 00 00 00 ff ff 00 00 ff ff ff ff ff 00 00     ................
	...
    43db:	00 ff ff 00 00 00 00 00 00 ff ff 00 00 00 00 00     ................
    43eb:	00 ff ff ff ff ff 00 00 00 ff ff 00 00 ff ff 00     ................
    43fb:	00 ff ff 00 00 ff ff 00 00 ff ff 00 00 ff ff 00     ................
	...
    441b:	00 00 00 ff ff 00 00 00 00 00 00 00 00 00 00 00     ................
    442b:	00 00 ff ff ff 00 00 00 00 00 00 ff ff 00 00 00     ................
    443b:	00 00 00 ff ff 00 00 00 00 00 ff ff ff ff 00 00     ................
	...
    445f:	00 ff ff 00 00 00 00 00 00 00 00 00 00 00 00 00     ................
    446f:	00 ff ff 00 00 00 00 00 00 ff ff 00 00 00 00 00     ................
    447f:	00 ff ff 00 00 00 00 00 00 ff ff 00 00 00 ff ff     ................
    448f:	ff ff 00 00 00 00 00 00 00 00 00 00 00 ff ff 00     ................
    449f:	00 00 00 00 00 ff ff 00 00 00 00 00 00 ff ff 00     ................
    44af:	ff ff 00 00 00 ff ff ff ff 00 00 00 00 ff ff 00     ................
    44bf:	ff ff 00 00 00 ff ff 00 00 ff ff 00 00 00 00 00     ................
	...
    44db:	00 00 ff ff ff 00 00 00 00 00 00 ff ff 00 00 00     ................
    44eb:	00 00 00 ff ff 00 00 00 00 00 00 ff ff 00 00 00     ................
    44fb:	00 00 00 ff ff 00 00 00 00 00 ff ff ff ff 00 00     ................
	...
    4523:	00 ff ff 00 00 ff ff 00 00 ff ff ff ff ff ff ff     ................
    4533:	00 ff ff ff ff ff ff ff 00 ff ff 00 ff 00 ff ff     ................
    4543:	00 ff ff 00 00 00 ff ff 00 00 00 00 00 00 00 00     ................
	...
    4563:	00 ff ff ff ff ff 00 00 00 ff ff 00 00 ff ff 00     ................
    4573:	00 ff ff 00 00 ff ff 00 00 ff ff 00 00 ff ff 00     ................
    4583:	00 ff ff 00 00 ff ff 00 00 00 00 00 00 00 00 00     ................
	...
    45a3:	00 00 ff ff ff ff 00 00 00 ff ff 00 00 ff ff 00     ................
    45b3:	00 ff ff 00 00 ff ff 00 00 ff ff 00 00 ff ff 00     ................
    45c3:	00 00 ff ff ff ff 00 00 00 00 00 00 00 00 00 00     ................
	...
    45e3:	00 ff ff ff ff ff 00 00 00 ff ff 00 00 ff ff 00     ................
    45f3:	00 ff ff 00 00 ff ff 00 00 ff ff ff ff ff 00 00     ................
    4603:	00 ff ff 00 00 00 00 00 00 ff ff 00 00 00 00 00     ................
	...
    4623:	00 00 ff ff ff ff ff 00 00 ff ff 00 00 ff ff 00     ................
    4633:	00 ff ff 00 00 ff ff 00 00 00 ff ff ff ff ff 00     ................
    4643:	00 00 00 00 00 ff ff 00 00 00 00 00 00 ff ff 00     ................
	...
    4663:	00 ff ff ff ff ff 00 00 00 ff ff 00 00 ff ff 00     ................
    4673:	00 ff ff 00 00 00 00 00 00 ff ff 00 00 00 00 00     ................
    4683:	00 ff ff 00 00 00 00 00 00 00 00 00 00 00 00 00     ................
	...
    46a3:	00 00 ff ff ff ff ff 00 00 ff ff 00 00 00 00 00     ................
    46b3:	00 00 ff ff ff ff 00 00 00 00 00 00 00 ff ff 00     ................
    46c3:	00 ff ff ff ff ff 00 00 00 00 00 00 00 00 00 00     ................
	...
    46db:	00 00 00 ff ff 00 00 00 00 ff ff ff ff ff ff 00     ................
    46eb:	00 00 00 ff ff 00 00 00 00 00 00 ff ff 00 00 00     ................
    46fb:	00 00 00 ff ff 00 00 00 00 00 00 00 ff ff ff 00     ................
	...
    4723:	00 ff ff 00 00 ff ff 00 00 ff ff 00 00 ff ff 00     ................
    4733:	00 ff ff 00 00 ff ff 00 00 ff ff 00 00 ff ff 00     ................
    4743:	00 00 ff ff ff ff ff 00 00 00 00 00 00 00 00 00     ................
	...
    4763:	00 ff ff 00 00 ff ff 00 00 ff ff 00 00 ff ff 00     ................
    4773:	00 ff ff 00 00 ff ff 00 00 00 ff ff ff ff 00 00     ................
    4783:	00 00 00 ff ff 00 00 00 00 00 00 00 00 00 00 00     ................
	...
    47a3:	00 ff ff 00 00 00 ff ff 00 ff ff 00 ff 00 ff ff     ................
    47b3:	00 ff ff ff ff ff ff ff 00 00 ff ff ff ff ff 00     ................
    47c3:	00 00 ff ff 00 ff ff 00 00 00 00 00 00 00 00 00     ................
	...
    47e3:	00 ff ff 00 00 ff ff 00 00 00 ff ff ff ff 00 00     ................
    47f3:	00 00 00 ff ff 00 00 00 00 00 ff ff ff ff 00 00     ................
    4803:	00 ff ff 00 00 ff ff 00 00 00 00 00 00 00 00 00     ................
	...
    4823:	00 ff ff 00 00 ff ff 00 00 ff ff 00 00 ff ff 00     ................
    4833:	00 ff ff 00 00 ff ff 00 00 00 ff ff ff ff ff 00     ................
    4843:	00 00 00 00 ff ff 00 00 00 ff ff ff ff 00 00 00     ................
	...
    4863:	00 ff ff ff ff ff ff 00 00 00 00 00 ff ff 00 00     ................
    4873:	00 00 00 ff ff 00 00 00 00 00 ff ff 00 00 00 00     ................
    4883:	00 ff ff ff ff ff ff 00 00 00 00 00 00 00 00 00     ................
	...
    489b:	00 00 00 ff ff 00 00 00 00 00 ff ff ff ff 00 00     ................
    48ab:	00 ff ff ff ff ff ff 00 00 ff ff ff ff ff ff 00     ................
    48bb:	00 00 00 ff ff 00 00 00 00 00 ff ff ff ff 00 00     ................
	...
    48d3:	00 00 00 ff ff 00 00 00 00 00 00 ff ff 00 00 00     ................
    48e3:	00 00 00 ff ff 00 00 00 00 00 00 ff ff 00 00 00     ................
    48f3:	00 00 00 ff ff 00 00 00 00 00 00 ff ff 00 00 00     ................
    4903:	00 00 00 ff ff 00 00 00 00 00 00 ff ff 00 00 00     ................
	...
    491b:	00 ff ff ff ff ff ff 00 00 ff ff ff ff 00 00 00     ................
    492b:	00 ff ff ff ff ff 00 00 00 ff ff 00 ff ff ff 00     ................
    493b:	00 ff ff 00 00 ff ff 00 00 00 00 00 00 ff ff 00     ................
	...
    4957:	ff 00 00 00 00 00 00 ff ff 00 00 00 00 00 ff ff     ................
    4967:	ff 00 00 00 00 ff ff ff ff 00 00 00 00 00 ff ff     ................
    4977:	ff 00 00 00 00 00 00 ff ff 00 00 00 00 00 00 00     ................
    4987:	ff 00 00 00 00 00 00 00 00 00 00 00 00 00 00 ff     ................
    4997:	00 00 00 00 00 00 00 ff ff 00 00 00 00 00 00 ff     ................
    49a7:	ff ff 00 00 00 00 00 ff ff ff ff 00 00 00 00 ff     ................
    49b7:	ff ff 00 00 00 00 00 ff ff 00 00 00 00 00 00 ff     ................
	...

000049d4 <__ctors_end>:
    49d4:	11 24       	eor	r1, r1
    49d6:	1f be       	out	0x3f, r1	; 63
    49d8:	cf ef       	ldi	r28, 0xFF	; 255
    49da:	d0 e1       	ldi	r29, 0x10	; 16
    49dc:	de bf       	out	0x3e, r29	; 62
    49de:	cd bf       	out	0x3d, r28	; 61

000049e0 <__do_copy_data>:
    49e0:	11 e0       	ldi	r17, 0x01	; 1
    49e2:	a0 e0       	ldi	r26, 0x00	; 0
    49e4:	b1 e0       	ldi	r27, 0x01	; 1
    49e6:	e4 ea       	ldi	r30, 0xA4	; 164
    49e8:	fe e6       	ldi	r31, 0x6E	; 110
    49ea:	02 c0       	rjmp	.+4      	; 0x49f0 <__do_copy_data+0x10>
    49ec:	05 90       	lpm	r0, Z+
    49ee:	0d 92       	st	X+, r0
    49f0:	a6 31       	cpi	r26, 0x16	; 22
    49f2:	b1 07       	cpc	r27, r17
    49f4:	d9 f7       	brne	.-10     	; 0x49ec <__do_copy_data+0xc>

000049f6 <__do_clear_bss>:
    49f6:	1e e0       	ldi	r17, 0x0E	; 14
    49f8:	a0 e2       	ldi	r26, 0x20	; 32
    49fa:	b1 e0       	ldi	r27, 0x01	; 1
    49fc:	01 c0       	rjmp	.+2      	; 0x4a00 <.do_clear_bss_start>

000049fe <.do_clear_bss_loop>:
    49fe:	1d 92       	st	X+, r1

00004a00 <.do_clear_bss_start>:
    4a00:	a4 35       	cpi	r26, 0x54	; 84
    4a02:	b1 07       	cpc	r27, r17
    4a04:	e1 f7       	brne	.-8      	; 0x49fe <.do_clear_bss_loop>

00004a06 <wdt_init>:

#if TRUE_RANDOM_GEN == 1	
	wdt_randomize();
#endif

    MCUSR = 0;
    4a06:	14 be       	out	0x34, r1	; 52
    wdt_disable();
    4a08:	88 e1       	ldi	r24, 0x18	; 24
    4a0a:	0f b6       	in	r0, 0x3f	; 63
    4a0c:	f8 94       	cli
    4a0e:	80 93 60 00 	sts	0x0060, r24
    4a12:	10 92 60 00 	sts	0x0060, r1
    4a16:	0f be       	out	0x3f, r0	; 63

00004a18 <Initialize>:


void Initialize(void){
	int i;

	if(!isEepromFormatted()) FormatEeprom();
    4a18:	0e 94 fc 29 	call	0x53f8	; 0x53f8 <isEepromFormatted>
    4a1c:	81 11       	cpse	r24, r1
    4a1e:	02 c0       	rjmp	.+4      	; 0x4a24 <Initialize+0xc>
    4a20:	0e 94 da 29 	call	0x53b4	; 0x53b4 <FormatEeprom>

	cli();
    4a24:	f8 94       	cli
    4a26:	e1 e6       	ldi	r30, 0x61	; 97
    4a28:	f8 e0       	ldi	r31, 0x08	; 8
	#if SOUND_MIXER == MIXER_TYPE_VSYNC
	
		//Initialize the mixer buffer
		//ramp up to avoid initial click
		for(int j=0;j<MIX_BANK_SIZE*2;j++){
			mix_buf[j]=0x80;//(i<128?i:128);
    4a2a:	80 e8       	ldi	r24, 0x80	; 128
    4a2c:	81 93       	st	Z+, r24

	#if SOUND_MIXER == MIXER_TYPE_VSYNC
	
		//Initialize the mixer buffer
		//ramp up to avoid initial click
		for(int j=0;j<MIX_BANK_SIZE*2;j++){
    4a2e:	2a e0       	ldi	r18, 0x0A	; 10
    4a30:	ed 36       	cpi	r30, 0x6D	; 109
    4a32:	f2 07       	cpc	r31, r18
    4a34:	d9 f7       	brne	.-10     	; 0x4a2c <Initialize+0x14>
			mix_buf[j]=0x80;//(i<128?i:128);
		}	
	
		mix_pos=mix_buf;
    4a36:	81 e6       	ldi	r24, 0x61	; 97
    4a38:	98 e0       	ldi	r25, 0x08	; 8
    4a3a:	90 93 6e 0a 	sts	0x0A6E, r25
    4a3e:	80 93 6d 0a 	sts	0x0A6D, r24
		mix_bank=0;
    4a42:	10 92 6f 0a 	sts	0x0A6F, r1
		snesMouseEnabled=false;
	#endif

	//silence all sound channels
	for(i=0;i<CHANNELS;i++){
		mixer.channels.all[i].volume=0;
    4a46:	10 92 72 0a 	sts	0x0A72, r1
    4a4a:	10 92 78 0a 	sts	0x0A78, r1
    4a4e:	10 92 7e 0a 	sts	0x0A7E, r1
    4a52:	10 92 84 0a 	sts	0x0A84, r1
	}
	
	//set sync parameters. starts at odd field, in pre-eq pulses, line 1, vsync flag cleared
	sync_phase=0;
    4a56:	10 92 3c 08 	sts	0x083C, r1
	sync_flags=0;
    4a5a:	10 92 3e 08 	sts	0x083E, r1
	sync_pulse=SYNC_PRE_EQ_PULSES+SYNC_EQ_PULSES+SYNC_POST_EQ_PULSES;
    4a5e:	82 e1       	ldi	r24, 0x12	; 18
    4a60:	80 93 3d 08 	sts	0x083D, r24

	//set rendering parameters
	render_lines_count_tmp=FRAME_LINES;
    4a64:	80 ee       	ldi	r24, 0xE0	; 224
    4a66:	80 93 46 08 	sts	0x0846, r24
	render_lines_count=FRAME_LINES;
    4a6a:	80 93 44 08 	sts	0x0844, r24
	first_render_line_tmp=FIRST_RENDER_LINE;
    4a6e:	84 e1       	ldi	r24, 0x14	; 20
    4a70:	80 93 45 08 	sts	0x0845, r24
	first_render_line=FIRST_RENDER_LINE;
    4a74:	80 93 43 08 	sts	0x0843, r24

	joypad1_status_hi=0;
    4a78:	10 92 4a 08 	sts	0x084A, r1
    4a7c:	10 92 49 08 	sts	0x0849, r1
	joypad2_status_hi=0;
    4a80:	10 92 4e 08 	sts	0x084E, r1
    4a84:	10 92 4d 08 	sts	0x084D, r1
	sound_enabled=1;
    4a88:	81 e0       	ldi	r24, 0x01	; 1
    4a8a:	80 93 71 0a 	sts	0x0A71, r24

	InitializeVideoMode();
    4a8e:	0e 94 ca 35 	call	0x6b94	; 0x6b94 <InitializeVideoMode>
    4a92:	80 e7       	ldi	r24, 0x70	; 112
    4a94:	90 e0       	ldi	r25, 0x00	; 0
	
	//Initialize I/O registers
	u16 val;
	u8 *ptr;
	for(u8 j=0;j<(sizeof(io_table)>>1);j++){
		val=pgm_read_word(&io_table[j]);
    4a96:	fc 01       	movw	r30, r24
    4a98:	25 91       	lpm	r18, Z+
    4a9a:	34 91       	lpm	r19, Z
		ptr=(u8*)(val&0xff);
    4a9c:	f9 01       	movw	r30, r18
    4a9e:	ff 27       	eor	r31, r31
		*ptr=val>>8;	
    4aa0:	30 83       	st	Z, r19
    4aa2:	02 96       	adiw	r24, 0x02	; 2
	InitializeVideoMode();
	
	//Initialize I/O registers
	u16 val;
	u8 *ptr;
	for(u8 j=0;j<(sizeof(io_table)>>1);j++){
    4aa4:	20 e0       	ldi	r18, 0x00	; 0
    4aa6:	8e 39       	cpi	r24, 0x9E	; 158
    4aa8:	92 07       	cpc	r25, r18
    4aaa:	a9 f7       	brne	.-22     	; 0x4a96 <Initialize+0x7e>
		val=pgm_read_word(&io_table[j]);
		ptr=(u8*)(val&0xff);
		*ptr=val>>8;	
	}

	sei();
    4aac:	78 94       	sei
	
	DisplayLogo();
    4aae:	0e 94 53 36 	call	0x6ca6	; 0x6ca6 <DisplayLogo>
    4ab2:	0e 94 05 37 	call	0x6e0a	; 0x6e0a <main>
    4ab6:	0c 94 50 37 	jmp	0x6ea0	; 0x6ea0 <_exit>

00004aba <__bad_interrupt>:
    4aba:	0c 94 00 00 	jmp	0	; 0x0 <__vectors>

00004abe <sub_video_mode3>:
	; Mode 3 with NO scrolling
	;***************************************************	
	sub_video_mode3:

		;wait cycles to align with next hsync
		WAIT r16,36
    4abe:	0c e0       	ldi	r16, 0x0C	; 12
    4ac0:	0a 95       	dec	r16
    4ac2:	f1 f7       	brne	.-4      	; 0x4ac0 <sub_video_mode3+0x2>

		;Set ramtiles indexes in VRAM 
		ldi ZL,lo8(ram_tiles_restore);
    4ac4:	e4 e0       	ldi	r30, 0x04	; 4
		ldi ZH,hi8(ram_tiles_restore);
    4ac6:	f8 e0       	ldi	r31, 0x08	; 8

		ldi YL,lo8(vram)
    4ac8:	c0 e2       	ldi	r28, 0x20	; 32
		ldi YH,hi8(vram)
    4aca:	d1 e0       	ldi	r29, 0x01	; 1

		lds r18,free_tile_index
    4acc:	20 91 f9 0a 	lds	r18, 0x0AF9


		clr r16
    4ad0:	00 27       	eor	r16, r16

00004ad2 <upd_loop>:
	upd_loop:	
		ldd XL,Z+0
    4ad2:	a0 81       	ld	r26, Z
		ldd XH,Z+1
    4ad4:	b1 81       	ldd	r27, Z+1	; 0x01
	
		add XL,YL
    4ad6:	ac 0f       	add	r26, r28
		adc XH,YH
    4ad8:	bd 1f       	adc	r27, r29

		ld r17,X	;currbgtile
    4ada:	1c 91       	ld	r17, X
		std Z+2,r17
    4adc:	12 83       	std	Z+2, r17	; 0x02

		cp r16,r18
    4ade:	02 17       	cp	r16, r18
		brsh noov
    4ae0:	08 f4       	brcc	.+2      	; 0x4ae4 <noov>
		mov r17,r16
    4ae2:	10 2f       	mov	r17, r16

00004ae4 <noov>:
	noov:
		st X,r17
    4ae4:	1c 93       	st	X, r17
	
		adiw ZL,3 ;sizeof(ram_tiles_restore)
    4ae6:	33 96       	adiw	r30, 0x03	; 3

		inc r16
    4ae8:	03 95       	inc	r16
		cpi r16,RAM_TILES_COUNT
    4aea:	0e 30       	cpi	r16, 0x0E	; 14
		brlo upd_loop ;23
    4aec:	90 f3       	brcs	.-28     	; 0x4ad2 <upd_loop>


	#if RAM_TILES_COUNT == 0 
		ldi r16,60-RAM_TILES_COUNT 
	#else
		ldi r16,61-RAM_TILES_COUNT 
    4aee:	0f e2       	ldi	r16, 0x2F	; 47

00004af0 <wait_loop>:
	#endif

	wait_loop:
	
		ldi r17,6
    4af0:	16 e0       	ldi	r17, 0x06	; 6
		dec r17
    4af2:	1a 95       	dec	r17
		brne .-4
    4af4:	f1 f7       	brne	.-4      	; 0x4af2 <wait_loop+0x2>

		dec r16
    4af6:	0a 95       	dec	r16
		brne wait_loop
    4af8:	d9 f7       	brne	.-10     	; 0x4af0 <wait_loop>

		lds r2,overlay_tile_table
    4afa:	20 90 3a 08 	lds	r2, 0x083A
		lds r3,overlay_tile_table+1
    4afe:	30 90 3b 08 	lds	r3, 0x083B
		lds r16,tile_table_lo 
    4b02:	00 91 36 08 	lds	r16, 0x0836
		lds r17,tile_table_hi
    4b06:	10 91 37 08 	lds	r17, 0x0837
		movw r12,r16
    4b0a:	68 01       	movw	r12, r16
		movw r6,r16
    4b0c:	38 01       	movw	r6, r16

		ldi r24,SCREEN_TILES_V
    4b0e:	8c e1       	ldi	r24, 0x1C	; 28
		ldi YL,lo8(vram)
    4b10:	c0 e2       	ldi	r28, 0x20	; 32
		ldi YH,hi8(vram)
    4b12:	d1 e0       	ldi	r29, 0x01	; 1
		movw r8,YL	
    4b14:	4e 01       	movw	r8, r28
		clr r0
    4b16:	00 24       	eor	r0, r0

		;load values for overlay if it's activated (overlay_height>0)
		lds r19,overlay_height	
    4b18:	30 91 39 08 	lds	r19, 0x0839
		cpi r19,0
    4b1c:	30 30       	cpi	r19, 0x00	; 0
		
		breq .+2
    4b1e:	09 f0       	breq	.+2      	; 0x4b22 <wait_loop+0x32>
		ldi YL,lo8(overlay_vram)
    4b20:	c8 e6       	ldi	r28, 0x68	; 104
		
		breq .+2
    4b22:	09 f0       	breq	.+2      	; 0x4b26 <wait_loop+0x36>
		ldi YH,hi8(overlay_vram)
    4b24:	d4 e0       	ldi	r29, 0x04	; 4
		
		breq .+2
    4b26:	09 f0       	breq	.+2      	; 0x4b2a <wait_loop+0x3a>
		mov r24,r19
    4b28:	83 2f       	mov	r24, r19

		breq .+2
    4b2a:	09 f0       	breq	.+2      	; 0x4b2e <wait_loop+0x3e>
		movw r12,r2
    4b2c:	61 01       	movw	r12, r2


		ldi r16,SCREEN_TILES_V*TILE_HEIGHT; total scanlines to draw (28*8)
    4b2e:	00 ee       	ldi	r16, 0xE0	; 224
		mov r10,r16
    4b30:	a0 2e       	mov	r10, r16
		clr r22
    4b32:	66 27       	eor	r22, r22
		ldi r23,TILE_WIDTH ;tile width in pixels
    4b34:	78 e0       	ldi	r23, 0x08	; 8

00004b36 <next_tile_line>:
	;r12:r13= Main tile table or overlay tile table if overlay_height>0
	;r24	= vertical tiles to draw before reloading vram adress (for overlay)
	;Y      = vram or overlay_ram if overlay_height>0
	;
	next_tile_line:	
		rcall hsync_pulse
    4b36:	7e d2       	rcall	.+1276   	; 0x5034 <hsync_pulse>

		WAIT r19,250 - AUDIO_OUT_HSYNC_CYCLES + CENTER_ADJUSTMENT + FILL_DELAY
    4b38:	36 e2       	ldi	r19, 0x26	; 38
    4b3a:	3a 95       	dec	r19
    4b3c:	f1 f7       	brne	.-4      	; 0x4b3a <next_tile_line+0x4>
    4b3e:	00 00       	nop

		;***draw line***
		call render_tile_line
    4b40:	0e 94 d1 25 	call	0x4ba2	; 0x4ba2 <render_tile_line>

		WAIT r19,47 + FILL_DELAY - CENTER_ADJUSTMENT	
    4b44:	3f e0       	ldi	r19, 0x0F	; 15
    4b46:	3a 95       	dec	r19
    4b48:	f1 f7       	brne	.-4      	; 0x4b46 <next_tile_line+0x10>
    4b4a:	00 00       	nop
    4b4c:	00 00       	nop

		dec r10
    4b4e:	aa 94       	dec	r10
		breq frame_end
    4b50:	a9 f0       	breq	.+42     	; 0x4b7c <frame_end>
	
		inc r22
    4b52:	63 95       	inc	r22
		lpm ;3 nop
    4b54:	c8 95       	lpm

		cpi r22,TILE_HEIGHT ;last char line? 1
    4b56:	68 30       	cpi	r22, 0x08	; 8
		breq next_tile_row 
    4b58:	31 f0       	breq	.+12     	; 0x4b66 <next_tile_row>
	
		;wait to align with next_tile_row instructions (+1 cycle for the breq)
		WAIT r19,11
    4b5a:	33 e0       	ldi	r19, 0x03	; 3
    4b5c:	3a 95       	dec	r19
    4b5e:	f1 f7       	brne	.-4      	; 0x4b5c <next_tile_line+0x26>
    4b60:	00 00       	nop
    4b62:	00 00       	nop
		
		rjmp next_tile_line	
    4b64:	e8 cf       	rjmp	.-48     	; 0x4b36 <next_tile_line>

00004b66 <next_tile_row>:

	next_tile_row:
		clr r22		;current char line			;1	
    4b66:	66 27       	eor	r22, r22

		clr r0
    4b68:	00 24       	eor	r0, r0
		ldi r19,VRAM_TILES_H
    4b6a:	3e e1       	ldi	r19, 0x1E	; 30
		add YL,r19
    4b6c:	c3 0f       	add	r28, r19
		adc YH,r0
    4b6e:	d0 1d       	adc	r29, r0

		dec r24		;overlay done?
    4b70:	8a 95       	dec	r24
		brne .+2
    4b72:	09 f4       	brne	.+2      	; 0x4b76 <next_tile_row+0x10>
		movw YL,r8	;main vram
    4b74:	e4 01       	movw	r28, r8
		brne .+2
    4b76:	09 f4       	brne	.+2      	; 0x4b7a <next_tile_row+0x14>
		movw r12,r6	;main tile table
    4b78:	63 01       	movw	r12, r6

	
		rjmp next_tile_line
    4b7a:	dd cf       	rjmp	.-70     	; 0x4b36 <next_tile_line>

00004b7c <frame_end>:

	frame_end:

		WAIT r19,18
    4b7c:	36 e0       	ldi	r19, 0x06	; 6
    4b7e:	3a 95       	dec	r19
    4b80:	f1 f7       	brne	.-4      	; 0x4b7e <frame_end+0x2>

		rcall hsync_pulse ;145
    4b82:	58 d2       	rcall	.+1200   	; 0x5034 <hsync_pulse>
	
		clr r1
    4b84:	11 24       	eor	r1, r1
		call RestoreBackground
    4b86:	0e 94 80 34 	call	0x6900	; 0x6900 <RestoreBackground>

		;set vsync flag & flip field
		lds ZL,sync_flags
    4b8a:	e0 91 3e 08 	lds	r30, 0x083E
		ldi r20,SYNC_FLAG_FIELD
    4b8e:	42 e0       	ldi	r20, 0x02	; 2
		ori ZL,SYNC_FLAG_VSYNC
    4b90:	e1 60       	ori	r30, 0x01	; 1
		eor ZL,r20
    4b92:	e4 27       	eor	r30, r20
		sts sync_flags,ZL
    4b94:	e0 93 3e 08 	sts	0x083E, r30

		;clear any pending timer int
		ldi ZL,(1<<OCF1A)
    4b98:	e2 e0       	ldi	r30, 0x02	; 2
		sts _SFR_MEM_ADDR(TIFR1),ZL
    4b9a:	e0 93 36 00 	sts	0x0036, r30



		clr r1
    4b9e:	11 24       	eor	r1, r1


		ret
    4ba0:	08 95       	ret

00004ba2 <render_tile_line>:
	;*************************************************
	render_tile_line:

		;load first tile and determine if its a ROM or RAM tile

		movw XL,YL
    4ba2:	de 01       	movw	r26, r28

		mul r22,r23
    4ba4:	67 9f       	mul	r22, r23

		movw r16,r12 ;current tile table (main or overlay)
    4ba6:	86 01       	movw	r16, r12
		subi r16,lo8(RAM_TILES_COUNT*TILE_HEIGHT*TILE_WIDTH)
    4ba8:	00 58       	subi	r16, 0x80	; 128
		sbci r17,hi8(RAM_TILES_COUNT*TILE_HEIGHT*TILE_WIDTH)
    4baa:	13 40       	sbci	r17, 0x03	; 3

		add r16,r0
    4bac:	00 0d       	add	r16, r0
		adc r17,r1
    4bae:	11 1d       	adc	r17, r1
		movw r2,r16			;rom tiles
    4bb0:	18 01       	movw	r2, r16

		ldi r16,lo8(ram_tiles)
    4bb2:	04 e8       	ldi	r16, 0x84	; 132
		ldi r17,hi8(ram_tiles)
    4bb4:	14 e0       	ldi	r17, 0x04	; 4
		add r16,r0
    4bb6:	00 0d       	add	r16, r0
		adc r17,r1
    4bb8:	11 1d       	adc	r17, r1
		movw r4,r16			;ram tiles
    4bba:	28 01       	movw	r4, r16

		ldi r19,TILE_HEIGHT*TILE_WIDTH
    4bbc:	30 e4       	ldi	r19, 0x40	; 64
		ldi r17,SCREEN_TILES_H
    4bbe:	1e e1       	ldi	r17, 0x1E	; 30

	    ld r18,X+     	;load next tile # from VRAM
    4bc0:	2d 91       	ld	r18, X+

		mul r18,r19 	;tile*width*height
    4bc2:	23 9f       	mul	r18, r19
		movw r20,r2		;rom tiles
    4bc4:	a1 01       	movw	r20, r2
		
		cpi r18,RAM_TILES_COUNT
    4bc6:	2e 30       	cpi	r18, 0x0E	; 14
		brcc .+2
    4bc8:	08 f4       	brcc	.+2      	; 0x4bcc <render_tile_line+0x2a>
		movw r20,r4		;ram tiles
    4bca:	a2 01       	movw	r20, r4

	    add r0,r20    ;add title table address +row offset
    4bcc:	04 0e       	add	r0, r20
	    adc r1,r21
    4bce:	15 1e       	adc	r1, r21

		movw ZL,r0
    4bd0:	f0 01       	movw	r30, r0
		
		cpi r18,RAM_TILES_COUNT
    4bd2:	2e 30       	cpi	r18, 0x0E	; 14
		brcs ramloop
    4bd4:	f0 f0       	brcs	.+60     	; 0x4c12 <ramloop>

00004bd6 <romloop>:
	

	romloop:
	    lpm r16,Z+
    4bd6:	05 91       	lpm	r16, Z+
	    out _SFR_IO_ADDR(DATA_PORT),r16        ;pixel 1
    4bd8:	08 b9       	out	0x08, r16	; 8
	    ld r18,X+     ;load next tile # from VRAM
    4bda:	2d 91       	ld	r18, X+


	    lpm r16,Z+
    4bdc:	05 91       	lpm	r16, Z+
	    out _SFR_IO_ADDR(DATA_PORT),r16        ;pixel 2
    4bde:	08 b9       	out	0x08, r16	; 8
		mul r18,r19 ;tile*width*height
    4be0:	23 9f       	mul	r18, r19


	    lpm r16,Z+
    4be2:	05 91       	lpm	r16, Z+
	    out _SFR_IO_ADDR(DATA_PORT),r16        ;pixel 3
    4be4:	08 b9       	out	0x08, r16	; 8
		cpi r18,RAM_TILES_COUNT		;is tile in RAM or ROM? (RAM tiles have indexes<RAM_TILES_COUNT)
    4be6:	2e 30       	cpi	r18, 0x0E	; 14
		nop
    4be8:	00 00       	nop

	    lpm r16,Z+
    4bea:	05 91       	lpm	r16, Z+
	    out _SFR_IO_ADDR(DATA_PORT),r16        ;pixel 4
    4bec:	08 b9       	out	0x08, r16	; 8
		brsh .+2		;skip in next tile is in ROM	
    4bee:	08 f4       	brcc	.+2      	; 0x4bf2 <romloop+0x1c>
		movw r20,r4 	;load RAM title table address +row offset	
    4bf0:	a2 01       	movw	r20, r4
   
	    lpm r16,Z+
    4bf2:	05 91       	lpm	r16, Z+
	    out _SFR_IO_ADDR(DATA_PORT),r16        ;pixel 5
    4bf4:	08 b9       	out	0x08, r16	; 8
		add r0,r20		;add title table address +row offset lsb
    4bf6:	04 0e       	add	r0, r20
	    adc r1,r21		;add title table address +row offset msb
    4bf8:	15 1e       	adc	r1, r21

	    lpm r16,Z+
    4bfa:	05 91       	lpm	r16, Z+
	    out _SFR_IO_ADDR(DATA_PORT),r16        ;pixel 6
    4bfc:	08 b9       	out	0x08, r16	; 8
		
		cpi r18,RAM_TILES_COUNT	
    4bfe:	2e 30       	cpi	r18, 0x0E	; 14
		dec r17			;decrement tiles to draw on line
    4c00:	1a 95       	dec	r17
   
	    lpm r16,Z+
    4c02:	05 91       	lpm	r16, Z+
	    out _SFR_IO_ADDR(DATA_PORT),r16        ;pixel 7   
    4c04:	08 b9       	out	0x08, r16	; 8
	    lpm r16,Z+
    4c06:	05 91       	lpm	r16, Z+

		breq end	
    4c08:	31 f1       	breq	.+76     	; 0x4c56 <end>
	    movw ZL,r0   	;copy next tile adress
    4c0a:	f0 01       	movw	r30, r0

	    out _SFR_IO_ADDR(DATA_PORT),r16        ;pixel 8   
    4c0c:	08 b9       	out	0x08, r16	; 8
	    brcc romloop
    4c0e:	18 f7       	brcc	.-58     	; 0x4bd6 <romloop>
	
		rjmp .
    4c10:	00 c0       	rjmp	.+0      	; 0x4c12 <ramloop>

00004c12 <ramloop>:

	ramloop:

	    ld r16,Z+
    4c12:	01 91       	ld	r16, Z+
	    out _SFR_IO_ADDR(DATA_PORT),r16        ;pixel 1
    4c14:	08 b9       	out	0x08, r16	; 8
	    ld r18,X+     ;load next tile # from VRAM
    4c16:	2d 91       	ld	r18, X+

	    ld r16,Z+ 
    4c18:	01 91       	ld	r16, Z+
		nop   
    4c1a:	00 00       	nop
		out _SFR_IO_ADDR(DATA_PORT),r16 		;pixel 2
    4c1c:	08 b9       	out	0x08, r16	; 8
		mul r18,r19 ;tile*width*height
    4c1e:	23 9f       	mul	r18, r19


	    ld r16,Z+
    4c20:	01 91       	ld	r16, Z+
		nop
    4c22:	00 00       	nop
		out _SFR_IO_ADDR(DATA_PORT),r16         ;pixel 3
    4c24:	08 b9       	out	0x08, r16	; 8
		cpi r18,RAM_TILES_COUNT
    4c26:	2e 30       	cpi	r18, 0x0E	; 14
   		rjmp .
    4c28:	00 c0       	rjmp	.+0      	; 0x4c2a <ramloop+0x18>

	    ld r16,Z+
    4c2a:	01 91       	ld	r16, Z+
		out _SFR_IO_ADDR(DATA_PORT),r16        ;pixel 4
    4c2c:	08 b9       	out	0x08, r16	; 8
		brcs .+2 
    4c2e:	08 f0       	brcs	.+2      	; 0x4c32 <ramloop+0x20>
		movw r20,r2 	;ROM title table address +row offset	
    4c30:	a1 01       	movw	r20, r2
   
   
	    ld r16,Z+
    4c32:	01 91       	ld	r16, Z+
	    add r0,r20    ;add title table address +row offset
    4c34:	04 0e       	add	r0, r20
		out _SFR_IO_ADDR(DATA_PORT),r16       ;pixel 5
    4c36:	08 b9       	out	0x08, r16	; 8
	    adc r1,r21
    4c38:	15 1e       	adc	r1, r21
		rjmp .
    4c3a:	00 c0       	rjmp	.+0      	; 0x4c3c <ramloop+0x2a>
    
		ld r16,Z+		
    4c3c:	01 91       	ld	r16, Z+
		out _SFR_IO_ADDR(DATA_PORT),r16       ;pixel 6
    4c3e:	08 b9       	out	0x08, r16	; 8
		cpi r18,RAM_TILES_COUNT
    4c40:	2e 30       	cpi	r18, 0x0E	; 14
		rjmp .  
    4c42:	00 c0       	rjmp	.+0      	; 0x4c44 <ramloop+0x32>

	    ld r16,Z+	
    4c44:	01 91       	ld	r16, Z+
		out _SFR_IO_ADDR(DATA_PORT),r16      ;pixel 7   
    4c46:	08 b9       	out	0x08, r16	; 8
	    ld r16,Z+
    4c48:	01 91       	ld	r16, Z+

	    dec r17
    4c4a:	1a 95       	dec	r17
	    breq end
    4c4c:	21 f0       	breq	.+8      	; 0x4c56 <end>
	
		movw ZL,r0
    4c4e:	f0 01       	movw	r30, r0
		out _SFR_IO_ADDR(DATA_PORT),r16        ;pixel 8   
    4c50:	08 b9       	out	0x08, r16	; 8
	
	    brcc romloop
    4c52:	08 f6       	brcc	.-126    	; 0x4bd6 <romloop>
		rjmp ramloop
    4c54:	de cf       	rjmp	.-68     	; 0x4c12 <ramloop>

00004c56 <end>:
	
	end:
		out _SFR_IO_ADDR(DATA_PORT),r16  	;pixel 8
    4c56:	08 b9       	out	0x08, r16	; 8
		clr r16	
    4c58:	00 27       	eor	r16, r16
		lpm	
    4c5a:	c8 95       	lpm
		nop
    4c5c:	00 00       	nop
		out _SFR_IO_ADDR(DATA_PORT),r16        
    4c5e:	08 b9       	out	0x08, r16	; 8

		ret
    4c60:	08 95       	ret

00004c62 <CopyTileToRam>:
		px=pgm_read_byte(src++);
		*dest++=px;
	}
*/

	ldi r18,TILE_HEIGHT*TILE_WIDTH
    4c62:	20 e4       	ldi	r18, 0x40	; 64

	;compute source adress
	lds ZL,tile_table_lo
    4c64:	e0 91 36 08 	lds	r30, 0x0836
	lds ZH,tile_table_hi
    4c68:	f0 91 37 08 	lds	r31, 0x0837
	;andi r24,0x7f
	subi r24,RAM_TILES_COUNT
    4c6c:	8e 50       	subi	r24, 0x0E	; 14
	mul r24,r18
    4c6e:	82 9f       	mul	r24, r18
	add ZL,r0
    4c70:	e0 0d       	add	r30, r0
	adc ZH,r1
    4c72:	f1 1d       	adc	r31, r1

	;compute destination adress
	ldi XL,lo8(ram_tiles)
    4c74:	a4 e8       	ldi	r26, 0x84	; 132
	ldi XH,hi8(ram_tiles)
    4c76:	b4 e0       	ldi	r27, 0x04	; 4
	mul r22,r18
    4c78:	62 9f       	mul	r22, r18
	add XL,r0
    4c7a:	a0 0d       	add	r26, r0
	adc XH,r1
    4c7c:	b1 1d       	adc	r27, r1

	clr r0
    4c7e:	00 24       	eor	r0, r0
	;copy data (fastest possible)
.rept TILE_HEIGHT*TILE_WIDTH
	lpm r0,Z+	
	st X+,r0
.endr
    4c80:	05 90       	lpm	r0, Z+
    4c82:	0d 92       	st	X+, r0
    4c84:	05 90       	lpm	r0, Z+
    4c86:	0d 92       	st	X+, r0
    4c88:	05 90       	lpm	r0, Z+
    4c8a:	0d 92       	st	X+, r0
    4c8c:	05 90       	lpm	r0, Z+
    4c8e:	0d 92       	st	X+, r0
    4c90:	05 90       	lpm	r0, Z+
    4c92:	0d 92       	st	X+, r0
    4c94:	05 90       	lpm	r0, Z+
    4c96:	0d 92       	st	X+, r0
    4c98:	05 90       	lpm	r0, Z+
    4c9a:	0d 92       	st	X+, r0
    4c9c:	05 90       	lpm	r0, Z+
    4c9e:	0d 92       	st	X+, r0
    4ca0:	05 90       	lpm	r0, Z+
    4ca2:	0d 92       	st	X+, r0
    4ca4:	05 90       	lpm	r0, Z+
    4ca6:	0d 92       	st	X+, r0
    4ca8:	05 90       	lpm	r0, Z+
    4caa:	0d 92       	st	X+, r0
    4cac:	05 90       	lpm	r0, Z+
    4cae:	0d 92       	st	X+, r0
    4cb0:	05 90       	lpm	r0, Z+
    4cb2:	0d 92       	st	X+, r0
    4cb4:	05 90       	lpm	r0, Z+
    4cb6:	0d 92       	st	X+, r0
    4cb8:	05 90       	lpm	r0, Z+
    4cba:	0d 92       	st	X+, r0
    4cbc:	05 90       	lpm	r0, Z+
    4cbe:	0d 92       	st	X+, r0
    4cc0:	05 90       	lpm	r0, Z+
    4cc2:	0d 92       	st	X+, r0
    4cc4:	05 90       	lpm	r0, Z+
    4cc6:	0d 92       	st	X+, r0
    4cc8:	05 90       	lpm	r0, Z+
    4cca:	0d 92       	st	X+, r0
    4ccc:	05 90       	lpm	r0, Z+
    4cce:	0d 92       	st	X+, r0
    4cd0:	05 90       	lpm	r0, Z+
    4cd2:	0d 92       	st	X+, r0
    4cd4:	05 90       	lpm	r0, Z+
    4cd6:	0d 92       	st	X+, r0
    4cd8:	05 90       	lpm	r0, Z+
    4cda:	0d 92       	st	X+, r0
    4cdc:	05 90       	lpm	r0, Z+
    4cde:	0d 92       	st	X+, r0
    4ce0:	05 90       	lpm	r0, Z+
    4ce2:	0d 92       	st	X+, r0
    4ce4:	05 90       	lpm	r0, Z+
    4ce6:	0d 92       	st	X+, r0
    4ce8:	05 90       	lpm	r0, Z+
    4cea:	0d 92       	st	X+, r0
    4cec:	05 90       	lpm	r0, Z+
    4cee:	0d 92       	st	X+, r0
    4cf0:	05 90       	lpm	r0, Z+
    4cf2:	0d 92       	st	X+, r0
    4cf4:	05 90       	lpm	r0, Z+
    4cf6:	0d 92       	st	X+, r0
    4cf8:	05 90       	lpm	r0, Z+
    4cfa:	0d 92       	st	X+, r0
    4cfc:	05 90       	lpm	r0, Z+
    4cfe:	0d 92       	st	X+, r0
    4d00:	05 90       	lpm	r0, Z+
    4d02:	0d 92       	st	X+, r0
    4d04:	05 90       	lpm	r0, Z+
    4d06:	0d 92       	st	X+, r0
    4d08:	05 90       	lpm	r0, Z+
    4d0a:	0d 92       	st	X+, r0
    4d0c:	05 90       	lpm	r0, Z+
    4d0e:	0d 92       	st	X+, r0
    4d10:	05 90       	lpm	r0, Z+
    4d12:	0d 92       	st	X+, r0
    4d14:	05 90       	lpm	r0, Z+
    4d16:	0d 92       	st	X+, r0
    4d18:	05 90       	lpm	r0, Z+
    4d1a:	0d 92       	st	X+, r0
    4d1c:	05 90       	lpm	r0, Z+
    4d1e:	0d 92       	st	X+, r0
    4d20:	05 90       	lpm	r0, Z+
    4d22:	0d 92       	st	X+, r0
    4d24:	05 90       	lpm	r0, Z+
    4d26:	0d 92       	st	X+, r0
    4d28:	05 90       	lpm	r0, Z+
    4d2a:	0d 92       	st	X+, r0
    4d2c:	05 90       	lpm	r0, Z+
    4d2e:	0d 92       	st	X+, r0
    4d30:	05 90       	lpm	r0, Z+
    4d32:	0d 92       	st	X+, r0
    4d34:	05 90       	lpm	r0, Z+
    4d36:	0d 92       	st	X+, r0
    4d38:	05 90       	lpm	r0, Z+
    4d3a:	0d 92       	st	X+, r0
    4d3c:	05 90       	lpm	r0, Z+
    4d3e:	0d 92       	st	X+, r0
    4d40:	05 90       	lpm	r0, Z+
    4d42:	0d 92       	st	X+, r0
    4d44:	05 90       	lpm	r0, Z+
    4d46:	0d 92       	st	X+, r0
    4d48:	05 90       	lpm	r0, Z+
    4d4a:	0d 92       	st	X+, r0
    4d4c:	05 90       	lpm	r0, Z+
    4d4e:	0d 92       	st	X+, r0
    4d50:	05 90       	lpm	r0, Z+
    4d52:	0d 92       	st	X+, r0
    4d54:	05 90       	lpm	r0, Z+
    4d56:	0d 92       	st	X+, r0
    4d58:	05 90       	lpm	r0, Z+
    4d5a:	0d 92       	st	X+, r0
    4d5c:	05 90       	lpm	r0, Z+
    4d5e:	0d 92       	st	X+, r0
    4d60:	05 90       	lpm	r0, Z+
    4d62:	0d 92       	st	X+, r0
    4d64:	05 90       	lpm	r0, Z+
    4d66:	0d 92       	st	X+, r0
    4d68:	05 90       	lpm	r0, Z+
    4d6a:	0d 92       	st	X+, r0
    4d6c:	05 90       	lpm	r0, Z+
    4d6e:	0d 92       	st	X+, r0
    4d70:	05 90       	lpm	r0, Z+
    4d72:	0d 92       	st	X+, r0
    4d74:	05 90       	lpm	r0, Z+
    4d76:	0d 92       	st	X+, r0
    4d78:	05 90       	lpm	r0, Z+
    4d7a:	0d 92       	st	X+, r0
    4d7c:	05 90       	lpm	r0, Z+
    4d7e:	0d 92       	st	X+, r0


	clr r1
    4d80:	11 24       	eor	r1, r1
	ret
    4d82:	08 95       	ret

00004d84 <BlitSprite>:
; r22=RAM tile index (bt)
; r21:r20=Y:X
; r19:r18=DY:DX
;************************************
BlitSprite:
	push r16
    4d84:	0f 93       	push	r16
	push r17
    4d86:	1f 93       	push	r17
	push YL
    4d88:	cf 93       	push	r28
	push YH
    4d8a:	df 93       	push	r29

	;src=sprites_tiletable_lo+(sprites[i].tileIndex*TILE_HEIGHT*TILE_WIDTH)
	ldi r25,SPRITE_STRUCT_SIZE
    4d8c:	94 e0       	ldi	r25, 0x04	; 4
	mul r24,r25
    4d8e:	89 9f       	mul	r24, r25

	ldi ZL,lo8(sprites)	
    4d90:	e8 e6       	ldi	r30, 0x68	; 104
	ldi ZH,hi8(sprites)	
    4d92:	f4 e0       	ldi	r31, 0x04	; 4
	add ZL,r0
    4d94:	e0 0d       	add	r30, r0
	adc ZH,r1
    4d96:	f1 1d       	adc	r31, r1

	ldd r16,Z+sprFlags
    4d98:	03 81       	ldd	r16, Z+3	; 0x03

	;8x16 multiply
	ldd r24,Z+sprTileIndex
    4d9a:	82 81       	ldd	r24, Z+2	; 0x02
	ldi r30,TILE_WIDTH*TILE_HEIGHT
    4d9c:	e0 e4       	ldi	r30, 0x40	; 64
	mul r24,r30
    4d9e:	8e 9f       	mul	r24, r30
	movw r26,r0
    4da0:	d0 01       	movw	r26, r0
	
	;get tile bank addr
	ldi r25,4*2
    4da2:	98 e0       	ldi	r25, 0x08	; 8
	mul r16,r25
    4da4:	09 9f       	mul	r16, r25
	ldi YL,lo8(sprites_tile_banks)	
    4da6:	ce e2       	ldi	r28, 0x2E	; 46
	ldi YH,hi8(sprites_tile_banks)	
    4da8:	d8 e0       	ldi	r29, 0x08	; 8
	clr r0
    4daa:	00 24       	eor	r0, r0
	add YL,r1
    4dac:	c1 0d       	add	r28, r1
	adc YH,r0		
    4dae:	d0 1d       	adc	r29, r0
	ldd ZL,Y+0
    4db0:	e8 81       	ld	r30, Y
	ldd ZH,Y+1
    4db2:	f9 81       	ldd	r31, Y+1	; 0x01
	add ZL,r26	;tile data src
    4db4:	ea 0f       	add	r30, r26
	adc ZH,r27
    4db6:	fb 1f       	adc	r31, r27
	
	;dest=ram_tiles+(bt*TILE_HEIGHT*TILE_WIDTH)
	ldi XL,lo8(ram_tiles)	
    4db8:	a4 e8       	ldi	r26, 0x84	; 132
	ldi XH,hi8(ram_tiles)
    4dba:	b4 e0       	ldi	r27, 0x04	; 4
	ldi r25,TILE_WIDTH*TILE_HEIGHT
    4dbc:	90 e4       	ldi	r25, 0x40	; 64
	mul r22,r25
    4dbe:	69 9f       	mul	r22, r25
	add XL,r0
    4dc0:	a0 0d       	add	r26, r0
	adc XH,r1
    4dc2:	b1 1d       	adc	r27, r1
			srcXdiff=destXdiff;
			src+=destXdiff;
		}
	}
	*/
	clr r1
    4dc4:	11 24       	eor	r1, r1
	clr YH		;hi8(srcXdiff)
    4dc6:	dd 27       	eor	r29, r29

	cpi r20,0	
    4dc8:	40 30       	cpi	r20, 0x00	; 0
	brne x_2nd_tile
    4dca:	51 f4       	brne	.+20     	; 0x4de0 <x_2nd_tile>
	
	add XL,r18	;dest+=dx
    4dcc:	a2 0f       	add	r26, r18
	adc XH,r1
    4dce:	b1 1d       	adc	r27, r1
	mov r24,r18	;destXdiff=dx
    4dd0:	82 2f       	mov	r24, r18
	mov YL,r18	;srcXdiff=dx
    4dd2:	c2 2f       	mov	r28, r18

	sbrs r16,SPRITE_FLIP_X_BIT
    4dd4:	00 ff       	sbrs	r16, 0
	rjmp x_check_end
    4dd6:	11 c0       	rjmp	.+34     	; 0x4dfa <x_check_end>

	adiw ZL,(TILE_WIDTH-1)	;src+=7
    4dd8:	37 96       	adiw	r30, 0x07	; 7
	ldi YL,TILE_WIDTH*2		;srcXdiff=((TILE_WIDTH*2)-dx);
    4dda:	c0 e1       	ldi	r28, 0x10	; 16
	sub YL,r18	
    4ddc:	c2 1b       	sub	r28, r18
	rjmp x_check_end
    4dde:	0d c0       	rjmp	.+26     	; 0x4dfa <x_check_end>

00004de0 <x_2nd_tile>:

x_2nd_tile:
	ldi r24,TILE_WIDTH
    4de0:	88 e0       	ldi	r24, 0x08	; 8
	sub r24,r18		;8-DX = xdiff for dest
    4de2:	82 1b       	sub	r24, r18

	sbrc r16,SPRITE_FLIP_X_BIT
    4de4:	00 fd       	sbrc	r16, 0
	rjmp x2_flip_x
    4de6:	04 c0       	rjmp	.+8      	; 0x4df0 <x2_flip_x>

	mov YL,r24		;srcXdiff=destXdiff;
    4de8:	c8 2f       	mov	r28, r24
	add ZL,r24		;src+=destXdiff;
    4dea:	e8 0f       	add	r30, r24
	adc ZH,r1	
    4dec:	f1 1d       	adc	r31, r1
	rjmp x_check_end
    4dee:	05 c0       	rjmp	.+10     	; 0x4dfa <x_check_end>

00004df0 <x2_flip_x>:

x2_flip_x:
	ldi YL,TILE_WIDTH
    4df0:	c8 e0       	ldi	r28, 0x08	; 8
	add YL,r18		;srcXdiff=TILE_WIDTH+dx;	
    4df2:	c2 0f       	add	r28, r18
	add ZL,r18		;src+=dx;
    4df4:	e2 0f       	add	r30, r18
	adc ZH,r1
    4df6:	f1 1d       	adc	r31, r1
	sbiw ZL,1		;src--;
    4df8:	31 97       	sbiw	r30, 0x01	; 1

00004dfa <x_check_end>:
		}else{
			src+=(ydiff*TILE_WIDTH);
		}
	}
	*/
	cpi r21,0
    4dfa:	50 30       	cpi	r21, 0x00	; 0
	brne y_2nd_tile
    4dfc:	41 f4       	brne	.+16     	; 0x4e0e <y_2nd_tile>

	ldi r25,TILE_WIDTH	;dest+=(dy*TILE_WIDTH)
    4dfe:	98 e0       	ldi	r25, 0x08	; 8
	mul r25,r19			
    4e00:	93 9f       	mul	r25, r19
	add XL,r0
    4e02:	a0 0d       	add	r26, r0
	adc XH,r1
    4e04:	b1 1d       	adc	r27, r1

	mov r25,r19			;ydiff=dy
    4e06:	93 2f       	mov	r25, r19

	sbrc r16,SPRITE_FLIP_Y_BIT
    4e08:	01 fd       	sbrc	r16, 1
	adiw ZL,(TILE_WIDTH*(TILE_HEIGHT-1))	;src+=(TILE_WIDTH*(TILE_HEIGHT-1));		
    4e0a:	f8 96       	adiw	r30, 0x38	; 56

	rjmp y_check_end
    4e0c:	0a c0       	rjmp	.+20     	; 0x4e22 <y_check_end>

00004e0e <y_2nd_tile>:

y_2nd_tile:
	ldi r25,TILE_HEIGHT	;ydiff=(TILE_HEIGHT-dy)
    4e0e:	98 e0       	ldi	r25, 0x08	; 8
	sub r25,r19	
    4e10:	93 1b       	sub	r25, r19
	
	mov r22,r19			;temp=dy-1
    4e12:	63 2f       	mov	r22, r19
	dec r22
    4e14:	6a 95       	dec	r22
	sbrs r16,SPRITE_FLIP_Y_BIT
    4e16:	01 ff       	sbrs	r16, 1
	mov r22,r25			;temp=ydiff
    4e18:	69 2f       	mov	r22, r25

	ldi r21,TILE_WIDTH	;src+=(temp*TILE_WIDTH);
    4e1a:	58 e0       	ldi	r21, 0x08	; 8
	mul r21,r22
    4e1c:	56 9f       	mul	r21, r22
	add ZL,r0
    4e1e:	e0 0d       	add	r30, r0
	adc ZH,r1	
    4e20:	f1 1d       	adc	r31, r1

00004e22 <y_check_end>:
y_check_end:	
	
	//if(flags&SPRITE_FLIP_X){
	//	step=-1;
	//}
	ser r22		;step=-1
    4e22:	6f ef       	ldi	r22, 0xFF	; 255
	ser r23
    4e24:	7f ef       	ldi	r23, 0xFF	; 255
	sbrs r16,SPRITE_FLIP_X_BIT
    4e26:	00 ff       	sbrs	r16, 0
	ldi r22,1	;step=1
    4e28:	61 e0       	ldi	r22, 0x01	; 1
	sbrs r16,SPRITE_FLIP_X_BIT
    4e2a:	00 ff       	sbrs	r16, 0
	clr r23
    4e2c:	77 27       	eor	r23, r23

	//if(flags&SPRITE_FLIP_Y){
	//	srcXdiff-=(TILE_WIDTH*2);
	//}
	sbrc r16,SPRITE_FLIP_Y_BIT
    4e2e:	01 fd       	sbrc	r16, 1
	sbiw YL,(TILE_WIDTH*2)
    4e30:	60 97       	sbiw	r28, 0x10	; 16
	;r24	= destXdiff
	;r25	= ydiff
	;X		= dest
	;Y		= srcXdiff
	;Z		= src
	clr r1
    4e32:	11 24       	eor	r1, r1
	ldi r19,TRANSLUCENT_COLOR
    4e34:	3e ef       	ldi	r19, 0xFE	; 254

	ldi r21,TILE_HEIGHT
    4e36:	58 e0       	ldi	r21, 0x08	; 8
	sub r21,r25 	;yspan=(TILE_HEIGHT-ydiff)
    4e38:	59 1b       	sub	r21, r25

00004e3a <y_loop>:

y_loop:
	ldi r20,TILE_WIDTH
    4e3a:	48 e0       	ldi	r20, 0x08	; 8
	sub r20,r24 	;xspan=(TILE_WIDTH-destXdiff)
    4e3c:	48 1b       	sub	r20, r24

00004e3e <x_loop>:

x_loop:
	lpm r18,Z		;px=pgm_read_byte(src);
    4e3e:	24 91       	lpm	r18, Z
	cpse r18,r19	;if(px!=TRANSLUCENT_COLOR)
    4e40:	23 13       	cpse	r18, r19
	st X,r18		;*dest=px;
    4e42:	2c 93       	st	X, r18
	adiw XL,1
    4e44:	11 96       	adiw	r26, 0x01	; 1
	add ZL,r22		;src+=step;
    4e46:	e6 0f       	add	r30, r22
	adc ZH,r23
    4e48:	f7 1f       	adc	r31, r23
	dec r20
    4e4a:	4a 95       	dec	r20
	brne x_loop
    4e4c:	c1 f7       	brne	.-16     	; 0x4e3e <x_loop>

	add ZL,YL		;src+=srcXdiff
    4e4e:	ec 0f       	add	r30, r28
	adc ZH,YH
    4e50:	fd 1f       	adc	r31, r29
	add XL,r24		;dest+=destXdiff
    4e52:	a8 0f       	add	r26, r24
	adc XH,r1
    4e54:	b1 1d       	adc	r27, r1
	dec r21
    4e56:	5a 95       	dec	r21
	brne y_loop
    4e58:	81 f7       	brne	.-32     	; 0x4e3a <y_loop>


	pop YH
    4e5a:	df 91       	pop	r29
	pop YL
    4e5c:	cf 91       	pop	r28
	pop r17
    4e5e:	1f 91       	pop	r17
	pop r16
    4e60:	0f 91       	pop	r16
	ret
    4e62:	08 95       	ret

00004e64 <__vector_13>:

;***************************************************************************
; Main Video sync interrupt
;***************************************************************************
TIMER1_COMPA_vect:
	push r0
    4e64:	0f 92       	push	r0
	push r1
    4e66:	1f 92       	push	r1
	push ZL;2
    4e68:	ef 93       	push	r30
	push ZH;2
    4e6a:	ff 93       	push	r31
	
	;save flags & status register
	in ZL,_SFR_IO_ADDR(SREG);1
    4e6c:	ef b7       	in	r30, 0x3f	; 63
	push ZL ;2		
    4e6e:	ef 93       	push	r30

	;Read timer offset since rollover to remove cycles 
	;and conpensate for interrupt latency.
	;This is nessesary to eliminate frame jitter.
	lds ZL,_SFR_MEM_ADDR(TCNT1L)
    4e70:	e0 91 84 00 	lds	r30, 0x0084
	subi ZL,0x12 ;MIN_INT_LATENCY
    4e74:	e2 51       	subi	r30, 0x12	; 18

	ldi ZH,1
    4e76:	f1 e0       	ldi	r31, 0x01	; 1

00004e78 <latency_loop>:
latency_loop:
	cp ZL,ZH
    4e78:	ef 17       	cp	r30, r31
	brlo .		;advance PC to next instruction	
    4e7a:	00 f0       	brcs	.+0      	; 0x4e7c <latency_loop+0x4>
	inc ZH
    4e7c:	f3 95       	inc	r31
	cpi ZH,10
    4e7e:	fa 30       	cpi	r31, 0x0A	; 10
	brlo latency_loop
    4e80:	d8 f3       	brcs	.-10     	; 0x4e78 <latency_loop>
	jmp .
    4e82:	0c 94 43 27 	jmp	0x4e86	; 0x4e86 <latency_loop+0xe>
	
	;increment sync pulse counter
	lds ZL,sync_pulse
    4e86:	e0 91 3d 08 	lds	r30, 0x083D
	dec ZL
    4e8a:	ea 95       	dec	r30
	sts sync_pulse,ZL
    4e8c:	e0 93 3d 08 	sts	0x083D, r30

	;process sync phases
	lds ZH,sync_phase
    4e90:	f0 91 3c 08 	lds	r31, 0x083C
	sbrc ZH,0
    4e94:	f0 fd       	sbrc	r31, 0
	rjmp sync_hsync
    4e96:	57 c0       	rjmp	.+174    	; 0x4f46 <sync_hsync>
; Note: TCNT1 should be equal to 
; 0x68 on the cbi
; 0xAC on the sbi
; pulse duration: 68 clocks
;***************************************************		
	cpi ZL,SYNC_EQ_PULSES+SYNC_POST_EQ_PULSES
    4e98:	ec 30       	cpi	r30, 0x0C	; 12
	brlo sync_eq
    4e9a:	98 f0       	brcs	.+38     	; 0x4ec2 <sync_eq>

	;Set HDRIVE to double rate during VSYNC
	ldi ZH,hi8(HDRIVE_CL_TWICE)
    4e9c:	f3 e0       	ldi	r31, 0x03	; 3
	sts _SFR_MEM_ADDR(OCR1AH),ZH	
    4e9e:	f0 93 89 00 	sts	0x0089, r31
	ldi ZH,lo8(HDRIVE_CL_TWICE)
    4ea2:	fd e8       	ldi	r31, 0x8D	; 141
	sts _SFR_MEM_ADDR(OCR1AL),ZH
    4ea4:	f0 93 88 00 	sts	0x0088, r31

	bst ZL,0
    4ea8:	e0 fb       	bst	r30, 0
	cbi _SFR_IO_ADDR(SYNC_PORT),SYNC_PIN	;TCNT1=0x68
    4eaa:	28 98       	cbi	0x05, 0	; 5
	brtc sync_pre_eq_no_sound_update
    4eac:	26 f4       	brtc	.+8      	; 0x4eb6 <sync_pre_eq_no_sound_update>
	ldi ZL,1	;indicate update_sound to generate the SBI for pre-eq
    4eae:	e1 e0       	ldi	r30, 0x01	; 1
	call update_sound
    4eb0:	0e 94 18 29 	call	0x5230	; 0x5230 <update_sound>
	rjmp sync_end
    4eb4:	b8 c0       	rjmp	.+368    	; 0x5026 <sync_end>

00004eb6 <sync_pre_eq_no_sound_update>:

sync_pre_eq_no_sound_update:
	WAIT ZL,64
    4eb6:	e5 e1       	ldi	r30, 0x15	; 21
    4eb8:	ea 95       	dec	r30
    4eba:	f1 f7       	brne	.-4      	; 0x4eb8 <sync_pre_eq_no_sound_update+0x2>
    4ebc:	00 00       	nop
	sbi _SFR_IO_ADDR(SYNC_PORT),SYNC_PIN	;TCNT1=0xAC
    4ebe:	28 9a       	sbi	0x05, 0	; 5
		
	rjmp sync_end
    4ec0:	b2 c0       	rjmp	.+356    	; 0x5026 <sync_end>

00004ec2 <sync_eq>:
; 0x68  on the cbi
; 0x36E on the sbi
; low pulse duration: 774 clocks
;***************************************************	
sync_eq:
	cpi ZL,SYNC_POST_EQ_PULSES
    4ec2:	e6 30       	cpi	r30, 0x06	; 6
	brlo sync_post_eq
    4ec4:	38 f1       	brcs	.+78     	; 0x4f14 <sync_post_eq>

	rjmp .
    4ec6:	00 c0       	rjmp	.+0      	; 0x4ec8 <sync_eq+0x6>
	rjmp .
    4ec8:	00 c0       	rjmp	.+0      	; 0x4eca <sync_eq+0x8>

	cbi _SFR_IO_ADDR(SYNC_PORT),SYNC_PIN ;2
    4eca:	28 98       	cbi	0x05, 0	; 5

	bst ZL,0
    4ecc:	e0 fb       	bst	r30, 0
	ldi ZL,4
    4ece:	e4 e0       	ldi	r30, 0x04	; 4
	brtc sync_eq_skip
    4ed0:	16 f4       	brtc	.+4      	; 0x4ed6 <sync_eq_skip>
	
	call update_sound
    4ed2:	0e 94 18 29 	call	0x5230	; 0x5230 <update_sound>

00004ed6 <sync_eq_skip>:
	;enable interupt to bring back sync 
	;level instead of wasting cycles
	;in a big wait loop

 	;clear interrupt flag
	ldi ZL,(1<<OCF1B)
    4ed6:	e4 e0       	ldi	r30, 0x04	; 4
	sts _SFR_MEM_ADDR(TIFR1),ZL 
    4ed8:	e0 93 36 00 	sts	0x0036, r30
	
	;generate interrupt on match
	;for timer1 compare unit b
	ldi ZL,(1<<OCIE1A)+(1<<OCIE1B)
    4edc:	e6 e0       	ldi	r30, 0x06	; 6
	sts _SFR_MEM_ADDR(TIMSK1),ZL
    4ede:	e0 93 6f 00 	sts	0x006F, r30

	rjmp sync_end
    4ee2:	a1 c0       	rjmp	.+322    	; 0x5026 <sync_end>

00004ee4 <__vector_14>:
; during VSYNC EQ pulses to recover ~5000 cycles per field
; with interrupt latency conpensation
; 37 cycles
;**********************************************************	
TIMER1_COMPB_vect:
	push ZL
    4ee4:	ef 93       	push	r30
	;save flags & status register
	in ZL,_SFR_IO_ADDR(SREG);1
    4ee6:	ef b7       	in	r30, 0x3f	; 63
	push ZL ;2		
    4ee8:	ef 93       	push	r30

	lds ZL,_SFR_MEM_ADDR(TCNT1L)
    4eea:	e0 91 84 00 	lds	r30, 0x0084
	subi ZL,62+31 ;0x5D ;MIN_INT_LATENCY
    4eee:	ed 55       	subi	r30, 0x5D	; 93

	cpi ZL,1
    4ef0:	e1 30       	cpi	r30, 0x01	; 1
	brlo .		;advance PC to next instruction
    4ef2:	00 f0       	brcs	.+0      	; 0x4ef4 <__vector_14+0x10>

	cpi ZL,2
    4ef4:	e2 30       	cpi	r30, 0x02	; 2
	brlo .		;advance PC to next instruction
    4ef6:	00 f0       	brcs	.+0      	; 0x4ef8 <__vector_14+0x14>

	cpi ZL,3
    4ef8:	e3 30       	cpi	r30, 0x03	; 3
	brlo .		;advance PC to next instruction
    4efa:	00 f0       	brcs	.+0      	; 0x4efc <__vector_14+0x18>

	cpi ZL,4
    4efc:	e4 30       	cpi	r30, 0x04	; 4
	brlo .		;advance PC to next instruction
    4efe:	00 f0       	brcs	.+0      	; 0x4f00 <__vector_14+0x1c>

	cpi ZL,5
    4f00:	e5 30       	cpi	r30, 0x05	; 5
	brlo .		;advance PC to next instruction
    4f02:	00 f0       	brcs	.+0      	; 0x4f04 <__vector_14+0x20>

 	sbi _SFR_IO_ADDR(SYNC_PORT),SYNC_PIN ;68
    4f04:	28 9a       	sbi	0x05, 0	; 5
	ldi ZL,(1<<OCIE1A) ; disable OCIE1B 
    4f06:	e2 e0       	ldi	r30, 0x02	; 2
	sts _SFR_MEM_ADDR(TIMSK1),ZL ;stop generate interrupt on match
    4f08:	e0 93 6f 00 	sts	0x006F, r30
	
	;restore flags
	pop ZL
    4f0c:	ef 91       	pop	r30
	out _SFR_IO_ADDR(SREG),ZL	
    4f0e:	ef bf       	out	0x3f, r30	; 63
	pop ZL
    4f10:	ef 91       	pop	r30
	reti
    4f12:	18 95       	reti

00004f14 <sync_post_eq>:
; 0x68 on the cbi
; 0xAC on the sbi
; pulse cycles: 68 clocks
;***************************************************	
sync_post_eq:	
	rjmp .
    4f14:	00 c0       	rjmp	.+0      	; 0x4f16 <sync_post_eq+0x2>

	bst ZL,0
    4f16:	e0 fb       	bst	r30, 0
	cbi _SFR_IO_ADDR(SYNC_PORT),SYNC_PIN ;2
    4f18:	28 98       	cbi	0x05, 0	; 5
	brtc sync_post_eq_no_sound_update
    4f1a:	26 f4       	brtc	.+8      	; 0x4f24 <sync_post_eq_no_sound_update>
	ldi ZL,1	
    4f1c:	e1 e0       	ldi	r30, 0x01	; 1
	call update_sound
    4f1e:	0e 94 18 29 	call	0x5230	; 0x5230 <update_sound>
	rjmp sync_pre_eq_cont
    4f22:	05 c0       	rjmp	.+10     	; 0x4f2e <sync_pre_eq_cont>

00004f24 <sync_post_eq_no_sound_update>:

sync_post_eq_no_sound_update:
	WAIT ZL,64
    4f24:	e5 e1       	ldi	r30, 0x15	; 21
    4f26:	ea 95       	dec	r30
    4f28:	f1 f7       	brne	.-4      	; 0x4f26 <sync_post_eq_no_sound_update+0x2>
    4f2a:	00 00       	nop

	sbi _SFR_IO_ADDR(SYNC_PORT),SYNC_PIN 
    4f2c:	28 9a       	sbi	0x05, 0	; 5

00004f2e <sync_pre_eq_cont>:

sync_pre_eq_cont:	
	;check if it's the last vsync pulse
	lds ZL,sync_pulse
    4f2e:	e0 91 3d 08 	lds	r30, 0x083D
	cpi ZL,0
    4f32:	e0 30       	cpi	r30, 0x00	; 0
	breq .+2 ;skip rjmp
    4f34:	09 f0       	breq	.+2      	; 0x4f38 <sync_pre_eq_cont+0xa>
	rjmp sync_end
    4f36:	77 c0       	rjmp	.+238    	; 0x5026 <sync_end>
	
	;update sync flags
	ldi ZL,SYNC_HSYNC_PULSES
    4f38:	ed ef       	ldi	r30, 0xFD	; 253
	sts sync_pulse,ZL
    4f3a:	e0 93 3d 08 	sts	0x083D, r30
	ldi ZL,1
    4f3e:	e1 e0       	ldi	r30, 0x01	; 1
	sts sync_phase,ZL
    4f40:	e0 93 3c 08 	sts	0x083C, r30
	
	rjmp sync_end
    4f44:	70 c0       	rjmp	.+224    	; 0x5026 <sync_end>

00004f46 <sync_hsync>:
; 0xF0 on the sbi
; pulse duration: 136 clocks
;***************************************************	

	; Set HDRIVE to normal rate
	ldi ZL,hi8(HDRIVE_CL)
    4f46:	e7 e0       	ldi	r30, 0x07	; 7
	sts _SFR_MEM_ADDR(OCR1AH),ZL	
    4f48:	e0 93 89 00 	sts	0x0089, r30
	ldi ZL,lo8(HDRIVE_CL)
    4f4c:	eb e1       	ldi	r30, 0x1B	; 27
	sts _SFR_MEM_ADDR(OCR1AL),ZL
    4f4e:	e0 93 88 00 	sts	0x0088, r30
	rjmp .
    4f52:	00 c0       	rjmp	.+0      	; 0x4f54 <sync_hsync+0xe>

	cbi _SFR_IO_ADDR(SYNC_PORT),SYNC_PIN ;2
    4f54:	28 98       	cbi	0x05, 0	; 5
	
	ldi ZL,2	;indicate update_sound to generate the SBI for pre-eq
    4f56:	e2 e0       	ldi	r30, 0x02	; 2
	rjmp .
    4f58:	00 c0       	rjmp	.+0      	; 0x4f5a <sync_hsync+0x14>
	call update_sound
    4f5a:	0e 94 18 29 	call	0x5230	; 0x5230 <update_sound>

	;check if we have reached the first line to render
	ldi ZH,SYNC_HSYNC_PULSES
    4f5e:	fd ef       	ldi	r31, 0xFD	; 253
	lds r0,first_render_line
    4f60:	00 90 43 08 	lds	r0, 0x0843
	sub ZH,r0				
    4f64:	f0 19       	sub	r31, r0
	lds ZL,sync_pulse
    4f66:	e0 91 3d 08 	lds	r30, 0x083D
	cp ZL,ZH
    4f6a:	ef 17       	cp	r30, r31
	brsh no_render
    4f6c:	e0 f4       	brcc	.+56     	; 0x4fa6 <no_render>

	ldi ZH,SYNC_HSYNC_PULSES
    4f6e:	fd ef       	ldi	r31, 0xFD	; 253
	lds r0,first_render_line
    4f70:	00 90 43 08 	lds	r0, 0x0843
	sub ZH,r0				
    4f74:	f0 19       	sub	r31, r0
	lds r0,render_lines_count
    4f76:	00 90 44 08 	lds	r0, 0x0844
	sub ZH,r0			
    4f7a:	f0 19       	sub	r31, r0
	cp ZL,ZH
    4f7c:	ef 17       	cp	r30, r31
	brlo no_render
    4f7e:	98 f0       	brcs	.+38     	; 0x4fa6 <no_render>

	;push r1-r29
	ldi ZL,29
    4f80:	ed e1       	ldi	r30, 0x1D	; 29
	clr ZH
    4f82:	ff 27       	eor	r31, r31

00004f84 <push_loop>:
push_loop:
	ld r0,Z	;load value from register file
    4f84:	00 80       	ld	r0, Z
	push r0
    4f86:	0f 92       	push	r0
	dec ZL
    4f88:	ea 95       	dec	r30
	brne push_loop	
    4f8a:	e1 f7       	brne	.-8      	; 0x4f84 <push_loop>

	;timing compensation
	;to insure we always call the video mode 
	;routine at the same cycle	
	WAIT r16,230-(AUDIO_OUT_HSYNC_CYCLES)
    4f8c:	0f e1       	ldi	r16, 0x1F	; 31
    4f8e:	0a 95       	dec	r16
    4f90:	f1 f7       	brne	.-4      	; 0x4f8e <push_loop+0xa>
    4f92:	00 00       	nop
    4f94:	00 00       	nop

	call VMODE_FUNC		;TCNT1=0x234
    4f96:	0e 94 5f 25 	call	0x4abe	; 0x4abe <sub_video_mode3>

	;pop r1-r29
	ldi ZL,1
    4f9a:	e1 e0       	ldi	r30, 0x01	; 1
	clr ZH
    4f9c:	ff 27       	eor	r31, r31

00004f9e <pop_loop>:
pop_loop:
	pop r0
    4f9e:	0f 90       	pop	r0
	st Z+,r0 ;store value to register file
    4fa0:	01 92       	st	Z+, r0
	cpi ZL,30
    4fa2:	ee 31       	cpi	r30, 0x1E	; 30
	brlo pop_loop	
    4fa4:	e0 f3       	brcs	.-8      	; 0x4f9e <pop_loop>

00004fa6 <no_render>:

no_render:

	;check if it's the last hsync pulse and we are 
	;ready for VSYNC
	lds ZL,sync_pulse
    4fa6:	e0 91 3d 08 	lds	r30, 0x083D
	cpi ZL,0
    4faa:	e0 30       	cpi	r30, 0x00	; 0
	breq .+2
    4fac:	09 f0       	breq	.+2      	; 0x4fb0 <no_render+0xa>
	rjmp sync_end
    4fae:	3b c0       	rjmp	.+118    	; 0x5026 <sync_end>
;***************************************************
; Process VSYNC stuff
;***************************************************
	
	;push C-call registers
	push r18
    4fb0:	2f 93       	push	r18
	push r19
    4fb2:	3f 93       	push	r19
	push r20
    4fb4:	4f 93       	push	r20
	push r21
    4fb6:	5f 93       	push	r21
	push r22
    4fb8:	6f 93       	push	r22
	push r23
    4fba:	7f 93       	push	r23
	push r24
    4fbc:	8f 93       	push	r24
	push r25
    4fbe:	9f 93       	push	r25
	push r26
    4fc0:	af 93       	push	r26
	push r27
    4fc2:	bf 93       	push	r27

	sei ;must enable ints for re-entrant sync pulses
    4fc4:	78 94       	sei
	clr r1
    4fc6:	11 24       	eor	r1, r1

	;set vsync flags
	clr ZL
    4fc8:	ee 27       	eor	r30, r30
	sts sync_phase,ZL
    4fca:	e0 93 3c 08 	sts	0x083C, r30
	ldi ZL,SYNC_PRE_EQ_PULSES+SYNC_EQ_PULSES+SYNC_POST_EQ_PULSES
    4fce:	e2 e1       	ldi	r30, 0x12	; 18
	sts sync_pulse,ZL
    4fd0:	e0 93 3d 08 	sts	0x083D, r30

	;fetch render height registers if they changed	
	lds ZH,first_render_line_tmp
    4fd4:	f0 91 45 08 	lds	r31, 0x0845
	sts first_render_line,ZH
    4fd8:	f0 93 43 08 	sts	0x0843, r31
	
	lds ZH,render_lines_count_tmp
    4fdc:	f0 91 46 08 	lds	r31, 0x0846
	sts render_lines_count,ZH
    4fe0:	f0 93 44 08 	sts	0x0844, r31

	;process user pre callback
	lds ZL,pre_vsync_user_callback+0
    4fe4:	e0 91 3f 08 	lds	r30, 0x083F
	lds ZH,pre_vsync_user_callback+1
    4fe8:	f0 91 40 08 	lds	r31, 0x0840
	cp  ZL,r1
    4fec:	e1 15       	cp	r30, r1
	cpc ZH,r1
    4fee:	f1 05       	cpc	r31, r1
	breq .+2 
    4ff0:	09 f0       	breq	.+2      	; 0x4ff4 <no_render+0x4e>
	icall
    4ff2:	09 95       	icall

	;refresh buttons states
	#if CONTROLLERS_VSYNC_READ == 1
		call ReadControllers
    4ff4:	0e 94 ca 29 	call	0x5394	; 0x5394 <ReadControllers>
	#endif 
	
	;invoke stuff the video mode may have to do
	call VideoModeVsync	
    4ff8:	0e 94 cd 36 	call	0x6d9a	; 0x6d9a <VideoModeVsync>

	;process music (music, envelopes, etc)
	call process_music
    4ffc:	0e 94 25 28 	call	0x504a	; 0x504a <process_music>
	clr r1
    5000:	11 24       	eor	r1, r1

	;process user post callback
	lds ZL,post_vsync_user_callback+0
    5002:	e0 91 41 08 	lds	r30, 0x0841
	lds ZH,post_vsync_user_callback+1
    5006:	f0 91 42 08 	lds	r31, 0x0842
	cp  ZL,r1
    500a:	e1 15       	cp	r30, r1
	cpc ZH,r1
    500c:	f1 05       	cpc	r31, r1
	breq .+2 
    500e:	09 f0       	breq	.+2      	; 0x5012 <no_render+0x6c>
	icall
    5010:	09 95       	icall
	#if SNES_MOUSE == 1
		call ReadMouseExtendedData
		call ProcessMouseMovement
	#endif

	pop r27
    5012:	bf 91       	pop	r27
	pop r26
    5014:	af 91       	pop	r26
	pop r25
    5016:	9f 91       	pop	r25
	pop r24
    5018:	8f 91       	pop	r24
	pop r23
    501a:	7f 91       	pop	r23
	pop r22
    501c:	6f 91       	pop	r22
	pop r21
    501e:	5f 91       	pop	r21
	pop r20
    5020:	4f 91       	pop	r20
	pop r19
    5022:	3f 91       	pop	r19
	pop r18
    5024:	2f 91       	pop	r18

00005026 <sync_end>:
	
sync_end:	
	;restore flags
	pop ZL
    5026:	ef 91       	pop	r30
	out _SFR_IO_ADDR(SREG),ZL
    5028:	ef bf       	out	0x3f, r30	; 63
	
	pop ZH
    502a:	ff 91       	pop	r31
	pop ZL
    502c:	ef 91       	pop	r30
	pop r1
    502e:	1f 90       	pop	r1
	pop r0
    5030:	0f 90       	pop	r0
	reti
    5032:	18 95       	reti

00005034 <hsync_pulse>:
; 0xf0 on the sbi 
;	
; Destroys: ZL (r30)
;*************************************************
hsync_pulse:
	cbi _SFR_IO_ADDR(SYNC_PORT),SYNC_PIN ;2
    5034:	28 98       	cbi	0x05, 0	; 5
	ldi ZL,2
    5036:	e2 e0       	ldi	r30, 0x02	; 2
	rjmp .
    5038:	00 c0       	rjmp	.+0      	; 0x503a <hsync_pulse+0x6>
	call update_sound
    503a:	0e 94 18 29 	call	0x5230	; 0x5230 <update_sound>

	lds ZL,sync_pulse
    503e:	e0 91 3d 08 	lds	r30, 0x083D
	dec ZL
    5042:	ea 95       	dec	r30
	sts sync_pulse,ZL
    5044:	e0 93 3d 08 	sts	0x083D, r30

	ret
    5048:	08 95       	ret

0000504a <process_music>:
process_music:

	//call update_sound
	
#if ENABLE_MIXER==1
	lds ZL,sound_enabled
    504a:	e0 91 71 0a 	lds	r30, 0x0A71
	sbrc ZL,0
    504e:	e0 fd       	sbrc	r30, 0
 	call ProcessMusic
    5050:	0e 94 b7 2b 	call	0x576e	; 0x576e <ProcessMusic>
#endif


	;Flip mix bank & set target bank adress for mixing
	lds r0,mix_bank
    5054:	00 90 6f 0a 	lds	r0, 0x0A6F
	tst r0
    5058:	00 20       	and	r0, r0
	brne set_hi_bank
    505a:	19 f4       	brne	.+6      	; 0x5062 <set_hi_bank>
	ldi XL,lo8(mix_buf)
    505c:	a1 e6       	ldi	r26, 0x61	; 97
	ldi XH,hi8(mix_buf)
    505e:	b8 e0       	ldi	r27, 0x08	; 8
	rjmp end_set_bank
    5060:	02 c0       	rjmp	.+4      	; 0x5066 <end_set_bank>

00005062 <set_hi_bank>:
set_hi_bank:
	ldi XL,lo8(mix_buf+MIX_BANK_SIZE)
    5062:	a7 e6       	ldi	r26, 0x67	; 103
	ldi XH,hi8(mix_buf+MIX_BANK_SIZE)
    5064:	b9 e0       	ldi	r27, 0x09	; 9

00005066 <end_set_bank>:
end_set_bank:

	ldi r18,1
    5066:	21 e0       	ldi	r18, 0x01	; 1
	eor	r0,r18
    5068:	02 26       	eor	r0, r18
	sts mix_bank,r0
    506a:	00 92 6f 0a 	sts	0x0A6F, r0
	
	ldi r18,2
    506e:	22 e0       	ldi	r18, 0x02	; 2
	sts mix_block,r18	
    5070:	20 93 70 0a 	sts	0x0A70, r18


#if ENABLE_MIXER==1

	lds ZL,sound_enabled
    5074:	e0 91 71 0a 	lds	r30, 0x0A71
	sbrs ZL,0
    5078:	e0 ff       	sbrs	r30, 0
	ret
    507a:	08 95       	ret

	push r2
    507c:	2f 92       	push	r2
	push r3
    507e:	3f 92       	push	r3
	push r4
    5080:	4f 92       	push	r4
	push r5
    5082:	5f 92       	push	r5
	push r6
    5084:	6f 92       	push	r6
	push r7
    5086:	7f 92       	push	r7
	push r8
    5088:	8f 92       	push	r8
	push r9
    508a:	9f 92       	push	r9
	push r10
    508c:	af 92       	push	r10
	push r11
    508e:	bf 92       	push	r11
	push r12
    5090:	cf 92       	push	r12
	push r13
    5092:	df 92       	push	r13
	push r14
    5094:	ef 92       	push	r14
	push r15
    5096:	ff 92       	push	r15
	push r16
    5098:	0f 93       	push	r16
	push r17
    509a:	1f 93       	push	r17
	push r28
    509c:	cf 93       	push	r28
	push r29
    509e:	df 93       	push	r29
			lds r21,tr4_vol
			lds r22,tr4_barrel_lo
			lds r23,tr4_barrel_hi
			lds r24,tr4_divider
		#else
			lds r21,tr4_vol
    50a0:	50 91 84 0a 	lds	r21, 0x0A84
			lds r22,tr4_pos_lo
    50a4:	60 91 88 0a 	lds	r22, 0x0A88
			lds r23,tr4_pos_hi
    50a8:	70 91 89 0a 	lds	r23, 0x0A89
			lds r24,tr4_pos_frac
    50ac:	80 91 87 0a 	lds	r24, 0x0A87

			lds r4,tr4_step_lo 
    50b0:	40 90 85 0a 	lds	r4, 0x0A85
			lds r5,tr4_step_hi 
    50b4:	50 90 86 0a 	lds	r5, 0x0A86
			clr r6
    50b8:	66 24       	eor	r6, r6
			lds r8,tr4_loop_end_lo
    50ba:	80 90 8c 0a 	lds	r8, 0x0A8C
			lds r9,tr4_loop_end_hi
    50be:	90 90 8d 0a 	lds	r9, 0x0A8D

			//lds r10,tr4_loop_start_lo
			//lds r11,tr4_loop_start_hi
			
			;compute loop lenght
			lds ZL,tr4_loop_start_lo
    50c2:	e0 91 8a 0a 	lds	r30, 0x0A8A
			lds ZH,tr4_loop_start_hi
    50c6:	f0 91 8b 0a 	lds	r31, 0x0A8B
			movw r10,r8
    50ca:	54 01       	movw	r10, r8
			sub r10,ZL
    50cc:	ae 1a       	sub	r10, r30
			sbc r11,ZH
    50ce:	bf 0a       	sbc	r11, r31
			

			movw r2,XL	;push
    50d0:	1d 01       	movw	r2, r26

			ldi r28,lo8(262/2)
    50d2:	c3 e8       	ldi	r28, 0x83	; 131

000050d4 <ch4_loop>:
			movw ZL,r22
			lpm	r20,Z	;load sample
			mulsu r20,r21;(sample*mixing vol)
			st X+,r1

		.endr	
    50d4:	84 0d       	add	r24, r4
    50d6:	65 1d       	adc	r22, r5
    50d8:	76 1d       	adc	r23, r6
    50da:	68 15       	cp	r22, r8
    50dc:	79 05       	cpc	r23, r9
    50de:	10 f0       	brcs	.+4      	; 0x50e4 <ch4_loop+0x10>
    50e0:	6a 19       	sub	r22, r10
    50e2:	7b 09       	sbc	r23, r11
    50e4:	fb 01       	movw	r30, r22
    50e6:	44 91       	lpm	r20, Z
    50e8:	45 03       	mulsu	r20, r21
    50ea:	1d 92       	st	X+, r1
    50ec:	84 0d       	add	r24, r4
    50ee:	65 1d       	adc	r22, r5
    50f0:	76 1d       	adc	r23, r6
    50f2:	68 15       	cp	r22, r8
    50f4:	79 05       	cpc	r23, r9
    50f6:	10 f0       	brcs	.+4      	; 0x50fc <ch4_loop+0x28>
    50f8:	6a 19       	sub	r22, r10
    50fa:	7b 09       	sbc	r23, r11
    50fc:	fb 01       	movw	r30, r22
    50fe:	44 91       	lpm	r20, Z
    5100:	45 03       	mulsu	r20, r21
    5102:	1d 92       	st	X+, r1
			dec r28
    5104:	ca 95       	dec	r28
			brne ch4_loop
    5106:	31 f7       	brne	.-52     	; 0x50d4 <ch4_loop>

			movw XL,r2	;push
    5108:	d1 01       	movw	r26, r2





	lds r2,tr1_step_lo
    510a:	20 90 73 0a 	lds	r2, 0x0A73
	lds r3,tr1_step_hi
    510e:	30 90 74 0a 	lds	r3, 0x0A74
	lds r4,tr1_pos_lo
    5112:	40 90 76 0a 	lds	r4, 0x0A76
	lds r5,tr1_pos_hi 
    5116:	50 90 77 0a 	lds	r5, 0x0A77
	lds r6,tr1_pos_frac
    511a:	60 90 75 0a 	lds	r6, 0x0A75
	lds r17,tr1_vol
    511e:	10 91 72 0a 	lds	r17, 0x0A72
	
	lds r7,tr2_step_lo
    5122:	70 90 79 0a 	lds	r7, 0x0A79
	lds r8,tr2_step_hi
    5126:	80 90 7a 0a 	lds	r8, 0x0A7A
	lds r9,tr2_pos_frac
    512a:	90 90 7b 0a 	lds	r9, 0x0A7B
	lds r10,tr2_pos_lo
    512e:	a0 90 7c 0a 	lds	r10, 0x0A7C
	lds r11,tr2_pos_hi
    5132:	b0 90 7d 0a 	lds	r11, 0x0A7D
	lds r18,tr2_vol	
    5136:	20 91 78 0a 	lds	r18, 0x0A78

	lds r12,tr3_step_lo
    513a:	c0 90 7f 0a 	lds	r12, 0x0A7F
	lds r13,tr3_step_hi
    513e:	d0 90 80 0a 	lds	r13, 0x0A80
	lds r14,tr3_pos_lo
    5142:	e0 90 82 0a 	lds	r14, 0x0A82
	lds r15,tr3_pos_hi
    5146:	f0 90 83 0a 	lds	r15, 0x0A83
	lds r16,tr3_pos_frac
    514a:	00 91 81 0a 	lds	r16, 0x0A81
	lds r19,tr3_vol	
    514e:	30 91 7e 0a 	lds	r19, 0x0A7E



	

	ldi r25,0xff 
    5152:	9f ef       	ldi	r25, 0xFF	; 255

00005154 <mix_loop>:
mix_loop:

	#if MIXER_CHAN4_TYPE == 1 && SOUND_CHANNEL_4_ENABLE == 1
		ld 28,X
    5154:	cc 91       	ld	r28, X
		clr r29	;sign extend
    5156:	dd 27       	eor	r29, r29
		sbrc r28,7
    5158:	c7 fd       	sbrc	r28, 7
		ser r29
    515a:	df ef       	ldi	r29, 0xFF	; 255
	#endif

	;channel 1 - 12 cycles/sample
	add	r6,r2	;add step to fractional part of sample pos
    515c:	62 0c       	add	r6, r2
	adc r4,r3	;add step to low byte of sample pos
    515e:	43 1c       	adc	r4, r3
	movw ZL,r4
    5160:	f2 01       	movw	r30, r4
	lpm	r20,Z	;load sample
    5162:	44 91       	lpm	r20, Z
	mulsu r20,r17;(sample*mixing vol)
    5164:	41 03       	mulsu	r20, r17
	;clr r0
	sbc r0,r0	;sign extend
    5166:	00 08       	sbc	r0, r0

	#if MIXER_CHAN4_TYPE == 0 || SOUND_CHANNEL_4_ENABLE == 0
		mov r28,r1	;add (sample*vol>>8) to mix buffer lsb
		mov r29,r0	;ajust mix buffer msb
	#else
		add r28,r1	;add (sample*vol>>8) to mix buffer lsb
    5168:	c1 0d       	add	r28, r1
		adc r29,r0	;ajust mix buffer msb		
    516a:	d0 1d       	adc	r29, r0
	#endif

	#if SOUND_CHANNEL_2_ENABLE == 1
		;channel 2
		add	r9,r7	;add step to fractional part of sample pos
    516c:	97 0c       	add	r9, r7
		adc r10,r8	;add step to low byte of sample pos 
    516e:	a8 1c       	adc	r10, r8
		movw ZL,r10
    5170:	f5 01       	movw	r30, r10
		lpm	r20,Z	;load sample
    5172:	44 91       	lpm	r20, Z
		mulsu r20,r18;(sample*mixing vol)
    5174:	42 03       	mulsu	r20, r18
		;clr r0
		sbc r0,r0	;sign extend
    5176:	00 08       	sbc	r0, r0
		add r28,r1	;add (sample*vol>>8) to mix buffer lsb
    5178:	c1 0d       	add	r28, r1
		adc r29,r0	;ajust mix buffer msb
    517a:	d0 1d       	adc	r29, r0
	#endif 

	#if SOUND_CHANNEL_3_ENABLE == 1
		;channel 3
		add	r16,r12	;add step to fractional part of sample pos
    517c:	0c 0d       	add	r16, r12
		adc r14,r13	;add step to low byte of sample pos 
    517e:	ed 1c       	adc	r14, r13
		movw ZL,r14
    5180:	f7 01       	movw	r30, r14
		lpm	r20,Z	;load sample
    5182:	44 91       	lpm	r20, Z
		mulsu r20,r19;(sample*mixing vol)
    5184:	43 03       	mulsu	r20, r19
		;clr r0
		sbc r0,r0	;sign extend
    5186:	00 08       	sbc	r0, r0
		add r28,r1	;add (sample*vol>>8) to mix buffer lsb
    5188:	c1 0d       	add	r28, r1
		adc r29,r0	;ajust mix buffer msb
    518a:	d0 1d       	adc	r29, r0
	#endif

	;final processing

	;clip
	clr r0
    518c:	00 24       	eor	r0, r0
	cpi r28,128	;> 127?
    518e:	c0 38       	cpi	r28, 0x80	; 128
	cpc r29,r0 ;0	
    5190:	d0 05       	cpc	r29, r0
	brlt .+2
    5192:	0c f0       	brlt	.+2      	; 0x5196 <mix_loop+0x42>
	ldi r28,127
    5194:	cf e7       	ldi	r28, 0x7F	; 127
	
	dec r0
    5196:	0a 94       	dec	r0
	cpi r28,-128; <-128?
    5198:	c0 38       	cpi	r28, 0x80	; 128
	cpc r29,r0 ;0xff
    519a:	d0 05       	cpc	r29, r0
	brge .+2
    519c:	0c f4       	brge	.+2      	; 0x51a0 <mix_loop+0x4c>
	ldi r28,-128
    519e:	c0 e8       	ldi	r28, 0x80	; 128


	subi r28,128	;convert to unsigned
    51a0:	c0 58       	subi	r28, 0x80	; 128
	st X+,r28
    51a2:	cd 93       	st	X+, r28


	dec r25
    51a4:	9a 95       	dec	r25
	breq .+2
    51a6:	09 f0       	breq	.+2      	; 0x51aa <mix_loop+0x56>
	rjmp mix_loop
    51a8:	d5 cf       	rjmp	.-86     	; 0x5154 <mix_loop>

	lds r20,mix_block
    51aa:	40 91 70 0a 	lds	r20, 0x0A70
	dec r20
    51ae:	4a 95       	dec	r20
	sts mix_block,r20
    51b0:	40 93 70 0a 	sts	0x0A70, r20
	ldi r25,(MIX_BANK_SIZE-0xff)
    51b4:	97 e0       	ldi	r25, 0x07	; 7
	breq .+2
    51b6:	09 f0       	breq	.+2      	; 0x51ba <mix_loop+0x66>
	rjmp mix_loop
    51b8:	cd cf       	rjmp	.-102    	; 0x5154 <mix_loop>


	//save current positions
	sts tr1_pos_frac,r6
    51ba:	60 92 75 0a 	sts	0x0A75, r6
	sts tr1_pos_lo,r4	
    51be:	40 92 76 0a 	sts	0x0A76, r4

	sts tr2_pos_frac,r9
    51c2:	90 92 7b 0a 	sts	0x0A7B, r9
	sts tr2_pos_lo,r10
    51c6:	a0 92 7c 0a 	sts	0x0A7C, r10

	sts tr3_pos_frac,r16
    51ca:	00 93 81 0a 	sts	0x0A81, r16
	sts tr3_pos_lo,r14
    51ce:	e0 92 82 0a 	sts	0x0A82, r14
#if MIXER_CHAN4_TYPE == 0
	sts tr4_barrel_lo,r22
	sts tr4_barrel_hi,r23
	sts tr4_divider,r24
#else
	sts tr4_vol,r21	
    51d2:	50 93 84 0a 	sts	0x0A84, r21
	sts tr4_pos_lo,r22
    51d6:	60 93 88 0a 	sts	0x0A88, r22
	sts tr4_pos_hi,r23
    51da:	70 93 89 0a 	sts	0x0A89, r23
	sts tr4_pos_frac,r24
    51de:	80 93 87 0a 	sts	0x0A87, r24

#endif

	pop r29
    51e2:	df 91       	pop	r29
	pop r28
    51e4:	cf 91       	pop	r28
	pop r17
    51e6:	1f 91       	pop	r17
	pop r16
    51e8:	0f 91       	pop	r16
	pop r15
    51ea:	ff 90       	pop	r15
	pop r14
    51ec:	ef 90       	pop	r14
	pop r13
    51ee:	df 90       	pop	r13
	pop r12
    51f0:	cf 90       	pop	r12
	pop r11
    51f2:	bf 90       	pop	r11
	pop r10
    51f4:	af 90       	pop	r10
	pop r9
    51f6:	9f 90       	pop	r9
	pop r8
    51f8:	8f 90       	pop	r8
	pop r7
    51fa:	7f 90       	pop	r7
	pop r6
    51fc:	6f 90       	pop	r6
	pop r5
    51fe:	5f 90       	pop	r5
	pop r4
    5200:	4f 90       	pop	r4
	pop r3
    5202:	3f 90       	pop	r3
	pop r2
    5204:	2f 90       	pop	r2

#endif // ENABLE_MIXER==1

	ret
    5206:	08 95       	ret

00005208 <update_sound_buffer_fast>:
; NO MIDI
; Destroys: Z,r16,r17
; Cycles: 24
;**********************************
update_sound_buffer_fast:
	lds ZL,mix_pos
    5208:	e0 91 6d 0a 	lds	r30, 0x0A6D
	lds ZH,mix_pos+1
    520c:	f0 91 6e 0a 	lds	r31, 0x0A6E
			
	ld r16,Z+		;load next sample
    5210:	01 91       	ld	r16, Z+
	;subi r16,128	;convert to unsigned
	nop
    5212:	00 00       	nop
	sts _SFR_MEM_ADDR(OCR2A),r16 ;output sound byte
    5214:	00 93 b3 00 	sts	0x00B3, r16

	;compare+wrap=8 cycles fixed
	ldi r16,hi8(MIX_BUF_SIZE+mix_buf)
    5218:	0a e0       	ldi	r16, 0x0A	; 10
	cpi ZL,lo8(MIX_BUF_SIZE+mix_buf)
    521a:	ed 36       	cpi	r30, 0x6D	; 109
	cpc ZH,r16
    521c:	f0 07       	cpc	r31, r16
	;12

	ldi r16,lo8(mix_buf)
    521e:	01 e6       	ldi	r16, 0x61	; 97
	ldi r17,hi8(mix_buf)
    5220:	18 e0       	ldi	r17, 0x08	; 8
	brlo .+2
    5222:	08 f0       	brcs	.+2      	; 0x5226 <update_sound_buffer_fast+0x1e>
	movw ZL,r16
    5224:	f8 01       	movw	r30, r16

	sts mix_pos,ZL
    5226:	e0 93 6d 0a 	sts	0x0A6D, r30
	sts mix_pos+1,ZH		
    522a:	f0 93 6e 0a 	sts	0x0A6E, r31

	ret ;20+4=24
    522e:	08 95       	ret

00005230 <update_sound>:
; Destroys: ZH
; Cycles: VSYNC = 68
;         HSYNC = 135
;***********************
update_sound:
	push r16
    5230:	0f 93       	push	r16
	push r17
    5232:	1f 93       	push	r17
	push r18
    5234:	2f 93       	push	r18
	push ZL
    5236:	ef 93       	push	r30

	lds ZL,mix_pos
    5238:	e0 91 6d 0a 	lds	r30, 0x0A6D
	lds ZH,mix_pos+1
    523c:	f0 91 6e 0a 	lds	r31, 0x0A6E
			
	ld r16,Z+
    5240:	01 91       	ld	r16, Z+
	sts _SFR_MEM_ADDR(OCR2A),r16 ;output sound byte
    5242:	00 93 b3 00 	sts	0x00B3, r16

	;compare+wrap=8 cycles fixed
	ldi r16,hi8(MIX_BUF_SIZE+mix_buf)
    5246:	0a e0       	ldi	r16, 0x0A	; 10
	cpi ZL,lo8(MIX_BUF_SIZE+mix_buf)
    5248:	ed 36       	cpi	r30, 0x6D	; 109
	cpc ZH,r16
    524a:	f0 07       	cpc	r31, r16

	ldi r16,lo8(mix_buf)
    524c:	01 e6       	ldi	r16, 0x61	; 97
	ldi r17,hi8(mix_buf)
    524e:	18 e0       	ldi	r17, 0x08	; 8

	brlo .+2
    5250:	08 f0       	brcs	.+2      	; 0x5254 <update_sound+0x24>
	movw ZL,r16
    5252:	f8 01       	movw	r30, r16

	sts mix_pos,ZL
    5254:	e0 93 6d 0a 	sts	0x0A6D, r30
	sts mix_pos+1,ZH	
    5258:	f0 93 6e 0a 	sts	0x0A6E, r31
	rjmp .
	rjmp .
	rjmp .
#else
	//alignment cycles
	ldi ZL,8
    525c:	e8 e0       	ldi	r30, 0x08	; 8
	dec ZL
    525e:	ea 95       	dec	r30
	brne .-4
    5260:	f1 f7       	brne	.-4      	; 0x525e <update_sound+0x2e>
#endif

	pop ZL
    5262:	ef 91       	pop	r30
	pop r18
    5264:	2f 91       	pop	r18
	pop r17
    5266:	1f 91       	pop	r17
	pop r16
    5268:	0f 91       	pop	r16

	;*** Video sync update ***
	sbrc ZL,0								;pre-eq/post-eq sync
    526a:	e0 fd       	sbrc	r30, 0
	sbi _SFR_IO_ADDR(SYNC_PORT),SYNC_PIN	;TCNT1=0xAC
    526c:	28 9a       	sbi	0x05, 0	; 5
	sbrs ZL,0								
    526e:	e0 ff       	sbrs	r30, 0
	rjmp .+2
    5270:	01 c0       	rjmp	.+2      	; 0x5274 <update_sound+0x44>
	ret
    5272:	08 95       	ret

	ldi ZH,20
    5274:	f4 e1       	ldi	r31, 0x14	; 20
	dec ZH
    5276:	fa 95       	dec	r31
	brne .-4
    5278:	f1 f7       	brne	.-4      	; 0x5276 <update_sound+0x46>
	rjmp .
    527a:	00 c0       	rjmp	.+0      	; 0x527c <update_sound+0x4c>

	;*** Video sync update ***
	sbrc ZL,1								;hsync
    527c:	e1 fd       	sbrc	r30, 1
	sbi _SFR_IO_ADDR(SYNC_PORT),SYNC_PIN	;TCNT1=0xF0
    527e:	28 9a       	sbi	0x05, 0	; 5
	sbrs ZL,1								
    5280:	e1 ff       	sbrs	r30, 1
	rjmp .
    5282:	00 c0       	rjmp	.+0      	; 0x5284 <update_sound+0x54>

	ret 
    5284:	08 95       	ret

00005286 <SetSpritesTileTable>:
; C-callable
; r25:r24=pointer to sprites pixel data.
;*****************************
.section .text.SetSpritesTileTable
SetSpritesTileTable:
	sts sprites_tile_banks,r24
    5286:	80 93 2e 08 	sts	0x082E, r24
	sts sprites_tile_banks+1,r25
    528a:	90 93 2f 08 	sts	0x082F, r25
	ret
    528e:	08 95       	ret

00005290 <ClearVram>:
; C-callable
;************************************
.section .text.ClearVram
ClearVram:
	//init vram		
	ldi r30,lo8(VRAM_SIZE+(VRAM_TILES_H*OVERLAY_LINES))
    5290:	e8 e4       	ldi	r30, 0x48	; 72
	ldi r31,hi8(VRAM_SIZE+(VRAM_TILES_H*OVERLAY_LINES))
    5292:	f3 e0       	ldi	r31, 0x03	; 3

	ldi XL,lo8(vram)
    5294:	a0 e2       	ldi	r26, 0x20	; 32
	ldi XH,hi8(vram)
    5296:	b1 e0       	ldi	r27, 0x01	; 1

	ldi r22,RAM_TILES_COUNT
    5298:	6e e0       	ldi	r22, 0x0E	; 14

0000529a <fill_vram_loop>:

fill_vram_loop:
	st X+,r22
    529a:	6d 93       	st	X+, r22
	sbiw r30,1
    529c:	31 97       	sbiw	r30, 0x01	; 1
	brne fill_vram_loop
    529e:	e9 f7       	brne	.-6      	; 0x529a <fill_vram_loop>

	clr r1
    52a0:	11 24       	eor	r1, r1

	ret
    52a2:	08 95       	ret

000052a4 <SetFont>:
; r22=Y pos (8 bit)
; r20=Font tile No (8 bit)
;************************************
.section .text.SetFont
SetFont:
	lds r21,font_tile_index
    52a4:	50 91 38 08 	lds	r21, 0x0838
	add r20,21
    52a8:	45 0f       	add	r20, r21
	rjmp SetTile	
    52aa:	00 c0       	rjmp	.+0      	; 0x52ac <SetTile>

000052ac <SetTile>:

	ret

#else

	clr r25
    52ac:	99 27       	eor	r25, r25
	clr r23	
    52ae:	77 27       	eor	r23, r23

	ldi r18,VRAM_TILES_H
    52b0:	2e e1       	ldi	r18, 0x1E	; 30

	mul r22,r18		;calculate Y line addr in vram
    52b2:	62 9f       	mul	r22, r18
	add r0,r24		;add X offset
    52b4:	08 0e       	add	r0, r24
	adc r1,r25
    52b6:	19 1e       	adc	r1, r25
	ldi XL,lo8(vram)
    52b8:	a0 e2       	ldi	r26, 0x20	; 32
	ldi XH,hi8(vram)
    52ba:	b1 e0       	ldi	r27, 0x01	; 1
	add XL,r0
    52bc:	a0 0d       	add	r26, r0
	adc XH,r1
    52be:	b1 1d       	adc	r27, r1
	
	subi r20,~(RAM_TILES_COUNT-1)	
    52c0:	42 5f       	subi	r20, 0xF2	; 242
	st X,r20
    52c2:	4c 93       	st	X, r20

	clr r1
    52c4:	11 24       	eor	r1, r1

	ret
    52c6:	08 95       	ret

000052c8 <SetFontTilesIndex>:
; C-callable
; r24=First font tile index in tile table (8 bit)
;************************************
.section .text.SetFontTilesIndex
	SetFontTilesIndex:
	sts font_tile_index,r24
    52c8:	80 93 38 08 	sts	0x0838, r24
	ret
    52cc:	08 95       	ret

000052ce <SetTileTable>:
; C-callable
; r25:r24=pointer to tiles data
;************************************
.section .text.SetTileTable
SetTileTable:
	sts tile_table_lo,r24
    52ce:	80 93 36 08 	sts	0x0836, r24
	sts tile_table_hi,r25	
    52d2:	90 93 37 08 	sts	0x0837, r25
	ret
    52d6:	08 95       	ret

000052d8 <GetVsyncFlag>:
;
; C-callable
;************************************
.section .text.GetVsyncFlag
GetVsyncFlag:
	lds r24,sync_flags
    52d8:	80 91 3e 08 	lds	r24, 0x083E
	andi r24,SYNC_FLAG_VSYNC
    52dc:	81 70       	andi	r24, 0x01	; 1
	ret
    52de:	08 95       	ret

000052e0 <ClearVsyncFlag>:
; 
; C-callable
;*****************************
.section .text.ClearVsyncFlag
ClearVsyncFlag:
	lds r18,sync_flags
    52e0:	20 91 3e 08 	lds	r18, 0x083E
	andi r18,~SYNC_FLAG_VSYNC
    52e4:	2e 7f       	andi	r18, 0xFE	; 254
	sts sync_flags,r18
    52e6:	20 93 3e 08 	sts	0x083E, r18
	ret
    52ea:	08 95       	ret

000052ec <WriteEeprom>:
;****************************

.section .text.WriteEeprom
WriteEeprom:
   ; Wait for completion of previous write
   sbic _SFR_IO_ADDR(EECR),EEPE
    52ec:	f9 99       	sbic	0x1f, 1	; 31
   rjmp WriteEeprom
    52ee:	fe cf       	rjmp	.-4      	; 0x52ec <WriteEeprom>
   ; Set up address (r25:r24) in address register
   out _SFR_IO_ADDR(EEARH), r25
    52f0:	92 bd       	out	0x22, r25	; 34
   out _SFR_IO_ADDR(EEARL), r24
    52f2:	81 bd       	out	0x21, r24	; 33
   ; Write data (r22) to Data Register
   out _SFR_IO_ADDR(EEDR),r22
    52f4:	60 bd       	out	0x20, r22	; 32
   cli
    52f6:	f8 94       	cli
   ; Write logical one to EEMPE
   sbi _SFR_IO_ADDR(EECR),EEMPE
    52f8:	fa 9a       	sbi	0x1f, 2	; 31
   ; Start eeprom write by setting EEPE
   sbi _SFR_IO_ADDR(EECR),EEPE
    52fa:	f9 9a       	sbi	0x1f, 1	; 31
   sei
    52fc:	78 94       	sei
   ret
    52fe:	08 95       	ret

00005300 <ReadEeprom>:
; r24 - value read
;****************************
.section .text.ReadEeprom
ReadEeprom:
   ; Wait for completion of previous write
   sbic _SFR_IO_ADDR(EECR),EEPE
    5300:	f9 99       	sbic	0x1f, 1	; 31
   rjmp ReadEeprom
    5302:	fe cf       	rjmp	.-4      	; 0x5300 <ReadEeprom>
   ; Set up address (r25:r24) in address register
   out _SFR_IO_ADDR(EEARH), r25
    5304:	92 bd       	out	0x22, r25	; 34
   out _SFR_IO_ADDR(EEARL), r24
    5306:	81 bd       	out	0x21, r24	; 33
   ; Start eeprom read by writing EERE
   cli
    5308:	f8 94       	cli
   sbi _SFR_IO_ADDR(EECR),EERE
    530a:	f8 9a       	sbi	0x1f, 0	; 31
   ; Read data from Data Register
   in r24,_SFR_IO_ADDR(EEDR)
    530c:	80 b5       	in	r24, 0x20	; 32
   sei
    530e:	78 94       	sei
   ret
    5310:	08 95       	ret

00005312 <SoftReset>:

/**
 * Performs a software reset
 */
void SoftReset(void){        
	wdt_enable(WDTO_15MS);  
    5312:	98 e0       	ldi	r25, 0x08	; 8
    5314:	88 e1       	ldi	r24, 0x18	; 24
    5316:	0f b6       	in	r0, 0x3f	; 63
    5318:	f8 94       	cli
    531a:	a8 95       	wdr
    531c:	80 93 60 00 	sts	0x0060, r24
    5320:	0f be       	out	0x3f, r0	; 63
    5322:	90 93 60 00 	sts	0x0060, r25
	while(1);
    5326:	ff cf       	rjmp	.-2      	; 0x5326 <SoftReset+0x14>

00005328 <ReadButtons>:
void ReadButtons(){
	unsigned int p1ButtonsLo=0,p2ButtonsLo=0;
	unsigned char i;

	//latch controllers
	JOYPAD_OUT_PORT|=_BV(JOYPAD_LATCH_PIN);
    5328:	12 9a       	sbi	0x02, 2	; 2
		}else{
			Wait200ns();
			Wait200ns();
		}	
	#else
		Wait200ns();
    532a:	c8 95       	lpm
    532c:	c8 95       	lpm
		Wait200ns();
    532e:	c8 95       	lpm
    5330:	c8 95       	lpm
	#endif
	JOYPAD_OUT_PORT&=~(_BV(JOYPAD_LATCH_PIN));
    5332:	12 98       	cbi	0x02, 2	; 2
    5334:	40 e1       	ldi	r20, 0x10	; 16
	DisplayLogo();
	
}

void ReadButtons(){
	unsigned int p1ButtonsLo=0,p2ButtonsLo=0;
    5336:	80 e0       	ldi	r24, 0x00	; 0
    5338:	90 e0       	ldi	r25, 0x00	; 0
    533a:	20 e0       	ldi	r18, 0x00	; 0
    533c:	30 e0       	ldi	r19, 0x00	; 0


	//read button states
	for(i=0;i<16;i++){

		p1ButtonsLo>>=1;
    533e:	36 95       	lsr	r19
    5340:	27 95       	ror	r18
		p2ButtonsLo>>=1;
    5342:	96 95       	lsr	r25
    5344:	87 95       	ror	r24
			}else{
				Wait200ns();
				Wait200ns();
			}	
		#else
			Wait200ns();
    5346:	c8 95       	lpm
    5348:	c8 95       	lpm
			Wait200ns();
    534a:	c8 95       	lpm
    534c:	c8 95       	lpm
		#endif
			
		//pulse clock pin		
		JOYPAD_OUT_PORT&=~(_BV(JOYPAD_CLOCK_PIN));
    534e:	13 98       	cbi	0x02, 3	; 2
		
		if((JOYPAD_IN_PORT&(1<<JOYPAD_DATA1_PIN))==0) p1ButtonsLo|=(1<<15);
    5350:	00 9b       	sbis	0x00, 0	; 0
    5352:	30 68       	ori	r19, 0x80	; 128
		if((JOYPAD_IN_PORT&(1<<JOYPAD_DATA2_PIN))==0) p2ButtonsLo|=(1<<15);
    5354:	01 9b       	sbis	0x00, 1	; 0
    5356:	90 68       	ori	r25, 0x80	; 128
		
		JOYPAD_OUT_PORT|=_BV(JOYPAD_CLOCK_PIN);
    5358:	13 9a       	sbi	0x02, 3	; 2
			}else{
				Wait200ns();
				Wait200ns();
			}	
		#else
			Wait200ns();
    535a:	c8 95       	lpm
    535c:	c8 95       	lpm
			Wait200ns();
    535e:	c8 95       	lpm
    5360:	c8 95       	lpm
    5362:	41 50       	subi	r20, 0x01	; 1
	#endif
	JOYPAD_OUT_PORT&=~(_BV(JOYPAD_LATCH_PIN));


	//read button states
	for(i=0;i<16;i++){
    5364:	61 f7       	brne	.-40     	; 0x533e <ReadButtons+0x16>
		#endif

	}

	#if JOYSTICK==TYPE_SNES
		joypad1_status_lo=p1ButtonsLo;
    5366:	30 93 48 08 	sts	0x0848, r19
    536a:	20 93 47 08 	sts	0x0847, r18
		joypad2_status_lo=p2ButtonsLo;
    536e:	90 93 4c 08 	sts	0x084C, r25
    5372:	80 93 4b 08 	sts	0x084B, r24
	#else
		joypad1_status_lo=p1ButtonsLo&0xff;
		joypad2_status_lo=p2ButtonsLo&0xff;	
	#endif

	if(joypad1_status_lo==(BTN_START+BTN_SELECT+BTN_Y+BTN_B) || joypad2_status_lo==(BTN_START+BTN_SELECT+BTN_Y+BTN_B)){
    5376:	80 91 47 08 	lds	r24, 0x0847
    537a:	90 91 48 08 	lds	r25, 0x0848
    537e:	0f 97       	sbiw	r24, 0x0f	; 15
    5380:	31 f0       	breq	.+12     	; 0x538e <ReadButtons+0x66>
    5382:	80 91 4b 08 	lds	r24, 0x084B
    5386:	90 91 4c 08 	lds	r25, 0x084C
    538a:	0f 97       	sbiw	r24, 0x0f	; 15
    538c:	11 f4       	brne	.+4      	; 0x5392 <ReadButtons+0x6a>
		SoftReset();
    538e:	0e 94 89 29 	call	0x5312	; 0x5312 <SoftReset>
    5392:	08 95       	ret

00005394 <ReadControllers>:
void ReadControllers(){

	//detect if joypads are connected
	//when no connector are plugged, the internal AVR pullup will drive the line high
	//otherwise the controller's shift register will drive the line low.
	joypadsConnectionStatus=0;
    5394:	10 92 8e 0a 	sts	0x0A8E, r1
	if((JOYPAD_IN_PORT&(1<<JOYPAD_DATA1_PIN))==0) joypadsConnectionStatus|=1;
    5398:	00 99       	sbic	0x00, 0	; 0
    539a:	03 c0       	rjmp	.+6      	; 0x53a2 <ReadControllers+0xe>
    539c:	81 e0       	ldi	r24, 0x01	; 1
    539e:	80 93 8e 0a 	sts	0x0A8E, r24
	if((JOYPAD_IN_PORT&(1<<JOYPAD_DATA2_PIN))==0) joypadsConnectionStatus|=2;
    53a2:	01 99       	sbic	0x00, 1	; 0
    53a4:	05 c0       	rjmp	.+10     	; 0x53b0 <ReadControllers+0x1c>
    53a6:	80 91 8e 0a 	lds	r24, 0x0A8E
    53aa:	82 60       	ori	r24, 0x02	; 2
    53ac:	80 93 8e 0a 	sts	0x0A8E, r24
			
	//read the standard buttons
	ReadButtons();
    53b0:	0c 94 94 29 	jmp	0x5328	; 0x5328 <ReadButtons>

000053b4 <FormatEeprom>:
	return resp;
}

	
// Format eeprom, wiping all data to zero
void FormatEeprom(void) {
    53b4:	cf 93       	push	r28
    53b6:	df 93       	push	r29
    53b8:	c0 e0       	ldi	r28, 0x00	; 0
    53ba:	d0 e0       	ldi	r29, 0x00	; 0
    53bc:	fe 01       	movw	r30, r28
    53be:	e2 56       	subi	r30, 0x62	; 98
    53c0:	ff 4f       	sbci	r31, 0xFF	; 255

   // Set sig. so we don't format next time
   for (u8 i = 0; i < sizeof(eeprom_format_table); i++) {
	 WriteEeprom(i,pgm_read_byte(&eeprom_format_table[i]));
    53c2:	64 91       	lpm	r22, Z
    53c4:	ce 01       	movw	r24, r28
    53c6:	0e 94 76 29 	call	0x52ec	; 0x52ec <WriteEeprom>
    53ca:	21 96       	adiw	r28, 0x01	; 1
	
// Format eeprom, wiping all data to zero
void FormatEeprom(void) {

   // Set sig. so we don't format next time
   for (u8 i = 0; i < sizeof(eeprom_format_table); i++) {
    53cc:	c0 32       	cpi	r28, 0x20	; 32
    53ce:	d1 05       	cpc	r29, r1
    53d0:	a9 f7       	brne	.-22     	; 0x53bc <FormatEeprom+0x8>
    53d2:	c0 e2       	ldi	r28, 0x20	; 32
    53d4:	d0 e0       	ldi	r29, 0x00	; 0
	 WriteEeprom(i,pgm_read_byte(&eeprom_format_table[i]));
   }
   
   // Write free blocks IDs
   for (u16 i = (EEPROM_BLOCK_SIZE*EEPROM_HEADER_SIZE); i < (64*EEPROM_BLOCK_SIZE); i+=EEPROM_BLOCK_SIZE) {
	  WriteEeprom(i,(u8)EEPROM_FREE_BLOCK);
    53d6:	6f ef       	ldi	r22, 0xFF	; 255
    53d8:	ce 01       	movw	r24, r28
    53da:	0e 94 76 29 	call	0x52ec	; 0x52ec <WriteEeprom>
	  WriteEeprom(i+1,(u8)(EEPROM_FREE_BLOCK>>8));
    53de:	6f ef       	ldi	r22, 0xFF	; 255
    53e0:	ce 01       	movw	r24, r28
    53e2:	01 96       	adiw	r24, 0x01	; 1
    53e4:	0e 94 76 29 	call	0x52ec	; 0x52ec <WriteEeprom>
   for (u8 i = 0; i < sizeof(eeprom_format_table); i++) {
	 WriteEeprom(i,pgm_read_byte(&eeprom_format_table[i]));
   }
   
   // Write free blocks IDs
   for (u16 i = (EEPROM_BLOCK_SIZE*EEPROM_HEADER_SIZE); i < (64*EEPROM_BLOCK_SIZE); i+=EEPROM_BLOCK_SIZE) {
    53e8:	a0 96       	adiw	r28, 0x20	; 32
    53ea:	c1 15       	cp	r28, r1
    53ec:	88 e0       	ldi	r24, 0x08	; 8
    53ee:	d8 07       	cpc	r29, r24
    53f0:	91 f7       	brne	.-28     	; 0x53d6 <FormatEeprom+0x22>
	  WriteEeprom(i,(u8)EEPROM_FREE_BLOCK);
	  WriteEeprom(i+1,(u8)(EEPROM_FREE_BLOCK>>8));
   }
   
}
    53f2:	df 91       	pop	r29
    53f4:	cf 91       	pop	r28
    53f6:	08 95       	ret

000053f8 <isEepromFormatted>:
	  }
   }
}
	
//returns true if the EEPROM has been setup to work with the kernel.
bool isEepromFormatted(){
    53f8:	cf 93       	push	r28
	unsigned id;
	id=ReadEeprom(0)+(ReadEeprom(1)<<8);
    53fa:	80 e0       	ldi	r24, 0x00	; 0
    53fc:	90 e0       	ldi	r25, 0x00	; 0
    53fe:	0e 94 80 29 	call	0x5300	; 0x5300 <ReadEeprom>
    5402:	c8 2f       	mov	r28, r24
    5404:	81 e0       	ldi	r24, 0x01	; 1
    5406:	90 e0       	ldi	r25, 0x00	; 0
    5408:	0e 94 80 29 	call	0x5300	; 0x5300 <ReadEeprom>
    540c:	28 2f       	mov	r18, r24
    540e:	30 e0       	ldi	r19, 0x00	; 0
    5410:	32 2f       	mov	r19, r18
    5412:	22 27       	eor	r18, r18
    5414:	2c 0f       	add	r18, r28
    5416:	31 1d       	adc	r19, r1
	return (id==EEPROM_SIGNATURE);
    5418:	81 e0       	ldi	r24, 0x01	; 1
    541a:	2a 35       	cpi	r18, 0x5A	; 90
    541c:	35 45       	sbci	r19, 0x55	; 85
    541e:	09 f0       	breq	.+2      	; 0x5422 <isEepromFormatted+0x2a>
    5420:	80 e0       	ldi	r24, 0x00	; 0
}
    5422:	cf 91       	pop	r28
    5424:	08 95       	ret

00005426 <PatchCommand00>:

/*
 * Command 00: Set envelope speed per frame +127/-128, 0=no enveloppe
 */
void PatchCommand00(struct TrackStruct* track,unsigned char trackNo, char param){
	track->envelopeStep=param;
    5426:	fc 01       	movw	r30, r24
    5428:	45 87       	std	Z+13, r20	; 0x0d
    542a:	08 95       	ret

0000542c <PatchCommand01>:
}
/*
* Command 01: Set noise channel params
*/
void PatchCommand01(struct TrackStruct* track,unsigned char trackNo, char param){
    542c:	08 95       	ret

0000542e <PatchCommand05>:
	SetMixerNote(trackNo,track->note);
}
/*
* Command 05: End of note/fx
*/
void PatchCommand05(struct TrackStruct* track,unsigned char trackNo, char param){
    542e:	fc 01       	movw	r30, r24
	track->flags&=~(TRACK_FLAGS_PLAYING+TRACK_FLAGS_PRIORITY);	//patchPlaying=false,priority=0	
    5430:	90 81       	ld	r25, Z
    5432:	9f 75       	andi	r25, 0x5F	; 95
    5434:	90 83       	st	Z, r25
    5436:	08 95       	ret

00005438 <PatchCommand06>:
}

/*
* Command 06: Note hold
*/
void PatchCommand06(struct TrackStruct* track,unsigned char trackNo, char param){
    5438:	fc 01       	movw	r30, r24
	track->flags|=TRACK_FLAGS_HOLD_ENV; //patchEnvelopeHold=true;
    543a:	90 81       	ld	r25, Z
    543c:	90 64       	ori	r25, 0x40	; 64
    543e:	90 83       	st	Z, r25
    5440:	08 95       	ret

00005442 <PatchCommand07>:
/*
* Command 07: Set envelope volume
*/

void PatchCommand07(struct TrackStruct* track,unsigned char trackNo, char param){
	track->envelopeVol=param;
    5442:	fc 01       	movw	r30, r24
    5444:	44 87       	std	Z+12, r20	; 0x0c
    5446:	08 95       	ret

00005448 <PatchCommand09>:
/*
* Command 09: Set tremolo level
*/

void PatchCommand09(struct TrackStruct* track,unsigned char trackNo, char param){
	track->tremoloLevel=param;
    5448:	fc 01       	movw	r30, r24
    544a:	47 83       	std	Z+7, r20	; 0x07
    544c:	08 95       	ret

0000544e <PatchCommand10>:

/*
* Command 10: Set tremolo rate
*/
void PatchCommand10(struct TrackStruct* track,unsigned char trackNo, char param){
	track->tremoloRate=param;
    544e:	fc 01       	movw	r30, r24
    5450:	40 87       	std	Z+8, r20	; 0x08
    5452:	08 95       	ret

00005454 <PatchCommand11>:

/*
* Command 11: Pitch slide (linear), param= (+/-) half steps to slide to
*/

void PatchCommand11(struct TrackStruct* track,unsigned char trackNo, char param){
    5454:	1f 93       	push	r17
    5456:	cf 93       	push	r28
    5458:	df 93       	push	r29
    545a:	ec 01       	movw	r28, r24
    545c:	16 2f       	mov	r17, r22
	//slide to note from current note
	s16 currentStep,targetStep,delta;	
	
	currentStep=pgm_read_word(&(steptable[track->note]));
    545e:	29 81       	ldd	r18, Y+1	; 0x01
    5460:	30 e0       	ldi	r19, 0x00	; 0
    5462:	f9 01       	movw	r30, r18
    5464:	ee 0f       	add	r30, r30
    5466:	ff 1f       	adc	r31, r31
    5468:	e8 5f       	subi	r30, 0xF8	; 248
    546a:	f2 4a       	sbci	r31, 0xA2	; 162
    546c:	65 91       	lpm	r22, Z+
    546e:	74 91       	lpm	r23, Z
	targetStep=pgm_read_word(&(steptable[track->note+param]));	
    5470:	f9 01       	movw	r30, r18
    5472:	e4 0f       	add	r30, r20
    5474:	f1 1d       	adc	r31, r1
    5476:	47 fd       	sbrc	r20, 7
    5478:	fa 95       	dec	r31
    547a:	ee 0f       	add	r30, r30
    547c:	ff 1f       	adc	r31, r31
    547e:	e8 5f       	subi	r30, 0xF8	; 248
    5480:	f2 4a       	sbci	r31, 0xA2	; 162
    5482:	85 91       	lpm	r24, Z+
    5484:	94 91       	lpm	r25, Z
	delta=((targetStep-currentStep)/tracks->slideSpeed);
    5486:	86 1b       	sub	r24, r22
    5488:	97 0b       	sbc	r25, r23
    548a:	60 91 96 0a 	lds	r22, 0x0A96
    548e:	70 e0       	ldi	r23, 0x00	; 0
    5490:	0e 94 3c 37 	call	0x6e78	; 0x6e78 <__divmodhi4>
	if(delta==0)delta++;
    5494:	61 15       	cp	r22, r1
    5496:	71 05       	cpc	r23, r1
    5498:	11 f4       	brne	.+4      	; 0x549e <PatchCommand11+0x4a>
    549a:	61 e0       	ldi	r22, 0x01	; 1
    549c:	70 e0       	ldi	r23, 0x00	; 0

	mixer.channels.all[trackNo].step+=delta;
    549e:	86 e0       	ldi	r24, 0x06	; 6
    54a0:	18 9f       	mul	r17, r24
    54a2:	f0 01       	movw	r30, r0
    54a4:	11 24       	eor	r1, r1
    54a6:	ee 58       	subi	r30, 0x8E	; 142
    54a8:	f5 4f       	sbci	r31, 0xF5	; 245
    54aa:	81 81       	ldd	r24, Z+1	; 0x01
    54ac:	92 81       	ldd	r25, Z+2	; 0x02
    54ae:	86 0f       	add	r24, r22
    54b0:	97 1f       	adc	r25, r23
    54b2:	92 83       	std	Z+2, r25	; 0x02
    54b4:	81 83       	std	Z+1, r24	; 0x01
	
	track->slideStep=delta;
    54b6:	7b 83       	std	Y+3, r23	; 0x03
    54b8:	6a 83       	std	Y+2, r22	; 0x02
	track->flags|=TRACK_FLAGS_SLIDING;
    54ba:	88 81       	ld	r24, Y
    54bc:	88 60       	ori	r24, 0x08	; 8
    54be:	88 83       	st	Y, r24
	track->slideNote=track->note+param;
    54c0:	89 81       	ldd	r24, Y+1	; 0x01
    54c2:	48 0f       	add	r20, r24
    54c4:	4c 83       	std	Y+4, r20	; 0x04
}
    54c6:	df 91       	pop	r29
    54c8:	cf 91       	pop	r28
    54ca:	1f 91       	pop	r17
    54cc:	08 95       	ret

000054ce <PatchCommand12>:

/*
* Command 11: Pitch slide speed (fixed 4:4)
*/
void PatchCommand12(struct TrackStruct* track,unsigned char trackNo, char param){
	tracks->slideSpeed=param;
    54ce:	40 93 96 0a 	sts	0x0A96, r20
    54d2:	08 95       	ret

000054d4 <PatchCommand02>:
	#endif
}
/*
* Command 02: Set wave
*/
void PatchCommand02(struct TrackStruct* track,unsigned char trackNo, char param){
    54d4:	86 2f       	mov	r24, r22
	SetMixerWave(trackNo,param);
    54d6:	64 2f       	mov	r22, r20
    54d8:	0c 94 f5 2d 	jmp	0x5bea	; 0x5bea <SetMixerWave>

000054dc <PatchCommand03>:
}
/*
* Command 03: Note up * param
*/
void PatchCommand03(struct TrackStruct* track,unsigned char trackNo, char param){
    54dc:	fc 01       	movw	r30, r24
    54de:	86 2f       	mov	r24, r22
	track->note+=param;
    54e0:	91 81       	ldd	r25, Z+1	; 0x01
    54e2:	64 2f       	mov	r22, r20
    54e4:	69 0f       	add	r22, r25
    54e6:	61 83       	std	Z+1, r22	; 0x01
	SetMixerNote(trackNo,track->note);
    54e8:	0c 94 e1 2d 	jmp	0x5bc2	; 0x5bc2 <SetMixerNote>

000054ec <PatchCommand04>:
}
/*
* Command 04: Note down * param
*/
void PatchCommand04(struct TrackStruct* track,unsigned char trackNo, char param){
    54ec:	fc 01       	movw	r30, r24
    54ee:	86 2f       	mov	r24, r22
	track->note-=param;
    54f0:	91 81       	ldd	r25, Z+1	; 0x01
    54f2:	69 2f       	mov	r22, r25
    54f4:	64 1b       	sub	r22, r20
    54f6:	61 83       	std	Z+1, r22	; 0x01
	SetMixerNote(trackNo,track->note);
    54f8:	0c 94 e1 2d 	jmp	0x5bc2	; 0x5bc2 <SetMixerNote>

000054fc <PatchCommand08>:

/*
* Command 08: Set Note/Pitch
*/

void PatchCommand08(struct TrackStruct* track,unsigned char trackNo, char param){
    54fc:	0f 93       	push	r16
    54fe:	1f 93       	push	r17
    5500:	cf 93       	push	r28
    5502:	df 93       	push	r29
    5504:	1f 92       	push	r1
    5506:	cd b7       	in	r28, 0x3d	; 61
    5508:	de b7       	in	r29, 0x3e	; 62
    550a:	8c 01       	movw	r16, r24
    550c:	86 2f       	mov	r24, r22
	SetMixerNote(trackNo,param);
    550e:	64 2f       	mov	r22, r20
    5510:	49 83       	std	Y+1, r20	; 0x01
    5512:	0e 94 e1 2d 	call	0x5bc2	; 0x5bc2 <SetMixerNote>
	track->note=param;
    5516:	49 81       	ldd	r20, Y+1	; 0x01
    5518:	f8 01       	movw	r30, r16
    551a:	41 83       	std	Z+1, r20	; 0x01
	track->flags &= ~(TRACK_FLAGS_SLIDING);	
    551c:	80 81       	ld	r24, Z
    551e:	87 7f       	andi	r24, 0xF7	; 247
    5520:	80 83       	st	Z, r24
}
    5522:	0f 90       	pop	r0
    5524:	df 91       	pop	r29
    5526:	cf 91       	pop	r28
    5528:	1f 91       	pop	r17
    552a:	0f 91       	pop	r16
    552c:	08 95       	ret

0000552e <InitMusicPlayer>:

const struct PatchStruct *patchPointers;

void InitMusicPlayer(const struct PatchStruct *patchPointersParam){

	patchPointers=patchPointersParam;
    552e:	90 93 ec 0a 	sts	0x0AEC, r25
    5532:	80 93 eb 0a 	sts	0x0AEB, r24

	masterVolume=DEFAULT_MASTER_VOL;
    5536:	8f e6       	ldi	r24, 0x6F	; 111
    5538:	80 93 ee 0a 	sts	0x0AEE, r24
#if MIDI_IN == ENABLED
	UartInitRxBuffer();
	lastMidiInStatus=0;
#endif

	playSong=false;
    553c:	10 92 60 08 	sts	0x0860, r1
    5540:	ef e9       	ldi	r30, 0x9F	; 159
    5542:	fa e0       	ldi	r31, 0x0A	; 10

	//initialize default channels patches			
	for(unsigned char t=0;t<CHANNELS;t++){		
		tracks[t].flags=TRACK_FLAGS_ALLOCATED;	//allocated=true,priority=0
    5544:	80 e1       	ldi	r24, 0x10	; 16
		tracks[t].noteVol=0;
		tracks[t].expressionVol=DEFAULT_EXPRESSION_VOL;
    5546:	9f ef       	ldi	r25, 0xFF	; 255
		tracks[t].trackVol=DEFAULT_TRACK_VOL;
		tracks[t].patchNo=DEFAULT_PATCH;
		tracks[t].tremoloRate=24; //~6hz
    5548:	28 e1       	ldi	r18, 0x18	; 24
    554a:	df 01       	movw	r26, r30
    554c:	1e 97       	sbiw	r26, 0x0e	; 14

	playSong=false;

	//initialize default channels patches			
	for(unsigned char t=0;t<CHANNELS;t++){		
		tracks[t].flags=TRACK_FLAGS_ALLOCATED;	//allocated=true,priority=0
    554e:	8c 93       	st	X, r24
    5550:	1b 96       	adiw	r26, 0x0b	; 11
		tracks[t].noteVol=0;
    5552:	1c 92       	st	X, r1
    5554:	12 97       	sbiw	r26, 0x02	; 2
		tracks[t].expressionVol=DEFAULT_EXPRESSION_VOL;
    5556:	9c 93       	st	X, r25
    5558:	11 96       	adiw	r26, 0x01	; 1
		tracks[t].trackVol=DEFAULT_TRACK_VOL;
    555a:	9c 93       	st	X, r25
		tracks[t].patchNo=DEFAULT_PATCH;
    555c:	10 82       	st	Z, r1
    555e:	12 97       	sbiw	r26, 0x02	; 2
		tracks[t].tremoloRate=24; //~6hz
    5560:	2c 93       	st	X, r18
    5562:	13 97       	sbiw	r26, 0x03	; 3
		tracks[t].slideSpeed=0x10;
    5564:	8c 93       	st	X, r24
    5566:	76 96       	adiw	r30, 0x16	; 22
#endif

	playSong=false;

	//initialize default channels patches			
	for(unsigned char t=0;t<CHANNELS;t++){		
    5568:	3a e0       	ldi	r19, 0x0A	; 10
    556a:	e7 3f       	cpi	r30, 0xF7	; 247
    556c:	f3 07       	cpc	r31, r19
    556e:	69 f7       	brne	.-38     	; 0x554a <InitMusicPlayer+0x1c>
		tracks[t].patchNo=DEFAULT_PATCH;
		tracks[t].tremoloRate=24; //~6hz
		tracks[t].slideSpeed=0x10;
	}

}
    5570:	08 95       	ret

00005572 <ReadVarLen>:
}



unsigned int ReadVarLen(const char **songPos)
{
    5572:	dc 01       	movw	r26, r24
    unsigned int value;
    unsigned char c;


    if ( (value = pgm_read_byte((*songPos)++)) & 0x80 )
    5574:	ed 91       	ld	r30, X+
    5576:	fc 91       	ld	r31, X
    5578:	11 97       	sbiw	r26, 0x01	; 1
    557a:	9f 01       	movw	r18, r30
    557c:	2f 5f       	subi	r18, 0xFF	; 255
    557e:	3f 4f       	sbci	r19, 0xFF	; 255
    5580:	11 96       	adiw	r26, 0x01	; 1
    5582:	3c 93       	st	X, r19
    5584:	2e 93       	st	-X, r18
    5586:	e4 91       	lpm	r30, Z
    5588:	e7 fd       	sbrc	r30, 7
    558a:	03 c0       	rjmp	.+6      	; 0x5592 <ReadVarLen+0x20>
    558c:	8e 2f       	mov	r24, r30
    558e:	90 e0       	ldi	r25, 0x00	; 0
    5590:	08 95       	ret
    {
       value &= 0x7F;
    5592:	ef 77       	andi	r30, 0x7F	; 127
    5594:	8e 2f       	mov	r24, r30
    5596:	90 e0       	ldi	r25, 0x00	; 0
       do
       {
         value = (value << 7) + ((c = pgm_read_byte((*songPos)++)) & 0x7F);
    5598:	96 95       	lsr	r25
    559a:	98 2f       	mov	r25, r24
    559c:	88 27       	eor	r24, r24
    559e:	97 95       	ror	r25
    55a0:	87 95       	ror	r24
    55a2:	2f 5f       	subi	r18, 0xFF	; 255
    55a4:	3f 4f       	sbci	r19, 0xFF	; 255
    55a6:	f9 01       	movw	r30, r18
    55a8:	31 97       	sbiw	r30, 0x01	; 1
    55aa:	e4 91       	lpm	r30, Z
    55ac:	4e 2f       	mov	r20, r30
    55ae:	4f 77       	andi	r20, 0x7F	; 127
    55b0:	84 0f       	add	r24, r20
    55b2:	91 1d       	adc	r25, r1
       } while (c & 0x80);
    55b4:	e7 fd       	sbrc	r30, 7
    55b6:	f0 cf       	rjmp	.-32     	; 0x5598 <ReadVarLen+0x26>
    55b8:	2d 93       	st	X+, r18
    55ba:	3c 93       	st	X, r19
    }


    return value;
}
    55bc:	08 95       	ret

000055be <TriggerCommon>:




void TriggerCommon(u8 channel,u8 patch,u8 volume,u8 note){
    55be:	8f 92       	push	r8
    55c0:	9f 92       	push	r9
    55c2:	af 92       	push	r10
    55c4:	bf 92       	push	r11
    55c6:	df 92       	push	r13
    55c8:	ef 92       	push	r14
    55ca:	ff 92       	push	r15
    55cc:	0f 93       	push	r16
    55ce:	1f 93       	push	r17
    55d0:	cf 93       	push	r28
    55d2:	df 93       	push	r29
    55d4:	1f 92       	push	r1
    55d6:	cd b7       	in	r28, 0x3d	; 61
    55d8:	de b7       	in	r29, 0x3e	; 62
    55da:	f8 2e       	mov	r15, r24
    55dc:	e6 2e       	mov	r14, r22
	struct TrackStruct* track=&tracks[channel];
		
	bool isFx = (track->flags&TRACK_FLAGS_PRIORITY);
    55de:	88 2e       	mov	r8, r24
    55e0:	91 2c       	mov	r9, r1
    55e2:	86 e1       	ldi	r24, 0x16	; 22
    55e4:	f8 9e       	mul	r15, r24
    55e6:	f0 01       	movw	r30, r0
    55e8:	11 24       	eor	r1, r1
    55ea:	ef 56       	subi	r30, 0x6F	; 111
    55ec:	f5 4f       	sbci	r31, 0xF5	; 245
    55ee:	80 81       	ld	r24, Z
    55f0:	98 2f       	mov	r25, r24
    55f2:	90 78       	andi	r25, 0x80	; 128
    55f4:	d9 2e       	mov	r13, r25

	track->patchCurrDeltaTime=0;
    55f6:	12 8a       	std	Z+18, r1	; 0x12
	track->envelopeStep=0; 
    55f8:	15 86       	std	Z+13, r1	; 0x0d
	track->envelopeVol=0xff; 
    55fa:	9f ef       	ldi	r25, 0xFF	; 255
    55fc:	94 87       	std	Z+12, r25	; 0x0c
	track->noteVol=volume;
    55fe:	43 87       	std	Z+11, r20	; 0x0b
	track->patchPlayingTime=0;
    5600:	13 8a       	std	Z+19, r1	; 0x13
	track->flags|=TRACK_FLAGS_PLAYING;
	track->flags&=(~(TRACK_FLAGS_HOLD_ENV|TRACK_FLAGS_SLIDING));
    5602:	87 7b       	andi	r24, 0xB7	; 183
    5604:	80 62       	ori	r24, 0x20	; 32
    5606:	80 83       	st	Z, r24
	track->tremoloLevel=0;
    5608:	17 82       	std	Z+7, r1	; 0x07
	track->expressionVol=DEFAULT_EXPRESSION_VOL;
    560a:	91 87       	std	Z+9, r25	; 0x09
	track->note=note;
    560c:	21 83       	std	Z+1, r18	; 0x01
    560e:	e9 e0       	ldi	r30, 0x09	; 9
    5610:	6e 9f       	mul	r22, r30
    5612:	80 01       	movw	r16, r0
    5614:	11 24       	eor	r1, r1
				SetMixerNote(channel,note);
				SetMixerWave(channel,0);
			}
		#else
			//if it's a PCM channel
			if(channel==3){
    5616:	f3 e0       	ldi	r31, 0x03	; 3
    5618:	ff 12       	cpse	r15, r31
    561a:	2a c0       	rjmp	.+84     	; 0x5670 <TriggerCommon+0xb2>
				mixer.channels.type.pcm.positionFrac=0;
    561c:	10 92 87 0a 	sts	0x0A87, r1
				const char *pos=(const char*)pgm_read_word(&(patchPointers[patch].pcmData));
    5620:	40 91 eb 0a 	lds	r20, 0x0AEB
    5624:	50 91 ec 0a 	lds	r21, 0x0AEC
    5628:	40 0f       	add	r20, r16
    562a:	51 1f       	adc	r21, r17
    562c:	fa 01       	movw	r30, r20
    562e:	31 96       	adiw	r30, 0x01	; 1
    5630:	a5 90       	lpm	r10, Z+
    5632:	b4 90       	lpm	r11, Z
				mixer.channels.type.pcm.position=pos;
    5634:	b0 92 89 0a 	sts	0x0A89, r11
    5638:	a0 92 88 0a 	sts	0x0A88, r10
				//mixer.pcmLoopStart=pos+pgm_read_word(&(patchPointers[patch].loopStart));
				mixer.pcmLoopLenght=pgm_read_word(&(patchPointers[patch].loopEnd))-pgm_read_word(&(patchPointers[patch].loopStart));
    563c:	da 01       	movw	r26, r20
    563e:	17 96       	adiw	r26, 0x07	; 7
    5640:	fd 01       	movw	r30, r26
    5642:	85 91       	lpm	r24, Z+
    5644:	94 91       	lpm	r25, Z
    5646:	4b 5f       	subi	r20, 0xFB	; 251
    5648:	5f 4f       	sbci	r21, 0xFF	; 255
    564a:	fa 01       	movw	r30, r20
    564c:	65 91       	lpm	r22, Z+
    564e:	74 91       	lpm	r23, Z
    5650:	86 1b       	sub	r24, r22
    5652:	97 0b       	sbc	r25, r23
    5654:	90 93 8b 0a 	sts	0x0A8B, r25
    5658:	80 93 8a 0a 	sts	0x0A8A, r24
				mixer.pcmLoopEnd=pos+pgm_read_word(&(patchPointers[patch].loopEnd));
    565c:	fd 01       	movw	r30, r26
    565e:	85 91       	lpm	r24, Z+
    5660:	94 91       	lpm	r25, Z
    5662:	a8 0e       	add	r10, r24
    5664:	b9 1e       	adc	r11, r25
    5666:	b0 92 8d 0a 	sts	0x0A8D, r11
    566a:	a0 92 8c 0a 	sts	0x0A8C, r10
    566e:	06 c0       	rjmp	.+12     	; 0x567c <TriggerCommon+0xbe>
			}else{
				SetMixerWave(channel,0);
    5670:	60 e0       	ldi	r22, 0x00	; 0
    5672:	8f 2d       	mov	r24, r15
    5674:	29 83       	std	Y+1, r18	; 0x01
    5676:	0e 94 f5 2d 	call	0x5bea	; 0x5bea <SetMixerWave>
    567a:	29 81       	ldd	r18, Y+1	; 0x01
			}

			SetMixerNote(channel,note);
    567c:	62 2f       	mov	r22, r18
    567e:	8f 2d       	mov	r24, r15
    5680:	0e 94 e1 2d 	call	0x5bc2	; 0x5bc2 <SetMixerNote>
		#endif

	#endif //SOUND_MIXER == MIXER_TYPE_INLINE

	if(isFx){
		track->fxPatchNo=patch;
    5684:	86 e1       	ldi	r24, 0x16	; 22
    5686:	88 9d       	mul	r24, r8
    5688:	f0 01       	movw	r30, r0
    568a:	89 9d       	mul	r24, r9
    568c:	f0 0d       	add	r31, r0
    568e:	11 24       	eor	r1, r1
    5690:	ef 56       	subi	r30, 0x6F	; 111
    5692:	f5 4f       	sbci	r31, 0xF5	; 245

		#endif

	#endif //SOUND_MIXER == MIXER_TYPE_INLINE

	if(isFx){
    5694:	dd 20       	and	r13, r13
    5696:	11 f0       	breq	.+4      	; 0x569c <TriggerCommon+0xde>
		track->fxPatchNo=patch;
    5698:	e7 86       	std	Z+15, r14	; 0x0f
    569a:	01 c0       	rjmp	.+2      	; 0x569e <TriggerCommon+0xe0>
	}else{
		track->patchNo=patch;	
    569c:	e6 86       	std	Z+14, r14	; 0x0e
	}

	const char *pos = (const char*)pgm_read_word(&(patchPointers[patch].cmdStream));
    569e:	e0 91 eb 0a 	lds	r30, 0x0AEB
    56a2:	f0 91 ec 0a 	lds	r31, 0x0AEC
    56a6:	e0 0f       	add	r30, r16
    56a8:	f1 1f       	adc	r31, r17
    56aa:	33 96       	adiw	r30, 0x03	; 3
    56ac:	85 91       	lpm	r24, Z+
    56ae:	94 91       	lpm	r25, Z
	if(pos==NULL){
    56b0:	00 97       	sbiw	r24, 0x00	; 0
    56b2:	59 f4       	brne	.+22     	; 0x56ca <TriggerCommon+0x10c>
		track->patchCommandStreamPos=NULL;
    56b4:	86 e1       	ldi	r24, 0x16	; 22
    56b6:	88 9d       	mul	r24, r8
    56b8:	f0 01       	movw	r30, r0
    56ba:	89 9d       	mul	r24, r9
    56bc:	f0 0d       	add	r31, r0
    56be:	11 24       	eor	r1, r1
    56c0:	ef 56       	subi	r30, 0x6F	; 111
    56c2:	f5 4f       	sbci	r31, 0xF5	; 245
    56c4:	15 8a       	std	Z+21, r1	; 0x15
    56c6:	14 8a       	std	Z+20, r1	; 0x14
    56c8:	0e c0       	rjmp	.+28     	; 0x56e6 <TriggerCommon+0x128>
	}else{
		track->patchNextDeltaTime=pgm_read_byte(pos++);
    56ca:	fc 01       	movw	r30, r24
    56cc:	24 91       	lpm	r18, Z
    56ce:	36 e1       	ldi	r19, 0x16	; 22
    56d0:	38 9d       	mul	r19, r8
    56d2:	f0 01       	movw	r30, r0
    56d4:	39 9d       	mul	r19, r9
    56d6:	f0 0d       	add	r31, r0
    56d8:	11 24       	eor	r1, r1
    56da:	ef 56       	subi	r30, 0x6F	; 111
    56dc:	f5 4f       	sbci	r31, 0xF5	; 245
    56de:	21 8b       	std	Z+17, r18	; 0x11
    56e0:	01 96       	adiw	r24, 0x01	; 1
		track->patchCommandStreamPos=pos;
    56e2:	95 8b       	std	Z+21, r25	; 0x15
    56e4:	84 8b       	std	Z+20, r24	; 0x14
	}

}
    56e6:	0f 90       	pop	r0
    56e8:	df 91       	pop	r29
    56ea:	cf 91       	pop	r28
    56ec:	1f 91       	pop	r17
    56ee:	0f 91       	pop	r16
    56f0:	ff 90       	pop	r15
    56f2:	ef 90       	pop	r14
    56f4:	df 90       	pop	r13
    56f6:	bf 90       	pop	r11
    56f8:	af 90       	pop	r10
    56fa:	9f 90       	pop	r9
    56fc:	8f 90       	pop	r8
    56fe:	08 95       	ret

00005700 <TriggerNote>:
	tracks[channel].flags|=TRACK_FLAGS_PRIORITY; //priority=1;	
	TriggerCommon(channel,patch,volume,80);
}


void TriggerNote(unsigned char channel,unsigned char patch,unsigned char note,unsigned char volume){
    5700:	32 2f       	mov	r19, r18

	//allow only other music notes 
	if((tracks[channel].flags&TRACK_FLAGS_PLAYING)==0 || (tracks[channel].flags&TRACK_FLAGS_PRIORITY)==0){
    5702:	a8 2f       	mov	r26, r24
    5704:	b0 e0       	ldi	r27, 0x00	; 0
    5706:	96 e1       	ldi	r25, 0x16	; 22
    5708:	89 9f       	mul	r24, r25
    570a:	f0 01       	movw	r30, r0
    570c:	11 24       	eor	r1, r1
    570e:	ef 56       	subi	r30, 0x6F	; 111
    5710:	f5 4f       	sbci	r31, 0xF5	; 245
    5712:	90 81       	ld	r25, Z
    5714:	95 ff       	sbrs	r25, 5
    5716:	02 c0       	rjmp	.+4      	; 0x571c <TriggerNote+0x1c>
    5718:	97 fd       	sbrc	r25, 7
    571a:	28 c0       	rjmp	.+80     	; 0x576c <TriggerNote+0x6c>
			
		if(volume==0){ //note-off received
    571c:	31 11       	cpse	r19, r1
    571e:	18 c0       	rjmp	.+48     	; 0x5750 <TriggerNote+0x50>

			
			//cut note if there's no envelope & no note hold
			if(tracks[channel].envelopeStep==0 && !(tracks[channel].flags&TRACK_FLAGS_HOLD_ENV)){
    5720:	86 e1       	ldi	r24, 0x16	; 22
    5722:	8a 9f       	mul	r24, r26
    5724:	f0 01       	movw	r30, r0
    5726:	8b 9f       	mul	r24, r27
    5728:	f0 0d       	add	r31, r0
    572a:	11 24       	eor	r1, r1
    572c:	ef 56       	subi	r30, 0x6F	; 111
    572e:	f5 4f       	sbci	r31, 0xF5	; 245
    5730:	85 85       	ldd	r24, Z+13	; 0x0d
    5732:	81 11       	cpse	r24, r1
    5734:	02 c0       	rjmp	.+4      	; 0x573a <TriggerNote+0x3a>
    5736:	96 ff       	sbrs	r25, 6
				tracks[channel].noteVol=0;	
    5738:	13 86       	std	Z+11, r1	; 0x0b
			}

			tracks[channel].flags&=(~TRACK_FLAGS_HOLD_ENV);//patchEnvelopeHold=false;
    573a:	86 e1       	ldi	r24, 0x16	; 22
    573c:	8a 9f       	mul	r24, r26
    573e:	f0 01       	movw	r30, r0
    5740:	8b 9f       	mul	r24, r27
    5742:	f0 0d       	add	r31, r0
    5744:	11 24       	eor	r1, r1
    5746:	ef 56       	subi	r30, 0x6F	; 111
    5748:	f5 4f       	sbci	r31, 0xF5	; 245
    574a:	9f 7b       	andi	r25, 0xBF	; 191
    574c:	90 83       	st	Z, r25
    574e:	08 95       	ret
		}else{
		
			tracks[channel].flags&=(~TRACK_FLAGS_PRIORITY);// priority=0;	
    5750:	26 e1       	ldi	r18, 0x16	; 22
    5752:	2a 9f       	mul	r18, r26
    5754:	f0 01       	movw	r30, r0
    5756:	2b 9f       	mul	r18, r27
    5758:	f0 0d       	add	r31, r0
    575a:	11 24       	eor	r1, r1
    575c:	ef 56       	subi	r30, 0x6F	; 111
    575e:	f5 4f       	sbci	r31, 0xF5	; 245
    5760:	9f 77       	andi	r25, 0x7F	; 127
    5762:	90 83       	st	Z, r25
			TriggerCommon(channel,patch,volume,note);
    5764:	24 2f       	mov	r18, r20
    5766:	43 2f       	mov	r20, r19
    5768:	0c 94 df 2a 	jmp	0x55be	; 0x55be <TriggerCommon>
    576c:	08 95       	ret

0000576e <ProcessMusic>:
	}

#endif


void ProcessMusic(void){
    576e:	5f 92       	push	r5
    5770:	6f 92       	push	r6
    5772:	7f 92       	push	r7
    5774:	8f 92       	push	r8
    5776:	9f 92       	push	r9
    5778:	af 92       	push	r10
    577a:	bf 92       	push	r11
    577c:	cf 92       	push	r12
    577e:	df 92       	push	r13
    5780:	ef 92       	push	r14
    5782:	ff 92       	push	r15
    5784:	0f 93       	push	r16
    5786:	1f 93       	push	r17
    5788:	cf 93       	push	r28
    578a:	df 93       	push	r29
    578c:	c1 e9       	ldi	r28, 0x91	; 145
    578e:	da e0       	ldi	r29, 0x0A	; 10
    5790:	82 e7       	ldi	r24, 0x72	; 114
    5792:	e8 2e       	mov	r14, r24
    5794:	8a e0       	ldi	r24, 0x0A	; 10
    5796:	f8 2e       	mov	r15, r24
    5798:	d7 01       	movw	r26, r14
    579a:	9e 01       	movw	r18, r28
    579c:	40 e0       	ldi	r20, 0x00	; 0
    579e:	50 e0       	ldi	r21, 0x00	; 0
    57a0:	ca 01       	movw	r24, r20
    57a2:	8f 56       	subi	r24, 0x6F	; 111
    57a4:	95 4f       	sbci	r25, 0xF5	; 245
    57a6:	6c 01       	movw	r12, r24
	//process patches envelopes & pitch slides
	for(unsigned char trackNo=0;trackNo<CHANNELS;trackNo++){
		track=&tracks[trackNo];

		//update envelope
		if(track->envelopeStep!=0){
    57a8:	fc 01       	movw	r30, r24
    57aa:	85 85       	ldd	r24, Z+13	; 0x0d
    57ac:	88 23       	and	r24, r24
    57ae:	91 f0       	breq	.+36     	; 0x57d4 <ProcessMusic+0x66>
			vol=track->envelopeVol+track->envelopeStep;		
    57b0:	64 85       	ldd	r22, Z+12	; 0x0c
    57b2:	99 27       	eor	r25, r25
    57b4:	87 fd       	sbrc	r24, 7
    57b6:	90 95       	com	r25
    57b8:	86 0f       	add	r24, r22
    57ba:	91 1d       	adc	r25, r1
    57bc:	8f 3f       	cpi	r24, 0xFF	; 255
    57be:	91 05       	cpc	r25, r1
    57c0:	19 f0       	breq	.+6      	; 0x57c8 <ProcessMusic+0x5a>
    57c2:	14 f0       	brlt	.+4      	; 0x57c8 <ProcessMusic+0x5a>
    57c4:	8f ef       	ldi	r24, 0xFF	; 255
    57c6:	90 e0       	ldi	r25, 0x00	; 0
    57c8:	97 ff       	sbrs	r25, 7
    57ca:	02 c0       	rjmp	.+4      	; 0x57d0 <ProcessMusic+0x62>
    57cc:	80 e0       	ldi	r24, 0x00	; 0
    57ce:	90 e0       	ldi	r25, 0x00	; 0
			if(vol<0){
				vol=0;			
			}else if(vol>0xff){
				vol=0xff;						
			}
			track->envelopeVol=vol;
    57d0:	f6 01       	movw	r30, r12
    57d2:	84 87       	std	Z+12, r24	; 0x0c
		}
	
		if(track->flags & TRACK_FLAGS_SLIDING){
    57d4:	f9 01       	movw	r30, r18
    57d6:	10 81       	ld	r17, Z
    57d8:	13 ff       	sbrs	r17, 3
    57da:	29 c0       	rjmp	.+82     	; 0x582e <ProcessMusic+0xc0>

			mixer.channels.all[trackNo].step+=track->slideStep;
    57dc:	62 81       	ldd	r22, Z+2	; 0x02
    57de:	73 81       	ldd	r23, Z+3	; 0x03
    57e0:	11 96       	adiw	r26, 0x01	; 1
    57e2:	8d 91       	ld	r24, X+
    57e4:	9c 91       	ld	r25, X
    57e6:	12 97       	sbiw	r26, 0x02	; 2
    57e8:	86 0f       	add	r24, r22
    57ea:	97 1f       	adc	r25, r23
    57ec:	12 96       	adiw	r26, 0x02	; 2
    57ee:	9c 93       	st	X, r25
    57f0:	8e 93       	st	-X, r24
    57f2:	11 97       	sbiw	r26, 0x01	; 1
			u16 tStep=pgm_read_word(&(steptable[track->slideNote]));
    57f4:	f6 01       	movw	r30, r12
    57f6:	04 81       	ldd	r16, Z+4	; 0x04
    57f8:	e0 2f       	mov	r30, r16
    57fa:	f0 e0       	ldi	r31, 0x00	; 0
    57fc:	ee 0f       	add	r30, r30
    57fe:	ff 1f       	adc	r31, r31
    5800:	e8 5f       	subi	r30, 0xF8	; 248
    5802:	f2 4a       	sbci	r31, 0xA2	; 162
    5804:	c5 90       	lpm	r12, Z+
    5806:	d4 90       	lpm	r13, Z

			if((track->slideStep>0 && mixer.channels.all[trackNo].step>=tStep) || 
    5808:	16 16       	cp	r1, r22
    580a:	17 06       	cpc	r1, r23
    580c:	24 f4       	brge	.+8      	; 0x5816 <ProcessMusic+0xa8>
    580e:	8c 15       	cp	r24, r12
    5810:	9d 05       	cpc	r25, r13
    5812:	30 f4       	brcc	.+12     	; 0x5820 <ProcessMusic+0xb2>
    5814:	0c c0       	rjmp	.+24     	; 0x582e <ProcessMusic+0xc0>
    5816:	67 2b       	or	r22, r23
    5818:	51 f0       	breq	.+20     	; 0x582e <ProcessMusic+0xc0>
				(track->slideStep<0 && mixer.channels.all[trackNo].step<=tStep))
    581a:	c8 16       	cp	r12, r24
    581c:	d9 06       	cpc	r13, r25
    581e:	38 f0       	brcs	.+14     	; 0x582e <ProcessMusic+0xc0>
			{					
				mixer.channels.all[trackNo].step = tStep;					
    5820:	12 96       	adiw	r26, 0x02	; 2
    5822:	dc 92       	st	X, r13
    5824:	ce 92       	st	-X, r12
    5826:	11 97       	sbiw	r26, 0x01	; 1
				track->flags &= ~(TRACK_FLAGS_SLIDING);	
    5828:	17 7f       	andi	r17, 0xF7	; 247
    582a:	f9 01       	movw	r30, r18
    582c:	10 83       	st	Z, r17
    582e:	4a 5e       	subi	r20, 0xEA	; 234
    5830:	5f 4f       	sbci	r21, 0xFF	; 255
    5832:	2a 5e       	subi	r18, 0xEA	; 234
    5834:	3f 4f       	sbci	r19, 0xFF	; 255
    5836:	16 96       	adiw	r26, 0x06	; 6
	u16 uVol,tVol;
	struct TrackStruct* track;


	//process patches envelopes & pitch slides
	for(unsigned char trackNo=0;trackNo<CHANNELS;trackNo++){
    5838:	48 35       	cpi	r20, 0x58	; 88
    583a:	51 05       	cpc	r21, r1
    583c:	09 f0       	breq	.+2      	; 0x5840 <ProcessMusic+0xd2>
    583e:	b0 cf       	rjmp	.-160    	; 0x57a0 <ProcessMusic+0x32>
	}



	//Process song MIDI notes
	if(playSong){
    5840:	80 91 60 08 	lds	r24, 0x0860
    5844:	88 23       	and	r24, r24
    5846:	09 f4       	brne	.+2      	; 0x584a <ProcessMusic+0xdc>
    5848:	cb c0       	rjmp	.+406    	; 0x59e0 <ProcessMusic+0x272>
							}else if(c1==CONTROLER_EXPRESSION){
								tracks[channel].expressionVol=c2<<1;
							}else if(c1==CONTROLER_TREMOLO){
								tracks[channel].tremoloLevel=c2<<1;
							}else if(c1==CONTROLER_TREMOLO_RATE){
								tracks[channel].tremoloRate=c2<<1;
    584a:	16 e1       	ldi	r17, 0x16	; 22

		#if MUSIC_ENGINE == MIDI
			u8 channel;

			//process all simultaneous events
			while(currDeltaTime==nextDeltaTime){
    584c:	80 91 e9 0a 	lds	r24, 0x0AE9
    5850:	90 91 ea 0a 	lds	r25, 0x0AEA
    5854:	20 91 ef 0a 	lds	r18, 0x0AEF
    5858:	30 91 f0 0a 	lds	r19, 0x0AF0
    585c:	82 17       	cp	r24, r18
    585e:	93 07       	cpc	r25, r19
    5860:	09 f0       	breq	.+2      	; 0x5864 <ProcessMusic+0xf6>
    5862:	b9 c0       	rjmp	.+370    	; 0x59d6 <ProcessMusic+0x268>

				c1=pgm_read_byte(songPos++);
    5864:	20 91 f2 0a 	lds	r18, 0x0AF2
    5868:	30 91 f3 0a 	lds	r19, 0x0AF3
    586c:	b9 01       	movw	r22, r18
    586e:	6f 5f       	subi	r22, 0xFF	; 255
    5870:	7f 4f       	sbci	r23, 0xFF	; 255
    5872:	70 93 f3 0a 	sts	0x0AF3, r23
    5876:	60 93 f2 0a 	sts	0x0AF2, r22
    587a:	f9 01       	movw	r30, r18
    587c:	44 91       	lpm	r20, Z
			
				if(c1==0xff){
    587e:	4f 3f       	cpi	r20, 0xFF	; 255
    5880:	79 f5       	brne	.+94     	; 0x58e0 <ProcessMusic+0x172>
					//META data type event
					c1=pgm_read_byte(songPos++);
    5882:	a9 01       	movw	r20, r18
    5884:	4e 5f       	subi	r20, 0xFE	; 254
    5886:	5f 4f       	sbci	r21, 0xFF	; 255
    5888:	50 93 f3 0a 	sts	0x0AF3, r21
    588c:	40 93 f2 0a 	sts	0x0AF2, r20
    5890:	fb 01       	movw	r30, r22
    5892:	64 91       	lpm	r22, Z

				
					if(c1==0x2f){ //end of song
    5894:	6f 32       	cpi	r22, 0x2F	; 47
    5896:	19 f4       	brne	.+6      	; 0x589e <ProcessMusic+0x130>
						playSong=false;
    5898:	10 92 60 08 	sts	0x0860, r1
						break;	
    589c:	9c c0       	rjmp	.+312    	; 0x59d6 <ProcessMusic+0x268>
					}else if(c1==0x6){ //marker
    589e:	66 30       	cpi	r22, 0x06	; 6
    58a0:	09 f0       	breq	.+2      	; 0x58a4 <ProcessMusic+0x136>
    58a2:	8c c0       	rjmp	.+280    	; 0x59bc <ProcessMusic+0x24e>
						c1=pgm_read_byte(songPos++); //read len
    58a4:	fa 01       	movw	r30, r20
    58a6:	44 91       	lpm	r20, Z
						c2=pgm_read_byte(songPos++); //read data
    58a8:	c9 01       	movw	r24, r18
    58aa:	04 96       	adiw	r24, 0x04	; 4
    58ac:	90 93 f3 0a 	sts	0x0AF3, r25
    58b0:	80 93 f2 0a 	sts	0x0AF2, r24
				
					if(c1==0x2f){ //end of song
						playSong=false;
						break;	
					}else if(c1==0x6){ //marker
						c1=pgm_read_byte(songPos++); //read len
    58b4:	f9 01       	movw	r30, r18
    58b6:	33 96       	adiw	r30, 0x03	; 3
						c2=pgm_read_byte(songPos++); //read data
    58b8:	e4 91       	lpm	r30, Z
						if(c2=='S'){ //loop start
    58ba:	e3 35       	cpi	r30, 0x53	; 83
    58bc:	29 f4       	brne	.+10     	; 0x58c8 <ProcessMusic+0x15a>
							loopStart=songPos;
    58be:	90 93 f5 0a 	sts	0x0AF5, r25
    58c2:	80 93 f4 0a 	sts	0x0AF4, r24
    58c6:	7a c0       	rjmp	.+244    	; 0x59bc <ProcessMusic+0x24e>
						}else if(c2=='E'){//loop end
    58c8:	e5 34       	cpi	r30, 0x45	; 69
    58ca:	09 f0       	breq	.+2      	; 0x58ce <ProcessMusic+0x160>
    58cc:	77 c0       	rjmp	.+238    	; 0x59bc <ProcessMusic+0x24e>
							songPos=loopStart;
    58ce:	80 91 f4 0a 	lds	r24, 0x0AF4
    58d2:	90 91 f5 0a 	lds	r25, 0x0AF5
    58d6:	90 93 f3 0a 	sts	0x0AF3, r25
    58da:	80 93 f2 0a 	sts	0x0AF2, r24
    58de:	6e c0       	rjmp	.+220    	; 0x59bc <ProcessMusic+0x24e>
					}
				

				}else{

					if(c1&0x80) lastStatus=c1;					
    58e0:	47 fd       	sbrc	r20, 7
    58e2:	40 93 ed 0a 	sts	0x0AED, r20
					channel=lastStatus&0x0f;
    58e6:	90 91 ed 0a 	lds	r25, 0x0AED
    58ea:	89 2f       	mov	r24, r25
    58ec:	8f 70       	andi	r24, 0x0F	; 15
				
					//get next data byte
					//Note: maybe we should not advance the cursor
					//in case we receive an unsupported command				
					if(c1&0x80) c1=pgm_read_byte(songPos++); 
    58ee:	47 ff       	sbrs	r20, 7
    58f0:	08 c0       	rjmp	.+16     	; 0x5902 <ProcessMusic+0x194>
    58f2:	2e 5f       	subi	r18, 0xFE	; 254
    58f4:	3f 4f       	sbci	r19, 0xFF	; 255
    58f6:	30 93 f3 0a 	sts	0x0AF3, r19
    58fa:	20 93 f2 0a 	sts	0x0AF2, r18
    58fe:	fb 01       	movw	r30, r22
    5900:	44 91       	lpm	r20, Z

					switch(lastStatus&0xf0){
    5902:	90 7f       	andi	r25, 0xF0	; 240
    5904:	90 3b       	cpi	r25, 0xB0	; 176
    5906:	e1 f0       	breq	.+56     	; 0x5940 <ProcessMusic+0x1d2>
    5908:	90 3c       	cpi	r25, 0xC0	; 192
    590a:	09 f4       	brne	.+2      	; 0x590e <ProcessMusic+0x1a0>
    590c:	51 c0       	rjmp	.+162    	; 0x59b0 <ProcessMusic+0x242>
    590e:	90 39       	cpi	r25, 0x90	; 144
    5910:	09 f0       	breq	.+2      	; 0x5914 <ProcessMusic+0x1a6>
    5912:	54 c0       	rjmp	.+168    	; 0x59bc <ProcessMusic+0x24e>

						//note-on
						case 0x90:
							//c1 = note						
							c2=pgm_read_byte(songPos++)<<1; //get volume
    5914:	e0 91 f2 0a 	lds	r30, 0x0AF2
    5918:	f0 91 f3 0a 	lds	r31, 0x0AF3
    591c:	9f 01       	movw	r18, r30
    591e:	2f 5f       	subi	r18, 0xFF	; 255
    5920:	3f 4f       	sbci	r19, 0xFF	; 255
    5922:	30 93 f3 0a 	sts	0x0AF3, r19
    5926:	20 93 f2 0a 	sts	0x0AF2, r18
    592a:	24 91       	lpm	r18, Z
    592c:	22 0f       	add	r18, r18
						
							if(tracks[channel].flags|TRACK_FLAGS_ALLOCATED){ //allocated==true
								TriggerNote(channel,tracks[channel].patchNo,c1,c2);
    592e:	18 9f       	mul	r17, r24
    5930:	f0 01       	movw	r30, r0
    5932:	11 24       	eor	r1, r1
    5934:	ef 56       	subi	r30, 0x6F	; 111
    5936:	f5 4f       	sbci	r31, 0xF5	; 245
    5938:	66 85       	ldd	r22, Z+14	; 0x0e
    593a:	0e 94 80 2b 	call	0x5700	; 0x5700 <TriggerNote>
    593e:	3e c0       	rjmp	.+124    	; 0x59bc <ProcessMusic+0x24e>
							break;

						//controllers
						case 0xb0:
							///c1 = controller #
							c2=pgm_read_byte(songPos++); //get controller value
    5940:	e0 91 f2 0a 	lds	r30, 0x0AF2
    5944:	f0 91 f3 0a 	lds	r31, 0x0AF3
    5948:	9f 01       	movw	r18, r30
    594a:	2f 5f       	subi	r18, 0xFF	; 255
    594c:	3f 4f       	sbci	r19, 0xFF	; 255
    594e:	30 93 f3 0a 	sts	0x0AF3, r19
    5952:	20 93 f2 0a 	sts	0x0AF2, r18
    5956:	e4 91       	lpm	r30, Z
						
							if(c1==CONTROLER_VOL){
    5958:	47 30       	cpi	r20, 0x07	; 7
    595a:	49 f4       	brne	.+18     	; 0x596e <ProcessMusic+0x200>
								tracks[channel].trackVol=c2<<1;
    595c:	18 9f       	mul	r17, r24
    595e:	d0 01       	movw	r26, r0
    5960:	11 24       	eor	r1, r1
    5962:	af 56       	subi	r26, 0x6F	; 111
    5964:	b5 4f       	sbci	r27, 0xF5	; 245
    5966:	ee 0f       	add	r30, r30
    5968:	1a 96       	adiw	r26, 0x0a	; 10
    596a:	ec 93       	st	X, r30
    596c:	27 c0       	rjmp	.+78     	; 0x59bc <ProcessMusic+0x24e>
							}else if(c1==CONTROLER_EXPRESSION){
    596e:	4b 30       	cpi	r20, 0x0B	; 11
    5970:	49 f4       	brne	.+18     	; 0x5984 <ProcessMusic+0x216>
								tracks[channel].expressionVol=c2<<1;
    5972:	18 9f       	mul	r17, r24
    5974:	d0 01       	movw	r26, r0
    5976:	11 24       	eor	r1, r1
    5978:	af 56       	subi	r26, 0x6F	; 111
    597a:	b5 4f       	sbci	r27, 0xF5	; 245
    597c:	ee 0f       	add	r30, r30
    597e:	19 96       	adiw	r26, 0x09	; 9
    5980:	ec 93       	st	X, r30
    5982:	1c c0       	rjmp	.+56     	; 0x59bc <ProcessMusic+0x24e>
							}else if(c1==CONTROLER_TREMOLO){
    5984:	4c 35       	cpi	r20, 0x5C	; 92
    5986:	49 f4       	brne	.+18     	; 0x599a <ProcessMusic+0x22c>
								tracks[channel].tremoloLevel=c2<<1;
    5988:	18 9f       	mul	r17, r24
    598a:	d0 01       	movw	r26, r0
    598c:	11 24       	eor	r1, r1
    598e:	af 56       	subi	r26, 0x6F	; 111
    5990:	b5 4f       	sbci	r27, 0xF5	; 245
    5992:	ee 0f       	add	r30, r30
    5994:	17 96       	adiw	r26, 0x07	; 7
    5996:	ec 93       	st	X, r30
    5998:	11 c0       	rjmp	.+34     	; 0x59bc <ProcessMusic+0x24e>
							}else if(c1==CONTROLER_TREMOLO_RATE){
    599a:	44 36       	cpi	r20, 0x64	; 100
    599c:	79 f4       	brne	.+30     	; 0x59bc <ProcessMusic+0x24e>
								tracks[channel].tremoloRate=c2<<1;
    599e:	18 9f       	mul	r17, r24
    59a0:	d0 01       	movw	r26, r0
    59a2:	11 24       	eor	r1, r1
    59a4:	af 56       	subi	r26, 0x6F	; 111
    59a6:	b5 4f       	sbci	r27, 0xF5	; 245
    59a8:	ee 0f       	add	r30, r30
    59aa:	18 96       	adiw	r26, 0x08	; 8
    59ac:	ec 93       	st	X, r30
    59ae:	06 c0       	rjmp	.+12     	; 0x59bc <ProcessMusic+0x24e>
							break;

						//program change
						case 0xc0:
							// c1 = patch #						
							tracks[channel].patchNo=c1;
    59b0:	18 9f       	mul	r17, r24
    59b2:	f0 01       	movw	r30, r0
    59b4:	11 24       	eor	r1, r1
    59b6:	ef 56       	subi	r30, 0x6F	; 111
    59b8:	f5 4f       	sbci	r31, 0xF5	; 245
    59ba:	46 87       	std	Z+14, r20	; 0x0e


				}//end if(c1==0xff)

				//read next delta time
				nextDeltaTime=ReadVarLen(&songPos);			
    59bc:	82 ef       	ldi	r24, 0xF2	; 242
    59be:	9a e0       	ldi	r25, 0x0A	; 10
    59c0:	0e 94 b9 2a 	call	0x5572	; 0x5572 <ReadVarLen>
    59c4:	90 93 f0 0a 	sts	0x0AF0, r25
    59c8:	80 93 ef 0a 	sts	0x0AEF, r24
				currDeltaTime=0;
    59cc:	10 92 ea 0a 	sts	0x0AEA, r1
    59d0:	10 92 e9 0a 	sts	0x0AE9, r1
    59d4:	3b cf       	rjmp	.-394    	; 0x584c <ProcessMusic+0xde>
					}
				#endif

			}//end while
		
			currDeltaTime++;
    59d6:	01 96       	adiw	r24, 0x01	; 1
    59d8:	90 93 ea 0a 	sts	0x0AEA, r25
    59dc:	80 93 e9 0a 	sts	0x0AE9, r24
    59e0:	97 e9       	ldi	r25, 0x97	; 151
    59e2:	a9 2e       	mov	r10, r25
    59e4:	9a e0       	ldi	r25, 0x0A	; 10
    59e6:	b9 2e       	mov	r11, r25
    59e8:	03 ea       	ldi	r16, 0xA3	; 163
    59ea:	1a e0       	ldi	r17, 0x0A	; 10
    59ec:	22 ea       	ldi	r18, 0xA2	; 162
    59ee:	c2 2e       	mov	r12, r18
    59f0:	2a e0       	ldi	r18, 0x0A	; 10
    59f2:	d2 2e       	mov	r13, r18
    59f4:	34 ea       	ldi	r19, 0xA4	; 164
    59f6:	83 2e       	mov	r8, r19
    59f8:	3a e0       	ldi	r19, 0x0A	; 10
    59fa:	93 2e       	mov	r9, r19
	}

#endif


void ProcessMusic(void){
    59fc:	51 2c       	mov	r5, r1
					tmp-=128; //convert to unsigned

					tVol=(track->tremoloLevel*tmp)+0x100;
					tVol>>=8;
					
					uVol=(uVol*(0xff-tVol))+0x100;
    59fe:	66 24       	eor	r6, r6
    5a00:	6a 94       	dec	r6
    5a02:	71 2c       	mov	r7, r1
	//	
	for(unsigned char trackNo=0;trackNo<CHANNELS;trackNo++){
		track=&tracks[trackNo];

		//process patch command stream
		if((track->flags & TRACK_FLAGS_HOLD_ENV)==0){	//patchEnvelopeHold==false
    5a04:	88 81       	ld	r24, Y
    5a06:	86 fd       	sbrc	r24, 6
    5a08:	43 c0       	rjmp	.+134    	; 0x5a90 <ProcessMusic+0x322>

			if(track->patchCommandStreamPos!=NULL && 
    5a0a:	8c 89       	ldd	r24, Y+20	; 0x14
    5a0c:	9d 89       	ldd	r25, Y+21	; 0x15
    5a0e:	89 2b       	or	r24, r25
    5a10:	09 f4       	brne	.+2      	; 0x5a14 <ProcessMusic+0x2a6>
    5a12:	3a c0       	rjmp	.+116    	; 0x5a88 <ProcessMusic+0x31a>
    5a14:	d8 01       	movw	r26, r16
    5a16:	9c 91       	ld	r25, X
    5a18:	f6 01       	movw	r30, r12
    5a1a:	80 81       	ld	r24, Z
    5a1c:	98 17       	cp	r25, r24
    5a1e:	08 f4       	brcc	.+2      	; 0x5a22 <ProcessMusic+0x2b4>
    5a20:	33 c0       	rjmp	.+102    	; 0x5a88 <ProcessMusic+0x31a>
				track->patchCurrDeltaTime>=track->patchNextDeltaTime){			

				//process all simultaneous events
				while(track->patchCurrDeltaTime==track->patchNextDeltaTime){	
    5a22:	d8 01       	movw	r26, r16
    5a24:	9c 91       	ld	r25, X
    5a26:	f6 01       	movw	r30, r12
    5a28:	80 81       	ld	r24, Z
    5a2a:	98 13       	cpse	r25, r24
    5a2c:	2d c0       	rjmp	.+90     	; 0x5a88 <ProcessMusic+0x31a>
					
					c1=pgm_read_byte(track->patchCommandStreamPos++);
    5a2e:	ec 89       	ldd	r30, Y+20	; 0x14
    5a30:	fd 89       	ldd	r31, Y+21	; 0x15
    5a32:	af 01       	movw	r20, r30
    5a34:	4f 5f       	subi	r20, 0xFF	; 255
    5a36:	5f 4f       	sbci	r21, 0xFF	; 255
    5a38:	5d 8b       	std	Y+21, r21	; 0x15
    5a3a:	4c 8b       	std	Y+20, r20	; 0x14
    5a3c:	84 91       	lpm	r24, Z
					if(c1==0xff){					
    5a3e:	8f 3f       	cpi	r24, 0xFF	; 255
    5a40:	31 f4       	brne	.+12     	; 0x5a4e <ProcessMusic+0x2e0>
						//end of stream!
						track->flags&=(~TRACK_FLAGS_PRIORITY);// priority=0;
    5a42:	88 81       	ld	r24, Y
    5a44:	8f 77       	andi	r24, 0x7F	; 127
    5a46:	88 83       	st	Y, r24
						track->patchCommandStreamPos=NULL;
    5a48:	1d 8a       	std	Y+21, r1	; 0x15
    5a4a:	1c 8a       	std	Y+20, r1	; 0x14
						break;
    5a4c:	1d c0       	rjmp	.+58     	; 0x5a88 <ProcessMusic+0x31a>

					}else{
						c2=pgm_read_byte(track->patchCommandStreamPos++);
    5a4e:	32 96       	adiw	r30, 0x02	; 2
    5a50:	fd 8b       	std	Y+21, r31	; 0x15
    5a52:	ec 8b       	std	Y+20, r30	; 0x14
    5a54:	fa 01       	movw	r30, r20
    5a56:	44 91       	lpm	r20, Z
						//invoke patch command function
						( (PatchCommand)pgm_read_word(&patchCommands[c1]) )(track,trackNo,c2);				
    5a58:	e8 2f       	mov	r30, r24
    5a5a:	f0 e0       	ldi	r31, 0x00	; 0
    5a5c:	ee 0f       	add	r30, r30
    5a5e:	ff 1f       	adc	r31, r31
    5a60:	e2 54       	subi	r30, 0x42	; 66
    5a62:	ff 4f       	sbci	r31, 0xFF	; 255
    5a64:	25 91       	lpm	r18, Z+
    5a66:	34 91       	lpm	r19, Z
    5a68:	65 2d       	mov	r22, r5
    5a6a:	ce 01       	movw	r24, r28
    5a6c:	f9 01       	movw	r30, r18
    5a6e:	09 95       	icall
					}			
			
					//read next delta time
					track->patchNextDeltaTime=pgm_read_byte(track->patchCommandStreamPos++);						
    5a70:	ec 89       	ldd	r30, Y+20	; 0x14
    5a72:	fd 89       	ldd	r31, Y+21	; 0x15
    5a74:	cf 01       	movw	r24, r30
    5a76:	01 96       	adiw	r24, 0x01	; 1
    5a78:	9d 8b       	std	Y+21, r25	; 0x15
    5a7a:	8c 8b       	std	Y+20, r24	; 0x14
    5a7c:	e4 91       	lpm	r30, Z
    5a7e:	d6 01       	movw	r26, r12
    5a80:	ec 93       	st	X, r30
					
					track->patchCurrDeltaTime=0;	
    5a82:	f8 01       	movw	r30, r16
    5a84:	10 82       	st	Z, r1
    5a86:	cd cf       	rjmp	.-102    	; 0x5a22 <ProcessMusic+0x2b4>

				}		
			}				
			
			track->patchCurrDeltaTime++;
    5a88:	d8 01       	movw	r26, r16
    5a8a:	8c 91       	ld	r24, X
    5a8c:	8f 5f       	subi	r24, 0xFF	; 255
    5a8e:	8c 93       	st	X, r24
		}
	


		if(track->flags & TRACK_FLAGS_PLAYING){
    5a90:	98 81       	ld	r25, Y
    5a92:	95 ff       	sbrs	r25, 5
    5a94:	6c c0       	rjmp	.+216    	; 0x5b6e <ProcessMusic+0x400>
		
			if(track->patchPlayingTime<0xff){
    5a96:	f4 01       	movw	r30, r8
    5a98:	80 81       	ld	r24, Z
    5a9a:	8f 3f       	cpi	r24, 0xFF	; 255
    5a9c:	11 f0       	breq	.+4      	; 0x5aa2 <ProcessMusic+0x334>
				track->patchPlayingTime++;
    5a9e:	8f 5f       	subi	r24, 0xFF	; 255
    5aa0:	80 83       	st	Z, r24
			}

			//compute final frame volume
			if(track->flags&TRACK_FLAGS_PRIORITY){
    5aa2:	97 fd       	sbrc	r25, 7
    5aa4:	04 c0       	rjmp	.+8      	; 0x5aae <ProcessMusic+0x340>
    5aa6:	f8 01       	movw	r30, r16
    5aa8:	38 97       	sbiw	r30, 0x08	; 8
				//if an FX, use full track volume.
				trackVol=0xff;
			}else{
				//if regular note, apply MIDI track volume
				trackVol= track->trackVol;
    5aaa:	90 81       	ld	r25, Z
    5aac:	01 c0       	rjmp	.+2      	; 0x5ab0 <ProcessMusic+0x342>
			}

			//compute final frame volume
			if(track->flags&TRACK_FLAGS_PRIORITY){
				//if an FX, use full track volume.
				trackVol=0xff;
    5aae:	9f ef       	ldi	r25, 0xFF	; 255
    5ab0:	f8 01       	movw	r30, r16
    5ab2:	37 97       	sbiw	r30, 0x07	; 7
			}else{
				//if regular note, apply MIDI track volume
				trackVol= track->trackVol;
			}
			if(track->noteVol!=0 && track->envelopeVol!=0 && trackVol!=0 && masterVolume!=0){
    5ab4:	80 81       	ld	r24, Z
    5ab6:	88 23       	and	r24, r24
    5ab8:	09 f4       	brne	.+2      	; 0x5abc <ProcessMusic+0x34e>
    5aba:	4e c0       	rjmp	.+156    	; 0x5b58 <ProcessMusic+0x3ea>
    5abc:	31 96       	adiw	r30, 0x01	; 1
    5abe:	50 81       	ld	r21, Z
    5ac0:	55 23       	and	r21, r21
    5ac2:	09 f4       	brne	.+2      	; 0x5ac6 <ProcessMusic+0x358>
    5ac4:	49 c0       	rjmp	.+146    	; 0x5b58 <ProcessMusic+0x3ea>
    5ac6:	99 23       	and	r25, r25
    5ac8:	09 f4       	brne	.+2      	; 0x5acc <ProcessMusic+0x35e>
    5aca:	46 c0       	rjmp	.+140    	; 0x5b58 <ProcessMusic+0x3ea>
    5acc:	40 91 ee 0a 	lds	r20, 0x0AEE
    5ad0:	44 23       	and	r20, r20
    5ad2:	09 f4       	brne	.+2      	; 0x5ad6 <ProcessMusic+0x368>
    5ad4:	41 c0       	rjmp	.+130    	; 0x5b58 <ProcessMusic+0x3ea>

				uVol=(track->noteVol*trackVol)+0x100;
    5ad6:	89 9f       	mul	r24, r25
    5ad8:	c0 01       	movw	r24, r0
    5ada:	11 24       	eor	r1, r1
    5adc:	93 95       	inc	r25
				uVol>>=8;
    5ade:	89 2f       	mov	r24, r25
    5ae0:	99 27       	eor	r25, r25
				uVol=(uVol*track->envelopeVol)+0x100;
    5ae2:	58 9f       	mul	r21, r24
    5ae4:	90 01       	movw	r18, r0
    5ae6:	59 9f       	mul	r21, r25
    5ae8:	30 0d       	add	r19, r0
    5aea:	11 24       	eor	r1, r1
    5aec:	c9 01       	movw	r24, r18
    5aee:	93 95       	inc	r25
				uVol>>=8;
    5af0:	89 2f       	mov	r24, r25
    5af2:	99 27       	eor	r25, r25
    5af4:	33 97       	sbiw	r30, 0x03	; 3
				uVol=(uVol*track->expressionVol)+0x100;
    5af6:	50 81       	ld	r21, Z
    5af8:	58 9f       	mul	r21, r24
    5afa:	90 01       	movw	r18, r0
    5afc:	59 9f       	mul	r21, r25
    5afe:	30 0d       	add	r19, r0
    5b00:	11 24       	eor	r1, r1
    5b02:	33 95       	inc	r19
				uVol>>=8;
    5b04:	23 2f       	mov	r18, r19
    5b06:	33 27       	eor	r19, r19
				uVol=(uVol*masterVolume)+0x100;
    5b08:	42 9f       	mul	r20, r18
    5b0a:	c0 01       	movw	r24, r0
    5b0c:	43 9f       	mul	r20, r19
    5b0e:	90 0d       	add	r25, r0
    5b10:	11 24       	eor	r1, r1
    5b12:	93 95       	inc	r25
				uVol>>=8;
    5b14:	89 2f       	mov	r24, r25
    5b16:	99 27       	eor	r25, r25
    5b18:	32 97       	sbiw	r30, 0x02	; 2

				if(track->tremoloLevel>0){					
    5b1a:	20 81       	ld	r18, Z
    5b1c:	22 23       	and	r18, r18
    5b1e:	f1 f0       	breq	.+60     	; 0x5b5c <ProcessMusic+0x3ee>
					tmp=pgm_read_byte(&(waves[track->tremoloPos]));
    5b20:	d5 01       	movw	r26, r10
    5b22:	ec 91       	ld	r30, X
    5b24:	f0 e0       	ldi	r31, 0x00	; 0
    5b26:	e0 50       	subi	r30, 0x00	; 0
    5b28:	f1 4a       	sbci	r31, 0xA1	; 161
    5b2a:	e4 91       	lpm	r30, Z
					tmp-=128; //convert to unsigned
    5b2c:	e0 58       	subi	r30, 0x80	; 128

					tVol=(track->tremoloLevel*tmp)+0x100;
    5b2e:	2e 9f       	mul	r18, r30
    5b30:	f0 01       	movw	r30, r0
    5b32:	11 24       	eor	r1, r1
    5b34:	f3 95       	inc	r31
					tVol>>=8;
    5b36:	ef 2f       	mov	r30, r31
    5b38:	ff 27       	eor	r31, r31
					
					uVol=(uVol*(0xff-tVol))+0x100;
    5b3a:	a3 01       	movw	r20, r6
    5b3c:	4e 1b       	sub	r20, r30
    5b3e:	5f 0b       	sbc	r21, r31
    5b40:	48 9f       	mul	r20, r24
    5b42:	90 01       	movw	r18, r0
    5b44:	49 9f       	mul	r20, r25
    5b46:	30 0d       	add	r19, r0
    5b48:	58 9f       	mul	r21, r24
    5b4a:	30 0d       	add	r19, r0
    5b4c:	11 24       	eor	r1, r1
    5b4e:	c9 01       	movw	r24, r18
    5b50:	93 95       	inc	r25
					uVol>>=8;
    5b52:	89 2f       	mov	r24, r25
    5b54:	99 27       	eor	r25, r25
    5b56:	02 c0       	rjmp	.+4      	; 0x5b5c <ProcessMusic+0x3ee>
				}

			
			}else{
				uVol=0;
    5b58:	80 e0       	ldi	r24, 0x00	; 0
    5b5a:	90 e0       	ldi	r25, 0x00	; 0
			}	

			track->tremoloPos+=track->tremoloRate;	
    5b5c:	f5 01       	movw	r30, r10
    5b5e:	30 81       	ld	r19, Z
    5b60:	f8 01       	movw	r30, r16
    5b62:	3a 97       	sbiw	r30, 0x0a	; 10
    5b64:	20 81       	ld	r18, Z
    5b66:	23 0f       	add	r18, r19
    5b68:	d5 01       	movw	r26, r10
    5b6a:	2c 93       	st	X, r18
    5b6c:	02 c0       	rjmp	.+4      	; 0x5b72 <ProcessMusic+0x404>

		}else{
			uVol=0;
    5b6e:	80 e0       	ldi	r24, 0x00	; 0
    5b70:	90 e0       	ldi	r25, 0x00	; 0
		}
		
		mixer.channels.all[trackNo].volume=(uVol&0xff);
    5b72:	f7 01       	movw	r30, r14
    5b74:	80 83       	st	Z, r24


	//
	// Process patches command streams & final volume
	//	
	for(unsigned char trackNo=0;trackNo<CHANNELS;trackNo++){
    5b76:	53 94       	inc	r5
    5b78:	66 96       	adiw	r28, 0x16	; 22
    5b7a:	f6 e0       	ldi	r31, 0x06	; 6
    5b7c:	ef 0e       	add	r14, r31
    5b7e:	f1 1c       	adc	r15, r1
    5b80:	86 e1       	ldi	r24, 0x16	; 22
    5b82:	a8 0e       	add	r10, r24
    5b84:	b1 1c       	adc	r11, r1
    5b86:	0a 5e       	subi	r16, 0xEA	; 234
    5b88:	1f 4f       	sbci	r17, 0xFF	; 255
    5b8a:	96 e1       	ldi	r25, 0x16	; 22
    5b8c:	c9 0e       	add	r12, r25
    5b8e:	d1 1c       	adc	r13, r1
    5b90:	a6 e1       	ldi	r26, 0x16	; 22
    5b92:	8a 0e       	add	r8, r26
    5b94:	91 1c       	adc	r9, r1
    5b96:	b4 e0       	ldi	r27, 0x04	; 4
    5b98:	5b 12       	cpse	r5, r27
    5b9a:	34 cf       	rjmp	.-408    	; 0x5a04 <ProcessMusic+0x296>
		}
		
		mixer.channels.all[trackNo].volume=(uVol&0xff);
	}
	
}
    5b9c:	df 91       	pop	r29
    5b9e:	cf 91       	pop	r28
    5ba0:	1f 91       	pop	r17
    5ba2:	0f 91       	pop	r16
    5ba4:	ff 90       	pop	r15
    5ba6:	ef 90       	pop	r14
    5ba8:	df 90       	pop	r13
    5baa:	cf 90       	pop	r12
    5bac:	bf 90       	pop	r11
    5bae:	af 90       	pop	r10
    5bb0:	9f 90       	pop	r9
    5bb2:	8f 90       	pop	r8
    5bb4:	7f 90       	pop	r7
    5bb6:	6f 90       	pop	r6
    5bb8:	5f 90       	pop	r5
    5bba:	08 95       	ret

00005bbc <SetMasterVolume>:
}



void SetMasterVolume(unsigned char vol){
	masterVolume=vol;
    5bbc:	80 93 ee 0a 	sts	0x0AEE, r24
    5bc0:	08 95       	ret

00005bc2 <SetMixerNote>:
; r22: -MIDI note, 69=A5(440) for waves channels (0,1,2)
;      -Noise params for channel 3
;***********************
.section .text.SetMixerNote
SetMixerNote:
	clr r25
    5bc2:	99 27       	eor	r25, r25
	clr r23
    5bc4:	77 27       	eor	r23, r23

00005bc6 <set_note_waves>:
	#endif
#endif

set_note_waves:
	;get step for note
	ldi ZL,lo8(steptable)
    5bc6:	e8 e0       	ldi	r30, 0x08	; 8
	ldi ZH,hi8(steptable)
    5bc8:	fd e5       	ldi	r31, 0x5D	; 93
	lsl r22
    5bca:	66 0f       	add	r22, r22
	rol r23
    5bcc:	77 1f       	adc	r23, r23
	add ZL,r22
    5bce:	e6 0f       	add	r30, r22
	adc ZH,r23	
    5bd0:	f7 1f       	adc	r31, r23

	lpm r26,Z+
    5bd2:	a5 91       	lpm	r26, Z+
	lpm r27,Z
    5bd4:	b4 91       	lpm	r27, Z

	ldi ZL,lo8(mixerStruct)
    5bd6:	e2 e7       	ldi	r30, 0x72	; 114
	ldi ZH,hi8(mixerStruct)
    5bd8:	fa e0       	ldi	r31, 0x0A	; 10
	ldi r18,CHANNEL_STRUCT_SIZE
    5bda:	26 e0       	ldi	r18, 0x06	; 6
	mul r18,r24
    5bdc:	28 9f       	mul	r18, r24
	add ZL,r0
    5bde:	e0 0d       	add	r30, r0
	adc ZH,r1
    5be0:	f1 1d       	adc	r31, r1
	
	std Z+step_lo,r26
    5be2:	a1 83       	std	Z+1, r26	; 0x01
	std Z+step_hi,r27
    5be4:	b2 83       	std	Z+2, r27	; 0x02
	
	clr r1
    5be6:	11 24       	eor	r1, r1
	

	ret
    5be8:	08 95       	ret

00005bea <SetMixerWave>:
;         Noise channel: 0xfe=7 bit lfsr, 0xff=15 bit lfsr
;                 
;***********************
.section .text.SetMixerWave
SetMixerWave:
	clr r25
    5bea:	99 27       	eor	r25, r25
	clr r23
    5bec:	77 27       	eor	r23, r23

	ldi ZL,lo8(mixerStruct)
    5bee:	e2 e7       	ldi	r30, 0x72	; 114
	ldi ZH,hi8(mixerStruct)
    5bf0:	fa e0       	ldi	r31, 0x0A	; 10
	ldi r18,CHANNEL_STRUCT_SIZE
    5bf2:	26 e0       	ldi	r18, 0x06	; 6
	mul r18,r24	
    5bf4:	28 9f       	mul	r18, r24
	add ZL,r0
    5bf6:	e0 0d       	add	r30, r0
	adc ZH,r1
    5bf8:	f1 1d       	adc	r31, r1
	sts tr4_params,r22	
	rjmp esmw
smw2:
#endif

	ldi r23,hi8(waves)
    5bfa:	7f e5       	ldi	r23, 0x5F	; 95
	add r23,r22
    5bfc:	76 0f       	add	r23, r22
	std Z+samplepos_hi,r23 ;store path No
    5bfe:	75 83       	std	Z+5, r23	; 0x05

00005c00 <esmw>:

esmw:
	clr r1	
    5c00:	11 24       	eor	r1, r1
	ret
    5c02:	08 95       	ret
	...

00005d00 <DisableSoundEngine>:
; no CPU cycles are consumed.
; C-callable
;*****************************
.section .text.DisableSoundEngine
DisableSoundEngine:	
	ldi r24,0
    5d00:	80 e0       	ldi	r24, 0x00	; 0
	sts sound_enabled,r24
    5d02:	80 93 71 0a 	sts	0x0A71, r24
	ret
    5d06:	08 95       	ret

00005d08 <steptable>:
    5d08:	22 00       	.word	0x0022	; ????
    5d0a:	24 00       	.word	0x0024	; ????
    5d0c:	26 00       	.word	0x0026	; ????
    5d0e:	28 00       	.word	0x0028	; ????
    5d10:	2b 00       	.word	0x002b	; ????
    5d12:	2d 00       	.word	0x002d	; ????
    5d14:	30 00       	.word	0x0030	; ????
    5d16:	33 00       	.word	0x0033	; ????
    5d18:	36 00       	.word	0x0036	; ????
    5d1a:	39 00       	.word	0x0039	; ????
    5d1c:	3d 00       	.word	0x003d	; ????
    5d1e:	40 00       	.word	0x0040	; ????
    5d20:	44 00       	.word	0x0044	; ????
    5d22:	48 00       	.word	0x0048	; ????
    5d24:	4c 00       	.word	0x004c	; ????
    5d26:	51 00       	.word	0x0051	; ????
    5d28:	56 00       	.word	0x0056	; ????
    5d2a:	5b 00       	.word	0x005b	; ????
    5d2c:	60 00       	.word	0x0060	; ????
    5d2e:	66 00       	.word	0x0066	; ????
    5d30:	6c 00       	.word	0x006c	; ????
    5d32:	73 00       	.word	0x0073	; ????
    5d34:	79 00       	.word	0x0079	; ????
    5d36:	81 00       	.word	0x0081	; ????
    5d38:	88 00       	.word	0x0088	; ????
    5d3a:	90 00       	.word	0x0090	; ????
    5d3c:	99 00       	.word	0x0099	; ????
    5d3e:	a2 00       	.word	0x00a2	; ????
    5d40:	ac 00       	.word	0x00ac	; ????
    5d42:	b6 00       	.word	0x00b6	; ????
    5d44:	c1 00       	.word	0x00c1	; ????
    5d46:	cc 00       	.word	0x00cc	; ????
    5d48:	d8 00       	.word	0x00d8	; ????
    5d4a:	e5 00       	.word	0x00e5	; ????
    5d4c:	f3 00       	.word	0x00f3	; ????
    5d4e:	01 01       	movw	r0, r2
    5d50:	10 01       	movw	r2, r0
    5d52:	21 01       	movw	r4, r2
    5d54:	32 01       	movw	r6, r4
    5d56:	44 01       	movw	r8, r8
    5d58:	57 01       	movw	r10, r14
    5d5a:	6c 01       	movw	r12, r24
    5d5c:	81 01       	movw	r16, r2
    5d5e:	98 01       	movw	r18, r16
    5d60:	b0 01       	movw	r22, r0
    5d62:	ca 01       	movw	r24, r20
    5d64:	e5 01       	movw	r28, r10
    5d66:	02 02       	muls	r16, r18
    5d68:	21 02       	muls	r18, r17
    5d6a:	41 02       	muls	r20, r17
    5d6c:	64 02       	muls	r22, r20
    5d6e:	88 02       	muls	r24, r24
    5d70:	ae 02       	muls	r26, r30
    5d72:	d7 02       	muls	r29, r23
    5d74:	03 03       	mulsu	r16, r19
    5d76:	30 03       	mulsu	r19, r16
    5d78:	61 03       	mulsu	r22, r17
    5d7a:	94 03       	fmuls	r17, r20
    5d7c:	cb 03       	fmulsu	r20, r19
    5d7e:	05 04       	cpc	r0, r5
    5d80:	42 04       	cpc	r4, r2
    5d82:	83 04       	cpc	r8, r3
    5d84:	c7 04       	cpc	r12, r7
    5d86:	10 05       	cpc	r17, r0
    5d88:	5d 05       	cpc	r21, r13
    5d8a:	af 05       	cpc	r26, r15
    5d8c:	05 06       	cpc	r0, r21
    5d8e:	61 06       	cpc	r6, r17
    5d90:	c2 06       	cpc	r12, r18
    5d92:	29 07       	cpc	r18, r25
    5d94:	96 07       	cpc	r25, r22
    5d96:	09 08       	sbc	r0, r9
    5d98:	83 08       	sbc	r8, r3
    5d9a:	05 09       	sbc	r16, r5
    5d9c:	8e 09       	sbc	r24, r14
    5d9e:	20 0a       	sbc	r2, r16
    5da0:	ba 0a       	sbc	r11, r26
    5da2:	5d 0b       	sbc	r21, r29
    5da4:	0a 0c       	add	r0, r10
    5da6:	c1 0c       	add	r12, r1
    5da8:	84 0d       	add	r24, r4
    5daa:	51 0e       	add	r5, r17
    5dac:	2b 0f       	add	r18, r27
    5dae:	12 10       	cpse	r1, r2
    5db0:	07 11       	cpse	r16, r7
    5db2:	0a 12       	cpse	r0, r26
    5db4:	1d 13       	cpse	r17, r29
    5db6:	40 14       	cp	r4, r0
    5db8:	74 15       	cp	r23, r4
    5dba:	ba 16       	cp	r11, r26
    5dbc:	14 18       	sub	r1, r4
    5dbe:	83 19       	sub	r24, r3
    5dc0:	07 1b       	sub	r16, r23
    5dc2:	a3 1c       	adc	r10, r3
    5dc4:	57 1e       	adc	r5, r23
    5dc6:	24 20       	and	r2, r4
    5dc8:	0e 22       	and	r0, r30
    5dca:	14 24       	eor	r1, r4
    5dcc:	39 26       	eor	r3, r25
    5dce:	7f 28       	or	r7, r15
    5dd0:	e8 2a       	or	r14, r24
    5dd2:	75 2d       	mov	r23, r5
    5dd4:	29 30       	cpi	r18, 0x09	; 9
    5dd6:	06 33       	cpi	r16, 0x36	; 54
    5dd8:	0f 36       	cpi	r16, 0x6F	; 111
    5dda:	45 39       	cpi	r20, 0x95	; 149
    5ddc:	ad 3c       	cpi	r26, 0xCD	; 205
    5dde:	49 40       	sbci	r20, 0x09	; 9
    5de0:	1b 44       	sbci	r17, 0x4B	; 75
    5de2:	28 48       	sbci	r18, 0x88	; 136
    5de4:	73 4c       	sbci	r23, 0xC3	; 195
    5de6:	fe 50       	subi	r31, 0x0E	; 14
    5de8:	cf 55       	subi	r28, 0x5F	; 95
    5dea:	ea 5a       	subi	r30, 0xAA	; 170
    5dec:	51 60       	ori	r21, 0x01	; 1
    5dee:	0c 66       	ori	r16, 0x6C	; 108
    5df0:	1d 6c       	ori	r17, 0xCD	; 205
    5df2:	8b 72       	andi	r24, 0x2B	; 43
    5df4:	5a 79       	andi	r21, 0x9A	; 154
    5df6:	92 80       	ldd	r9, Z+2	; 0x02
    5df8:	37 88       	ldd	r3, Z+23	; 0x17
    5dfa:	50 90 e5 98 	lds	r5, 0x98E5
    5dfe:	fd a1       	ldd	r31, Y+37	; 0x25
    5e00:	9f ab       	std	Y+55, r25	; 0x37
    5e02:	d3 b5       	in	r29, 0x23	; 35
    5e04:	a3 c0       	rjmp	.+326    	; 0x5f4c <waves+0x4c>
	...

00005f00 <waves>:
    5f00:	00 03       	mulsu	r16, r16
    5f02:	06 09       	sbc	r16, r6
    5f04:	0c 10       	cpse	r0, r12
    5f06:	13 16       	cp	r1, r19
    5f08:	19 1c       	adc	r1, r9
    5f0a:	1f 22       	and	r1, r31
    5f0c:	25 28       	or	r2, r5
    5f0e:	2b 2e       	mov	r2, r27
    5f10:	31 33       	cpi	r19, 0x31	; 49
    5f12:	36 39       	cpi	r19, 0x96	; 150
    5f14:	3c 3f       	cpi	r19, 0xFC	; 252
    5f16:	41 44       	sbci	r20, 0x41	; 65
    5f18:	47 49       	sbci	r20, 0x97	; 151
    5f1a:	4c 4e       	sbci	r20, 0xEC	; 236
    5f1c:	51 53       	subi	r21, 0x31	; 49
    5f1e:	55 58       	subi	r21, 0x85	; 133
    5f20:	5a 5c       	subi	r21, 0xCA	; 202
    5f22:	5e 60       	ori	r21, 0x0E	; 14
    5f24:	62 64       	ori	r22, 0x42	; 66
    5f26:	66 68       	ori	r22, 0x86	; 134
    5f28:	6a 6b       	ori	r22, 0xBA	; 186
    5f2a:	6d 6f       	ori	r22, 0xFD	; 253
    5f2c:	70 71       	andi	r23, 0x10	; 16
    5f2e:	73 74       	andi	r23, 0x43	; 67
    5f30:	75 76       	andi	r23, 0x65	; 101
    5f32:	78 79       	andi	r23, 0x98	; 152
    5f34:	7a 7a       	andi	r23, 0xAA	; 170
    5f36:	7b 7c       	andi	r23, 0xCB	; 203
    5f38:	7d 7d       	andi	r23, 0xDD	; 221
    5f3a:	7e 7e       	andi	r23, 0xEE	; 238
    5f3c:	7e 7f       	andi	r23, 0xFE	; 254
    5f3e:	7f 7f       	andi	r23, 0xFF	; 255
    5f40:	7f 7f       	andi	r23, 0xFF	; 255
    5f42:	7f 7f       	andi	r23, 0xFF	; 255
    5f44:	7e 7e       	andi	r23, 0xEE	; 238
    5f46:	7e 7d       	andi	r23, 0xDE	; 222
    5f48:	7d 7c       	andi	r23, 0xCD	; 205
    5f4a:	7b 7a       	andi	r23, 0xAB	; 171
    5f4c:	7a 79       	andi	r23, 0x9A	; 154
    5f4e:	78 76       	andi	r23, 0x68	; 104
    5f50:	75 74       	andi	r23, 0x45	; 69
    5f52:	73 71       	andi	r23, 0x13	; 19
    5f54:	70 6f       	ori	r23, 0xF0	; 240
    5f56:	6d 6b       	ori	r22, 0xBD	; 189
    5f58:	6a 68       	ori	r22, 0x8A	; 138
    5f5a:	66 64       	ori	r22, 0x46	; 70
    5f5c:	62 60       	ori	r22, 0x02	; 2
    5f5e:	5e 5c       	subi	r21, 0xCE	; 206
    5f60:	5a 58       	subi	r21, 0x8A	; 138
    5f62:	55 53       	subi	r21, 0x35	; 53
    5f64:	51 4e       	sbci	r21, 0xE1	; 225
    5f66:	4c 49       	sbci	r20, 0x9C	; 156
    5f68:	47 44       	sbci	r20, 0x47	; 71
    5f6a:	41 3f       	cpi	r20, 0xF1	; 241
    5f6c:	3c 39       	cpi	r19, 0x9C	; 156
    5f6e:	36 33       	cpi	r19, 0x36	; 54
    5f70:	31 2e       	mov	r3, r17
    5f72:	2b 28       	or	r2, r11
    5f74:	25 22       	and	r2, r21
    5f76:	1f 1c       	adc	r1, r15
    5f78:	19 16       	cp	r1, r25
    5f7a:	13 10       	cpse	r1, r3
    5f7c:	0c 09       	sbc	r16, r12
    5f7e:	06 03       	mulsu	r16, r22
    5f80:	00 fd       	sbrc	r16, 0
    5f82:	fa f7       	brpl	.-2      	; 0x5f82 <waves+0x82>
    5f84:	f4 f0       	brlt	.+60     	; 0x5fc2 <waves+0xc2>
    5f86:	ed ea       	ldi	r30, 0xAD	; 173
    5f88:	e7 e4       	ldi	r30, 0x47	; 71
    5f8a:	e1 de       	rcall	.-574    	; 0x5d4e <steptable+0x46>
    5f8c:	db d8       	rcall	.-3658   	; 0x5144 <ch4_loop+0x70>
    5f8e:	d5 d2       	rcall	.+1450   	; 0x653a <waves+0x63a>
    5f90:	cf cd       	rjmp	.-1122   	; 0x5b30 <ProcessMusic+0x3c2>
    5f92:	ca c7       	rjmp	.+3988   	; 0x6f28 <__data_load_end+0x6e>
    5f94:	c4 c1       	rjmp	.+904    	; 0x631e <waves+0x41e>
    5f96:	bf bc       	out	0x2f, r11	; 47
    5f98:	b9 b7       	in	r27, 0x39	; 57
    5f9a:	b4 b2       	in	r11, 0x14	; 20
    5f9c:	af ad       	ldd	r26, Y+63	; 0x3f
    5f9e:	ab a8       	ldd	r10, Y+51	; 0x33
    5fa0:	a6 a4       	ldd	r10, Z+46	; 0x2e
    5fa2:	a2 a0       	ldd	r10, Z+34	; 0x22
    5fa4:	9e 9c       	mul	r9, r14
    5fa6:	9a 98       	cbi	0x13, 2	; 19
    5fa8:	96 95       	lsr	r25
    5faa:	93 91       	.word	0x9193	; ????
    5fac:	90 8f       	std	Z+24, r25	; 0x18
    5fae:	8d 8c       	ldd	r8, Y+29	; 0x1d
    5fb0:	8b 8a       	std	Y+19, r8	; 0x13
    5fb2:	88 87       	std	Y+8, r24	; 0x08
    5fb4:	86 86       	std	Z+14, r8	; 0x0e
    5fb6:	85 84       	ldd	r8, Z+13	; 0x0d
    5fb8:	83 83       	std	Z+3, r24	; 0x03
    5fba:	82 82       	std	Z+2, r8	; 0x02
    5fbc:	82 81       	ldd	r24, Z+2	; 0x02
    5fbe:	81 81       	ldd	r24, Z+1	; 0x01
    5fc0:	81 81       	ldd	r24, Z+1	; 0x01
    5fc2:	81 81       	ldd	r24, Z+1	; 0x01
    5fc4:	82 82       	std	Z+2, r8	; 0x02
    5fc6:	82 83       	std	Z+2, r24	; 0x02
    5fc8:	83 84       	ldd	r8, Z+11	; 0x0b
    5fca:	85 86       	std	Z+13, r8	; 0x0d
    5fcc:	86 87       	std	Z+14, r24	; 0x0e
    5fce:	88 8a       	std	Y+16, r8	; 0x10
    5fd0:	8b 8c       	ldd	r8, Y+27	; 0x1b
    5fd2:	8d 8f       	std	Y+29, r24	; 0x1d
    5fd4:	90 91 93 95 	lds	r25, 0x9593
    5fd8:	96 98       	cbi	0x12, 6	; 18
    5fda:	9a 9c       	mul	r9, r10
    5fdc:	9e a0       	ldd	r9, Y+38	; 0x26
    5fde:	a2 a4       	ldd	r10, Z+42	; 0x2a
    5fe0:	a6 a8       	ldd	r10, Z+54	; 0x36
    5fe2:	ab ad       	ldd	r26, Y+59	; 0x3b
    5fe4:	af b2       	in	r10, 0x1f	; 31
    5fe6:	b4 b7       	in	r27, 0x34	; 52
    5fe8:	b9 bc       	out	0x29, r11	; 41
    5fea:	bf c1       	rjmp	.+894    	; 0x636a <waves+0x46a>
    5fec:	c4 c7       	rjmp	.+3976   	; 0x6f76 <__data_load_end+0xbc>
    5fee:	ca cd       	rjmp	.-1132   	; 0x5b84 <ProcessMusic+0x416>
    5ff0:	cf d2       	rcall	.+1438   	; 0x6590 <waves+0x690>
    5ff2:	d5 d8       	rcall	.-3670   	; 0x519e <mix_loop+0x4a>
    5ff4:	db de       	rcall	.-586    	; 0x5dac <steptable+0xa4>
    5ff6:	e1 e4       	ldi	r30, 0x41	; 65
    5ff8:	e7 ea       	ldi	r30, 0xA7	; 167
    5ffa:	ed f0       	brhs	.+58     	; 0x6036 <waves+0x136>
    5ffc:	f4 f7       	brge	.-4      	; 0x5ffa <waves+0xfa>
    5ffe:	fa fd       	.word	0xfdfa	; ????
    6000:	80 81       	ld	r24, Z
    6002:	82 83       	std	Z+2, r24	; 0x02
    6004:	84 85       	ldd	r24, Z+12	; 0x0c
    6006:	86 87       	std	Z+14, r24	; 0x0e
    6008:	88 89       	ldd	r24, Y+16	; 0x10
    600a:	8a 8b       	std	Y+18, r24	; 0x12
    600c:	8c 8d       	ldd	r24, Y+28	; 0x1c
    600e:	8e 8f       	std	Y+30, r24	; 0x1e
    6010:	90 91 92 93 	lds	r25, 0x9392
    6014:	94 95       	.word	0x9594	; ????
    6016:	96 97       	sbiw	r26, 0x26	; 38
    6018:	98 99       	sbic	0x13, 0	; 19
    601a:	9a 9b       	sbis	0x13, 2	; 19
    601c:	9c 9d       	mul	r25, r12
    601e:	9e 9f       	mul	r25, r30
    6020:	a0 a1       	ldd	r26, Z+32	; 0x20
    6022:	a2 a3       	std	Z+34, r26	; 0x22
    6024:	a4 a5       	ldd	r26, Z+44	; 0x2c
    6026:	a6 a7       	std	Z+46, r26	; 0x2e
    6028:	a8 a9       	ldd	r26, Y+48	; 0x30
    602a:	aa ab       	std	Y+50, r26	; 0x32
    602c:	ac ad       	ldd	r26, Y+60	; 0x3c
    602e:	ae af       	std	Y+62, r26	; 0x3e
    6030:	b0 b1       	in	r27, 0x00	; 0
    6032:	b2 b3       	in	r27, 0x12	; 18
    6034:	b4 b5       	in	r27, 0x24	; 36
    6036:	b6 b7       	in	r27, 0x36	; 54
    6038:	b8 b9       	out	0x08, r27	; 8
    603a:	ba bb       	out	0x1a, r27	; 26
    603c:	bc bd       	out	0x2c, r27	; 44
    603e:	be bf       	out	0x3e, r27	; 62
    6040:	c0 c1       	rjmp	.+896    	; 0x63c2 <waves+0x4c2>
    6042:	c2 c3       	rjmp	.+1924   	; 0x67c8 <waves+0x8c8>
    6044:	c4 c5       	rjmp	.+2952   	; 0x6bce <DrawMap2+0x26>
    6046:	c6 c7       	rjmp	.+3980   	; 0x6fd4 <__data_load_end+0x11a>
    6048:	c8 c9       	rjmp	.-3184   	; 0x53da <FormatEeprom+0x26>
    604a:	ca cb       	rjmp	.-2156   	; 0x57e0 <ProcessMusic+0x72>
    604c:	cc cd       	rjmp	.-1128   	; 0x5be6 <set_note_waves+0x20>
    604e:	ce cf       	rjmp	.-100    	; 0x5fec <waves+0xec>
    6050:	d0 d1       	rcall	.+928    	; 0x63f2 <waves+0x4f2>
    6052:	d2 d3       	rcall	.+1956   	; 0x67f8 <waves+0x8f8>
    6054:	d4 d5       	rcall	.+2984   	; 0x6bfe <DrawMap2+0x56>
    6056:	d6 d7       	rcall	.+4012   	; 0x7004 <__data_load_end+0x14a>
    6058:	d8 d9       	rcall	.-3152   	; 0x540a <isEepromFormatted+0x12>
    605a:	da db       	rcall	.-2124   	; 0x5810 <ProcessMusic+0xa2>
    605c:	dc dd       	rcall	.-1096   	; 0x5c16 <esmw+0x16>
    605e:	de df       	rcall	.-68     	; 0x601c <waves+0x11c>
    6060:	e0 e1       	ldi	r30, 0x10	; 16
    6062:	e2 e3       	ldi	r30, 0x32	; 50
    6064:	e4 e5       	ldi	r30, 0x54	; 84
    6066:	e6 e7       	ldi	r30, 0x76	; 118
    6068:	e8 e9       	ldi	r30, 0x98	; 152
    606a:	ea eb       	ldi	r30, 0xBA	; 186
    606c:	ec ed       	ldi	r30, 0xDC	; 220
    606e:	ee ef       	ldi	r30, 0xFE	; 254
    6070:	f0 f1       	brcs	.+124    	; 0x60ee <waves+0x1ee>
    6072:	f2 f3       	brmi	.-4      	; 0x6070 <waves+0x170>
    6074:	f4 f5       	brge	.+124    	; 0x60f2 <waves+0x1f2>
    6076:	f6 f7       	brtc	.-4      	; 0x6074 <waves+0x174>
    6078:	f8 f9       	.word	0xf9f8	; ????
    607a:	fa fb       	.word	0xfbfa	; ????
    607c:	fc fd       	.word	0xfdfc	; ????
    607e:	fe ff       	.word	0xfffe	; ????
    6080:	00 01       	movw	r0, r0
    6082:	02 03       	mulsu	r16, r18
    6084:	04 05       	cpc	r16, r4
    6086:	06 07       	cpc	r16, r22
    6088:	08 09       	sbc	r16, r8
    608a:	0a 0b       	sbc	r16, r26
    608c:	0c 0d       	add	r16, r12
    608e:	0e 0f       	add	r16, r30
    6090:	10 11       	cpse	r17, r0
    6092:	12 13       	cpse	r17, r18
    6094:	14 15       	cp	r17, r4
    6096:	16 17       	cp	r17, r22
    6098:	18 19       	sub	r17, r8
    609a:	1a 1b       	sub	r17, r26
    609c:	1c 1d       	adc	r17, r12
    609e:	1e 1f       	adc	r17, r30
    60a0:	20 21       	and	r18, r0
    60a2:	22 23       	and	r18, r18
    60a4:	24 25       	eor	r18, r4
    60a6:	26 27       	eor	r18, r22
    60a8:	28 29       	or	r18, r8
    60aa:	2a 2b       	or	r18, r26
    60ac:	2c 2d       	mov	r18, r12
    60ae:	2e 2f       	mov	r18, r30
    60b0:	30 31       	cpi	r19, 0x10	; 16
    60b2:	32 33       	cpi	r19, 0x32	; 50
    60b4:	34 35       	cpi	r19, 0x54	; 84
    60b6:	36 37       	cpi	r19, 0x76	; 118
    60b8:	38 39       	cpi	r19, 0x98	; 152
    60ba:	3a 3b       	cpi	r19, 0xBA	; 186
    60bc:	3c 3d       	cpi	r19, 0xDC	; 220
    60be:	3e 3f       	cpi	r19, 0xFE	; 254
    60c0:	40 41       	sbci	r20, 0x10	; 16
    60c2:	42 43       	sbci	r20, 0x32	; 50
    60c4:	44 45       	sbci	r20, 0x54	; 84
    60c6:	46 47       	sbci	r20, 0x76	; 118
    60c8:	48 49       	sbci	r20, 0x98	; 152
    60ca:	4a 4b       	sbci	r20, 0xBA	; 186
    60cc:	4c 4d       	sbci	r20, 0xDC	; 220
    60ce:	4e 4f       	sbci	r20, 0xFE	; 254
    60d0:	50 51       	subi	r21, 0x10	; 16
    60d2:	52 53       	subi	r21, 0x32	; 50
    60d4:	54 55       	subi	r21, 0x54	; 84
    60d6:	56 57       	subi	r21, 0x76	; 118
    60d8:	58 59       	subi	r21, 0x98	; 152
    60da:	5a 5b       	subi	r21, 0xBA	; 186
    60dc:	5c 5d       	subi	r21, 0xDC	; 220
    60de:	5e 5f       	subi	r21, 0xFE	; 254
    60e0:	60 61       	ori	r22, 0x10	; 16
    60e2:	62 63       	ori	r22, 0x32	; 50
    60e4:	64 65       	ori	r22, 0x54	; 84
    60e6:	66 67       	ori	r22, 0x76	; 118
    60e8:	68 69       	ori	r22, 0x98	; 152
    60ea:	6a 6b       	ori	r22, 0xBA	; 186
    60ec:	6c 6d       	ori	r22, 0xDC	; 220
    60ee:	6e 6f       	ori	r22, 0xFE	; 254
    60f0:	70 71       	andi	r23, 0x10	; 16
    60f2:	72 73       	andi	r23, 0x32	; 50
    60f4:	74 75       	andi	r23, 0x54	; 84
    60f6:	76 77       	andi	r23, 0x76	; 118
    60f8:	78 79       	andi	r23, 0x98	; 152
    60fa:	7a 7b       	andi	r23, 0xBA	; 186
    60fc:	7c 7d       	andi	r23, 0xDC	; 220
    60fe:	7e 7f       	andi	r23, 0xFE	; 254
    6100:	00 02       	muls	r16, r16
    6102:	04 06       	cpc	r0, r20
    6104:	08 0a       	sbc	r0, r24
    6106:	0c 0e       	add	r0, r28
    6108:	10 12       	cpse	r1, r16
    610a:	14 16       	cp	r1, r20
    610c:	18 1a       	sub	r1, r24
    610e:	1c 1e       	adc	r1, r28
    6110:	20 22       	and	r2, r16
    6112:	24 26       	eor	r2, r20
    6114:	28 2a       	or	r2, r24
    6116:	2c 2e       	mov	r2, r28
    6118:	30 32       	cpi	r19, 0x20	; 32
    611a:	34 36       	cpi	r19, 0x64	; 100
    611c:	38 3a       	cpi	r19, 0xA8	; 168
    611e:	3c 3e       	cpi	r19, 0xEC	; 236
    6120:	40 42       	sbci	r20, 0x20	; 32
    6122:	44 46       	sbci	r20, 0x64	; 100
    6124:	48 4a       	sbci	r20, 0xA8	; 168
    6126:	4c 4e       	sbci	r20, 0xEC	; 236
    6128:	50 52       	subi	r21, 0x20	; 32
    612a:	54 56       	subi	r21, 0x64	; 100
    612c:	58 5a       	subi	r21, 0xA8	; 168
    612e:	5c 5e       	subi	r21, 0xEC	; 236
    6130:	60 62       	ori	r22, 0x20	; 32
    6132:	64 66       	ori	r22, 0x64	; 100
    6134:	68 6a       	ori	r22, 0xA8	; 168
    6136:	6c 6e       	ori	r22, 0xEC	; 236
    6138:	70 72       	andi	r23, 0x20	; 32
    613a:	74 76       	andi	r23, 0x64	; 100
    613c:	78 7a       	andi	r23, 0xA8	; 168
    613e:	7c 7e       	andi	r23, 0xEC	; 236
    6140:	7f 7d       	andi	r23, 0xDF	; 223
    6142:	7b 79       	andi	r23, 0x9B	; 155
    6144:	77 75       	andi	r23, 0x57	; 87
    6146:	73 71       	andi	r23, 0x13	; 19
    6148:	6f 6d       	ori	r22, 0xDF	; 223
    614a:	6b 69       	ori	r22, 0x9B	; 155
    614c:	67 65       	ori	r22, 0x57	; 87
    614e:	63 61       	ori	r22, 0x13	; 19
    6150:	5f 5d       	subi	r21, 0xDF	; 223
    6152:	5b 59       	subi	r21, 0x9B	; 155
    6154:	57 55       	subi	r21, 0x57	; 87
    6156:	53 51       	subi	r21, 0x13	; 19
    6158:	4f 4d       	sbci	r20, 0xDF	; 223
    615a:	4b 49       	sbci	r20, 0x9B	; 155
    615c:	47 45       	sbci	r20, 0x57	; 87
    615e:	43 41       	sbci	r20, 0x13	; 19
    6160:	3f 3d       	cpi	r19, 0xDF	; 223
    6162:	3b 39       	cpi	r19, 0x9B	; 155
    6164:	37 35       	cpi	r19, 0x57	; 87
    6166:	33 31       	cpi	r19, 0x13	; 19
    6168:	2f 2d       	mov	r18, r15
    616a:	2b 29       	or	r18, r11
    616c:	27 25       	eor	r18, r7
    616e:	23 21       	and	r18, r3
    6170:	1f 1d       	adc	r17, r15
    6172:	1b 19       	sub	r17, r11
    6174:	17 15       	cp	r17, r7
    6176:	13 11       	cpse	r17, r3
    6178:	0f 0d       	add	r16, r15
    617a:	0b 09       	sbc	r16, r11
    617c:	07 05       	cpc	r16, r7
    617e:	03 01       	movw	r0, r6
    6180:	ff fd       	.word	0xfdff	; ????
    6182:	fb f9       	.word	0xf9fb	; ????
    6184:	f7 f5       	brid	.+124    	; 0x6202 <waves+0x302>
    6186:	f3 f1       	brvs	.+124    	; 0x6204 <waves+0x304>
    6188:	ef ed       	ldi	r30, 0xDF	; 223
    618a:	eb e9       	ldi	r30, 0x9B	; 155
    618c:	e7 e5       	ldi	r30, 0x57	; 87
    618e:	e3 e1       	ldi	r30, 0x13	; 19
    6190:	df dd       	rcall	.-1090   	; 0x5d50 <steptable+0x48>
    6192:	db d9       	rcall	.-3146   	; 0x554a <InitMusicPlayer+0x1c>
    6194:	d7 d5       	rcall	.+2990   	; 0x6d44 <FadeIn+0xc>
    6196:	d3 d1       	rcall	.+934    	; 0x653e <waves+0x63e>
    6198:	cf cd       	rjmp	.-1122   	; 0x5d38 <steptable+0x30>
    619a:	cb c9       	rjmp	.-3178   	; 0x5532 <InitMusicPlayer+0x4>
    619c:	c7 c5       	rjmp	.+2958   	; 0x6d2c <doFade+0x10>
    619e:	c3 c1       	rjmp	.+902    	; 0x6526 <waves+0x626>
    61a0:	bf bd       	out	0x2f, r27	; 47
    61a2:	bb b9       	out	0x0b, r27	; 11
    61a4:	b7 b5       	in	r27, 0x27	; 39
    61a6:	b3 b1       	in	r27, 0x03	; 3
    61a8:	af ad       	ldd	r26, Y+63	; 0x3f
    61aa:	ab a9       	ldd	r26, Y+51	; 0x33
    61ac:	a7 a5       	ldd	r26, Z+47	; 0x2f
    61ae:	a3 a1       	ldd	r26, Z+35	; 0x23
    61b0:	9f 9d       	mul	r25, r15
    61b2:	9b 99       	sbic	0x13, 3	; 19
    61b4:	97 95       	ror	r25
    61b6:	93 91       	.word	0x9193	; ????
    61b8:	8f 8d       	ldd	r24, Y+31	; 0x1f
    61ba:	8b 89       	ldd	r24, Y+19	; 0x13
    61bc:	87 85       	ldd	r24, Z+15	; 0x0f
    61be:	83 81       	ldd	r24, Z+3	; 0x03
    61c0:	80 82       	st	Z, r8
    61c2:	84 86       	std	Z+12, r8	; 0x0c
    61c4:	88 8a       	std	Y+16, r8	; 0x10
    61c6:	8c 8e       	std	Y+28, r8	; 0x1c
    61c8:	90 92 94 96 	sts	0x9694, r9
    61cc:	98 9a       	sbi	0x13, 0	; 19
    61ce:	9c 9e       	mul	r9, r28
    61d0:	a0 a2       	std	Z+32, r10	; 0x20
    61d2:	a4 a6       	std	Z+44, r10	; 0x2c
    61d4:	a8 aa       	std	Y+48, r10	; 0x30
    61d6:	ac ae       	std	Y+60, r10	; 0x3c
    61d8:	b0 b2       	in	r11, 0x10	; 16
    61da:	b4 b6       	in	r11, 0x34	; 52
    61dc:	b8 ba       	out	0x18, r11	; 24
    61de:	bc be       	out	0x3c, r11	; 60
    61e0:	c0 c2       	rjmp	.+1408   	; 0x6762 <waves+0x862>
    61e2:	c4 c6       	rjmp	.+3464   	; 0x6f6c <__data_load_end+0xb2>
    61e4:	c8 ca       	rjmp	.-2672   	; 0x5776 <ProcessMusic+0x8>
    61e6:	cc ce       	rjmp	.-616    	; 0x5f80 <waves+0x80>
    61e8:	d0 d2       	rcall	.+1440   	; 0x678a <waves+0x88a>
    61ea:	d4 d6       	rcall	.+3496   	; 0x6f94 <__data_load_end+0xda>
    61ec:	d8 da       	rcall	.-2640   	; 0x579e <ProcessMusic+0x30>
    61ee:	dc de       	rcall	.-584    	; 0x5fa8 <waves+0xa8>
    61f0:	e0 e2       	ldi	r30, 0x20	; 32
    61f2:	e4 e6       	ldi	r30, 0x64	; 100
    61f4:	e8 ea       	ldi	r30, 0xA8	; 168
    61f6:	ec ee       	ldi	r30, 0xEC	; 236
    61f8:	f0 f2       	brcs	.-68     	; 0x61b6 <waves+0x2b6>
    61fa:	f4 f6       	brge	.-68     	; 0x61b8 <waves+0x2b8>
    61fc:	f8 fa       	.word	0xfaf8	; ????
    61fe:	fc fe       	.word	0xfefc	; ????
    6200:	7f 7f       	andi	r23, 0xFF	; 255
    6202:	7f 7f       	andi	r23, 0xFF	; 255
    6204:	7f 7f       	andi	r23, 0xFF	; 255
    6206:	7f 7f       	andi	r23, 0xFF	; 255
    6208:	7f 7f       	andi	r23, 0xFF	; 255
    620a:	7f 7f       	andi	r23, 0xFF	; 255
    620c:	7f 7f       	andi	r23, 0xFF	; 255
    620e:	7f 7f       	andi	r23, 0xFF	; 255
    6210:	7f 7f       	andi	r23, 0xFF	; 255
    6212:	7f 7f       	andi	r23, 0xFF	; 255
    6214:	7f 7f       	andi	r23, 0xFF	; 255
    6216:	7f 7f       	andi	r23, 0xFF	; 255
    6218:	7f 7f       	andi	r23, 0xFF	; 255
    621a:	7f 7f       	andi	r23, 0xFF	; 255
    621c:	7f 7f       	andi	r23, 0xFF	; 255
    621e:	7f 7f       	andi	r23, 0xFF	; 255
    6220:	7f 7f       	andi	r23, 0xFF	; 255
    6222:	7f 7f       	andi	r23, 0xFF	; 255
    6224:	7f 7f       	andi	r23, 0xFF	; 255
    6226:	7f 7f       	andi	r23, 0xFF	; 255
    6228:	7f 7f       	andi	r23, 0xFF	; 255
    622a:	7f 7f       	andi	r23, 0xFF	; 255
    622c:	7f 7f       	andi	r23, 0xFF	; 255
    622e:	7f 7f       	andi	r23, 0xFF	; 255
    6230:	7f 7f       	andi	r23, 0xFF	; 255
    6232:	7f 7f       	andi	r23, 0xFF	; 255
    6234:	7f 7f       	andi	r23, 0xFF	; 255
    6236:	7f 7f       	andi	r23, 0xFF	; 255
    6238:	7f 7f       	andi	r23, 0xFF	; 255
    623a:	7f 7f       	andi	r23, 0xFF	; 255
    623c:	7f 7f       	andi	r23, 0xFF	; 255
    623e:	7f 7f       	andi	r23, 0xFF	; 255
    6240:	80 80       	ld	r8, Z
    6242:	80 80       	ld	r8, Z
    6244:	80 80       	ld	r8, Z
    6246:	80 80       	ld	r8, Z
    6248:	80 80       	ld	r8, Z
    624a:	80 80       	ld	r8, Z
    624c:	80 80       	ld	r8, Z
    624e:	80 80       	ld	r8, Z
    6250:	80 80       	ld	r8, Z
    6252:	80 80       	ld	r8, Z
    6254:	80 80       	ld	r8, Z
    6256:	80 80       	ld	r8, Z
    6258:	80 80       	ld	r8, Z
    625a:	80 80       	ld	r8, Z
    625c:	80 80       	ld	r8, Z
    625e:	80 80       	ld	r8, Z
    6260:	80 80       	ld	r8, Z
    6262:	80 80       	ld	r8, Z
    6264:	80 80       	ld	r8, Z
    6266:	80 80       	ld	r8, Z
    6268:	80 80       	ld	r8, Z
    626a:	80 80       	ld	r8, Z
    626c:	80 80       	ld	r8, Z
    626e:	80 80       	ld	r8, Z
    6270:	80 80       	ld	r8, Z
    6272:	80 80       	ld	r8, Z
    6274:	80 80       	ld	r8, Z
    6276:	80 80       	ld	r8, Z
    6278:	80 80       	ld	r8, Z
    627a:	80 80       	ld	r8, Z
    627c:	80 80       	ld	r8, Z
    627e:	80 80       	ld	r8, Z
    6280:	80 80       	ld	r8, Z
    6282:	80 80       	ld	r8, Z
    6284:	80 80       	ld	r8, Z
    6286:	80 80       	ld	r8, Z
    6288:	80 80       	ld	r8, Z
    628a:	80 80       	ld	r8, Z
    628c:	80 80       	ld	r8, Z
    628e:	80 80       	ld	r8, Z
    6290:	80 80       	ld	r8, Z
    6292:	80 80       	ld	r8, Z
    6294:	80 80       	ld	r8, Z
    6296:	80 80       	ld	r8, Z
    6298:	80 80       	ld	r8, Z
    629a:	80 80       	ld	r8, Z
    629c:	80 80       	ld	r8, Z
    629e:	80 80       	ld	r8, Z
    62a0:	80 80       	ld	r8, Z
    62a2:	80 80       	ld	r8, Z
    62a4:	80 80       	ld	r8, Z
    62a6:	80 80       	ld	r8, Z
    62a8:	80 80       	ld	r8, Z
    62aa:	80 80       	ld	r8, Z
    62ac:	80 80       	ld	r8, Z
    62ae:	80 80       	ld	r8, Z
    62b0:	80 80       	ld	r8, Z
    62b2:	80 80       	ld	r8, Z
    62b4:	80 80       	ld	r8, Z
    62b6:	80 80       	ld	r8, Z
    62b8:	80 80       	ld	r8, Z
    62ba:	80 80       	ld	r8, Z
    62bc:	80 80       	ld	r8, Z
    62be:	80 80       	ld	r8, Z
    62c0:	80 80       	ld	r8, Z
    62c2:	80 80       	ld	r8, Z
    62c4:	80 80       	ld	r8, Z
    62c6:	80 80       	ld	r8, Z
    62c8:	80 80       	ld	r8, Z
    62ca:	80 80       	ld	r8, Z
    62cc:	80 80       	ld	r8, Z
    62ce:	80 80       	ld	r8, Z
    62d0:	80 80       	ld	r8, Z
    62d2:	80 80       	ld	r8, Z
    62d4:	80 80       	ld	r8, Z
    62d6:	80 80       	ld	r8, Z
    62d8:	80 80       	ld	r8, Z
    62da:	80 80       	ld	r8, Z
    62dc:	80 80       	ld	r8, Z
    62de:	80 80       	ld	r8, Z
    62e0:	80 80       	ld	r8, Z
    62e2:	80 80       	ld	r8, Z
    62e4:	80 80       	ld	r8, Z
    62e6:	80 80       	ld	r8, Z
    62e8:	80 80       	ld	r8, Z
    62ea:	80 80       	ld	r8, Z
    62ec:	80 80       	ld	r8, Z
    62ee:	80 80       	ld	r8, Z
    62f0:	80 80       	ld	r8, Z
    62f2:	80 80       	ld	r8, Z
    62f4:	80 80       	ld	r8, Z
    62f6:	80 80       	ld	r8, Z
    62f8:	80 80       	ld	r8, Z
    62fa:	80 80       	ld	r8, Z
    62fc:	80 80       	ld	r8, Z
    62fe:	80 80       	ld	r8, Z
    6300:	7f 7f       	andi	r23, 0xFF	; 255
    6302:	7f 7f       	andi	r23, 0xFF	; 255
    6304:	7f 7f       	andi	r23, 0xFF	; 255
    6306:	7f 7f       	andi	r23, 0xFF	; 255
    6308:	7f 7f       	andi	r23, 0xFF	; 255
    630a:	7f 7f       	andi	r23, 0xFF	; 255
    630c:	7f 7f       	andi	r23, 0xFF	; 255
    630e:	7f 7f       	andi	r23, 0xFF	; 255
    6310:	7f 7f       	andi	r23, 0xFF	; 255
    6312:	7f 7f       	andi	r23, 0xFF	; 255
    6314:	7f 7f       	andi	r23, 0xFF	; 255
    6316:	7f 7f       	andi	r23, 0xFF	; 255
    6318:	7f 7f       	andi	r23, 0xFF	; 255
    631a:	7f 7f       	andi	r23, 0xFF	; 255
    631c:	7f 7f       	andi	r23, 0xFF	; 255
    631e:	7f 7f       	andi	r23, 0xFF	; 255
    6320:	7f 7f       	andi	r23, 0xFF	; 255
    6322:	7f 7f       	andi	r23, 0xFF	; 255
    6324:	7f 7f       	andi	r23, 0xFF	; 255
    6326:	7f 7f       	andi	r23, 0xFF	; 255
    6328:	7f 7f       	andi	r23, 0xFF	; 255
    632a:	7f 7f       	andi	r23, 0xFF	; 255
    632c:	7f 7f       	andi	r23, 0xFF	; 255
    632e:	7f 7f       	andi	r23, 0xFF	; 255
    6330:	7f 7f       	andi	r23, 0xFF	; 255
    6332:	7f 7f       	andi	r23, 0xFF	; 255
    6334:	7f 7f       	andi	r23, 0xFF	; 255
    6336:	7f 7f       	andi	r23, 0xFF	; 255
    6338:	7f 7f       	andi	r23, 0xFF	; 255
    633a:	7f 7f       	andi	r23, 0xFF	; 255
    633c:	7f 7f       	andi	r23, 0xFF	; 255
    633e:	7f 7f       	andi	r23, 0xFF	; 255
    6340:	7f 7f       	andi	r23, 0xFF	; 255
    6342:	7f 7f       	andi	r23, 0xFF	; 255
    6344:	7f 7f       	andi	r23, 0xFF	; 255
    6346:	7f 7f       	andi	r23, 0xFF	; 255
    6348:	7f 7f       	andi	r23, 0xFF	; 255
    634a:	7f 7f       	andi	r23, 0xFF	; 255
    634c:	7f 7f       	andi	r23, 0xFF	; 255
    634e:	7f 7f       	andi	r23, 0xFF	; 255
    6350:	7f 7f       	andi	r23, 0xFF	; 255
    6352:	7f 7f       	andi	r23, 0xFF	; 255
    6354:	7f 7f       	andi	r23, 0xFF	; 255
    6356:	7f 7f       	andi	r23, 0xFF	; 255
    6358:	7f 7f       	andi	r23, 0xFF	; 255
    635a:	7f 7f       	andi	r23, 0xFF	; 255
    635c:	7f 7f       	andi	r23, 0xFF	; 255
    635e:	7f 7f       	andi	r23, 0xFF	; 255
    6360:	7f 7f       	andi	r23, 0xFF	; 255
    6362:	7f 7f       	andi	r23, 0xFF	; 255
    6364:	7f 7f       	andi	r23, 0xFF	; 255
    6366:	7f 7f       	andi	r23, 0xFF	; 255
    6368:	7f 7f       	andi	r23, 0xFF	; 255
    636a:	7f 7f       	andi	r23, 0xFF	; 255
    636c:	7f 7f       	andi	r23, 0xFF	; 255
    636e:	7f 7f       	andi	r23, 0xFF	; 255
    6370:	7f 7f       	andi	r23, 0xFF	; 255
    6372:	7f 7f       	andi	r23, 0xFF	; 255
    6374:	7f 7f       	andi	r23, 0xFF	; 255
    6376:	7f 7f       	andi	r23, 0xFF	; 255
    6378:	7f 7f       	andi	r23, 0xFF	; 255
    637a:	7f 7f       	andi	r23, 0xFF	; 255
    637c:	7f 7f       	andi	r23, 0xFF	; 255
    637e:	7f 7f       	andi	r23, 0xFF	; 255
    6380:	80 80       	ld	r8, Z
    6382:	80 80       	ld	r8, Z
    6384:	80 80       	ld	r8, Z
    6386:	80 80       	ld	r8, Z
    6388:	80 80       	ld	r8, Z
    638a:	80 80       	ld	r8, Z
    638c:	80 80       	ld	r8, Z
    638e:	80 80       	ld	r8, Z
    6390:	80 80       	ld	r8, Z
    6392:	80 80       	ld	r8, Z
    6394:	80 80       	ld	r8, Z
    6396:	80 80       	ld	r8, Z
    6398:	80 80       	ld	r8, Z
    639a:	80 80       	ld	r8, Z
    639c:	80 80       	ld	r8, Z
    639e:	80 80       	ld	r8, Z
    63a0:	80 80       	ld	r8, Z
    63a2:	80 80       	ld	r8, Z
    63a4:	80 80       	ld	r8, Z
    63a6:	80 80       	ld	r8, Z
    63a8:	80 80       	ld	r8, Z
    63aa:	80 80       	ld	r8, Z
    63ac:	80 80       	ld	r8, Z
    63ae:	80 80       	ld	r8, Z
    63b0:	80 80       	ld	r8, Z
    63b2:	80 80       	ld	r8, Z
    63b4:	80 80       	ld	r8, Z
    63b6:	80 80       	ld	r8, Z
    63b8:	80 80       	ld	r8, Z
    63ba:	80 80       	ld	r8, Z
    63bc:	80 80       	ld	r8, Z
    63be:	80 80       	ld	r8, Z
    63c0:	80 80       	ld	r8, Z
    63c2:	80 80       	ld	r8, Z
    63c4:	80 80       	ld	r8, Z
    63c6:	80 80       	ld	r8, Z
    63c8:	80 80       	ld	r8, Z
    63ca:	80 80       	ld	r8, Z
    63cc:	80 80       	ld	r8, Z
    63ce:	80 80       	ld	r8, Z
    63d0:	80 80       	ld	r8, Z
    63d2:	80 80       	ld	r8, Z
    63d4:	80 80       	ld	r8, Z
    63d6:	80 80       	ld	r8, Z
    63d8:	80 80       	ld	r8, Z
    63da:	80 80       	ld	r8, Z
    63dc:	80 80       	ld	r8, Z
    63de:	80 80       	ld	r8, Z
    63e0:	80 80       	ld	r8, Z
    63e2:	80 80       	ld	r8, Z
    63e4:	80 80       	ld	r8, Z
    63e6:	80 80       	ld	r8, Z
    63e8:	80 80       	ld	r8, Z
    63ea:	80 80       	ld	r8, Z
    63ec:	80 80       	ld	r8, Z
    63ee:	80 80       	ld	r8, Z
    63f0:	80 80       	ld	r8, Z
    63f2:	80 80       	ld	r8, Z
    63f4:	80 80       	ld	r8, Z
    63f6:	80 80       	ld	r8, Z
    63f8:	80 80       	ld	r8, Z
    63fa:	80 80       	ld	r8, Z
    63fc:	80 80       	ld	r8, Z
    63fe:	80 80       	ld	r8, Z
    6400:	7f 7f       	andi	r23, 0xFF	; 255
    6402:	7f 7f       	andi	r23, 0xFF	; 255
    6404:	7f 7f       	andi	r23, 0xFF	; 255
    6406:	7f 7f       	andi	r23, 0xFF	; 255
    6408:	7f 7f       	andi	r23, 0xFF	; 255
    640a:	7f 7f       	andi	r23, 0xFF	; 255
    640c:	7f 7f       	andi	r23, 0xFF	; 255
    640e:	7f 7f       	andi	r23, 0xFF	; 255
    6410:	7f 7f       	andi	r23, 0xFF	; 255
    6412:	7f 7f       	andi	r23, 0xFF	; 255
    6414:	7f 7f       	andi	r23, 0xFF	; 255
    6416:	7f 7f       	andi	r23, 0xFF	; 255
    6418:	7f 7f       	andi	r23, 0xFF	; 255
    641a:	7f 7f       	andi	r23, 0xFF	; 255
    641c:	7f 7f       	andi	r23, 0xFF	; 255
    641e:	7f 7f       	andi	r23, 0xFF	; 255
    6420:	7f 7f       	andi	r23, 0xFF	; 255
    6422:	7f 7f       	andi	r23, 0xFF	; 255
    6424:	7f 7f       	andi	r23, 0xFF	; 255
    6426:	7f 7f       	andi	r23, 0xFF	; 255
    6428:	7f 7f       	andi	r23, 0xFF	; 255
    642a:	7f 7f       	andi	r23, 0xFF	; 255
    642c:	7f 7f       	andi	r23, 0xFF	; 255
    642e:	7f 7f       	andi	r23, 0xFF	; 255
    6430:	7f 7f       	andi	r23, 0xFF	; 255
    6432:	7f 7f       	andi	r23, 0xFF	; 255
    6434:	7f 7f       	andi	r23, 0xFF	; 255
    6436:	7f 7f       	andi	r23, 0xFF	; 255
    6438:	7f 7f       	andi	r23, 0xFF	; 255
    643a:	7f 7f       	andi	r23, 0xFF	; 255
    643c:	7f 7f       	andi	r23, 0xFF	; 255
    643e:	7f 7f       	andi	r23, 0xFF	; 255
    6440:	7f 7f       	andi	r23, 0xFF	; 255
    6442:	7f 7f       	andi	r23, 0xFF	; 255
    6444:	7f 7f       	andi	r23, 0xFF	; 255
    6446:	7f 7f       	andi	r23, 0xFF	; 255
    6448:	7f 7f       	andi	r23, 0xFF	; 255
    644a:	7f 7f       	andi	r23, 0xFF	; 255
    644c:	7f 7f       	andi	r23, 0xFF	; 255
    644e:	7f 7f       	andi	r23, 0xFF	; 255
    6450:	7f 7f       	andi	r23, 0xFF	; 255
    6452:	7f 7f       	andi	r23, 0xFF	; 255
    6454:	7f 7f       	andi	r23, 0xFF	; 255
    6456:	7f 7f       	andi	r23, 0xFF	; 255
    6458:	7f 7f       	andi	r23, 0xFF	; 255
    645a:	7f 7f       	andi	r23, 0xFF	; 255
    645c:	7f 7f       	andi	r23, 0xFF	; 255
    645e:	7f 7f       	andi	r23, 0xFF	; 255
    6460:	7f 7f       	andi	r23, 0xFF	; 255
    6462:	7f 7f       	andi	r23, 0xFF	; 255
    6464:	7f 7f       	andi	r23, 0xFF	; 255
    6466:	7f 7f       	andi	r23, 0xFF	; 255
    6468:	7f 7f       	andi	r23, 0xFF	; 255
    646a:	7f 7f       	andi	r23, 0xFF	; 255
    646c:	7f 7f       	andi	r23, 0xFF	; 255
    646e:	7f 7f       	andi	r23, 0xFF	; 255
    6470:	7f 7f       	andi	r23, 0xFF	; 255
    6472:	7f 7f       	andi	r23, 0xFF	; 255
    6474:	7f 7f       	andi	r23, 0xFF	; 255
    6476:	7f 7f       	andi	r23, 0xFF	; 255
    6478:	7f 7f       	andi	r23, 0xFF	; 255
    647a:	7f 7f       	andi	r23, 0xFF	; 255
    647c:	7f 7f       	andi	r23, 0xFF	; 255
    647e:	7f 7f       	andi	r23, 0xFF	; 255
    6480:	7f 7f       	andi	r23, 0xFF	; 255
    6482:	7f 7f       	andi	r23, 0xFF	; 255
    6484:	7f 7f       	andi	r23, 0xFF	; 255
    6486:	7f 7f       	andi	r23, 0xFF	; 255
    6488:	7f 7f       	andi	r23, 0xFF	; 255
    648a:	7f 7f       	andi	r23, 0xFF	; 255
    648c:	7f 7f       	andi	r23, 0xFF	; 255
    648e:	7f 7f       	andi	r23, 0xFF	; 255
    6490:	7f 7f       	andi	r23, 0xFF	; 255
    6492:	7f 7f       	andi	r23, 0xFF	; 255
    6494:	7f 7f       	andi	r23, 0xFF	; 255
    6496:	7f 7f       	andi	r23, 0xFF	; 255
    6498:	7f 7f       	andi	r23, 0xFF	; 255
    649a:	7f 7f       	andi	r23, 0xFF	; 255
    649c:	7f 7f       	andi	r23, 0xFF	; 255
    649e:	7f 7f       	andi	r23, 0xFF	; 255
    64a0:	7f 7f       	andi	r23, 0xFF	; 255
    64a2:	7f 7f       	andi	r23, 0xFF	; 255
    64a4:	7f 7f       	andi	r23, 0xFF	; 255
    64a6:	7f 7f       	andi	r23, 0xFF	; 255
    64a8:	7f 7f       	andi	r23, 0xFF	; 255
    64aa:	7f 7f       	andi	r23, 0xFF	; 255
    64ac:	7f 7f       	andi	r23, 0xFF	; 255
    64ae:	7f 7f       	andi	r23, 0xFF	; 255
    64b0:	7f 7f       	andi	r23, 0xFF	; 255
    64b2:	7f 7f       	andi	r23, 0xFF	; 255
    64b4:	7f 7f       	andi	r23, 0xFF	; 255
    64b6:	7f 7f       	andi	r23, 0xFF	; 255
    64b8:	7f 7f       	andi	r23, 0xFF	; 255
    64ba:	7f 7f       	andi	r23, 0xFF	; 255
    64bc:	7f 7f       	andi	r23, 0xFF	; 255
    64be:	7f 7f       	andi	r23, 0xFF	; 255
    64c0:	80 80       	ld	r8, Z
    64c2:	80 80       	ld	r8, Z
    64c4:	80 80       	ld	r8, Z
    64c6:	80 80       	ld	r8, Z
    64c8:	80 80       	ld	r8, Z
    64ca:	80 80       	ld	r8, Z
    64cc:	80 80       	ld	r8, Z
    64ce:	80 80       	ld	r8, Z
    64d0:	80 80       	ld	r8, Z
    64d2:	80 80       	ld	r8, Z
    64d4:	80 80       	ld	r8, Z
    64d6:	80 80       	ld	r8, Z
    64d8:	80 80       	ld	r8, Z
    64da:	80 80       	ld	r8, Z
    64dc:	80 80       	ld	r8, Z
    64de:	80 80       	ld	r8, Z
    64e0:	80 80       	ld	r8, Z
    64e2:	80 80       	ld	r8, Z
    64e4:	80 80       	ld	r8, Z
    64e6:	80 80       	ld	r8, Z
    64e8:	80 80       	ld	r8, Z
    64ea:	80 80       	ld	r8, Z
    64ec:	80 80       	ld	r8, Z
    64ee:	80 80       	ld	r8, Z
    64f0:	80 80       	ld	r8, Z
    64f2:	80 80       	ld	r8, Z
    64f4:	80 80       	ld	r8, Z
    64f6:	80 80       	ld	r8, Z
    64f8:	80 80       	ld	r8, Z
    64fa:	80 80       	ld	r8, Z
    64fc:	80 80       	ld	r8, Z
    64fe:	80 80       	ld	r8, Z
    6500:	03 09       	sbc	r16, r3
    6502:	13 1e       	adc	r1, r19
    6504:	28 31       	cpi	r18, 0x18	; 24
    6506:	3a 40       	sbci	r19, 0x0A	; 10
    6508:	46 4c       	sbci	r20, 0xC6	; 198
    650a:	50 54       	subi	r21, 0x40	; 64
    650c:	58 5b       	subi	r21, 0xB8	; 184
    650e:	5e 61       	ori	r21, 0x1E	; 30
    6510:	63 65       	ori	r22, 0x53	; 83
    6512:	67 69       	ori	r22, 0x97	; 151
    6514:	6b 6c       	ori	r22, 0xCB	; 203
    6516:	6e 6f       	ori	r22, 0xFE	; 254
    6518:	70 71       	andi	r23, 0x10	; 16
    651a:	72 73       	andi	r23, 0x32	; 50
    651c:	74 75       	andi	r23, 0x54	; 84
    651e:	76 77       	andi	r23, 0x76	; 118
    6520:	77 78       	andi	r23, 0x87	; 135
    6522:	79 79       	andi	r23, 0x99	; 153
    6524:	7a 7a       	andi	r23, 0xAA	; 170
    6526:	7b 7b       	andi	r23, 0xBB	; 187
    6528:	7c 7c       	andi	r23, 0xCC	; 204
    652a:	7c 7d       	andi	r23, 0xDC	; 220
    652c:	7d 7d       	andi	r23, 0xDD	; 221
    652e:	7e 7e       	andi	r23, 0xEE	; 238
    6530:	7e 7e       	andi	r23, 0xEE	; 238
    6532:	7f 7f       	andi	r23, 0xFF	; 255
    6534:	7f 7f       	andi	r23, 0xFF	; 255
    6536:	7f 7f       	andi	r23, 0xFF	; 255
    6538:	7f 7f       	andi	r23, 0xFF	; 255
    653a:	7f 7f       	andi	r23, 0xFF	; 255
    653c:	7f 7f       	andi	r23, 0xFF	; 255
    653e:	7f 7f       	andi	r23, 0xFF	; 255
    6540:	7f 7f       	andi	r23, 0xFF	; 255
    6542:	7f 7f       	andi	r23, 0xFF	; 255
    6544:	7f 7f       	andi	r23, 0xFF	; 255
    6546:	7f 7f       	andi	r23, 0xFF	; 255
    6548:	7f 7f       	andi	r23, 0xFF	; 255
    654a:	7f 7f       	andi	r23, 0xFF	; 255
    654c:	7f 7e       	andi	r23, 0xEF	; 239
    654e:	7e 7e       	andi	r23, 0xEE	; 238
    6550:	7e 7d       	andi	r23, 0xDE	; 222
    6552:	7d 7d       	andi	r23, 0xDD	; 221
    6554:	7c 7c       	andi	r23, 0xCC	; 204
    6556:	7c 7b       	andi	r23, 0xBC	; 188
    6558:	7b 7a       	andi	r23, 0xAB	; 171
    655a:	7a 79       	andi	r23, 0x9A	; 154
    655c:	79 78       	andi	r23, 0x89	; 137
    655e:	77 77       	andi	r23, 0x77	; 119
    6560:	76 75       	andi	r23, 0x56	; 86
    6562:	74 73       	andi	r23, 0x34	; 52
    6564:	72 71       	andi	r23, 0x12	; 18
    6566:	70 6f       	ori	r23, 0xF0	; 240
    6568:	6e 6c       	ori	r22, 0xCE	; 206
    656a:	6b 69       	ori	r22, 0x9B	; 155
    656c:	67 65       	ori	r22, 0x57	; 87
    656e:	63 61       	ori	r22, 0x13	; 19
    6570:	5e 5b       	subi	r21, 0xBE	; 190
    6572:	58 54       	subi	r21, 0x48	; 72
    6574:	50 4c       	sbci	r21, 0xC0	; 192
    6576:	46 40       	sbci	r20, 0x06	; 6
    6578:	3a 31       	cpi	r19, 0x1A	; 26
    657a:	28 1e       	adc	r2, r24
    657c:	13 09       	sbc	r17, r3
    657e:	03 00       	.word	0x0003	; ????
    6580:	c6 cc       	rjmp	.-1652   	; 0x5f0e <waves+0xe>
    6582:	d5 db       	rcall	.-2134   	; 0x5d2e <steptable+0x26>
    6584:	df e3       	ldi	r29, 0x3F	; 63
    6586:	e5 e7       	ldi	r30, 0x75	; 117
    6588:	e9 ea       	ldi	r30, 0xA9	; 169
    658a:	eb ec       	ldi	r30, 0xCB	; 203
    658c:	ed ee       	ldi	r30, 0xED	; 237
    658e:	ef ef       	ldi	r30, 0xFF	; 255
    6590:	f0 f0       	brcs	.+60     	; 0x65ce <waves+0x6ce>
    6592:	f0 f1       	brcs	.+124    	; 0x6610 <waves+0x710>
    6594:	f1 f1       	breq	.+124    	; 0x6612 <waves+0x712>
    6596:	f1 f2       	breq	.-68     	; 0x6554 <waves+0x654>
    6598:	f2 f2       	brmi	.-68     	; 0x6556 <waves+0x656>
    659a:	f2 f2       	brmi	.-68     	; 0x6558 <waves+0x658>
    659c:	f2 f2       	brmi	.-68     	; 0x655a <waves+0x65a>
    659e:	f2 f3       	brmi	.-4      	; 0x659c <waves+0x69c>
    65a0:	f3 f3       	brvs	.-4      	; 0x659e <waves+0x69e>
    65a2:	f3 f3       	brvs	.-4      	; 0x65a0 <waves+0x6a0>
    65a4:	f3 f3       	brvs	.-4      	; 0x65a2 <waves+0x6a2>
    65a6:	f3 f3       	brvs	.-4      	; 0x65a4 <waves+0x6a4>
    65a8:	f3 f3       	brvs	.-4      	; 0x65a6 <waves+0x6a6>
    65aa:	f3 f3       	brvs	.-4      	; 0x65a8 <waves+0x6a8>
    65ac:	f3 f3       	brvs	.-4      	; 0x65aa <waves+0x6aa>
    65ae:	f3 f3       	brvs	.-4      	; 0x65ac <waves+0x6ac>
    65b0:	f3 f3       	brvs	.-4      	; 0x65ae <waves+0x6ae>
    65b2:	f3 f3       	brvs	.-4      	; 0x65b0 <waves+0x6b0>
    65b4:	f3 f3       	brvs	.-4      	; 0x65b2 <waves+0x6b2>
    65b6:	f3 f3       	brvs	.-4      	; 0x65b4 <waves+0x6b4>
    65b8:	f3 f3       	brvs	.-4      	; 0x65b6 <waves+0x6b6>
    65ba:	f3 f3       	brvs	.-4      	; 0x65b8 <waves+0x6b8>
    65bc:	f3 f3       	brvs	.-4      	; 0x65ba <waves+0x6ba>
    65be:	f3 f3       	brvs	.-4      	; 0x65bc <waves+0x6bc>
    65c0:	f3 f3       	brvs	.-4      	; 0x65be <waves+0x6be>
    65c2:	f3 f3       	brvs	.-4      	; 0x65c0 <waves+0x6c0>
    65c4:	f3 f3       	brvs	.-4      	; 0x65c2 <waves+0x6c2>
    65c6:	f3 f3       	brvs	.-4      	; 0x65c4 <waves+0x6c4>
    65c8:	f3 f3       	brvs	.-4      	; 0x65c6 <waves+0x6c6>
    65ca:	f3 f3       	brvs	.-4      	; 0x65c8 <waves+0x6c8>
    65cc:	f3 f3       	brvs	.-4      	; 0x65ca <waves+0x6ca>
    65ce:	f3 f3       	brvs	.-4      	; 0x65cc <waves+0x6cc>
    65d0:	f3 f3       	brvs	.-4      	; 0x65ce <waves+0x6ce>
    65d2:	f3 f3       	brvs	.-4      	; 0x65d0 <waves+0x6d0>
    65d4:	f3 f3       	brvs	.-4      	; 0x65d2 <waves+0x6d2>
    65d6:	f3 f3       	brvs	.-4      	; 0x65d4 <waves+0x6d4>
    65d8:	f3 f3       	brvs	.-4      	; 0x65d6 <waves+0x6d6>
    65da:	f3 f3       	brvs	.-4      	; 0x65d8 <waves+0x6d8>
    65dc:	f3 f3       	brvs	.-4      	; 0x65da <waves+0x6da>
    65de:	f3 f3       	brvs	.-4      	; 0x65dc <waves+0x6dc>
    65e0:	f2 f2       	brmi	.-68     	; 0x659e <waves+0x69e>
    65e2:	f2 f2       	brmi	.-68     	; 0x65a0 <waves+0x6a0>
    65e4:	f2 f2       	brmi	.-68     	; 0x65a2 <waves+0x6a2>
    65e6:	f2 f2       	brmi	.-68     	; 0x65a4 <waves+0x6a4>
    65e8:	f1 f1       	breq	.+124    	; 0x6666 <waves+0x766>
    65ea:	f1 f1       	breq	.+124    	; 0x6668 <waves+0x768>
    65ec:	f0 f0       	brcs	.+60     	; 0x662a <waves+0x72a>
    65ee:	f0 ef       	ldi	r31, 0xF0	; 240
    65f0:	ef ee       	ldi	r30, 0xEF	; 239
    65f2:	ed ec       	ldi	r30, 0xCD	; 205
    65f4:	eb ea       	ldi	r30, 0xAB	; 171
    65f6:	e9 e7       	ldi	r30, 0x79	; 121
    65f8:	e5 e3       	ldi	r30, 0x35	; 53
    65fa:	df db       	rcall	.-2114   	; 0x5dba <steptable+0xb2>
    65fc:	d5 cc       	rjmp	.-1622   	; 0x5fa8 <waves+0xa8>
    65fe:	c6 00       	.word	0x00c6	; ????
    6600:	00 28       	or	r0, r0
    6602:	3d 42       	sbci	r19, 0x2D	; 45
    6604:	30 2d       	mov	r19, r0
    6606:	2c 2b       	or	r18, r28
    6608:	2c 2d       	mov	r18, r12
    660a:	2e 2f       	mov	r18, r30
    660c:	30 32       	cpi	r19, 0x20	; 32
    660e:	33 35       	cpi	r19, 0x53	; 83
    6610:	37 39       	cpi	r19, 0x97	; 151
    6612:	3b 3d       	cpi	r19, 0xDB	; 219
    6614:	3f 41       	sbci	r19, 0x1F	; 31
    6616:	43 45       	sbci	r20, 0x53	; 83
    6618:	48 4a       	sbci	r20, 0xA8	; 168
    661a:	4c 4e       	sbci	r20, 0xEC	; 236
    661c:	50 53       	subi	r21, 0x30	; 48
    661e:	55 57       	subi	r21, 0x75	; 117
    6620:	59 5b       	subi	r21, 0xB9	; 185
    6622:	5d 5f       	subi	r21, 0xFD	; 253
    6624:	61 63       	ori	r22, 0x31	; 49
    6626:	65 67       	ori	r22, 0x75	; 117
    6628:	69 6b       	ori	r22, 0xB9	; 185
    662a:	6c 6e       	ori	r22, 0xEC	; 236
    662c:	70 71       	andi	r23, 0x10	; 16
    662e:	73 74       	andi	r23, 0x43	; 67
    6630:	75 77       	andi	r23, 0x75	; 117
    6632:	78 79       	andi	r23, 0x98	; 152
    6634:	7a 7b       	andi	r23, 0xBA	; 186
    6636:	7c 7d       	andi	r23, 0xDC	; 220
    6638:	7d 7e       	andi	r23, 0xED	; 237
    663a:	7e 7f       	andi	r23, 0xFE	; 254
    663c:	7f 7f       	andi	r23, 0xFF	; 255
    663e:	7f 7f       	andi	r23, 0xFF	; 255
    6640:	7f 7f       	andi	r23, 0xFF	; 255
    6642:	7f 7f       	andi	r23, 0xFF	; 255
    6644:	7f 7f       	andi	r23, 0xFF	; 255
    6646:	7e 7e       	andi	r23, 0xEE	; 238
    6648:	7d 7d       	andi	r23, 0xDD	; 221
    664a:	7c 7b       	andi	r23, 0xBC	; 188
    664c:	7a 79       	andi	r23, 0x9A	; 154
    664e:	78 77       	andi	r23, 0x78	; 120
    6650:	75 74       	andi	r23, 0x45	; 69
    6652:	73 71       	andi	r23, 0x13	; 19
    6654:	70 6e       	ori	r23, 0xE0	; 224
    6656:	6c 6b       	ori	r22, 0xBC	; 188
    6658:	69 67       	ori	r22, 0x79	; 121
    665a:	65 63       	ori	r22, 0x35	; 53
    665c:	61 5f       	subi	r22, 0xF1	; 241
    665e:	5d 5b       	subi	r21, 0xBD	; 189
    6660:	59 57       	subi	r21, 0x79	; 121
    6662:	55 53       	subi	r21, 0x35	; 53
    6664:	50 4e       	sbci	r21, 0xE0	; 224
    6666:	4c 4a       	sbci	r20, 0xAC	; 172
    6668:	48 45       	sbci	r20, 0x58	; 88
    666a:	43 41       	sbci	r20, 0x13	; 19
    666c:	3f 3d       	cpi	r19, 0xDF	; 223
    666e:	3b 39       	cpi	r19, 0x9B	; 155
    6670:	37 35       	cpi	r19, 0x57	; 87
    6672:	33 32       	cpi	r19, 0x23	; 35
    6674:	30 2f       	mov	r19, r16
    6676:	2e 2d       	mov	r18, r14
    6678:	2c 2b       	or	r18, r28
    667a:	2c 2d       	mov	r18, r12
    667c:	30 42       	sbci	r19, 0x20	; 32
    667e:	3d 28       	or	r3, r13
    6680:	00 e9       	ldi	r16, 0x90	; 144
    6682:	e5 fe       	sbrs	r14, 5
    6684:	d4 d7       	rcall	.+4008   	; 0x762e <__data_load_end+0x774>
    6686:	d7 d7       	rcall	.+4014   	; 0x7636 <__data_load_end+0x77c>
    6688:	d6 d4       	rcall	.+2476   	; 0x7036 <__data_load_end+0x17c>
    668a:	d2 d0       	rcall	.+420    	; 0x6830 <waves+0x930>
    668c:	ce cc       	rjmp	.-1636   	; 0x602a <waves+0x12a>
    668e:	ca c8       	rjmp	.-3692   	; 0x5824 <ProcessMusic+0xb6>
    6690:	c6 c3       	rjmp	.+1932   	; 0x6e1e <main+0x14>
    6692:	c1 bf       	out	0x31, r28	; 49
    6694:	bd ba       	out	0x1d, r11	; 29
    6696:	b8 b6       	in	r11, 0x38	; 56
    6698:	b4 b1       	in	r27, 0x04	; 4
    669a:	af ad       	ldd	r26, Y+63	; 0x3f
    669c:	ab a9       	ldd	r26, Y+51	; 0x33
    669e:	a7 a5       	ldd	r26, Z+47	; 0x2f
    66a0:	a3 a1       	ldd	r26, Z+35	; 0x23
    66a2:	9f 9e       	mul	r9, r31
    66a4:	9c 9a       	sbi	0x13, 4	; 19
    66a6:	99 97       	sbiw	r26, 0x29	; 41
    66a8:	95 94       	asr	r9
    66aa:	93 91       	.word	0x9193	; ????
    66ac:	90 8f       	std	Z+24, r25	; 0x18
    66ae:	8d 8c       	ldd	r8, Y+29	; 0x1d
    66b0:	8b 8a       	std	Y+19, r8	; 0x13
    66b2:	89 88       	ldd	r8, Y+17	; 0x11
    66b4:	88 87       	std	Y+8, r24	; 0x08
    66b6:	86 85       	ldd	r24, Z+14	; 0x0e
    66b8:	85 84       	ldd	r8, Z+13	; 0x0d
    66ba:	84 84       	ldd	r8, Z+12	; 0x0c
    66bc:	83 83       	std	Z+3, r24	; 0x03
    66be:	83 83       	std	Z+3, r24	; 0x03
    66c0:	83 83       	std	Z+3, r24	; 0x03
    66c2:	83 83       	std	Z+3, r24	; 0x03
    66c4:	83 84       	ldd	r8, Z+11	; 0x0b
    66c6:	84 84       	ldd	r8, Z+12	; 0x0c
    66c8:	85 85       	ldd	r24, Z+13	; 0x0d
    66ca:	86 87       	std	Z+14, r24	; 0x0e
    66cc:	88 88       	ldd	r8, Y+16	; 0x10
    66ce:	89 8a       	std	Y+17, r8	; 0x11
    66d0:	8b 8c       	ldd	r8, Y+27	; 0x1b
    66d2:	8d 8f       	std	Y+29, r24	; 0x1d
    66d4:	90 91 93 94 	lds	r25, 0x9493
    66d8:	95 97       	sbiw	r26, 0x25	; 37
    66da:	99 9a       	sbi	0x13, 1	; 19
    66dc:	9c 9e       	mul	r9, r28
    66de:	9f a1       	ldd	r25, Y+39	; 0x27
    66e0:	a3 a5       	ldd	r26, Z+43	; 0x2b
    66e2:	a7 a9       	ldd	r26, Z+55	; 0x37
    66e4:	ab ad       	ldd	r26, Y+59	; 0x3b
    66e6:	af b1       	in	r26, 0x0f	; 15
    66e8:	b4 b6       	in	r11, 0x34	; 52
    66ea:	b8 ba       	out	0x18, r11	; 24
    66ec:	bd bf       	out	0x3d, r27	; 61
    66ee:	c1 c3       	rjmp	.+1922   	; 0x6e72 <__udivmodhi4_ep+0xc>
    66f0:	c6 c8       	rjmp	.-3700   	; 0x587e <ProcessMusic+0x110>
    66f2:	ca cc       	rjmp	.-1644   	; 0x6088 <waves+0x188>
    66f4:	ce d0       	rcall	.+412    	; 0x6892 <waves+0x992>
    66f6:	d2 d4       	rcall	.+2468   	; 0x709c <__data_load_end+0x1e2>
    66f8:	d6 d7       	rcall	.+4012   	; 0x76a6 <__data_load_end+0x7ec>
    66fa:	d7 d7       	rcall	.+4014   	; 0x76aa <__data_load_end+0x7f0>
    66fc:	d4 fe       	sbrs	r13, 4
    66fe:	e5 e9       	ldi	r30, 0x95	; 149
    6700:	f9 f8       	.word	0xf8f9	; ????
    6702:	f9 f5       	brne	.+126    	; 0x6782 <waves+0x882>
    6704:	eb e1       	ldi	r30, 0x1B	; 27
    6706:	dd de       	rcall	.-582    	; 0x64c2 <waves+0x5c2>
    6708:	e0 e2       	ldi	r30, 0x20	; 32
    670a:	e4 e5       	ldi	r30, 0x54	; 84
    670c:	e6 e5       	ldi	r30, 0x56	; 86
    670e:	e4 e2       	ldi	r30, 0x24	; 36
    6710:	de d9       	rcall	.-3140   	; 0x5ace <ProcessMusic+0x360>
    6712:	d2 ca       	rjmp	.-2652   	; 0x5cb8 <esmw+0xb8>
    6714:	c1 b7       	in	r28, 0x31	; 49
    6716:	ac a2       	std	Y+36, r10	; 0x24
    6718:	99 91       	ld	r25, Y+
    671a:	8a 86       	std	Y+10, r8	; 0x0a
    671c:	83 81       	ldd	r24, Z+3	; 0x03
    671e:	80 80       	ld	r8, Z
    6720:	81 82       	std	Z+1, r8	; 0x01
    6722:	83 85       	ldd	r24, Z+11	; 0x0b
    6724:	86 88       	ldd	r8, Z+22	; 0x16
    6726:	8a 8c       	ldd	r8, Y+26	; 0x1a
    6728:	8d 8f       	std	Y+29, r24	; 0x1d
    672a:	90 92 93 95 	sts	0x9593, r9
    672e:	96 97       	sbiw	r26, 0x26	; 38
    6730:	98 99       	sbic	0x13, 0	; 19
    6732:	9a 9b       	sbis	0x13, 2	; 19
    6734:	9b 9c       	mul	r9, r11
    6736:	9d 9d       	mul	r25, r13
    6738:	9d 9e       	mul	r9, r29
    673a:	9e 9e       	mul	r9, r30
    673c:	9f 9f       	mul	r25, r31
    673e:	9f 9f       	mul	r25, r31
    6740:	9f 9f       	mul	r25, r31
    6742:	9f 9e       	mul	r9, r31
    6744:	9e 9e       	mul	r9, r30
    6746:	9d 9d       	mul	r25, r13
    6748:	9d 9c       	mul	r9, r13
    674a:	9b 9b       	sbis	0x13, 3	; 19
    674c:	9a 99       	sbic	0x13, 2	; 19
    674e:	98 97       	sbiw	r26, 0x28	; 40
    6750:	96 95       	lsr	r25
    6752:	93 92       	.word	0x9293	; ????
    6754:	90 8f       	std	Z+24, r25	; 0x18
    6756:	8d 8c       	ldd	r8, Y+29	; 0x1d
    6758:	8a 88       	ldd	r8, Y+18	; 0x12
    675a:	86 85       	ldd	r24, Z+14	; 0x0e
    675c:	83 82       	std	Z+3, r8	; 0x03
    675e:	81 80       	ldd	r8, Z+1	; 0x01
    6760:	80 81       	ld	r24, Z
    6762:	83 86       	std	Z+11, r8	; 0x0b
    6764:	8a 91       	ld	r24, -Y
    6766:	99 a2       	std	Y+33, r9	; 0x21
    6768:	ac b7       	in	r26, 0x3c	; 60
    676a:	c1 ca       	rjmp	.-2686   	; 0x5cee <esmw+0xee>
    676c:	d2 d9       	rcall	.-3164   	; 0x5b12 <ProcessMusic+0x3a4>
    676e:	de e2       	ldi	r29, 0x2E	; 46
    6770:	e4 e5       	ldi	r30, 0x54	; 84
    6772:	e6 e5       	ldi	r30, 0x56	; 86
    6774:	e4 e2       	ldi	r30, 0x24	; 36
    6776:	e0 de       	rcall	.-576    	; 0x6538 <waves+0x638>
    6778:	dd e1       	ldi	r29, 0x1D	; 29
    677a:	eb f5       	brvc	.+122    	; 0x67f6 <waves+0x8f6>
    677c:	f9 f8       	.word	0xf8f9	; ????
    677e:	f9 00       	.word	0x00f9	; ????
    6780:	07 08       	sbc	r0, r7
    6782:	07 0b       	sbc	r16, r23
    6784:	15 1f       	adc	r17, r21
    6786:	23 22       	and	r2, r19
    6788:	20 1e       	adc	r2, r16
    678a:	1c 1b       	sub	r17, r28
    678c:	1a 1b       	sub	r17, r26
    678e:	1c 1e       	adc	r1, r28
    6790:	22 27       	eor	r18, r18
    6792:	2e 36       	cpi	r18, 0x6E	; 110
    6794:	3f 49       	sbci	r19, 0x9F	; 159
    6796:	54 5e       	subi	r21, 0xE4	; 228
    6798:	67 6f       	ori	r22, 0xF7	; 247
    679a:	76 7a       	andi	r23, 0xA6	; 166
    679c:	7e 7f       	andi	r23, 0xFE	; 254
    679e:	7f 7f       	andi	r23, 0xFF	; 255
    67a0:	7f 7e       	andi	r23, 0xEF	; 239
    67a2:	7d 7b       	andi	r23, 0xBD	; 189
    67a4:	7a 78       	andi	r23, 0x8A	; 138
    67a6:	76 74       	andi	r23, 0x46	; 70
    67a8:	73 71       	andi	r23, 0x13	; 19
    67aa:	70 6e       	ori	r23, 0xE0	; 224
    67ac:	6d 6b       	ori	r22, 0xBD	; 189
    67ae:	6a 69       	ori	r22, 0x9A	; 154
    67b0:	68 67       	ori	r22, 0x78	; 120
    67b2:	66 65       	ori	r22, 0x56	; 86
    67b4:	65 64       	ori	r22, 0x45	; 69
    67b6:	64 63       	ori	r22, 0x34	; 52
    67b8:	63 62       	ori	r22, 0x23	; 35
    67ba:	62 62       	ori	r22, 0x22	; 34
    67bc:	61 61       	ori	r22, 0x11	; 17
    67be:	61 61       	ori	r22, 0x11	; 17
    67c0:	61 61       	ori	r22, 0x11	; 17
    67c2:	61 62       	ori	r22, 0x21	; 33
    67c4:	62 62       	ori	r22, 0x22	; 34
    67c6:	63 63       	ori	r22, 0x33	; 51
    67c8:	63 64       	ori	r22, 0x43	; 67
    67ca:	65 65       	ori	r22, 0x55	; 85
    67cc:	66 67       	ori	r22, 0x76	; 118
    67ce:	68 69       	ori	r22, 0x98	; 152
    67d0:	6a 6b       	ori	r22, 0xBA	; 186
    67d2:	6d 6e       	ori	r22, 0xED	; 237
    67d4:	70 71       	andi	r23, 0x10	; 16
    67d6:	73 74       	andi	r23, 0x43	; 67
    67d8:	76 78       	andi	r23, 0x86	; 134
    67da:	7a 7b       	andi	r23, 0xBA	; 186
    67dc:	7d 7e       	andi	r23, 0xED	; 237
    67de:	7f 7f       	andi	r23, 0xFF	; 255
    67e0:	7f 7f       	andi	r23, 0xFF	; 255
    67e2:	7e 7a       	andi	r23, 0xAE	; 174
    67e4:	76 6f       	ori	r23, 0xF6	; 246
    67e6:	67 5e       	subi	r22, 0xE7	; 231
    67e8:	54 49       	sbci	r21, 0x94	; 148
    67ea:	3f 36       	cpi	r19, 0x6F	; 111
    67ec:	2e 27       	eor	r18, r30
    67ee:	22 1e       	adc	r2, r18
    67f0:	1c 1b       	sub	r17, r28
    67f2:	1a 1b       	sub	r17, r26
    67f4:	1c 1e       	adc	r1, r28
    67f6:	20 22       	and	r2, r16
    67f8:	23 1f       	adc	r18, r19
    67fa:	15 0b       	sbc	r17, r21
    67fc:	07 08       	sbc	r0, r7
    67fe:	07 00       	.word	0x0007	; ????
    6800:	1f 31       	cpi	r17, 0x1F	; 31
    6802:	3d 44       	sbci	r19, 0x4D	; 77
    6804:	4e 53       	subi	r20, 0x3E	; 62
    6806:	54 56       	subi	r21, 0x64	; 100
    6808:	5a 5f       	subi	r21, 0xFA	; 250
    680a:	64 69       	ori	r22, 0x94	; 148
    680c:	6e 74       	andi	r22, 0x4E	; 78
    680e:	76 79       	andi	r23, 0x96	; 150
    6810:	7c 7f       	andi	r23, 0xFC	; 252
    6812:	7f 7f       	andi	r23, 0xFF	; 255
    6814:	7f 7f       	andi	r23, 0xFF	; 255
    6816:	7f 7f       	andi	r23, 0xFF	; 255
    6818:	7f 7f       	andi	r23, 0xFF	; 255
    681a:	7f 7f       	andi	r23, 0xFF	; 255
    681c:	7f 7f       	andi	r23, 0xFF	; 255
    681e:	7f 7f       	andi	r23, 0xFF	; 255
    6820:	7f 7f       	andi	r23, 0xFF	; 255
    6822:	7f 7f       	andi	r23, 0xFF	; 255
    6824:	7f 7f       	andi	r23, 0xFF	; 255
    6826:	7f 7f       	andi	r23, 0xFF	; 255
    6828:	7f 7f       	andi	r23, 0xFF	; 255
    682a:	7f 7f       	andi	r23, 0xFF	; 255
    682c:	7f 7f       	andi	r23, 0xFF	; 255
    682e:	7f 7f       	andi	r23, 0xFF	; 255
    6830:	7f 7f       	andi	r23, 0xFF	; 255
    6832:	7f 7f       	andi	r23, 0xFF	; 255
    6834:	7f 7f       	andi	r23, 0xFF	; 255
    6836:	7f 7f       	andi	r23, 0xFF	; 255
    6838:	7f 7f       	andi	r23, 0xFF	; 255
    683a:	7f 7f       	andi	r23, 0xFF	; 255
    683c:	7f 7f       	andi	r23, 0xFF	; 255
    683e:	7f 7f       	andi	r23, 0xFF	; 255
    6840:	7f 7f       	andi	r23, 0xFF	; 255
    6842:	7f 7f       	andi	r23, 0xFF	; 255
    6844:	7f 7f       	andi	r23, 0xFF	; 255
    6846:	7f 7f       	andi	r23, 0xFF	; 255
    6848:	7f 7f       	andi	r23, 0xFF	; 255
    684a:	7f 7f       	andi	r23, 0xFF	; 255
    684c:	7f 7f       	andi	r23, 0xFF	; 255
    684e:	7f 7f       	andi	r23, 0xFF	; 255
    6850:	7f 7f       	andi	r23, 0xFF	; 255
    6852:	7f 7f       	andi	r23, 0xFF	; 255
    6854:	7f 7f       	andi	r23, 0xFF	; 255
    6856:	7f 7f       	andi	r23, 0xFF	; 255
    6858:	7f 7f       	andi	r23, 0xFF	; 255
    685a:	7f 7f       	andi	r23, 0xFF	; 255
    685c:	7f 7f       	andi	r23, 0xFF	; 255
    685e:	7f 7f       	andi	r23, 0xFF	; 255
    6860:	7f 7f       	andi	r23, 0xFF	; 255
    6862:	7f 7f       	andi	r23, 0xFF	; 255
    6864:	7f 7f       	andi	r23, 0xFF	; 255
    6866:	7f 7f       	andi	r23, 0xFF	; 255
    6868:	7f 7f       	andi	r23, 0xFF	; 255
    686a:	7f 7f       	andi	r23, 0xFF	; 255
    686c:	7f 7f       	andi	r23, 0xFF	; 255
    686e:	7f 7f       	andi	r23, 0xFF	; 255
    6870:	7f 7f       	andi	r23, 0xFF	; 255
    6872:	7f 7f       	andi	r23, 0xFF	; 255
    6874:	7f 7f       	andi	r23, 0xFF	; 255
    6876:	7f 7f       	andi	r23, 0xFF	; 255
    6878:	7f 7f       	andi	r23, 0xFF	; 255
    687a:	7f 7c       	andi	r23, 0xCF	; 207
    687c:	78 71       	andi	r23, 0x18	; 24
    687e:	68 4c       	sbci	r22, 0xC8	; 200
    6880:	2c 1c       	adc	r2, r12
    6882:	12 0c       	add	r1, r2
    6884:	0a 0b       	sbc	r16, r26
    6886:	0a 05       	cpc	r16, r10
    6888:	fd f3       	brhs	.-2      	; 0x6888 <waves+0x988>
    688a:	e9 df       	rcall	.-46     	; 0x685e <waves+0x95e>
    688c:	d4 ca       	rjmp	.-2648   	; 0x5e36 <steptable+0x12e>
    688e:	c0 b7       	in	r28, 0x30	; 48
    6890:	ae a6       	std	Y+46, r10	; 0x2e
    6892:	9e 97       	sbiw	r26, 0x2e	; 46
    6894:	91 8b       	std	Z+17, r25	; 0x11
    6896:	86 85       	ldd	r24, Z+14	; 0x0e
    6898:	82 80       	ldd	r8, Z+2	; 0x02
    689a:	80 80       	ld	r8, Z
    689c:	80 80       	ld	r8, Z
    689e:	80 80       	ld	r8, Z
    68a0:	80 80       	ld	r8, Z
    68a2:	80 80       	ld	r8, Z
    68a4:	80 80       	ld	r8, Z
    68a6:	80 80       	ld	r8, Z
    68a8:	80 80       	ld	r8, Z
    68aa:	80 80       	ld	r8, Z
    68ac:	80 80       	ld	r8, Z
    68ae:	80 80       	ld	r8, Z
    68b0:	80 80       	ld	r8, Z
    68b2:	80 80       	ld	r8, Z
    68b4:	80 80       	ld	r8, Z
    68b6:	80 80       	ld	r8, Z
    68b8:	80 80       	ld	r8, Z
    68ba:	80 80       	ld	r8, Z
    68bc:	80 80       	ld	r8, Z
    68be:	80 80       	ld	r8, Z
    68c0:	80 80       	ld	r8, Z
    68c2:	80 80       	ld	r8, Z
    68c4:	80 80       	ld	r8, Z
    68c6:	80 80       	ld	r8, Z
    68c8:	80 80       	ld	r8, Z
    68ca:	80 80       	ld	r8, Z
    68cc:	80 80       	ld	r8, Z
    68ce:	80 80       	ld	r8, Z
    68d0:	80 80       	ld	r8, Z
    68d2:	80 80       	ld	r8, Z
    68d4:	80 80       	ld	r8, Z
    68d6:	80 80       	ld	r8, Z
    68d8:	80 80       	ld	r8, Z
    68da:	80 80       	ld	r8, Z
    68dc:	80 80       	ld	r8, Z
    68de:	80 80       	ld	r8, Z
    68e0:	80 80       	ld	r8, Z
    68e2:	80 80       	ld	r8, Z
    68e4:	80 80       	ld	r8, Z
    68e6:	80 80       	ld	r8, Z
    68e8:	80 80       	ld	r8, Z
    68ea:	80 80       	ld	r8, Z
    68ec:	80 80       	ld	r8, Z
    68ee:	80 80       	ld	r8, Z
    68f0:	80 80       	ld	r8, Z
    68f2:	80 80       	ld	r8, Z
    68f4:	80 87       	std	Z+8, r24	; 0x08
    68f6:	91 9d       	mul	r25, r1
    68f8:	ac c4       	rjmp	.+2392   	; 0x7252 <__data_load_end+0x398>
    68fa:	cb d4       	rcall	.+2454   	; 0x7292 <__data_load_end+0x3d8>
    68fc:	dd f2       	brhs	.-74     	; 0x68b4 <waves+0x9b4>
    68fe:	fa fa       	.word	0xfafa	; ????

00006900 <RestoreBackground>:
	unsigned char free_tile_index;
	bool spritesOn=true;

	void RestoreBackground(){
		unsigned char i;
		for(i=0;i<free_tile_index;i++){			
    6900:	90 91 f9 0a 	lds	r25, 0x0AF9
    6904:	e4 e0       	ldi	r30, 0x04	; 4
    6906:	f8 e0       	ldi	r31, 0x08	; 8
    6908:	80 e0       	ldi	r24, 0x00	; 0
    690a:	89 17       	cp	r24, r25
    690c:	49 f0       	breq	.+18     	; 0x6920 <RestoreBackground+0x20>
			vram[ram_tiles_restore[i].addr]=ram_tiles_restore[i].tileIndex;
    690e:	a0 81       	ld	r26, Z
    6910:	b1 81       	ldd	r27, Z+1	; 0x01
    6912:	a0 5e       	subi	r26, 0xE0	; 224
    6914:	be 4f       	sbci	r27, 0xFE	; 254
    6916:	22 81       	ldd	r18, Z+2	; 0x02
    6918:	2c 93       	st	X, r18
	unsigned char free_tile_index;
	bool spritesOn=true;

	void RestoreBackground(){
		unsigned char i;
		for(i=0;i<free_tile_index;i++){			
    691a:	8f 5f       	subi	r24, 0xFF	; 255
    691c:	33 96       	adiw	r30, 0x03	; 3
    691e:	f5 cf       	rjmp	.-22     	; 0x690a <RestoreBackground+0xa>
			vram[ram_tiles_restore[i].addr]=ram_tiles_restore[i].tileIndex;
		}	
	}
    6920:	08 95       	ret

00006922 <ProcessSprites>:
		}

	}
	*/

	void ProcessSprites(){
    6922:	2f 92       	push	r2
    6924:	3f 92       	push	r3
    6926:	4f 92       	push	r4
    6928:	5f 92       	push	r5
    692a:	6f 92       	push	r6
    692c:	7f 92       	push	r7
    692e:	8f 92       	push	r8
    6930:	9f 92       	push	r9
    6932:	af 92       	push	r10
    6934:	bf 92       	push	r11
    6936:	cf 92       	push	r12
    6938:	df 92       	push	r13
    693a:	ef 92       	push	r14
    693c:	ff 92       	push	r15
    693e:	0f 93       	push	r16
    6940:	1f 93       	push	r17
    6942:	cf 93       	push	r28
    6944:	df 93       	push	r29
    6946:	00 d0       	rcall	.+0      	; 0x6948 <ProcessSprites+0x26>
    6948:	1f 92       	push	r1
    694a:	cd b7       	in	r28, 0x3d	; 61
    694c:	de b7       	in	r29, 0x3e	; 62
	
		unsigned char i,bx,by,dx,dy,bt,x,y,tx=1,ty=1,wx,wy;
		unsigned int ramPtr,ssx,ssy;

		free_tile_index=0;	
    694e:	10 92 f9 0a 	sts	0x0AF9, r1
		if(!spritesOn) return;
    6952:	80 91 00 01 	lds	r24, 0x0100
    6956:	88 23       	and	r24, r24
    6958:	09 f4       	brne	.+2      	; 0x695c <ProcessSprites+0x3a>
    695a:	a1 c0       	rjmp	.+322    	; 0x6a9e <ProcessSprites+0x17c>
    695c:	e8 e6       	ldi	r30, 0x68	; 104
    695e:	ce 2e       	mov	r12, r30
    6960:	e4 e0       	ldi	r30, 0x04	; 4
    6962:	de 2e       	mov	r13, r30
    6964:	61 2c       	mov	r6, r1
	
		for(i=0;i<MAX_SPRITES;i++){
			bx=sprites[i].x;
    6966:	f6 01       	movw	r30, r12
    6968:	80 81       	ld	r24, Z

			if(bx!=(SCREEN_TILES_H*TILE_WIDTH)){
    696a:	80 3f       	cpi	r24, 0xF0	; 240
    696c:	09 f4       	brne	.+2      	; 0x6970 <ProcessSprites+0x4e>
    696e:	79 c0       	rjmp	.+242    	; 0x6a62 <ProcessSprites+0x140>
				#if SCROLLING == 1
					ssx=sprites[i].x+Screen.scrollX;
					ssy=sprites[i].y+Screen.scrollY;
   				#else
					ssx=sprites[i].x;
					ssy=sprites[i].y;
    6970:	91 81       	ldd	r25, Z+1	; 0x01
    6972:	29 2f       	mov	r18, r25
    6974:	30 e0       	ldi	r19, 0x00	; 0

				tx=1;
				ty=1;

				//get the BG tiles that are overlapped by the sprite
				bx=ssx>>3;
    6976:	28 2e       	mov	r2, r24
    6978:	26 94       	lsr	r2
    697a:	26 94       	lsr	r2
    697c:	26 94       	lsr	r2
				dx=ssx&0x7;
    697e:	87 70       	andi	r24, 0x07	; 7
				if(dx>0) tx++;
    6980:	19 f0       	breq	.+6      	; 0x6988 <ProcessSprites+0x66>
    6982:	72 e0       	ldi	r23, 0x02	; 2
    6984:	47 2e       	mov	r4, r23
    6986:	02 c0       	rjmp	.+4      	; 0x698c <ProcessSprites+0x6a>
   				#else
					ssx=sprites[i].x;
					ssy=sprites[i].y;
				#endif

				tx=1;
    6988:	44 24       	eor	r4, r4
    698a:	43 94       	inc	r4
				dx=ssx&0x7;
				if(dx>0) tx++;

				//by=ssy>>3;
				//dy=ssy&0x7;
				by=ssy/TILE_HEIGHT;
    698c:	63 e0       	ldi	r22, 0x03	; 3
    698e:	36 95       	lsr	r19
    6990:	27 95       	ror	r18
    6992:	6a 95       	dec	r22
    6994:	e1 f7       	brne	.-8      	; 0x698e <ProcessSprites+0x6c>
    6996:	32 2e       	mov	r3, r18
				dy=ssy%TILE_HEIGHT;
    6998:	97 70       	andi	r25, 0x07	; 7
				if(dy>0) ty++;			
    699a:	19 f0       	breq	.+6      	; 0x69a2 <ProcessSprites+0x80>
    699c:	52 e0       	ldi	r21, 0x02	; 2
    699e:	55 2e       	mov	r5, r21
    69a0:	02 c0       	rjmp	.+4      	; 0x69a6 <ProcessSprites+0x84>
					ssx=sprites[i].x;
					ssy=sprites[i].y;
				#endif

				tx=1;
				ty=1;
    69a2:	55 24       	eor	r5, r5
    69a4:	53 94       	inc	r5
								bt=free_tile_index;
								free_tile_index++;										
							}
				
							if(bt<RAM_TILES_COUNT){				
								BlitSprite(i,bt,(y<<8)+x,(dy<<8)+dx);						
    69a6:	29 2f       	mov	r18, r25
    69a8:	30 e0       	ldi	r19, 0x00	; 0
    69aa:	32 2f       	mov	r19, r18
    69ac:	22 27       	eor	r18, r18
    69ae:	a9 01       	movw	r20, r18
    69b0:	48 0f       	add	r20, r24
    69b2:	51 1d       	adc	r21, r1
    69b4:	5b 83       	std	Y+3, r21	; 0x03
    69b6:	4a 83       	std	Y+2, r20	; 0x02
    69b8:	e1 2c       	mov	r14, r1
    69ba:	f1 2c       	mov	r15, r1
    69bc:	94 ee       	ldi	r25, 0xE4	; 228
    69be:	93 0d       	add	r25, r3
    69c0:	99 83       	std	Y+1, r25	; 0x01
    69c2:	03 2d       	mov	r16, r3
    69c4:	0e 0d       	add	r16, r14
    69c6:	0c 31       	cpi	r16, 0x1C	; 28
    69c8:	10 f0       	brcs	.+4      	; 0x69ce <ProcessSprites+0xac>
    69ca:	09 81       	ldd	r16, Y+1	; 0x01
    69cc:	0e 0d       	add	r16, r14
							    }
                            #endif
							if(wx>=VRAM_TILES_H)wx-=VRAM_TILES_H; //should always be 32

							#if SCROLLING == 0
								ramPtr=(wy*VRAM_TILES_H)+wx;
    69ce:	5e e1       	ldi	r21, 0x1E	; 30
    69d0:	05 9f       	mul	r16, r21
    69d2:	80 01       	movw	r16, r0
    69d4:	11 24       	eor	r1, r1
								bt=free_tile_index;
								free_tile_index++;										
							}
				
							if(bt<RAM_TILES_COUNT){				
								BlitSprite(i,bt,(y<<8)+x,(dy<<8)+dx);						
    69d6:	be 2c       	mov	r11, r14
    69d8:	aa 24       	eor	r10, r10
    69da:	72 2c       	mov	r7, r2
								    wy-=(Screen.scrollHeight*2);
							    }else if(wy>=Screen.scrollHeight){
							    	wy-=Screen.scrollHeight;
							    }
                            #endif
							if(wx>=VRAM_TILES_H)wx-=VRAM_TILES_H; //should always be 32
    69dc:	ed e1       	ldi	r30, 0x1D	; 29
    69de:	e7 15       	cp	r30, r7
    69e0:	18 f4       	brcc	.+6      	; 0x69e8 <ProcessSprites+0xc6>
    69e2:	82 ee       	ldi	r24, 0xE2	; 226
    69e4:	87 0d       	add	r24, r7
    69e6:	01 c0       	rjmp	.+2      	; 0x69ea <ProcessSprites+0xc8>
    69e8:	87 2d       	mov	r24, r7

							#if SCROLLING == 0
								ramPtr=(wy*VRAM_TILES_H)+wx;
    69ea:	a8 01       	movw	r20, r16
    69ec:	48 0f       	add	r20, r24
    69ee:	51 1d       	adc	r21, r1

								ramPtr=((wy>>3)*256)+(wx*8)+(wy&7);	

							#endif

							bt=vram[ramPtr];						
    69f0:	ca 01       	movw	r24, r20
    69f2:	80 5e       	subi	r24, 0xE0	; 224
    69f4:	9e 4f       	sbci	r25, 0xFE	; 254
    69f6:	4c 01       	movw	r8, r24
    69f8:	fc 01       	movw	r30, r24
    69fa:	80 81       	ld	r24, Z

							if( (bt>=RAM_TILES_COUNT)  && (free_tile_index < RAM_TILES_COUNT) ){
    69fc:	8e 30       	cpi	r24, 0x0E	; 14
    69fe:	e0 f0       	brcs	.+56     	; 0x6a38 <ProcessSprites+0x116>
    6a00:	60 91 f9 0a 	lds	r22, 0x0AF9
    6a04:	6e 30       	cpi	r22, 0x0E	; 14
    6a06:	f8 f4       	brcc	.+62     	; 0x6a46 <ProcessSprites+0x124>

								//tile is mapped to flash. Copy it to next free RAM tile.
								//if no ram free ignore tile
								ram_tiles_restore[free_tile_index].addr=ramPtr;
    6a08:	26 2f       	mov	r18, r22
    6a0a:	30 e0       	ldi	r19, 0x00	; 0
    6a0c:	f9 01       	movw	r30, r18
    6a0e:	ee 0f       	add	r30, r30
    6a10:	ff 1f       	adc	r31, r31
    6a12:	e2 0f       	add	r30, r18
    6a14:	f3 1f       	adc	r31, r19
    6a16:	ec 5f       	subi	r30, 0xFC	; 252
    6a18:	f7 4f       	sbci	r31, 0xF7	; 247
    6a1a:	51 83       	std	Z+1, r21	; 0x01
    6a1c:	40 83       	st	Z, r20
								ram_tiles_restore[free_tile_index].tileIndex=bt;
    6a1e:	82 83       	std	Z+2, r24	; 0x02
													
								CopyTileToRam(bt,free_tile_index);
    6a20:	0e 94 31 26 	call	0x4c62	; 0x4c62 <CopyTileToRam>

								vram[ramPtr]=free_tile_index;
    6a24:	80 91 f9 0a 	lds	r24, 0x0AF9
    6a28:	f4 01       	movw	r30, r8
    6a2a:	80 83       	st	Z, r24
								bt=free_tile_index;
								free_tile_index++;										
    6a2c:	91 e0       	ldi	r25, 0x01	; 1
    6a2e:	98 0f       	add	r25, r24
    6a30:	90 93 f9 0a 	sts	0x0AF9, r25
							}
				
							if(bt<RAM_TILES_COUNT){				
    6a34:	8e 30       	cpi	r24, 0x0E	; 14
    6a36:	38 f4       	brcc	.+14     	; 0x6a46 <ProcessSprites+0x124>
								BlitSprite(i,bt,(y<<8)+x,(dy<<8)+dx);						
    6a38:	2a 81       	ldd	r18, Y+2	; 0x02
    6a3a:	3b 81       	ldd	r19, Y+3	; 0x03
    6a3c:	a5 01       	movw	r20, r10
    6a3e:	68 2f       	mov	r22, r24
    6a40:	86 2d       	mov	r24, r6
    6a42:	0e 94 c2 26 	call	0x4d84	; 0x4d84 <BlitSprite>
    6a46:	ff ef       	ldi	r31, 0xFF	; 255
    6a48:	af 1a       	sub	r10, r31
    6a4a:	bf 0a       	sbc	r11, r31
    6a4c:	73 94       	inc	r7
    6a4e:	87 2d       	mov	r24, r7
    6a50:	82 19       	sub	r24, r2
				dy=ssy%TILE_HEIGHT;
				if(dy>0) ty++;			

				for(y=0;y<ty;y++){

					for(x=0;x<tx;x++){
    6a52:	84 15       	cp	r24, r4
    6a54:	18 f2       	brcs	.-122    	; 0x69dc <ProcessSprites+0xba>
    6a56:	4f ef       	ldi	r20, 0xFF	; 255
    6a58:	e4 1a       	sub	r14, r20
    6a5a:	f4 0a       	sbc	r15, r20
				//dy=ssy&0x7;
				by=ssy/TILE_HEIGHT;
				dy=ssy%TILE_HEIGHT;
				if(dy>0) ty++;			

				for(y=0;y<ty;y++){
    6a5c:	e5 14       	cp	r14, r5
    6a5e:	08 f4       	brcc	.+2      	; 0x6a62 <ProcessSprites+0x140>
    6a60:	b0 cf       	rjmp	.-160    	; 0x69c2 <ProcessSprites+0xa0>
		unsigned int ramPtr,ssx,ssy;

		free_tile_index=0;	
		if(!spritesOn) return;
	
		for(i=0;i<MAX_SPRITES;i++){
    6a62:	63 94       	inc	r6
    6a64:	84 e0       	ldi	r24, 0x04	; 4
    6a66:	c8 0e       	add	r12, r24
    6a68:	d1 1c       	adc	r13, r1
    6a6a:	97 e0       	ldi	r25, 0x07	; 7
    6a6c:	69 12       	cpse	r6, r25
    6a6e:	7b cf       	rjmp	.-266    	; 0x6966 <ProcessSprites+0x44>


		//restore BG tiles
		RestoreBackground();

	}
    6a70:	0f 90       	pop	r0
    6a72:	0f 90       	pop	r0
    6a74:	0f 90       	pop	r0
    6a76:	df 91       	pop	r29
    6a78:	cf 91       	pop	r28
    6a7a:	1f 91       	pop	r17
    6a7c:	0f 91       	pop	r16
    6a7e:	ff 90       	pop	r15
    6a80:	ef 90       	pop	r14
    6a82:	df 90       	pop	r13
    6a84:	cf 90       	pop	r12
    6a86:	bf 90       	pop	r11
    6a88:	af 90       	pop	r10
    6a8a:	9f 90       	pop	r9
    6a8c:	8f 90       	pop	r8
    6a8e:	7f 90       	pop	r7
    6a90:	6f 90       	pop	r6
    6a92:	5f 90       	pop	r5
    6a94:	4f 90       	pop	r4
    6a96:	3f 90       	pop	r3
    6a98:	2f 90       	pop	r2
			}//	if(bx<(SCREEN_TILES_H*TILE_WIDTH))		
		}


		//restore BG tiles
		RestoreBackground();
    6a9a:	0c 94 80 34 	jmp	0x6900	; 0x6900 <RestoreBackground>

	}
    6a9e:	0f 90       	pop	r0
    6aa0:	0f 90       	pop	r0
    6aa2:	0f 90       	pop	r0
    6aa4:	df 91       	pop	r29
    6aa6:	cf 91       	pop	r28
    6aa8:	1f 91       	pop	r17
    6aaa:	0f 91       	pop	r16
    6aac:	ff 90       	pop	r15
    6aae:	ef 90       	pop	r14
    6ab0:	df 90       	pop	r13
    6ab2:	cf 90       	pop	r12
    6ab4:	bf 90       	pop	r11
    6ab6:	af 90       	pop	r10
    6ab8:	9f 90       	pop	r9
    6aba:	8f 90       	pop	r8
    6abc:	7f 90       	pop	r7
    6abe:	6f 90       	pop	r6
    6ac0:	5f 90       	pop	r5
    6ac2:	4f 90       	pop	r4
    6ac4:	3f 90       	pop	r3
    6ac6:	2f 90       	pop	r2
    6ac8:	08 95       	ret

00006aca <MapSprite>:
			}
		}
	#endif

	
	void MapSprite(unsigned char startSprite,const char *map){
    6aca:	bf 92       	push	r11
    6acc:	cf 92       	push	r12
    6ace:	df 92       	push	r13
    6ad0:	ef 92       	push	r14
    6ad2:	ff 92       	push	r15
    6ad4:	0f 93       	push	r16
    6ad6:	1f 93       	push	r17
    6ad8:	cf 93       	push	r28
    6ada:	df 93       	push	r29
		unsigned char tile;
		unsigned char mapWidth=pgm_read_byte(&(map[0]));
    6adc:	fb 01       	movw	r30, r22
    6ade:	c4 90       	lpm	r12, Z
		unsigned char mapHeight=pgm_read_byte(&(map[1]));
    6ae0:	31 96       	adiw	r30, 0x01	; 1
    6ae2:	94 91       	lpm	r25, Z
    6ae4:	0c 2d       	mov	r16, r12
    6ae6:	10 e0       	ldi	r17, 0x00	; 0

		for(unsigned char dy=0;dy<mapHeight;dy++){
    6ae8:	c0 e0       	ldi	r28, 0x00	; 0
    6aea:	d0 e0       	ldi	r29, 0x00	; 0
    6aec:	d1 2c       	mov	r13, r1
    6aee:	bc 2e       	mov	r11, r28
    6af0:	b8 0e       	add	r11, r24
    6af2:	d9 16       	cp	r13, r25
    6af4:	01 f1       	breq	.+64     	; 0x6b36 <MapSprite+0x6c>
    6af6:	20 e0       	ldi	r18, 0x00	; 0
    6af8:	30 e0       	ldi	r19, 0x00	; 0
    6afa:	7e 01       	movw	r14, r28
    6afc:	42 e0       	ldi	r20, 0x02	; 2
    6afe:	e4 0e       	add	r14, r20
    6b00:	f1 1c       	adc	r15, r1
    6b02:	ab 2d       	mov	r26, r11
    6b04:	a2 0f       	add	r26, r18
			for(unsigned char dx=0;dx<mapWidth;dx++){
    6b06:	2c 15       	cp	r18, r12
    6b08:	90 f4       	brcc	.+36     	; 0x6b2e <MapSprite+0x64>
    6b0a:	a7 01       	movw	r20, r14
    6b0c:	42 0f       	add	r20, r18
    6b0e:	53 1f       	adc	r21, r19
    6b10:	fb 01       	movw	r30, r22
    6b12:	e4 0f       	add	r30, r20
    6b14:	f5 1f       	adc	r31, r21
		
			 	tile=pgm_read_byte(&(map[(dy*mapWidth)+dx+2]));		
    6b16:	44 91       	lpm	r20, Z
				sprites[startSprite++].tileIndex=tile ;
    6b18:	f4 e0       	ldi	r31, 0x04	; 4
    6b1a:	af 9f       	mul	r26, r31
    6b1c:	d0 01       	movw	r26, r0
    6b1e:	11 24       	eor	r1, r1
    6b20:	a8 59       	subi	r26, 0x98	; 152
    6b22:	bb 4f       	sbci	r27, 0xFB	; 251
    6b24:	12 96       	adiw	r26, 0x02	; 2
    6b26:	4c 93       	st	X, r20
    6b28:	2f 5f       	subi	r18, 0xFF	; 255
    6b2a:	3f 4f       	sbci	r19, 0xFF	; 255
    6b2c:	ea cf       	rjmp	.-44     	; 0x6b02 <MapSprite+0x38>
	void MapSprite(unsigned char startSprite,const char *map){
		unsigned char tile;
		unsigned char mapWidth=pgm_read_byte(&(map[0]));
		unsigned char mapHeight=pgm_read_byte(&(map[1]));

		for(unsigned char dy=0;dy<mapHeight;dy++){
    6b2e:	d3 94       	inc	r13
    6b30:	c0 0f       	add	r28, r16
    6b32:	d1 1f       	adc	r29, r17
    6b34:	dc cf       	rjmp	.-72     	; 0x6aee <MapSprite+0x24>
			 	tile=pgm_read_byte(&(map[(dy*mapWidth)+dx+2]));		
				sprites[startSprite++].tileIndex=tile ;
			}
		}

	}
    6b36:	df 91       	pop	r29
    6b38:	cf 91       	pop	r28
    6b3a:	1f 91       	pop	r17
    6b3c:	0f 91       	pop	r16
    6b3e:	ff 90       	pop	r15
    6b40:	ef 90       	pop	r14
    6b42:	df 90       	pop	r13
    6b44:	cf 90       	pop	r12
    6b46:	bf 90       	pop	r11
    6b48:	08 95       	ret

00006b4a <MoveSprite>:
			x=(spriteFlags & SPRITE_FLIP_X)?(mapWidth-1):0;
	    }
	}


	void MoveSprite(unsigned char startSprite,unsigned char x,unsigned char y,unsigned char width,unsigned char height){
    6b4a:	0f 93       	push	r16
    6b4c:	cf 93       	push	r28
    6b4e:	50 e0       	ldi	r21, 0x00	; 0

		for(unsigned char dy=0;dy<height;dy++){
    6b50:	30 e0       	ldi	r19, 0x00	; 0
    6b52:	30 17       	cp	r19, r16
    6b54:	e1 f0       	breq	.+56     	; 0x6b8e <MoveSprite+0x44>
    6b56:	b4 2f       	mov	r27, r20
    6b58:	a0 e2       	ldi	r26, 0x20	; 32
    6b5a:	a4 0f       	add	r26, r20
    6b5c:	78 2f       	mov	r23, r24
    6b5e:	72 0f       	add	r23, r18
    6b60:	96 2f       	mov	r25, r22
			for(unsigned char dx=0;dx<width;dx++){
    6b62:	87 17       	cp	r24, r23
    6b64:	81 f0       	breq	.+32     	; 0x6b86 <MoveSprite+0x3c>
			
				sprites[startSprite].x=x+(TILE_WIDTH*dx);
    6b66:	c4 e0       	ldi	r28, 0x04	; 4
    6b68:	8c 9f       	mul	r24, r28
    6b6a:	f0 01       	movw	r30, r0
    6b6c:	11 24       	eor	r1, r1
    6b6e:	e8 59       	subi	r30, 0x98	; 152
    6b70:	fb 4f       	sbci	r31, 0xFB	; 251
    6b72:	90 83       	st	Z, r25
						sprites[startSprite].y=tmp;
					}else{
						sprites[startSprite].y=y+(TILE_HEIGHT*dy);
					}
				#else
					if((VRAM_TILES_V<32) && (y+(TILE_HEIGHT*dy))>(VRAM_TILES_V*TILE_HEIGHT)){
    6b74:	41 3e       	cpi	r20, 0xE1	; 225
    6b76:	51 05       	cpc	r21, r1
    6b78:	14 f0       	brlt	.+4      	; 0x6b7e <MoveSprite+0x34>
						unsigned char tmp=(y+(TILE_HEIGHT*dy))-(VRAM_TILES_V*TILE_HEIGHT);
						sprites[startSprite].y=tmp;
    6b7a:	a1 83       	std	Z+1, r26	; 0x01
    6b7c:	01 c0       	rjmp	.+2      	; 0x6b80 <MoveSprite+0x36>
					}else{
						sprites[startSprite].y=y+(TILE_HEIGHT*dy);
    6b7e:	b1 83       	std	Z+1, r27	; 0x01
					}
				#endif

				startSprite++;
    6b80:	8f 5f       	subi	r24, 0xFF	; 255
    6b82:	98 5f       	subi	r25, 0xF8	; 248
    6b84:	ee cf       	rjmp	.-36     	; 0x6b62 <MoveSprite+0x18>
	}


	void MoveSprite(unsigned char startSprite,unsigned char x,unsigned char y,unsigned char width,unsigned char height){

		for(unsigned char dy=0;dy<height;dy++){
    6b86:	3f 5f       	subi	r19, 0xFF	; 255
    6b88:	48 5f       	subi	r20, 0xF8	; 248
    6b8a:	5f 4f       	sbci	r21, 0xFF	; 255
    6b8c:	e2 cf       	rjmp	.-60     	; 0x6b52 <MoveSprite+0x8>

				startSprite++;
			}
		}	

	}
    6b8e:	cf 91       	pop	r28
    6b90:	0f 91       	pop	r16
    6b92:	08 95       	ret

00006b94 <InitializeVideoMode>:
		#endif	
	}


	//Callback invoked by UzeboxCore.Initialize()
	void InitializeVideoMode(){
    6b94:	e8 e6       	ldi	r30, 0x68	; 104
    6b96:	f4 e0       	ldi	r31, 0x04	; 4

		//disable sprites
		for(int i=0;i<MAX_SPRITES;i++){
			sprites[i].x=(SCREEN_TILES_H*TILE_WIDTH);		
    6b98:	80 ef       	ldi	r24, 0xF0	; 240
    6b9a:	80 83       	st	Z, r24
    6b9c:	34 96       	adiw	r30, 0x04	; 4

	//Callback invoked by UzeboxCore.Initialize()
	void InitializeVideoMode(){

		//disable sprites
		for(int i=0;i<MAX_SPRITES;i++){
    6b9e:	94 e0       	ldi	r25, 0x04	; 4
    6ba0:	e4 38       	cpi	r30, 0x84	; 132
    6ba2:	f9 07       	cpc	r31, r25
    6ba4:	d1 f7       	brne	.-12     	; 0x6b9a <InitializeVideoMode+0x6>
			screenSections[i].wrapLine=0;
			screenSections[i].flags=SCT_PRIORITY_SPR;
		}
		*/

	}
    6ba6:	08 95       	ret

00006ba8 <DrawMap2>:



//Draws a map of tile at the specified position

void DrawMap2(unsigned char x,unsigned char y,const char *map){
    6ba8:	4f 92       	push	r4
    6baa:	5f 92       	push	r5
    6bac:	6f 92       	push	r6
    6bae:	7f 92       	push	r7
    6bb0:	8f 92       	push	r8
    6bb2:	9f 92       	push	r9
    6bb4:	af 92       	push	r10
    6bb6:	bf 92       	push	r11
    6bb8:	cf 92       	push	r12
    6bba:	df 92       	push	r13
    6bbc:	ef 92       	push	r14
    6bbe:	ff 92       	push	r15
    6bc0:	0f 93       	push	r16
    6bc2:	1f 93       	push	r17
    6bc4:	cf 93       	push	r28
    6bc6:	df 93       	push	r29
    6bc8:	68 2e       	mov	r6, r24
    6bca:	56 2e       	mov	r5, r22
    6bcc:	7a 01       	movw	r14, r20
	//unsigned char i;
	u8 mapWidth=pgm_read_byte(&(map[0]));
    6bce:	fa 01       	movw	r30, r20
    6bd0:	74 90       	lpm	r7, Z
	u8 mapHeight=pgm_read_byte(&(map[1]));
    6bd2:	31 96       	adiw	r30, 0x01	; 1
    6bd4:	84 90       	lpm	r8, Z
    6bd6:	c7 2c       	mov	r12, r7
    6bd8:	d1 2c       	mov	r13, r1
	for(u8 dy=0;dy<mapHeight;dy++){
    6bda:	00 e0       	ldi	r16, 0x00	; 0
    6bdc:	10 e0       	ldi	r17, 0x00	; 0
    6bde:	91 2c       	mov	r9, r1
    6be0:	98 14       	cp	r9, r8
    6be2:	f1 f0       	breq	.+60     	; 0x6c20 <DrawMap2+0x78>
    6be4:	c0 e0       	ldi	r28, 0x00	; 0
    6be6:	d0 e0       	ldi	r29, 0x00	; 0
    6be8:	58 01       	movw	r10, r16
    6bea:	f2 e0       	ldi	r31, 0x02	; 2
    6bec:	af 0e       	add	r10, r31
    6bee:	b1 1c       	adc	r11, r1
    6bf0:	49 2c       	mov	r4, r9
    6bf2:	45 0c       	add	r4, r5
		for(u8 dx=0;dx<mapWidth;dx++){			
    6bf4:	c7 15       	cp	r28, r7
    6bf6:	80 f4       	brcc	.+32     	; 0x6c18 <DrawMap2+0x70>
    6bf8:	95 01       	movw	r18, r10
    6bfa:	2c 0f       	add	r18, r28
    6bfc:	3d 1f       	adc	r19, r29
    6bfe:	f7 01       	movw	r30, r14
    6c00:	e2 0f       	add	r30, r18
    6c02:	f3 1f       	adc	r31, r19
			SetTile(x+dx,y+dy,pgm_read_byte(&(map[(dy*mapWidth)+dx+2])));					
    6c04:	24 91       	lpm	r18, Z
    6c06:	42 2f       	mov	r20, r18
    6c08:	50 e0       	ldi	r21, 0x00	; 0
    6c0a:	64 2d       	mov	r22, r4
    6c0c:	8c 2f       	mov	r24, r28
    6c0e:	86 0d       	add	r24, r6
    6c10:	0e 94 56 29 	call	0x52ac	; 0x52ac <SetTile>
    6c14:	21 96       	adiw	r28, 0x01	; 1
    6c16:	ee cf       	rjmp	.-36     	; 0x6bf4 <DrawMap2+0x4c>

void DrawMap2(unsigned char x,unsigned char y,const char *map){
	//unsigned char i;
	u8 mapWidth=pgm_read_byte(&(map[0]));
	u8 mapHeight=pgm_read_byte(&(map[1]));
	for(u8 dy=0;dy<mapHeight;dy++){
    6c18:	93 94       	inc	r9
    6c1a:	0c 0d       	add	r16, r12
    6c1c:	1d 1d       	adc	r17, r13
    6c1e:	e0 cf       	rjmp	.-64     	; 0x6be0 <DrawMap2+0x38>
		for(u8 dx=0;dx<mapWidth;dx++){			
			SetTile(x+dx,y+dy,pgm_read_byte(&(map[(dy*mapWidth)+dx+2])));					
		}
	}

}
    6c20:	df 91       	pop	r29
    6c22:	cf 91       	pop	r28
    6c24:	1f 91       	pop	r17
    6c26:	0f 91       	pop	r16
    6c28:	ff 90       	pop	r15
    6c2a:	ef 90       	pop	r14
    6c2c:	df 90       	pop	r13
    6c2e:	cf 90       	pop	r12
    6c30:	bf 90       	pop	r11
    6c32:	af 90       	pop	r10
    6c34:	9f 90       	pop	r9
    6c36:	8f 90       	pop	r8
    6c38:	7f 90       	pop	r7
    6c3a:	6f 90       	pop	r6
    6c3c:	5f 90       	pop	r5
    6c3e:	4f 90       	pop	r4
    6c40:	08 95       	ret

00006c42 <Print>:
	PrintHexByte(x+4,y, value>>8);
	PrintHexByte(x+6,y,value&0xff);
}

//Print a string from flash
void Print(int x,int y,const char *string){
    6c42:	0f 93       	push	r16
    6c44:	1f 93       	push	r17
    6c46:	cf 93       	push	r28
    6c48:	df 93       	push	r29
    6c4a:	06 2f       	mov	r16, r22
    6c4c:	c4 2f       	mov	r28, r20
    6c4e:	d5 2f       	mov	r29, r21
    6c50:	18 2f       	mov	r17, r24
    6c52:	14 1b       	sub	r17, r20

	int i=0;
	char c;

	while(1){
		c=pgm_read_byte(&(string[i++]));		
    6c54:	fe 01       	movw	r30, r28
    6c56:	44 91       	lpm	r20, Z
		if(c!=0){
    6c58:	44 23       	and	r20, r20
    6c5a:	49 f0       	breq	.+18     	; 0x6c6e <Print+0x2c>
			c=((c&127)-32);			
    6c5c:	4f 77       	andi	r20, 0x7F	; 127
    6c5e:	40 52       	subi	r20, 0x20	; 32
			SetFont(x++,y,c);
    6c60:	60 2f       	mov	r22, r16
    6c62:	8c 2f       	mov	r24, r28
    6c64:	81 0f       	add	r24, r17
    6c66:	0e 94 52 29 	call	0x52a4	; 0x52a4 <SetFont>
    6c6a:	21 96       	adiw	r28, 0x01	; 1
		}else{
			break;
		}
	}
    6c6c:	f3 cf       	rjmp	.-26     	; 0x6c54 <Print+0x12>
	
}
    6c6e:	df 91       	pop	r29
    6c70:	cf 91       	pop	r28
    6c72:	1f 91       	pop	r17
    6c74:	0f 91       	pop	r16
    6c76:	08 95       	ret

00006c78 <WaitVsync>:
		}
	}
}

//Wait for the beginning of next frame (60hz)
void WaitVsync(int count){
    6c78:	0f 93       	push	r16
    6c7a:	1f 93       	push	r17
    6c7c:	cf 93       	push	r28
    6c7e:	df 93       	push	r29
    6c80:	8c 01       	movw	r16, r24
	int i;
	//ClearVsyncFlag();
	for(i=0;i<count;i++){
    6c82:	c0 e0       	ldi	r28, 0x00	; 0
    6c84:	d0 e0       	ldi	r29, 0x00	; 0
    6c86:	c0 17       	cp	r28, r16
    6c88:	d1 07       	cpc	r29, r17
    6c8a:	44 f4       	brge	.+16     	; 0x6c9c <WaitVsync+0x24>
		while(!GetVsyncFlag());
    6c8c:	0e 94 6c 29 	call	0x52d8	; 0x52d8 <GetVsyncFlag>
    6c90:	88 23       	and	r24, r24
    6c92:	e1 f3       	breq	.-8      	; 0x6c8c <WaitVsync+0x14>
		ClearVsyncFlag();		
    6c94:	0e 94 70 29 	call	0x52e0	; 0x52e0 <ClearVsyncFlag>

//Wait for the beginning of next frame (60hz)
void WaitVsync(int count){
	int i;
	//ClearVsyncFlag();
	for(i=0;i<count;i++){
    6c98:	21 96       	adiw	r28, 0x01	; 1
    6c9a:	f5 cf       	rjmp	.-22     	; 0x6c86 <WaitVsync+0xe>
		while(!GetVsyncFlag());
		ClearVsyncFlag();		
	}
}
    6c9c:	df 91       	pop	r29
    6c9e:	cf 91       	pop	r28
    6ca0:	1f 91       	pop	r17
    6ca2:	0f 91       	pop	r16
    6ca4:	08 95       	ret

00006ca6 <DisplayLogo>:
	void DisplayLogo(){
	
		#if INTRO_LOGO !=0
			#define LOGO_X_POS 12
			
			InitMusicPlayer(logoInitPatches);
    6ca6:	8b e0       	ldi	r24, 0x0B	; 11
    6ca8:	99 e0       	ldi	r25, 0x09	; 9
    6caa:	0e 94 97 2a 	call	0x552e	; 0x552e <InitMusicPlayer>
			SetTileTable(logo_tileset);
    6cae:	8b e0       	ldi	r24, 0x0B	; 11
    6cb0:	91 e0       	ldi	r25, 0x01	; 1
    6cb2:	0e 94 67 29 	call	0x52ce	; 0x52ce <SetTileTable>
			
			//draw logo
			ClearVram();
    6cb6:	0e 94 48 29 	call	0x5290	; 0x5290 <ClearVram>
			WaitVsync(15);		
    6cba:	8f e0       	ldi	r24, 0x0F	; 15
    6cbc:	90 e0       	ldi	r25, 0x00	; 0
    6cbe:	0e 94 3c 36 	call	0x6c78	; 0x6c78 <WaitVsync>

			#if INTRO_LOGO == 1 
				TriggerFx(0,0xff,true);
			#endif

			DrawMap2(LOGO_X_POS,12,map_uzeboxlogo);
    6cc2:	45 ef       	ldi	r20, 0xF5	; 245
    6cc4:	50 e0       	ldi	r21, 0x00	; 0
    6cc6:	6c e0       	ldi	r22, 0x0C	; 12
    6cc8:	8c e0       	ldi	r24, 0x0C	; 12
    6cca:	0e 94 d4 35 	call	0x6ba8	; 0x6ba8 <DrawMap2>
			WaitVsync(3);
    6cce:	83 e0       	ldi	r24, 0x03	; 3
    6cd0:	90 e0       	ldi	r25, 0x00	; 0
    6cd2:	0e 94 3c 36 	call	0x6c78	; 0x6c78 <WaitVsync>
			DrawMap2(LOGO_X_POS,12,map_uzeboxlogo2);
    6cd6:	44 ee       	ldi	r20, 0xE4	; 228
    6cd8:	50 e0       	ldi	r21, 0x00	; 0
    6cda:	6c e0       	ldi	r22, 0x0C	; 12
    6cdc:	8c e0       	ldi	r24, 0x0C	; 12
    6cde:	0e 94 d4 35 	call	0x6ba8	; 0x6ba8 <DrawMap2>
			WaitVsync(2);
    6ce2:	82 e0       	ldi	r24, 0x02	; 2
    6ce4:	90 e0       	ldi	r25, 0x00	; 0
    6ce6:	0e 94 3c 36 	call	0x6c78	; 0x6c78 <WaitVsync>
			DrawMap2(LOGO_X_POS,12,map_uzeboxlogo);
    6cea:	45 ef       	ldi	r20, 0xF5	; 245
    6cec:	50 e0       	ldi	r21, 0x00	; 0
    6cee:	6c e0       	ldi	r22, 0x0C	; 12
    6cf0:	8c e0       	ldi	r24, 0x0C	; 12
    6cf2:	0e 94 d4 35 	call	0x6ba8	; 0x6ba8 <DrawMap2>

			#if INTRO_LOGO == 2
				SetMasterVolume(0xc0);
    6cf6:	80 ec       	ldi	r24, 0xC0	; 192
    6cf8:	0e 94 de 2d 	call	0x5bbc	; 0x5bbc <SetMasterVolume>
				TriggerNote(3,0,16,0xff);
    6cfc:	2f ef       	ldi	r18, 0xFF	; 255
    6cfe:	40 e1       	ldi	r20, 0x10	; 16
    6d00:	60 e0       	ldi	r22, 0x00	; 0
    6d02:	83 e0       	ldi	r24, 0x03	; 3
    6d04:	0e 94 80 2b 	call	0x5700	; 0x5700 <TriggerNote>
			#endif 
		
			WaitVsync(65);
    6d08:	81 e4       	ldi	r24, 0x41	; 65
    6d0a:	90 e0       	ldi	r25, 0x00	; 0
    6d0c:	0e 94 3c 36 	call	0x6c78	; 0x6c78 <WaitVsync>
			ClearVram();
    6d10:	0e 94 48 29 	call	0x5290	; 0x5290 <ClearVram>
			WaitVsync(20);
    6d14:	84 e1       	ldi	r24, 0x14	; 20
    6d16:	90 e0       	ldi	r25, 0x00	; 0
    6d18:	0c 94 3c 36 	jmp	0x6c78	; 0x6c78 <WaitVsync>

00006d1c <doFade>:
char fadeDir;
bool volatile fadeActive;


void doFade(unsigned char speed,bool blocking){
	fadeSpeed=speed;
    6d1c:	80 93 f7 0a 	sts	0x0AF7, r24
	currFadeFrame=0;
    6d20:	10 92 fb 0a 	sts	0x0AFB, r1
	fadeActive=true;
    6d24:	81 e0       	ldi	r24, 0x01	; 1
    6d26:	80 93 fa 0a 	sts	0x0AFA, r24
		
	if(blocking){
    6d2a:	66 23       	and	r22, r22
    6d2c:	21 f0       	breq	.+8      	; 0x6d36 <doFade+0x1a>
		while(fadeActive==true);
    6d2e:	80 91 fa 0a 	lds	r24, 0x0AFA
    6d32:	81 11       	cpse	r24, r1
    6d34:	fc cf       	rjmp	.-8      	; 0x6d2e <doFade+0x12>
    6d36:	08 95       	ret

00006d38 <FadeIn>:
	
	
}

void FadeIn(unsigned char speed,bool blocking){
	if(speed==0){
    6d38:	81 11       	cpse	r24, r1
    6d3a:	03 c0       	rjmp	.+6      	; 0x6d42 <FadeIn+0xa>
		DDRC=0xff;
    6d3c:	8f ef       	ldi	r24, 0xFF	; 255
    6d3e:	87 b9       	out	0x07, r24	; 7
		return;
    6d40:	08 95       	ret
	}
	fadeStep=1;
    6d42:	91 e0       	ldi	r25, 0x01	; 1
    6d44:	90 93 fc 0a 	sts	0x0AFC, r25
	fadeDir=1;
    6d48:	90 93 f8 0a 	sts	0x0AF8, r25
	doFade(speed,blocking);
    6d4c:	0c 94 8e 36 	jmp	0x6d1c	; 0x6d1c <doFade>

00006d50 <ProcessFading>:
}


//called by the kernel at each field end
void ProcessFading(){
	if(fadeActive==true){
    6d50:	80 91 fa 0a 	lds	r24, 0x0AFA
    6d54:	88 23       	and	r24, r24
    6d56:	01 f1       	breq	.+64     	; 0x6d98 <ProcessFading+0x48>
		if(currFadeFrame==0){
    6d58:	80 91 fb 0a 	lds	r24, 0x0AFB
    6d5c:	81 11       	cpse	r24, r1
    6d5e:	19 c0       	rjmp	.+50     	; 0x6d92 <ProcessFading+0x42>
			currFadeFrame=fadeSpeed;
    6d60:	80 91 f7 0a 	lds	r24, 0x0AF7
    6d64:	80 93 fb 0a 	sts	0x0AFB, r24
			DDRC = pgm_read_byte(&(fader[fadeStep-1]));
    6d68:	e0 91 fc 0a 	lds	r30, 0x0AFC
    6d6c:	f0 e0       	ldi	r31, 0x00	; 0
    6d6e:	e9 52       	subi	r30, 0x29	; 41
    6d70:	ff 4f       	sbci	r31, 0xFF	; 255
    6d72:	e4 91       	lpm	r30, Z
    6d74:	e7 b9       	out	0x07, r30	; 7
			fadeStep+=fadeDir;
    6d76:	90 91 f8 0a 	lds	r25, 0x0AF8
    6d7a:	80 91 fc 0a 	lds	r24, 0x0AFC
    6d7e:	89 0f       	add	r24, r25
    6d80:	80 93 fc 0a 	sts	0x0AFC, r24
			if(fadeStep==0 || fadeStep==(FADER_STEPS+1)){
    6d84:	88 23       	and	r24, r24
    6d86:	11 f0       	breq	.+4      	; 0x6d8c <ProcessFading+0x3c>
    6d88:	8d 30       	cpi	r24, 0x0D	; 13
    6d8a:	31 f4       	brne	.+12     	; 0x6d98 <ProcessFading+0x48>
				fadeActive=false;
    6d8c:	10 92 fa 0a 	sts	0x0AFA, r1
    6d90:	08 95       	ret
			}
		}else{
			currFadeFrame--;
    6d92:	81 50       	subi	r24, 0x01	; 1
    6d94:	80 93 fb 0a 	sts	0x0AFB, r24
    6d98:	08 95       	ret

00006d9a <VideoModeVsync>:
	}

	//Callback invoked during hsync
	void VideoModeVsync(){
		
		ProcessFading();
    6d9a:	0e 94 a8 36 	call	0x6d50	; 0x6d50 <ProcessFading>
		ProcessSprites();
    6d9e:	0c 94 91 34 	jmp	0x6922	; 0x6922 <ProcessSprites>

00006da2 <update_splash>:

void update_splash()
/*
 * Splash or title screen
 */
{
    6da2:	0f 93       	push	r16
	MapSprite(0, map_ball);
    6da4:	64 e5       	ldi	r22, 0x54	; 84
    6da6:	79 e1       	ldi	r23, 0x19	; 25
    6da8:	80 e0       	ldi	r24, 0x00	; 0
    6daa:	0e 94 65 35 	call	0x6aca	; 0x6aca <MapSprite>
	MoveSprite(0, 7*8, 13*8, 1, 1);
    6dae:	01 e0       	ldi	r16, 0x01	; 1
    6db0:	21 e0       	ldi	r18, 0x01	; 1
    6db2:	48 e6       	ldi	r20, 0x68	; 104
    6db4:	68 e3       	ldi	r22, 0x38	; 56
    6db6:	80 e0       	ldi	r24, 0x00	; 0
    6db8:	0e 94 a5 35 	call	0x6b4a	; 0x6b4a <MoveSprite>
	Print(8, 13, str1Player);
    6dbc:	41 e2       	ldi	r20, 0x21	; 33
    6dbe:	59 e1       	ldi	r21, 0x19	; 25
    6dc0:	6d e0       	ldi	r22, 0x0D	; 13
    6dc2:	70 e0       	ldi	r23, 0x00	; 0
    6dc4:	88 e0       	ldi	r24, 0x08	; 8
    6dc6:	90 e0       	ldi	r25, 0x00	; 0
    6dc8:	0e 94 21 36 	call	0x6c42	; 0x6c42 <Print>
	Print(8, 14, str2Player);
    6dcc:	40 e1       	ldi	r20, 0x10	; 16
    6dce:	59 e1       	ldi	r21, 0x19	; 25
    6dd0:	6e e0       	ldi	r22, 0x0E	; 14
    6dd2:	70 e0       	ldi	r23, 0x00	; 0
    6dd4:	88 e0       	ldi	r24, 0x08	; 8
    6dd6:	90 e0       	ldi	r25, 0x00	; 0
    6dd8:	0e 94 21 36 	call	0x6c42	; 0x6c42 <Print>
	Print(8, 15, strHighscores);
    6ddc:	46 e0       	ldi	r20, 0x06	; 6
    6dde:	59 e1       	ldi	r21, 0x19	; 25
    6de0:	6f e0       	ldi	r22, 0x0F	; 15
    6de2:	70 e0       	ldi	r23, 0x00	; 0
    6de4:	88 e0       	ldi	r24, 0x08	; 8
    6de6:	90 e0       	ldi	r25, 0x00	; 0
    6de8:	0e 94 21 36 	call	0x6c42	; 0x6c42 <Print>
	Print(3, 26, strCopyright);
    6dec:	4f e2       	ldi	r20, 0x2F	; 47
    6dee:	59 e1       	ldi	r21, 0x19	; 25
    6df0:	6a e1       	ldi	r22, 0x1A	; 26
    6df2:	70 e0       	ldi	r23, 0x00	; 0
    6df4:	83 e0       	ldi	r24, 0x03	; 3
    6df6:	90 e0       	ldi	r25, 0x00	; 0
    6df8:	0e 94 21 36 	call	0x6c42	; 0x6c42 <Print>
	DrawMap2(4, 5, (const char*) map_splash);
    6dfc:	4d eb       	ldi	r20, 0xBD	; 189
    6dfe:	59 e1       	ldi	r21, 0x19	; 25
    6e00:	65 e0       	ldi	r22, 0x05	; 5
    6e02:	84 e0       	ldi	r24, 0x04	; 4
}
    6e04:	0f 91       	pop	r16
	MoveSprite(0, 7*8, 13*8, 1, 1);
	Print(8, 13, str1Player);
	Print(8, 14, str2Player);
	Print(8, 15, strHighscores);
	Print(3, 26, strCopyright);
	DrawMap2(4, 5, (const char*) map_splash);
    6e06:	0c 94 d4 35 	jmp	0x6ba8	; 0x6ba8 <DrawMap2>

00006e0a <main>:
}

int main()
{
	// Initialize
	SetTileTable(tiles_data);
    6e0a:	83 e1       	ldi	r24, 0x13	; 19
    6e0c:	96 e2       	ldi	r25, 0x26	; 38
    6e0e:	0e 94 67 29 	call	0x52ce	; 0x52ce <SetTileTable>
	SetSpritesTileTable(sprites_data);
    6e12:	83 e1       	ldi	r24, 0x13	; 19
    6e14:	9a e1       	ldi	r25, 0x1A	; 26
    6e16:	0e 94 43 29 	call	0x5286	; 0x5286 <SetSpritesTileTable>
	SetFontTilesIndex(TILES_DATA_SIZE);
    6e1a:	8f e2       	ldi	r24, 0x2F	; 47
    6e1c:	0e 94 64 29 	call	0x52c8	; 0x52c8 <SetFontTilesIndex>
	FadeIn(FRAMES_PER_FADE, false);
    6e20:	60 e0       	ldi	r22, 0x00	; 0
    6e22:	83 e0       	ldi	r24, 0x03	; 3
    6e24:	0e 94 9c 36 	call	0x6d38	; 0x6d38 <FadeIn>
Player player2;
Level level;

void resetGameState(Game* s)
{
	s->current_screen = SPLASH;
    6e28:	10 92 fd 0a 	sts	0x0AFD, r1
	s->current_level = 0;
    6e2c:	10 92 fe 0a 	sts	0x0AFE, r1
	s->level_count = LEVEL_COUNT;
    6e30:	81 e0       	ldi	r24, 0x01	; 1
    6e32:	80 93 ff 0a 	sts	0x0AFF, r24
	s->play_mode = PVP;
    6e36:	10 92 00 0b 	sts	0x0B00, r1
	FadeIn(FRAMES_PER_FADE, false);
	resetGameState(&game);

	while (1)
	{
		WaitVsync(1);
    6e3a:	81 e0       	ldi	r24, 0x01	; 1
    6e3c:	90 e0       	ldi	r25, 0x00	; 0
    6e3e:	0e 94 3c 36 	call	0x6c78	; 0x6c78 <WaitVsync>
		switch (game.current_screen)
    6e42:	80 91 fd 0a 	lds	r24, 0x0AFD
    6e46:	81 11       	cpse	r24, r1
    6e48:	f8 cf       	rjmp	.-16     	; 0x6e3a <main+0x30>
		{
			case SPLASH:
				update_splash();
    6e4a:	0e 94 d1 36 	call	0x6da2	; 0x6da2 <update_splash>
				break;
    6e4e:	f5 cf       	rjmp	.-22     	; 0x6e3a <main+0x30>

00006e50 <__udivmodhi4>:
    6e50:	aa 1b       	sub	r26, r26
    6e52:	bb 1b       	sub	r27, r27
    6e54:	51 e1       	ldi	r21, 0x11	; 17
    6e56:	07 c0       	rjmp	.+14     	; 0x6e66 <__udivmodhi4_ep>

00006e58 <__udivmodhi4_loop>:
    6e58:	aa 1f       	adc	r26, r26
    6e5a:	bb 1f       	adc	r27, r27
    6e5c:	a6 17       	cp	r26, r22
    6e5e:	b7 07       	cpc	r27, r23
    6e60:	10 f0       	brcs	.+4      	; 0x6e66 <__udivmodhi4_ep>
    6e62:	a6 1b       	sub	r26, r22
    6e64:	b7 0b       	sbc	r27, r23

00006e66 <__udivmodhi4_ep>:
    6e66:	88 1f       	adc	r24, r24
    6e68:	99 1f       	adc	r25, r25
    6e6a:	5a 95       	dec	r21
    6e6c:	a9 f7       	brne	.-22     	; 0x6e58 <__udivmodhi4_loop>
    6e6e:	80 95       	com	r24
    6e70:	90 95       	com	r25
    6e72:	bc 01       	movw	r22, r24
    6e74:	cd 01       	movw	r24, r26
    6e76:	08 95       	ret

00006e78 <__divmodhi4>:
    6e78:	97 fb       	bst	r25, 7
    6e7a:	07 2e       	mov	r0, r23
    6e7c:	16 f4       	brtc	.+4      	; 0x6e82 <__divmodhi4+0xa>
    6e7e:	00 94       	com	r0
    6e80:	07 d0       	rcall	.+14     	; 0x6e90 <__divmodhi4_neg1>
    6e82:	77 fd       	sbrc	r23, 7
    6e84:	09 d0       	rcall	.+18     	; 0x6e98 <__divmodhi4_neg2>
    6e86:	0e 94 28 37 	call	0x6e50	; 0x6e50 <__udivmodhi4>
    6e8a:	07 fc       	sbrc	r0, 7
    6e8c:	05 d0       	rcall	.+10     	; 0x6e98 <__divmodhi4_neg2>
    6e8e:	3e f4       	brtc	.+14     	; 0x6e9e <__divmodhi4_exit>

00006e90 <__divmodhi4_neg1>:
    6e90:	90 95       	com	r25
    6e92:	81 95       	neg	r24
    6e94:	9f 4f       	sbci	r25, 0xFF	; 255
    6e96:	08 95       	ret

00006e98 <__divmodhi4_neg2>:
    6e98:	70 95       	com	r23
    6e9a:	61 95       	neg	r22
    6e9c:	7f 4f       	sbci	r23, 0xFF	; 255

00006e9e <__divmodhi4_exit>:
    6e9e:	08 95       	ret

00006ea0 <_exit>:
    6ea0:	f8 94       	cli

00006ea2 <__stop_program>:
    6ea2:	ff cf       	rjmp	.-2      	; 0x6ea2 <__stop_program>
